---
triple:          'x86_64-apple-darwin'
binary-path:     prog
relocations:
  - { offsetInCU: 0x51C1, offset: 0x51C1, size: 0x8, addend: 0x0, symName: __ZNSt3__17advanceB7v160006IPNS_10unique_ptrI15EnemyGameEntityNS_14default_deleteIS2_EEEEllvEEvRT_T0_, symObjAddr: 0x2C50, symBinAddr: 0x1000032C0, symSize: 0x50 }
  - { offsetInCU: 0x5441, offset: 0x5441, size: 0x8, addend: 0x0, symName: __ZNSt3__17advanceB7v160006INS_16reverse_iteratorIPNS_10unique_ptrI15EnemyGameEntityNS_14default_deleteIS3_EEEEEEllvEEvRT_T0_, symObjAddr: 0x3050, symBinAddr: 0x1000036C0, symSize: 0x50 }
  - { offsetInCU: 0x67C8, offset: 0x67C8, size: 0x8, addend: 0x0, symName: __ZNSt3__111make_uniqueB7v160006I15EnemyGameEntityJRP12SDL_RendererR6SpriteEEENS_11__unique_ifIT_E15__unique_singleEDpOT0_, symObjAddr: 0x540, symBinAddr: 0x100000BB0, symSize: 0xD0 }
  - { offsetInCU: 0x681E, offset: 0x681E, size: 0x8, addend: 0x0, symName: __ZNSt3__111make_uniqueB7v160006I16PlayerGameEntityJRP12SDL_RendererR6SpriteEEENS_11__unique_ifIT_E15__unique_singleEDpOT0_, symObjAddr: 0x690, symBinAddr: 0x100000D00, symSize: 0xD0 }
  - { offsetInCU: 0x6874, offset: 0x6874, size: 0x8, addend: 0x0, symName: __ZNSt3__119__debug_db_insert_cB7v160006INS_6vectorINS_10unique_ptrI15EnemyGameEntityNS_14default_deleteIS3_EEEENS_9allocatorIS6_EEEEEEvPT_, symObjAddr: 0x1040, symBinAddr: 0x1000016B0, symSize: 0x10 }
  - { offsetInCU: 0x68A5, offset: 0x68A5, size: 0x8, addend: 0x0, symName: __ZNSt3__118__debug_db_erase_cB7v160006INS_6vectorINS_10unique_ptrI15EnemyGameEntityNS_14default_deleteIS3_EEEENS_9allocatorIS6_EEEEEEvPT_, symObjAddr: 0x1390, symBinAddr: 0x100001A00, symSize: 0x10 }
  - { offsetInCU: 0x68D6, offset: 0x68D6, size: 0x8, addend: 0x0, symName: __ZNSt3__112__to_addressB7v160006INS_10unique_ptrI15EnemyGameEntityNS_14default_deleteIS2_EEEEEEPT_S7_, symObjAddr: 0x1480, symBinAddr: 0x100001AF0, symSize: 0x10 }
  - { offsetInCU: 0x690B, offset: 0x690B, size: 0x8, addend: 0x0, symName: __ZNSt3__110destroy_atB7v160006INS_10unique_ptrI15EnemyGameEntityNS_14default_deleteIS2_EEEELi0EEEvPT_, symObjAddr: 0x1530, symBinAddr: 0x100001BA0, symSize: 0x20 }
  - { offsetInCU: 0x6942, offset: 0x6942, size: 0x8, addend: 0x0, symName: __ZNSt3__112__destroy_atB7v160006INS_10unique_ptrI15EnemyGameEntityNS_14default_deleteIS2_EEEELi0EEEvPT_, symObjAddr: 0x1550, symBinAddr: 0x100001BC0, symSize: 0x20 }
  - { offsetInCU: 0x6979, offset: 0x6979, size: 0x8, addend: 0x0, symName: __ZNSt3__119__libcpp_deallocateB7v160006EPvmm, symObjAddr: 0x15B0, symBinAddr: 0x100001C20, symSize: 0x60 }
  - { offsetInCU: 0x69DE, offset: 0x69DE, size: 0x8, addend: 0x0, symName: __ZNSt3__124__is_overaligned_for_newB7v160006Em, symObjAddr: 0x1610, symBinAddr: 0x100001C80, symSize: 0x20 }
  - { offsetInCU: 0x6A0C, offset: 0x6A0C, size: 0x8, addend: 0x0, symName: __ZNSt3__127__do_deallocate_handle_sizeB7v160006IJSt11align_val_tEEEvPvmDpT_, symObjAddr: 0x1630, symBinAddr: 0x100001CA0, symSize: 0x30 }
  - { offsetInCU: 0x6A5F, offset: 0x6A5F, size: 0x8, addend: 0x0, symName: __ZNSt3__127__do_deallocate_handle_sizeB7v160006IJEEEvPvmDpT_, symObjAddr: 0x1660, symBinAddr: 0x100001CD0, symSize: 0x20 }
  - { offsetInCU: 0x6A9D, offset: 0x6A9D, size: 0x8, addend: 0x0, symName: __ZNSt3__124__libcpp_operator_deleteB7v160006IJPvSt11align_val_tEEEvDpT_, symObjAddr: 0x1680, symBinAddr: 0x100001CF0, symSize: 0x30 }
  - { offsetInCU: 0x6AE6, offset: 0x6AE6, size: 0x8, addend: 0x0, symName: __ZNSt3__124__libcpp_operator_deleteB7v160006IJPvEEEvDpT_, symObjAddr: 0x16B0, symBinAddr: 0x100001D20, symSize: 0x20 }
  - { offsetInCU: 0x6B1B, offset: 0x6B1B, size: 0x8, addend: 0x0, symName: __ZNSt3__119__debug_db_insert_cB7v160006INS_12basic_stringIcNS_11char_traitsIcEENS_9allocatorIcEEEEEEvPT_, symObjAddr: 0x1810, symBinAddr: 0x100001E80, symSize: 0x10 }
  - { offsetInCU: 0x6B4C, offset: 0x6B4C, size: 0x8, addend: 0x0, symName: __ZNSt3__118__constexpr_strlenB7v160006EPKc, symObjAddr: 0x18B0, symBinAddr: 0x100001F20, symSize: 0x20 }
  - { offsetInCU: 0x6B9D, offset: 0x6B9D, size: 0x8, addend: 0x0, symName: __ZNSt3__112construct_atB7v160006INS_10unique_ptrI15EnemyGameEntityNS_14default_deleteIS2_EEEEJS5_EPS5_EEPT_S8_DpOT0_, symObjAddr: 0x1B40, symBinAddr: 0x1000021B0, symSize: 0x40 }
  - { offsetInCU: 0x6C0D, offset: 0x6C0D, size: 0x8, addend: 0x0, symName: __ZNSt3__13maxB7v160006ImEERKT_S3_S3_, symObjAddr: 0x2040, symBinAddr: 0x1000026B0, symSize: 0x30 }
  - { offsetInCU: 0x6C50, offset: 0x6C50, size: 0x8, addend: 0x0, symName: __ZNSt3__13minB7v160006ImEERKT_S3_S3_, symObjAddr: 0x2070, symBinAddr: 0x1000026E0, symSize: 0x30 }
  - { offsetInCU: 0x6E7D, offset: 0x6E7D, size: 0x8, addend: 0x0, symName: __ZNSt3__13minB7v160006ImNS_6__lessImmEEEERKT_S5_S5_T0_, symObjAddr: 0x20F0, symBinAddr: 0x100002760, symSize: 0x50 }
  - { offsetInCU: 0x70FE, offset: 0x70FE, size: 0x8, addend: 0x0, symName: __ZNSt3__120__throw_length_errorB7v160006EPKc, symObjAddr: 0x21D0, symBinAddr: 0x100002840, symSize: 0x70 }
  - { offsetInCU: 0x7126, offset: 0x7126, size: 0x8, addend: 0x0, symName: __ZNSt3__13maxB7v160006ImNS_6__lessImmEEEERKT_S5_S5_T0_, symObjAddr: 0x22B0, symBinAddr: 0x100002920, symSize: 0x50 }
  - { offsetInCU: 0x7180, offset: 0x7180, size: 0x8, addend: 0x0, symName: __ZNSt3__119__allocate_at_leastB7v160006INS_9allocatorINS_10unique_ptrI15EnemyGameEntityNS_14default_deleteIS3_EEEEEEEENS_19__allocation_resultINS_16allocator_traitsIT_E7pointerEEERSA_m, symObjAddr: 0x2400, symBinAddr: 0x100002A70, symSize: 0x40 }
  - { offsetInCU: 0x71C3, offset: 0x71C3, size: 0x8, addend: 0x0, symName: __ZNSt3__117__libcpp_allocateB7v160006Emm, symObjAddr: 0x2570, symBinAddr: 0x100002BE0, symSize: 0x60 }
  - { offsetInCU: 0x721D, offset: 0x721D, size: 0x8, addend: 0x0, symName: __ZNSt3__121__libcpp_operator_newB7v160006IJmSt11align_val_tEEEPvDpT_, symObjAddr: 0x25D0, symBinAddr: 0x100002C40, symSize: 0x30 }
  - { offsetInCU: 0x726A, offset: 0x726A, size: 0x8, addend: 0x0, symName: __ZNSt3__121__libcpp_operator_newB7v160006IJmEEEPvDpT_, symObjAddr: 0x2600, symBinAddr: 0x100002C70, symSize: 0x20 }
  - { offsetInCU: 0x72A3, offset: 0x72A3, size: 0x8, addend: 0x0, symName: __ZNSt3__142__uninitialized_allocator_move_if_noexceptB7v160006INS_9allocatorINS_10unique_ptrI15EnemyGameEntityNS_14default_deleteIS3_EEEEEENS_16reverse_iteratorIPS6_EESA_SA_EET2_RT_T0_T1_SB_, symObjAddr: 0x2680, symBinAddr: 0x100002CF0, symSize: 0x180 }
  - { offsetInCU: 0x7342, offset: 0x7342, size: 0x8, addend: 0x0, symName: __ZNSt3__14swapB7v160006IPNS_10unique_ptrI15EnemyGameEntityNS_14default_deleteIS2_EEEEEENS_9enable_ifIXaasr21is_move_constructibleIT_EE5valuesr18is_move_assignableIS8_EE5valueEvE4typeERS8_SB_, symObjAddr: 0x2850, symBinAddr: 0x100002EC0, symSize: 0x40 }
  - { offsetInCU: 0x7393, offset: 0x7393, size: 0x8, addend: 0x0, symName: __ZNSt3__125__debug_db_invalidate_allB7v160006INS_6vectorINS_10unique_ptrI15EnemyGameEntityNS_14default_deleteIS3_EEEENS_9allocatorIS6_EEEEEEvPT_, symObjAddr: 0x2940, symBinAddr: 0x100002FB0, symSize: 0x10 }
  - { offsetInCU: 0x73C4, offset: 0x73C4, size: 0x8, addend: 0x0, symName: __ZNSt3__122__make_exception_guardB7v160006INS_29_AllocatorDestroyRangeReverseINS_9allocatorINS_10unique_ptrI15EnemyGameEntityNS_14default_deleteIS4_EEEEEENS_16reverse_iteratorIPS7_EEEEEENS_28__exception_guard_exceptionsIT_EESE_, symObjAddr: 0x2950, symBinAddr: 0x100002FC0, symSize: 0x60 }
  - { offsetInCU: 0x73F9, offset: 0x73F9, size: 0x8, addend: 0x0, symName: __ZNSt3__1neB7v160006IPNS_10unique_ptrI15EnemyGameEntityNS_14default_deleteIS2_EEEES6_EEbRKNS_16reverse_iteratorIT_EERKNS7_IT0_EE, symObjAddr: 0x29F0, symBinAddr: 0x100003060, symSize: 0x40 }
  - { offsetInCU: 0x7445, offset: 0x7445, size: 0x8, addend: 0x0, symName: __ZNSt3__112__to_addressB7v160006INS_16reverse_iteratorIPNS_10unique_ptrI15EnemyGameEntityNS_14default_deleteIS3_EEEEEEvEENS_5decayIDTclsr19__to_address_helperIT_EE6__callclsr3stdE7declvalIRKSA_EEEEE4typeESC_, symObjAddr: 0x2A30, symBinAddr: 0x1000030A0, symSize: 0x20 }
  - { offsetInCU: 0x74A4, offset: 0x74A4, size: 0x8, addend: 0x0, symName: __ZNSt3__14prevB7v160006IPNS_10unique_ptrI15EnemyGameEntityNS_14default_deleteIS2_EEEEEENS_9enable_ifIXsr25__is_cpp17_input_iteratorIT_EE5valueES8_E4typeES8_NS_15iterator_traitsIS8_E15difference_typeE, symObjAddr: 0x2C00, symBinAddr: 0x100003270, symSize: 0x50 }
  - { offsetInCU: 0x74E7, offset: 0x74E7, size: 0x8, addend: 0x0, symName: __ZNSt3__121__convert_to_integralB7v160006El, symObjAddr: 0x2CA0, symBinAddr: 0x100003310, symSize: 0x10 }
  - { offsetInCU: 0x7513, offset: 0x7513, size: 0x8, addend: 0x0, symName: __ZNSt3__19__advanceB7v160006IPNS_10unique_ptrI15EnemyGameEntityNS_14default_deleteIS2_EEEEEEvRT_NS_15iterator_traitsIS7_E15difference_typeENS_26random_access_iterator_tagE, symObjAddr: 0x2CB0, symBinAddr: 0x100003320, symSize: 0x20 }
  - { offsetInCU: 0x755C, offset: 0x755C, size: 0x8, addend: 0x0, symName: __ZNSt3__119__allocator_destroyB7v160006INS_9allocatorINS_10unique_ptrI15EnemyGameEntityNS_14default_deleteIS3_EEEEEENS_16reverse_iteratorINS8_IPS6_EEEESB_EEvRT_T0_T1_, symObjAddr: 0x2E00, symBinAddr: 0x100003470, symSize: 0x70 }
  - { offsetInCU: 0x75BF, offset: 0x75BF, size: 0x8, addend: 0x0, symName: __ZNSt3__1neB7v160006INS_16reverse_iteratorIPNS_10unique_ptrI15EnemyGameEntityNS_14default_deleteIS3_EEEEEES8_EEbRKNS1_IT_EERKNS1_IT0_EE, symObjAddr: 0x2EA0, symBinAddr: 0x100003510, symSize: 0x50 }
  - { offsetInCU: 0x760B, offset: 0x760B, size: 0x8, addend: 0x0, symName: __ZNSt3__112__to_addressB7v160006INS_16reverse_iteratorINS1_IPNS_10unique_ptrI15EnemyGameEntityNS_14default_deleteIS3_EEEEEEEEvEENS_5decayIDTclsr19__to_address_helperIT_EE6__callclsr3stdE7declvalIRKSB_EEEEE4typeESD_, symObjAddr: 0x2EF0, symBinAddr: 0x100003560, symSize: 0x20 }
  - { offsetInCU: 0x766A, offset: 0x766A, size: 0x8, addend: 0x0, symName: __ZNSt3__14prevB7v160006INS_16reverse_iteratorIPNS_10unique_ptrI15EnemyGameEntityNS_14default_deleteIS3_EEEEEEEENS_9enable_ifIXsr25__is_cpp17_input_iteratorIT_EE5valueESA_E4typeESA_NS_15iterator_traitsISA_E15difference_typeE, symObjAddr: 0x2FF0, symBinAddr: 0x100003660, symSize: 0x60 }
  - { offsetInCU: 0x76AD, offset: 0x76AD, size: 0x8, addend: 0x0, symName: __ZNSt3__19__advanceB7v160006INS_16reverse_iteratorIPNS_10unique_ptrI15EnemyGameEntityNS_14default_deleteIS3_EEEEEEEEvRT_NS_15iterator_traitsIS9_E15difference_typeENS_26random_access_iterator_tagE, symObjAddr: 0x30A0, symBinAddr: 0x100003710, symSize: 0x30 }
  - { offsetInCU: 0x76F6, offset: 0x76F6, size: 0x8, addend: 0x0, symName: __ZNSt3__134__libcpp_atomic_refcount_incrementB7v160006IlEET_RS1_, symObjAddr: 0x36A0, symBinAddr: 0x100003D10, symSize: 0x30 }
  - { offsetInCU: 0x772B, offset: 0x772B, size: 0x8, addend: 0x0, symName: __ZNSt3__134__libcpp_atomic_refcount_decrementB7v160006IlEET_RS1_, symObjAddr: 0x3A40, symBinAddr: 0x1000040B0, symSize: 0x30 }
  - { offsetInCU: 0x7B7B, offset: 0x7B7B, size: 0x8, addend: 0x0, symName: __ZSt28__throw_bad_array_new_lengthB7v160006v, symObjAddr: 0x2530, symBinAddr: 0x100002BA0, symSize: 0x40 }
  - { offsetInCU: 0x850A, offset: 0x850A, size: 0x8, addend: 0x0, symName: __ZNSt3__16vectorINS_10unique_ptrI15EnemyGameEntityNS_14default_deleteIS2_EEEENS_9allocatorIS5_EEE26__swap_out_circular_bufferERNS_14__split_bufferIS5_RS7_EE, symObjAddr: 0x1E70, symBinAddr: 0x1000024E0, symSize: 0x130 }
  - { offsetInCU: 0xA9E9, offset: 0xA9E9, size: 0x8, addend: 0x0, symName: __ZN11ApplicationC2EiPPc, symObjAddr: 0x0, symBinAddr: 0x100000670, symSize: 0x80 }
  - { offsetInCU: 0xAA30, offset: 0xAA30, size: 0x8, addend: 0x0, symName: __ZNSt3__16vectorINS_10unique_ptrI15EnemyGameEntityNS_14default_deleteIS2_EEEENS_9allocatorIS5_EEEC1B7v160006Ev, symObjAddr: 0x80, symBinAddr: 0x1000006F0, symSize: 0x20 }
  - { offsetInCU: 0xAA59, offset: 0xAA59, size: 0x8, addend: 0x0, symName: __ZNSt3__110unique_ptrI16PlayerGameEntityNS_14default_deleteIS1_EEEC1B7v160006ILb1EvEEv, symObjAddr: 0xA0, symBinAddr: 0x100000710, symSize: 0x20 }
  - { offsetInCU: 0xAA8D, offset: 0xAA8D, size: 0x8, addend: 0x0, symName: __ZN11Application7StartUpEv, symObjAddr: 0xC0, symBinAddr: 0x100000730, symSize: 0x330 }
  - { offsetInCU: 0xAB26, offset: 0xAB26, size: 0x8, addend: 0x0, symName: __ZNSt3__110unique_ptrI16PlayerGameEntityNS_14default_deleteIS1_EEED1B7v160006Ev, symObjAddr: 0x3F0, symBinAddr: 0x100000A60, symSize: 0x20 }
  - { offsetInCU: 0xAB4F, offset: 0xAB4F, size: 0x8, addend: 0x0, symName: __ZNSt3__16vectorINS_10unique_ptrI15EnemyGameEntityNS_14default_deleteIS2_EEEENS_9allocatorIS5_EEED1B7v160006Ev, symObjAddr: 0x410, symBinAddr: 0x100000A80, symSize: 0x20 }
  - { offsetInCU: 0xAB78, offset: 0xAB78, size: 0x8, addend: 0x0, symName: __ZN11ApplicationC1EiPPc, symObjAddr: 0x430, symBinAddr: 0x100000AA0, symSize: 0x30 }
  - { offsetInCU: 0xABBF, offset: 0xABBF, size: 0x8, addend: 0x0, symName: __ZN11ApplicationD2Ev, symObjAddr: 0x460, symBinAddr: 0x100000AD0, symSize: 0x50 }
  - { offsetInCU: 0xABEA, offset: 0xABEA, size: 0x8, addend: 0x0, symName: __ZN11Application8ShutdownEv, symObjAddr: 0x4B0, symBinAddr: 0x100000B20, symSize: 0x30 }
  - { offsetInCU: 0xAC11, offset: 0xAC11, size: 0x8, addend: 0x0, symName: __ZN11ApplicationD1Ev, symObjAddr: 0x4F0, symBinAddr: 0x100000B60, symSize: 0x20 }
  - { offsetInCU: 0xAC41, offset: 0xAC41, size: 0x8, addend: 0x0, symName: __ZNSt3__112basic_stringIcNS_11char_traitsIcEENS_9allocatorIcEEEC1B7v160006IDnEEPKc, symObjAddr: 0x510, symBinAddr: 0x100000B80, symSize: 0x30 }
  - { offsetInCU: 0xAC7D, offset: 0xAC7D, size: 0x8, addend: 0x0, symName: __ZNSt3__16vectorINS_10unique_ptrI15EnemyGameEntityNS_14default_deleteIS2_EEEENS_9allocatorIS5_EEE9push_backB7v160006EOS5_, symObjAddr: 0x610, symBinAddr: 0x100000C80, symSize: 0x60 }
  - { offsetInCU: 0xACB3, offset: 0xACB3, size: 0x8, addend: 0x0, symName: __ZNSt3__110unique_ptrI15EnemyGameEntityNS_14default_deleteIS1_EEED1B7v160006Ev, symObjAddr: 0x670, symBinAddr: 0x100000CE0, symSize: 0x20 }
  - { offsetInCU: 0xACDC, offset: 0xACDC, size: 0x8, addend: 0x0, symName: __ZNSt3__110unique_ptrI16PlayerGameEntityNS_14default_deleteIS1_EEEaSB7v160006EOS4_, symObjAddr: 0x760, symBinAddr: 0x100000DD0, symSize: 0x50 }
  - { offsetInCU: 0xAD0F, offset: 0xAD0F, size: 0x8, addend: 0x0, symName: __ZN11Application5InputEf, symObjAddr: 0x7B0, symBinAddr: 0x100000E20, symSize: 0xF0 }
  - { offsetInCU: 0xAD55, offset: 0xAD55, size: 0x8, addend: 0x0, symName: __ZNKSt3__110unique_ptrI16PlayerGameEntityNS_14default_deleteIS1_EEEptB7v160006Ev, symObjAddr: 0x8A0, symBinAddr: 0x100000F10, symSize: 0x20 }
  - { offsetInCU: 0xAD7A, offset: 0xAD7A, size: 0x8, addend: 0x0, symName: __ZN11Application6UpdateEf, symObjAddr: 0x8C0, symBinAddr: 0x100000F30, symSize: 0x2F0 }
  - { offsetInCU: 0xADE8, offset: 0xADE8, size: 0x8, addend: 0x0, symName: __ZNKSt3__16vectorINS_10unique_ptrI15EnemyGameEntityNS_14default_deleteIS2_EEEENS_9allocatorIS5_EEE4sizeB7v160006Ev, symObjAddr: 0xBB0, symBinAddr: 0x100001220, symSize: 0x20 }
  - { offsetInCU: 0xAE0C, offset: 0xAE0C, size: 0x8, addend: 0x0, symName: __ZNSt3__16vectorINS_10unique_ptrI15EnemyGameEntityNS_14default_deleteIS2_EEEENS_9allocatorIS5_EEEixB7v160006Em, symObjAddr: 0xBD0, symBinAddr: 0x100001240, symSize: 0x20 }
  - { offsetInCU: 0xAE42, offset: 0xAE42, size: 0x8, addend: 0x0, symName: __ZNKSt3__110unique_ptrI15EnemyGameEntityNS_14default_deleteIS1_EEEptB7v160006Ev, symObjAddr: 0xBF0, symBinAddr: 0x100001260, symSize: 0x20 }
  - { offsetInCU: 0xAE67, offset: 0xAE67, size: 0x8, addend: 0x0, symName: __ZNSt3__110shared_ptrI10GameEntityEC1B7v160006I10ProjectilevEEONS0_IT_EE, symObjAddr: 0xC10, symBinAddr: 0x100001280, symSize: 0x30 }
  - { offsetInCU: 0xAEA9, offset: 0xAEA9, size: 0x8, addend: 0x0, symName: __ZNSt3__110shared_ptrI10GameEntityED1B7v160006Ev, symObjAddr: 0xC40, symBinAddr: 0x1000012B0, symSize: 0x20 }
  - { offsetInCU: 0xAED2, offset: 0xAED2, size: 0x8, addend: 0x0, symName: __ZNSt3__110shared_ptrI10ProjectileED1B7v160006Ev, symObjAddr: 0xC60, symBinAddr: 0x1000012D0, symSize: 0x20 }
  - { offsetInCU: 0xAEFB, offset: 0xAEFB, size: 0x8, addend: 0x0, symName: __ZN11Application6RenderEv, symObjAddr: 0xC80, symBinAddr: 0x1000012F0, symSize: 0xF0 }
  - { offsetInCU: 0xAF3E, offset: 0xAF3E, size: 0x8, addend: 0x0, symName: __ZN11Application4LoopEf, symObjAddr: 0xD70, symBinAddr: 0x1000013E0, symSize: 0x240 }
  - { offsetInCU: 0xAFF2, offset: 0xAFF2, size: 0x8, addend: 0x0, symName: __ZNSt3__16vectorINS_10unique_ptrI15EnemyGameEntityNS_14default_deleteIS2_EEEENS_9allocatorIS5_EEEC2B7v160006Ev, symObjAddr: 0xFB0, symBinAddr: 0x100001620, symSize: 0x60 }
  - { offsetInCU: 0xB025, offset: 0xB025, size: 0x8, addend: 0x0, symName: __ZNSt3__117__compressed_pairIPNS_10unique_ptrI15EnemyGameEntityNS_14default_deleteIS2_EEEENS_9allocatorIS5_EEEC1B7v160006IDnNS_18__default_init_tagEEEOT_OT0_, symObjAddr: 0x1010, symBinAddr: 0x100001680, symSize: 0x30 }
  - { offsetInCU: 0xB07C, offset: 0xB07C, size: 0x8, addend: 0x0, symName: __ZNSt3__117__compressed_pairIPNS_10unique_ptrI15EnemyGameEntityNS_14default_deleteIS2_EEEENS_9allocatorIS5_EEEC2B7v160006IDnNS_18__default_init_tagEEEOT_OT0_, symObjAddr: 0x1050, symBinAddr: 0x1000016C0, symSize: 0x40 }
  - { offsetInCU: 0xB0D3, offset: 0xB0D3, size: 0x8, addend: 0x0, symName: __ZNSt3__122__compressed_pair_elemIPNS_10unique_ptrI15EnemyGameEntityNS_14default_deleteIS2_EEEELi0ELb0EEC2B7v160006IDnvEEOT_, symObjAddr: 0x1090, symBinAddr: 0x100001700, symSize: 0x20 }
  - { offsetInCU: 0xB114, offset: 0xB114, size: 0x8, addend: 0x0, symName: __ZNSt3__122__compressed_pair_elemINS_9allocatorINS_10unique_ptrI15EnemyGameEntityNS_14default_deleteIS3_EEEEEELi1ELb1EEC2B7v160006ENS_18__default_init_tagE, symObjAddr: 0x10B0, symBinAddr: 0x100001720, symSize: 0x20 }
  - { offsetInCU: 0xB147, offset: 0xB147, size: 0x8, addend: 0x0, symName: __ZNSt3__19allocatorINS_10unique_ptrI15EnemyGameEntityNS_14default_deleteIS2_EEEEEC2B7v160006Ev, symObjAddr: 0x10D0, symBinAddr: 0x100001740, symSize: 0x20 }
  - { offsetInCU: 0xB170, offset: 0xB170, size: 0x8, addend: 0x0, symName: __ZNSt3__116__non_trivial_ifILb1ENS_9allocatorINS_10unique_ptrI15EnemyGameEntityNS_14default_deleteIS3_EEEEEEEC2B7v160006Ev, symObjAddr: 0x10F0, symBinAddr: 0x100001760, symSize: 0x10 }
  - { offsetInCU: 0xB199, offset: 0xB199, size: 0x8, addend: 0x0, symName: __ZNSt3__110unique_ptrI16PlayerGameEntityNS_14default_deleteIS1_EEEC2B7v160006ILb1EvEEv, symObjAddr: 0x1100, symBinAddr: 0x100001770, symSize: 0x30 }
  - { offsetInCU: 0xB1D2, offset: 0xB1D2, size: 0x8, addend: 0x0, symName: __ZNSt3__117__compressed_pairIP16PlayerGameEntityNS_14default_deleteIS1_EEEC1B7v160006INS_16__value_init_tagES7_EEOT_OT0_, symObjAddr: 0x1130, symBinAddr: 0x1000017A0, symSize: 0x30 }
  - { offsetInCU: 0xB229, offset: 0xB229, size: 0x8, addend: 0x0, symName: __ZNSt3__117__compressed_pairIP16PlayerGameEntityNS_14default_deleteIS1_EEEC2B7v160006INS_16__value_init_tagES7_EEOT_OT0_, symObjAddr: 0x1160, symBinAddr: 0x1000017D0, symSize: 0x30 }
  - { offsetInCU: 0xB280, offset: 0xB280, size: 0x8, addend: 0x0, symName: __ZNSt3__122__compressed_pair_elemIP16PlayerGameEntityLi0ELb0EEC2B7v160006ENS_16__value_init_tagE, symObjAddr: 0x1190, symBinAddr: 0x100001800, symSize: 0x20 }
  - { offsetInCU: 0xB2B3, offset: 0xB2B3, size: 0x8, addend: 0x0, symName: __ZNSt3__122__compressed_pair_elemINS_14default_deleteI16PlayerGameEntityEELi1ELb1EEC2B7v160006ENS_16__value_init_tagE, symObjAddr: 0x11B0, symBinAddr: 0x100001820, symSize: 0x10 }
  - { offsetInCU: 0xB2E6, offset: 0xB2E6, size: 0x8, addend: 0x0, symName: __ZNSt3__16vectorINS_10unique_ptrI15EnemyGameEntityNS_14default_deleteIS2_EEEENS_9allocatorIS5_EEED2B7v160006Ev, symObjAddr: 0x11C0, symBinAddr: 0x100001830, symSize: 0x40 }
  - { offsetInCU: 0xB30F, offset: 0xB30F, size: 0x8, addend: 0x0, symName: __ZNSt3__16vectorINS_10unique_ptrI15EnemyGameEntityNS_14default_deleteIS2_EEEENS_9allocatorIS5_EEE16__destroy_vectorC1ERS8_, symObjAddr: 0x1200, symBinAddr: 0x100001870, symSize: 0x30 }
  - { offsetInCU: 0xB347, offset: 0xB347, size: 0x8, addend: 0x0, symName: __ZNSt3__16vectorINS_10unique_ptrI15EnemyGameEntityNS_14default_deleteIS2_EEEENS_9allocatorIS5_EEE16__destroy_vectorclB7v160006Ev, symObjAddr: 0x1230, symBinAddr: 0x1000018A0, symSize: 0x90 }
  - { offsetInCU: 0xB36C, offset: 0xB36C, size: 0x8, addend: 0x0, symName: __ZNSt3__16vectorINS_10unique_ptrI15EnemyGameEntityNS_14default_deleteIS2_EEEENS_9allocatorIS5_EEE16__destroy_vectorC2ERS8_, symObjAddr: 0x12C0, symBinAddr: 0x100001930, symSize: 0x20 }
  - { offsetInCU: 0xB3A4, offset: 0xB3A4, size: 0x8, addend: 0x0, symName: __ZNKSt3__16vectorINS_10unique_ptrI15EnemyGameEntityNS_14default_deleteIS2_EEEENS_9allocatorIS5_EEE17__annotate_deleteB7v160006Ev, symObjAddr: 0x12E0, symBinAddr: 0x100001950, symSize: 0xB0 }
  - { offsetInCU: 0xB3C9, offset: 0xB3C9, size: 0x8, addend: 0x0, symName: __ZNSt3__16vectorINS_10unique_ptrI15EnemyGameEntityNS_14default_deleteIS2_EEEENS_9allocatorIS5_EEE7__clearB7v160006Ev, symObjAddr: 0x13A0, symBinAddr: 0x100001A10, symSize: 0x20 }
  - { offsetInCU: 0xB3EE, offset: 0xB3EE, size: 0x8, addend: 0x0, symName: __ZNSt3__116allocator_traitsINS_9allocatorINS_10unique_ptrI15EnemyGameEntityNS_14default_deleteIS3_EEEEEEE10deallocateB7v160006ERS7_PS6_m, symObjAddr: 0x13C0, symBinAddr: 0x100001A30, symSize: 0x30 }
  - { offsetInCU: 0xB430, offset: 0xB430, size: 0x8, addend: 0x0, symName: __ZNSt3__16vectorINS_10unique_ptrI15EnemyGameEntityNS_14default_deleteIS2_EEEENS_9allocatorIS5_EEE7__allocB7v160006Ev, symObjAddr: 0x13F0, symBinAddr: 0x100001A60, symSize: 0x20 }
  - { offsetInCU: 0xB455, offset: 0xB455, size: 0x8, addend: 0x0, symName: __ZNKSt3__16vectorINS_10unique_ptrI15EnemyGameEntityNS_14default_deleteIS2_EEEENS_9allocatorIS5_EEE8capacityB7v160006Ev, symObjAddr: 0x1410, symBinAddr: 0x100001A80, symSize: 0x30 }
  - { offsetInCU: 0xB47A, offset: 0xB47A, size: 0x8, addend: 0x0, symName: __ZNKSt3__16vectorINS_10unique_ptrI15EnemyGameEntityNS_14default_deleteIS2_EEEENS_9allocatorIS5_EEE31__annotate_contiguous_containerB7v160006EPKvSA_SA_SA_, symObjAddr: 0x1440, symBinAddr: 0x100001AB0, symSize: 0x20 }
  - { offsetInCU: 0xB4CF, offset: 0xB4CF, size: 0x8, addend: 0x0, symName: __ZNKSt3__16vectorINS_10unique_ptrI15EnemyGameEntityNS_14default_deleteIS2_EEEENS_9allocatorIS5_EEE4dataB7v160006Ev, symObjAddr: 0x1460, symBinAddr: 0x100001AD0, symSize: 0x20 }
  - { offsetInCU: 0xB4F4, offset: 0xB4F4, size: 0x8, addend: 0x0, symName: __ZNSt3__16vectorINS_10unique_ptrI15EnemyGameEntityNS_14default_deleteIS2_EEEENS_9allocatorIS5_EEE22__base_destruct_at_endB7v160006EPS5_, symObjAddr: 0x1490, symBinAddr: 0x100001B00, symSize: 0x80 }
  - { offsetInCU: 0xB537, offset: 0xB537, size: 0x8, addend: 0x0, symName: __ZNSt3__116allocator_traitsINS_9allocatorINS_10unique_ptrI15EnemyGameEntityNS_14default_deleteIS3_EEEEEEE7destroyB7v160006IS6_vvEEvRS7_PT_, symObjAddr: 0x1510, symBinAddr: 0x100001B80, symSize: 0x20 }
  - { offsetInCU: 0xB572, offset: 0xB572, size: 0x8, addend: 0x0, symName: __ZNSt3__19allocatorINS_10unique_ptrI15EnemyGameEntityNS_14default_deleteIS2_EEEEE10deallocateB7v160006EPS5_m, symObjAddr: 0x1570, symBinAddr: 0x100001BE0, symSize: 0x40 }
  - { offsetInCU: 0xB5B3, offset: 0xB5B3, size: 0x8, addend: 0x0, symName: __ZNSt3__117__compressed_pairIPNS_10unique_ptrI15EnemyGameEntityNS_14default_deleteIS2_EEEENS_9allocatorIS5_EEE6secondB7v160006Ev, symObjAddr: 0x16D0, symBinAddr: 0x100001D40, symSize: 0x20 }
  - { offsetInCU: 0xB5D8, offset: 0xB5D8, size: 0x8, addend: 0x0, symName: __ZNSt3__122__compressed_pair_elemINS_9allocatorINS_10unique_ptrI15EnemyGameEntityNS_14default_deleteIS3_EEEEEELi1ELb1EE5__getB7v160006Ev, symObjAddr: 0x16F0, symBinAddr: 0x100001D60, symSize: 0x10 }
  - { offsetInCU: 0xB5FD, offset: 0xB5FD, size: 0x8, addend: 0x0, symName: __ZNKSt3__16vectorINS_10unique_ptrI15EnemyGameEntityNS_14default_deleteIS2_EEEENS_9allocatorIS5_EEE9__end_capB7v160006Ev, symObjAddr: 0x1700, symBinAddr: 0x100001D70, symSize: 0x20 }
  - { offsetInCU: 0xB622, offset: 0xB622, size: 0x8, addend: 0x0, symName: __ZNKSt3__117__compressed_pairIPNS_10unique_ptrI15EnemyGameEntityNS_14default_deleteIS2_EEEENS_9allocatorIS5_EEE5firstB7v160006Ev, symObjAddr: 0x1720, symBinAddr: 0x100001D90, symSize: 0x20 }
  - { offsetInCU: 0xB647, offset: 0xB647, size: 0x8, addend: 0x0, symName: __ZNKSt3__122__compressed_pair_elemIPNS_10unique_ptrI15EnemyGameEntityNS_14default_deleteIS2_EEEELi0ELb0EE5__getB7v160006Ev, symObjAddr: 0x1740, symBinAddr: 0x100001DB0, symSize: 0x10 }
  - { offsetInCU: 0xB66C, offset: 0xB66C, size: 0x8, addend: 0x0, symName: __ZNSt3__112basic_stringIcNS_11char_traitsIcEENS_9allocatorIcEEEC2B7v160006IDnEEPKc, symObjAddr: 0x1750, symBinAddr: 0x100001DC0, symSize: 0x60 }
  - { offsetInCU: 0xB6A9, offset: 0xB6A9, size: 0x8, addend: 0x0, symName: __ZNSt3__117__compressed_pairINS_12basic_stringIcNS_11char_traitsIcEENS_9allocatorIcEEE5__repES5_EC1B7v160006INS_18__default_init_tagESA_EEOT_OT0_, symObjAddr: 0x17B0, symBinAddr: 0x100001E20, symSize: 0x30 }
  - { offsetInCU: 0xB700, offset: 0xB700, size: 0x8, addend: 0x0, symName: __ZNSt3__111char_traitsIcE6lengthEPKc, symObjAddr: 0x17E0, symBinAddr: 0x100001E50, symSize: 0x30 }
  - { offsetInCU: 0xB723, offset: 0xB723, size: 0x8, addend: 0x0, symName: __ZNSt3__117__compressed_pairINS_12basic_stringIcNS_11char_traitsIcEENS_9allocatorIcEEE5__repES5_EC2B7v160006INS_18__default_init_tagESA_EEOT_OT0_, symObjAddr: 0x1820, symBinAddr: 0x100001E90, symSize: 0x30 }
  - { offsetInCU: 0xB77A, offset: 0xB77A, size: 0x8, addend: 0x0, symName: __ZNSt3__122__compressed_pair_elemINS_12basic_stringIcNS_11char_traitsIcEENS_9allocatorIcEEE5__repELi0ELb0EEC2B7v160006ENS_18__default_init_tagE, symObjAddr: 0x1850, symBinAddr: 0x100001EC0, symSize: 0x10 }
  - { offsetInCU: 0xB7AD, offset: 0xB7AD, size: 0x8, addend: 0x0, symName: __ZNSt3__122__compressed_pair_elemINS_9allocatorIcEELi1ELb1EEC2B7v160006ENS_18__default_init_tagE, symObjAddr: 0x1860, symBinAddr: 0x100001ED0, symSize: 0x20 }
  - { offsetInCU: 0xB7E0, offset: 0xB7E0, size: 0x8, addend: 0x0, symName: __ZNSt3__19allocatorIcEC2B7v160006Ev, symObjAddr: 0x1880, symBinAddr: 0x100001EF0, symSize: 0x20 }
  - { offsetInCU: 0xB809, offset: 0xB809, size: 0x8, addend: 0x0, symName: __ZNSt3__116__non_trivial_ifILb1ENS_9allocatorIcEEEC2B7v160006Ev, symObjAddr: 0x18A0, symBinAddr: 0x100001F10, symSize: 0x10 }
  - { offsetInCU: 0xB832, offset: 0xB832, size: 0x8, addend: 0x0, symName: __ZNSt3__16vectorINS_10unique_ptrI15EnemyGameEntityNS_14default_deleteIS2_EEEENS_9allocatorIS5_EEE9__end_capB7v160006Ev, symObjAddr: 0x18D0, symBinAddr: 0x100001F40, symSize: 0x20 }
  - { offsetInCU: 0xB857, offset: 0xB857, size: 0x8, addend: 0x0, symName: __ZNSt3__16vectorINS_10unique_ptrI15EnemyGameEntityNS_14default_deleteIS2_EEEENS_9allocatorIS5_EEE22__construct_one_at_endB7v160006IJS5_EEEvDpOT_, symObjAddr: 0x18F0, symBinAddr: 0x100001F60, symSize: 0x90 }
  - { offsetInCU: 0xB8A4, offset: 0xB8A4, size: 0x8, addend: 0x0, symName: __ZNSt3__16vectorINS_10unique_ptrI15EnemyGameEntityNS_14default_deleteIS2_EEEENS_9allocatorIS5_EEE21__push_back_slow_pathIS5_EEvOT_, symObjAddr: 0x1980, symBinAddr: 0x100001FF0, symSize: 0xD0 }
  - { offsetInCU: 0xB901, offset: 0xB901, size: 0x8, addend: 0x0, symName: __ZNSt3__117__compressed_pairIPNS_10unique_ptrI15EnemyGameEntityNS_14default_deleteIS2_EEEENS_9allocatorIS5_EEE5firstB7v160006Ev, symObjAddr: 0x1A50, symBinAddr: 0x1000020C0, symSize: 0x20 }
  - { offsetInCU: 0xB926, offset: 0xB926, size: 0x8, addend: 0x0, symName: __ZNSt3__122__compressed_pair_elemIPNS_10unique_ptrI15EnemyGameEntityNS_14default_deleteIS2_EEEELi0ELb0EE5__getB7v160006Ev, symObjAddr: 0x1A70, symBinAddr: 0x1000020E0, symSize: 0x10 }
  - { offsetInCU: 0xB964, offset: 0xB964, size: 0x8, addend: 0x0, symName: __ZNSt3__16vectorINS_10unique_ptrI15EnemyGameEntityNS_14default_deleteIS2_EEEENS_9allocatorIS5_EEE21_ConstructTransactionC1B7v160006ERS8_m, symObjAddr: 0x1A80, symBinAddr: 0x1000020F0, symSize: 0x30 }
  - { offsetInCU: 0xB9AB, offset: 0xB9AB, size: 0x8, addend: 0x0, symName: __ZNSt3__116allocator_traitsINS_9allocatorINS_10unique_ptrI15EnemyGameEntityNS_14default_deleteIS3_EEEEEEE9constructB7v160006IS6_JS6_EvvEEvRS7_PT_DpOT0_, symObjAddr: 0x1AB0, symBinAddr: 0x100002120, symSize: 0x30 }
  - { offsetInCU: 0xBA00, offset: 0xBA00, size: 0x8, addend: 0x0, symName: __ZNSt3__16vectorINS_10unique_ptrI15EnemyGameEntityNS_14default_deleteIS2_EEEENS_9allocatorIS5_EEE21_ConstructTransactionD1B7v160006Ev, symObjAddr: 0x1AE0, symBinAddr: 0x100002150, symSize: 0x20 }
  - { offsetInCU: 0xBA29, offset: 0xBA29, size: 0x8, addend: 0x0, symName: __ZNSt3__16vectorINS_10unique_ptrI15EnemyGameEntityNS_14default_deleteIS2_EEEENS_9allocatorIS5_EEE21_ConstructTransactionC2B7v160006ERS8_m, symObjAddr: 0x1B00, symBinAddr: 0x100002170, symSize: 0x40 }
  - { offsetInCU: 0xBA70, offset: 0xBA70, size: 0x8, addend: 0x0, symName: __ZNSt3__110unique_ptrI15EnemyGameEntityNS_14default_deleteIS1_EEEC1B7v160006EOS4_, symObjAddr: 0x1B80, symBinAddr: 0x1000021F0, symSize: 0x30 }
  - { offsetInCU: 0xBAA7, offset: 0xBAA7, size: 0x8, addend: 0x0, symName: __ZNSt3__110unique_ptrI15EnemyGameEntityNS_14default_deleteIS1_EEEC2B7v160006EOS4_, symObjAddr: 0x1BB0, symBinAddr: 0x100002220, symSize: 0x60 }
  - { offsetInCU: 0xBADE, offset: 0xBADE, size: 0x8, addend: 0x0, symName: __ZNSt3__110unique_ptrI15EnemyGameEntityNS_14default_deleteIS1_EEE7releaseB7v160006Ev, symObjAddr: 0x1C10, symBinAddr: 0x100002280, symSize: 0x40 }
  - { offsetInCU: 0xBB12, offset: 0xBB12, size: 0x8, addend: 0x0, symName: __ZNSt3__110unique_ptrI15EnemyGameEntityNS_14default_deleteIS1_EEE11get_deleterB7v160006Ev, symObjAddr: 0x1C50, symBinAddr: 0x1000022C0, symSize: 0x20 }
  - { offsetInCU: 0xBB41, offset: 0xBB41, size: 0x8, addend: 0x0, symName: __ZNSt3__117__compressed_pairIP15EnemyGameEntityNS_14default_deleteIS1_EEEC1B7v160006IS2_S4_EEOT_OT0_, symObjAddr: 0x1C70, symBinAddr: 0x1000022E0, symSize: 0x30 }
  - { offsetInCU: 0xBB98, offset: 0xBB98, size: 0x8, addend: 0x0, symName: __ZNSt3__117__compressed_pairIP15EnemyGameEntityNS_14default_deleteIS1_EEE5firstB7v160006Ev, symObjAddr: 0x1CA0, symBinAddr: 0x100002310, symSize: 0x20 }
  - { offsetInCU: 0xBBBD, offset: 0xBBBD, size: 0x8, addend: 0x0, symName: __ZNSt3__122__compressed_pair_elemIP15EnemyGameEntityLi0ELb0EE5__getB7v160006Ev, symObjAddr: 0x1CC0, symBinAddr: 0x100002330, symSize: 0x10 }
  - { offsetInCU: 0xBBE2, offset: 0xBBE2, size: 0x8, addend: 0x0, symName: __ZNSt3__117__compressed_pairIP15EnemyGameEntityNS_14default_deleteIS1_EEE6secondB7v160006Ev, symObjAddr: 0x1CD0, symBinAddr: 0x100002340, symSize: 0x20 }
  - { offsetInCU: 0xBC07, offset: 0xBC07, size: 0x8, addend: 0x0, symName: __ZNSt3__122__compressed_pair_elemINS_14default_deleteI15EnemyGameEntityEELi1ELb1EE5__getB7v160006Ev, symObjAddr: 0x1CF0, symBinAddr: 0x100002360, symSize: 0x10 }
  - { offsetInCU: 0xBC2C, offset: 0xBC2C, size: 0x8, addend: 0x0, symName: __ZNSt3__117__compressed_pairIP15EnemyGameEntityNS_14default_deleteIS1_EEEC2B7v160006IS2_S4_EEOT_OT0_, symObjAddr: 0x1D00, symBinAddr: 0x100002370, symSize: 0x40 }
  - { offsetInCU: 0xBC83, offset: 0xBC83, size: 0x8, addend: 0x0, symName: __ZNSt3__122__compressed_pair_elemIP15EnemyGameEntityLi0ELb0EEC2B7v160006IS2_vEEOT_, symObjAddr: 0x1D40, symBinAddr: 0x1000023B0, symSize: 0x20 }
  - { offsetInCU: 0xBCC4, offset: 0xBCC4, size: 0x8, addend: 0x0, symName: __ZNSt3__122__compressed_pair_elemINS_14default_deleteI15EnemyGameEntityEELi1ELb1EEC2B7v160006IS3_vEEOT_, symObjAddr: 0x1D60, symBinAddr: 0x1000023D0, symSize: 0x10 }
  - { offsetInCU: 0xBD05, offset: 0xBD05, size: 0x8, addend: 0x0, symName: __ZNSt3__16vectorINS_10unique_ptrI15EnemyGameEntityNS_14default_deleteIS2_EEEENS_9allocatorIS5_EEE21_ConstructTransactionD2B7v160006Ev, symObjAddr: 0x1D70, symBinAddr: 0x1000023E0, symSize: 0x20 }
  - { offsetInCU: 0xBD2D, offset: 0xBD2D, size: 0x8, addend: 0x0, symName: __ZNKSt3__16vectorINS_10unique_ptrI15EnemyGameEntityNS_14default_deleteIS2_EEEENS_9allocatorIS5_EEE11__recommendB7v160006Em, symObjAddr: 0x1D90, symBinAddr: 0x100002400, symSize: 0xA0 }
  - { offsetInCU: 0xBD81, offset: 0xBD81, size: 0x8, addend: 0x0, symName: __ZNSt3__114__split_bufferINS_10unique_ptrI15EnemyGameEntityNS_14default_deleteIS2_EEEERNS_9allocatorIS5_EEEC1EmmS8_, symObjAddr: 0x1E30, symBinAddr: 0x1000024A0, symSize: 0x40 }
  - { offsetInCU: 0xBDD6, offset: 0xBDD6, size: 0x8, addend: 0x0, symName: __ZNSt3__114__split_bufferINS_10unique_ptrI15EnemyGameEntityNS_14default_deleteIS2_EEEERNS_9allocatorIS5_EEED1Ev, symObjAddr: 0x1FA0, symBinAddr: 0x100002610, symSize: 0x20 }
  - { offsetInCU: 0xBE00, offset: 0xBE00, size: 0x8, addend: 0x0, symName: __ZNKSt3__16vectorINS_10unique_ptrI15EnemyGameEntityNS_14default_deleteIS2_EEEENS_9allocatorIS5_EEE8max_sizeEv, symObjAddr: 0x1FC0, symBinAddr: 0x100002630, symSize: 0x60 }
  - { offsetInCU: 0xBE27, offset: 0xBE27, size: 0x8, addend: 0x0, symName: __ZNKSt3__16vectorINS_10unique_ptrI15EnemyGameEntityNS_14default_deleteIS2_EEEENS_9allocatorIS5_EEE20__throw_length_errorB7v160006Ev, symObjAddr: 0x2020, symBinAddr: 0x100002690, symSize: 0x20 }
  - { offsetInCU: 0xBE56, offset: 0xBE56, size: 0x8, addend: 0x0, symName: __ZNSt3__116allocator_traitsINS_9allocatorINS_10unique_ptrI15EnemyGameEntityNS_14default_deleteIS3_EEEEEEE8max_sizeB7v160006IS7_vvEEmRKS7_, symObjAddr: 0x20A0, symBinAddr: 0x100002710, symSize: 0x20 }
  - { offsetInCU: 0xBE82, offset: 0xBE82, size: 0x8, addend: 0x0, symName: __ZNKSt3__16vectorINS_10unique_ptrI15EnemyGameEntityNS_14default_deleteIS2_EEEENS_9allocatorIS5_EEE7__allocB7v160006Ev, symObjAddr: 0x20C0, symBinAddr: 0x100002730, symSize: 0x20 }
  - { offsetInCU: 0xBEA7, offset: 0xBEA7, size: 0x8, addend: 0x0, symName: __ZNSt3__114numeric_limitsIlE3maxB7v160006Ev, symObjAddr: 0x20E0, symBinAddr: 0x100002750, symSize: 0x10 }
  - { offsetInCU: 0xBECF, offset: 0xBECF, size: 0x8, addend: 0x0, symName: __ZNKSt3__16__lessImmEclB7v160006ERKmS3_, symObjAddr: 0x2140, symBinAddr: 0x1000027B0, symSize: 0x30 }
  - { offsetInCU: 0xBF10, offset: 0xBF10, size: 0x8, addend: 0x0, symName: __ZNSt3__114numeric_limitsImE3maxB7v160006Ev, symObjAddr: 0x2170, symBinAddr: 0x1000027E0, symSize: 0x10 }
  - { offsetInCU: 0xBF24, offset: 0xBF24, size: 0x8, addend: 0x0, symName: __ZNSt3__123__libcpp_numeric_limitsImLb1EE3maxB7v160006Ev, symObjAddr: 0x2180, symBinAddr: 0x1000027F0, symSize: 0x10 }
  - { offsetInCU: 0xBF38, offset: 0xBF38, size: 0x8, addend: 0x0, symName: __ZNKSt3__117__compressed_pairIPNS_10unique_ptrI15EnemyGameEntityNS_14default_deleteIS2_EEEENS_9allocatorIS5_EEE6secondB7v160006Ev, symObjAddr: 0x2190, symBinAddr: 0x100002800, symSize: 0x20 }
  - { offsetInCU: 0xBF5D, offset: 0xBF5D, size: 0x8, addend: 0x0, symName: __ZNKSt3__122__compressed_pair_elemINS_9allocatorINS_10unique_ptrI15EnemyGameEntityNS_14default_deleteIS3_EEEEEELi1ELb1EE5__getB7v160006Ev, symObjAddr: 0x21B0, symBinAddr: 0x100002820, symSize: 0x10 }
  - { offsetInCU: 0xBF82, offset: 0xBF82, size: 0x8, addend: 0x0, symName: __ZNSt3__123__libcpp_numeric_limitsIlLb1EE3maxB7v160006Ev, symObjAddr: 0x21C0, symBinAddr: 0x100002830, symSize: 0x10 }
  - { offsetInCU: 0xBF96, offset: 0xBF96, size: 0x8, addend: 0x0, symName: __ZNSt12length_errorC1B7v160006EPKc, symObjAddr: 0x2240, symBinAddr: 0x1000028B0, symSize: 0x30 }
  - { offsetInCU: 0xBFCD, offset: 0xBFCD, size: 0x8, addend: 0x0, symName: __ZNSt12length_errorC2B7v160006EPKc, symObjAddr: 0x2270, symBinAddr: 0x1000028E0, symSize: 0x40 }
  - { offsetInCU: 0xC004, offset: 0xC004, size: 0x8, addend: 0x0, symName: __ZNSt3__114__split_bufferINS_10unique_ptrI15EnemyGameEntityNS_14default_deleteIS2_EEEERNS_9allocatorIS5_EEEC2EmmS8_, symObjAddr: 0x2300, symBinAddr: 0x100002970, symSize: 0xD0 }
  - { offsetInCU: 0xC076, offset: 0xC076, size: 0x8, addend: 0x0, symName: __ZNSt3__117__compressed_pairIPNS_10unique_ptrI15EnemyGameEntityNS_14default_deleteIS2_EEEERNS_9allocatorIS5_EEEC1B7v160006IDnS9_EEOT_OT0_, symObjAddr: 0x23D0, symBinAddr: 0x100002A40, symSize: 0x30 }
  - { offsetInCU: 0xC0CD, offset: 0xC0CD, size: 0x8, addend: 0x0, symName: __ZNSt3__114__split_bufferINS_10unique_ptrI15EnemyGameEntityNS_14default_deleteIS2_EEEERNS_9allocatorIS5_EEE7__allocB7v160006Ev, symObjAddr: 0x2440, symBinAddr: 0x100002AB0, symSize: 0x20 }
  - { offsetInCU: 0xC0F2, offset: 0xC0F2, size: 0x8, addend: 0x0, symName: __ZNSt3__114__split_bufferINS_10unique_ptrI15EnemyGameEntityNS_14default_deleteIS2_EEEERNS_9allocatorIS5_EEE9__end_capB7v160006Ev, symObjAddr: 0x2460, symBinAddr: 0x100002AD0, symSize: 0x20 }
  - { offsetInCU: 0xC117, offset: 0xC117, size: 0x8, addend: 0x0, symName: __ZNSt3__117__compressed_pairIPNS_10unique_ptrI15EnemyGameEntityNS_14default_deleteIS2_EEEERNS_9allocatorIS5_EEEC2B7v160006IDnS9_EEOT_OT0_, symObjAddr: 0x2480, symBinAddr: 0x100002AF0, symSize: 0x40 }
  - { offsetInCU: 0xC16E, offset: 0xC16E, size: 0x8, addend: 0x0, symName: __ZNSt3__122__compressed_pair_elemIRNS_9allocatorINS_10unique_ptrI15EnemyGameEntityNS_14default_deleteIS3_EEEEEELi1ELb0EEC2B7v160006IS8_vEEOT_, symObjAddr: 0x24C0, symBinAddr: 0x100002B30, symSize: 0x20 }
  - { offsetInCU: 0xC1AF, offset: 0xC1AF, size: 0x8, addend: 0x0, symName: __ZNSt3__19allocatorINS_10unique_ptrI15EnemyGameEntityNS_14default_deleteIS2_EEEEE8allocateB7v160006Em, symObjAddr: 0x24E0, symBinAddr: 0x100002B50, symSize: 0x50 }
  - { offsetInCU: 0xC1E2, offset: 0xC1E2, size: 0x8, addend: 0x0, symName: __ZNSt3__117__compressed_pairIPNS_10unique_ptrI15EnemyGameEntityNS_14default_deleteIS2_EEEERNS_9allocatorIS5_EEE6secondB7v160006Ev, symObjAddr: 0x2620, symBinAddr: 0x100002C90, symSize: 0x20 }
  - { offsetInCU: 0xC207, offset: 0xC207, size: 0x8, addend: 0x0, symName: __ZNSt3__122__compressed_pair_elemIRNS_9allocatorINS_10unique_ptrI15EnemyGameEntityNS_14default_deleteIS3_EEEEEELi1ELb0EE5__getB7v160006Ev, symObjAddr: 0x2640, symBinAddr: 0x100002CB0, symSize: 0x20 }
  - { offsetInCU: 0xC22C, offset: 0xC22C, size: 0x8, addend: 0x0, symName: __ZNSt3__117__compressed_pairIPNS_10unique_ptrI15EnemyGameEntityNS_14default_deleteIS2_EEEERNS_9allocatorIS5_EEE5firstB7v160006Ev, symObjAddr: 0x2660, symBinAddr: 0x100002CD0, symSize: 0x20 }
  - { offsetInCU: 0xC251, offset: 0xC251, size: 0x8, addend: 0x0, symName: __ZNSt3__116reverse_iteratorIPNS_10unique_ptrI15EnemyGameEntityNS_14default_deleteIS2_EEEEEC1B7v160006ES6_, symObjAddr: 0x2800, symBinAddr: 0x100002E70, symSize: 0x30 }
  - { offsetInCU: 0xC288, offset: 0xC288, size: 0x8, addend: 0x0, symName: __ZNKSt3__116reverse_iteratorIPNS_10unique_ptrI15EnemyGameEntityNS_14default_deleteIS2_EEEEE4baseB7v160006Ev, symObjAddr: 0x2830, symBinAddr: 0x100002EA0, symSize: 0x20 }
  - { offsetInCU: 0xC2AD, offset: 0xC2AD, size: 0x8, addend: 0x0, symName: __ZNKSt3__16vectorINS_10unique_ptrI15EnemyGameEntityNS_14default_deleteIS2_EEEENS_9allocatorIS5_EEE14__annotate_newB7v160006Em, symObjAddr: 0x2890, symBinAddr: 0x100002F00, symSize: 0xB0 }
  - { offsetInCU: 0xC2E1, offset: 0xC2E1, size: 0x8, addend: 0x0, symName: __ZNSt3__129_AllocatorDestroyRangeReverseINS_9allocatorINS_10unique_ptrI15EnemyGameEntityNS_14default_deleteIS3_EEEEEENS_16reverse_iteratorIPS6_EEEC1B7v160006ERS7_RSA_SD_, symObjAddr: 0x29B0, symBinAddr: 0x100003020, symSize: 0x40 }
  - { offsetInCU: 0xC337, offset: 0xC337, size: 0x8, addend: 0x0, symName: __ZNKSt3__116reverse_iteratorIPNS_10unique_ptrI15EnemyGameEntityNS_14default_deleteIS2_EEEEEdeB7v160006Ev, symObjAddr: 0x2A50, symBinAddr: 0x1000030C0, symSize: 0x30 }
  - { offsetInCU: 0xC36A, offset: 0xC36A, size: 0x8, addend: 0x0, symName: __ZNSt3__116reverse_iteratorIPNS_10unique_ptrI15EnemyGameEntityNS_14default_deleteIS2_EEEEEppB7v160006Ev, symObjAddr: 0x2A80, symBinAddr: 0x1000030F0, symSize: 0x20 }
  - { offsetInCU: 0xC38F, offset: 0xC38F, size: 0x8, addend: 0x0, symName: __ZNSt3__128__exception_guard_exceptionsINS_29_AllocatorDestroyRangeReverseINS_9allocatorINS_10unique_ptrI15EnemyGameEntityNS_14default_deleteIS4_EEEEEENS_16reverse_iteratorIPS7_EEEEE10__completeB7v160006Ev, symObjAddr: 0x2AA0, symBinAddr: 0x100003110, symSize: 0x20 }
  - { offsetInCU: 0xC3B4, offset: 0xC3B4, size: 0x8, addend: 0x0, symName: __ZNSt3__128__exception_guard_exceptionsINS_29_AllocatorDestroyRangeReverseINS_9allocatorINS_10unique_ptrI15EnemyGameEntityNS_14default_deleteIS4_EEEEEENS_16reverse_iteratorIPS7_EEEEED1B7v160006Ev, symObjAddr: 0x2AC0, symBinAddr: 0x100003130, symSize: 0x20 }
  - { offsetInCU: 0xC3DD, offset: 0xC3DD, size: 0x8, addend: 0x0, symName: __ZNSt3__128__exception_guard_exceptionsINS_29_AllocatorDestroyRangeReverseINS_9allocatorINS_10unique_ptrI15EnemyGameEntityNS_14default_deleteIS4_EEEEEENS_16reverse_iteratorIPS7_EEEEEC1B7v160006ESC_, symObjAddr: 0x2AE0, symBinAddr: 0x100003150, symSize: 0x40 }
  - { offsetInCU: 0xC414, offset: 0xC414, size: 0x8, addend: 0x0, symName: __ZNSt3__128__exception_guard_exceptionsINS_29_AllocatorDestroyRangeReverseINS_9allocatorINS_10unique_ptrI15EnemyGameEntityNS_14default_deleteIS4_EEEEEENS_16reverse_iteratorIPS7_EEEEEC2B7v160006ESC_, symObjAddr: 0x2B20, symBinAddr: 0x100003190, symSize: 0x30 }
  - { offsetInCU: 0xC44B, offset: 0xC44B, size: 0x8, addend: 0x0, symName: __ZNSt3__129_AllocatorDestroyRangeReverseINS_9allocatorINS_10unique_ptrI15EnemyGameEntityNS_14default_deleteIS3_EEEEEENS_16reverse_iteratorIPS6_EEEC2B7v160006ERS7_RSA_SD_, symObjAddr: 0x2B50, symBinAddr: 0x1000031C0, symSize: 0x40 }
  - { offsetInCU: 0xC4A6, offset: 0xC4A6, size: 0x8, addend: 0x0, symName: __ZNSt3__119__to_address_helperINS_16reverse_iteratorIPNS_10unique_ptrI15EnemyGameEntityNS_14default_deleteIS3_EEEEEEvE6__callB7v160006ERKS8_, symObjAddr: 0x2B90, symBinAddr: 0x100003200, symSize: 0x40 }
  - { offsetInCU: 0xC4C9, offset: 0xC4C9, size: 0x8, addend: 0x0, symName: __ZNKSt3__116reverse_iteratorIPNS_10unique_ptrI15EnemyGameEntityNS_14default_deleteIS2_EEEEEptB7v160006Ev, symObjAddr: 0x2BD0, symBinAddr: 0x100003240, symSize: 0x30 }
  - { offsetInCU: 0xC4EE, offset: 0xC4EE, size: 0x8, addend: 0x0, symName: __ZNSt3__128__exception_guard_exceptionsINS_29_AllocatorDestroyRangeReverseINS_9allocatorINS_10unique_ptrI15EnemyGameEntityNS_14default_deleteIS4_EEEEEENS_16reverse_iteratorIPS7_EEEEED2B7v160006Ev, symObjAddr: 0x2CD0, symBinAddr: 0x100003340, symSize: 0x40 }
  - { offsetInCU: 0xC517, offset: 0xC517, size: 0x8, addend: 0x0, symName: __ZNKSt3__129_AllocatorDestroyRangeReverseINS_9allocatorINS_10unique_ptrI15EnemyGameEntityNS_14default_deleteIS3_EEEEEENS_16reverse_iteratorIPS6_EEEclB7v160006Ev, symObjAddr: 0x2D10, symBinAddr: 0x100003380, symSize: 0xF0 }
  - { offsetInCU: 0xC53D, offset: 0xC53D, size: 0x8, addend: 0x0, symName: __ZNSt3__116reverse_iteratorINS0_IPNS_10unique_ptrI15EnemyGameEntityNS_14default_deleteIS2_EEEEEEEC1B7v160006ES7_, symObjAddr: 0x2E70, symBinAddr: 0x1000034E0, symSize: 0x30 }
  - { offsetInCU: 0xC574, offset: 0xC574, size: 0x8, addend: 0x0, symName: __ZNSt3__116reverse_iteratorINS0_IPNS_10unique_ptrI15EnemyGameEntityNS_14default_deleteIS2_EEEEEEEppB7v160006Ev, symObjAddr: 0x2F10, symBinAddr: 0x100003580, symSize: 0x30 }
  - { offsetInCU: 0xC599, offset: 0xC599, size: 0x8, addend: 0x0, symName: __ZNKSt3__116reverse_iteratorINS0_IPNS_10unique_ptrI15EnemyGameEntityNS_14default_deleteIS2_EEEEEEE4baseB7v160006Ev, symObjAddr: 0x2F40, symBinAddr: 0x1000035B0, symSize: 0x20 }
  - { offsetInCU: 0xC5C3, offset: 0xC5C3, size: 0x8, addend: 0x0, symName: __ZNSt3__119__to_address_helperINS_16reverse_iteratorINS1_IPNS_10unique_ptrI15EnemyGameEntityNS_14default_deleteIS3_EEEEEEEEvE6__callB7v160006ERKS9_, symObjAddr: 0x2F60, symBinAddr: 0x1000035D0, symSize: 0x40 }
  - { offsetInCU: 0xC5E6, offset: 0xC5E6, size: 0x8, addend: 0x0, symName: __ZNKSt3__116reverse_iteratorINS0_IPNS_10unique_ptrI15EnemyGameEntityNS_14default_deleteIS2_EEEEEEEptB7v160006Ev, symObjAddr: 0x2FA0, symBinAddr: 0x100003610, symSize: 0x50 }
  - { offsetInCU: 0xC60B, offset: 0xC60B, size: 0x8, addend: 0x0, symName: __ZNSt3__116reverse_iteratorIPNS_10unique_ptrI15EnemyGameEntityNS_14default_deleteIS2_EEEEEpLB7v160006El, symObjAddr: 0x30D0, symBinAddr: 0x100003740, symSize: 0x30 }
  - { offsetInCU: 0xC63E, offset: 0xC63E, size: 0x8, addend: 0x0, symName: __ZNSt3__116reverse_iteratorIPNS_10unique_ptrI15EnemyGameEntityNS_14default_deleteIS2_EEEEEmmB7v160006Ev, symObjAddr: 0x3100, symBinAddr: 0x100003770, symSize: 0x20 }
  - { offsetInCU: 0xC663, offset: 0xC663, size: 0x8, addend: 0x0, symName: __ZNSt3__116reverse_iteratorINS0_IPNS_10unique_ptrI15EnemyGameEntityNS_14default_deleteIS2_EEEEEEEC2B7v160006ES7_, symObjAddr: 0x3120, symBinAddr: 0x100003790, symSize: 0x40 }
  - { offsetInCU: 0xC69A, offset: 0xC69A, size: 0x8, addend: 0x0, symName: __ZNSt3__116reverse_iteratorIPNS_10unique_ptrI15EnemyGameEntityNS_14default_deleteIS2_EEEEEC2B7v160006ES6_, symObjAddr: 0x3160, symBinAddr: 0x1000037D0, symSize: 0x30 }
  - { offsetInCU: 0xC6D1, offset: 0xC6D1, size: 0x8, addend: 0x0, symName: __ZNSt3__114__split_bufferINS_10unique_ptrI15EnemyGameEntityNS_14default_deleteIS2_EEEERNS_9allocatorIS5_EEED2Ev, symObjAddr: 0x3190, symBinAddr: 0x100003800, symSize: 0x70 }
  - { offsetInCU: 0xC6FC, offset: 0xC6FC, size: 0x8, addend: 0x0, symName: __ZNSt3__114__split_bufferINS_10unique_ptrI15EnemyGameEntityNS_14default_deleteIS2_EEEERNS_9allocatorIS5_EEE5clearB7v160006Ev, symObjAddr: 0x3200, symBinAddr: 0x100003870, symSize: 0x20 }
  - { offsetInCU: 0xC721, offset: 0xC721, size: 0x8, addend: 0x0, symName: __ZNKSt3__114__split_bufferINS_10unique_ptrI15EnemyGameEntityNS_14default_deleteIS2_EEEERNS_9allocatorIS5_EEE8capacityB7v160006Ev, symObjAddr: 0x3220, symBinAddr: 0x100003890, symSize: 0x30 }
  - { offsetInCU: 0xC746, offset: 0xC746, size: 0x8, addend: 0x0, symName: __ZNSt3__114__split_bufferINS_10unique_ptrI15EnemyGameEntityNS_14default_deleteIS2_EEEERNS_9allocatorIS5_EEE17__destruct_at_endB7v160006EPS5_, symObjAddr: 0x3250, symBinAddr: 0x1000038C0, symSize: 0x30 }
  - { offsetInCU: 0xC778, offset: 0xC778, size: 0x8, addend: 0x0, symName: __ZNSt3__114__split_bufferINS_10unique_ptrI15EnemyGameEntityNS_14default_deleteIS2_EEEERNS_9allocatorIS5_EEE17__destruct_at_endB7v160006EPS5_NS_17integral_constantIbLb0EEE, symObjAddr: 0x3280, symBinAddr: 0x1000038F0, symSize: 0x80 }
  - { offsetInCU: 0xC7B7, offset: 0xC7B7, size: 0x8, addend: 0x0, symName: __ZNKSt3__114__split_bufferINS_10unique_ptrI15EnemyGameEntityNS_14default_deleteIS2_EEEERNS_9allocatorIS5_EEE9__end_capB7v160006Ev, symObjAddr: 0x3300, symBinAddr: 0x100003970, symSize: 0x20 }
  - { offsetInCU: 0xC7DC, offset: 0xC7DC, size: 0x8, addend: 0x0, symName: __ZNKSt3__117__compressed_pairIPNS_10unique_ptrI15EnemyGameEntityNS_14default_deleteIS2_EEEERNS_9allocatorIS5_EEE5firstB7v160006Ev, symObjAddr: 0x3320, symBinAddr: 0x100003990, symSize: 0x20 }
  - { offsetInCU: 0xC801, offset: 0xC801, size: 0x8, addend: 0x0, symName: __ZNSt3__110unique_ptrI15EnemyGameEntityNS_14default_deleteIS1_EEED2B7v160006Ev, symObjAddr: 0x3340, symBinAddr: 0x1000039B0, symSize: 0x20 }
  - { offsetInCU: 0xC82A, offset: 0xC82A, size: 0x8, addend: 0x0, symName: __ZNSt3__110unique_ptrI15EnemyGameEntityNS_14default_deleteIS1_EEE5resetB7v160006EPS1_, symObjAddr: 0x3360, symBinAddr: 0x1000039D0, symSize: 0x70 }
  - { offsetInCU: 0xC86D, offset: 0xC86D, size: 0x8, addend: 0x0, symName: __ZNKSt3__114default_deleteI15EnemyGameEntityEclB7v160006EPS1_, symObjAddr: 0x33D0, symBinAddr: 0x100003A40, symSize: 0x40 }
  - { offsetInCU: 0xC8A0, offset: 0xC8A0, size: 0x8, addend: 0x0, symName: __ZNSt3__110unique_ptrI16PlayerGameEntityNS_14default_deleteIS1_EEED2B7v160006Ev, symObjAddr: 0x3410, symBinAddr: 0x100003A80, symSize: 0x20 }
  - { offsetInCU: 0xC8C9, offset: 0xC8C9, size: 0x8, addend: 0x0, symName: __ZNSt3__110unique_ptrI16PlayerGameEntityNS_14default_deleteIS1_EEE5resetB7v160006EPS1_, symObjAddr: 0x3430, symBinAddr: 0x100003AA0, symSize: 0x70 }
  - { offsetInCU: 0xC90C, offset: 0xC90C, size: 0x8, addend: 0x0, symName: __ZNSt3__117__compressed_pairIP16PlayerGameEntityNS_14default_deleteIS1_EEE5firstB7v160006Ev, symObjAddr: 0x34A0, symBinAddr: 0x100003B10, symSize: 0x20 }
  - { offsetInCU: 0xC931, offset: 0xC931, size: 0x8, addend: 0x0, symName: __ZNSt3__117__compressed_pairIP16PlayerGameEntityNS_14default_deleteIS1_EEE6secondB7v160006Ev, symObjAddr: 0x34C0, symBinAddr: 0x100003B30, symSize: 0x20 }
  - { offsetInCU: 0xC956, offset: 0xC956, size: 0x8, addend: 0x0, symName: __ZNKSt3__114default_deleteI16PlayerGameEntityEclB7v160006EPS1_, symObjAddr: 0x34E0, symBinAddr: 0x100003B50, symSize: 0x40 }
  - { offsetInCU: 0xC989, offset: 0xC989, size: 0x8, addend: 0x0, symName: __ZNSt3__122__compressed_pair_elemIP16PlayerGameEntityLi0ELb0EE5__getB7v160006Ev, symObjAddr: 0x3520, symBinAddr: 0x100003B90, symSize: 0x10 }
  - { offsetInCU: 0xC9AE, offset: 0xC9AE, size: 0x8, addend: 0x0, symName: __ZNSt3__122__compressed_pair_elemINS_14default_deleteI16PlayerGameEntityEELi1ELb1EE5__getB7v160006Ev, symObjAddr: 0x3530, symBinAddr: 0x100003BA0, symSize: 0x10 }
  - { offsetInCU: 0xC9D8, offset: 0xC9D8, size: 0x8, addend: 0x0, symName: __ZN6SpriteC1ERKS_, symObjAddr: 0x3540, symBinAddr: 0x100003BB0, symSize: 0x30 }
  - { offsetInCU: 0xCA0C, offset: 0xCA0C, size: 0x8, addend: 0x0, symName: __ZNSt3__110unique_ptrI15EnemyGameEntityNS_14default_deleteIS1_EEEC1B7v160006ILb1EvEEPS1_, symObjAddr: 0x3570, symBinAddr: 0x100003BE0, symSize: 0x30 }
  - { offsetInCU: 0xCA4E, offset: 0xCA4E, size: 0x8, addend: 0x0, symName: __ZN6SpriteC2ERKS_, symObjAddr: 0x35A0, symBinAddr: 0x100003C10, symSize: 0x40 }
  - { offsetInCU: 0xCA82, offset: 0xCA82, size: 0x8, addend: 0x0, symName: __ZNSt3__110shared_ptrI11SDL_TextureEC1B7v160006ERKS2_, symObjAddr: 0x35E0, symBinAddr: 0x100003C50, symSize: 0x30 }
  - { offsetInCU: 0xCABA, offset: 0xCABA, size: 0x8, addend: 0x0, symName: __ZNSt3__110shared_ptrI11SDL_TextureEC2B7v160006ERKS2_, symObjAddr: 0x3610, symBinAddr: 0x100003C80, symSize: 0x50 }
  - { offsetInCU: 0xCAF2, offset: 0xCAF2, size: 0x8, addend: 0x0, symName: __ZNSt3__119__shared_weak_count12__add_sharedB7v160006Ev, symObjAddr: 0x3660, symBinAddr: 0x100003CD0, symSize: 0x20 }
  - { offsetInCU: 0xCB17, offset: 0xCB17, size: 0x8, addend: 0x0, symName: __ZNSt3__114__shared_count12__add_sharedB7v160006Ev, symObjAddr: 0x3680, symBinAddr: 0x100003CF0, symSize: 0x20 }
  - { offsetInCU: 0xCB3C, offset: 0xCB3C, size: 0x8, addend: 0x0, symName: __ZNSt3__110unique_ptrI15EnemyGameEntityNS_14default_deleteIS1_EEEC2B7v160006ILb1EvEEPS1_, symObjAddr: 0x36D0, symBinAddr: 0x100003D40, symSize: 0x40 }
  - { offsetInCU: 0xCB7E, offset: 0xCB7E, size: 0x8, addend: 0x0, symName: __ZNSt3__117__compressed_pairIP15EnemyGameEntityNS_14default_deleteIS1_EEEC1B7v160006IRS2_NS_16__value_init_tagEEEOT_OT0_, symObjAddr: 0x3710, symBinAddr: 0x100003D80, symSize: 0x30 }
  - { offsetInCU: 0xCBD5, offset: 0xCBD5, size: 0x8, addend: 0x0, symName: __ZNSt3__117__compressed_pairIP15EnemyGameEntityNS_14default_deleteIS1_EEEC2B7v160006IRS2_NS_16__value_init_tagEEEOT_OT0_, symObjAddr: 0x3740, symBinAddr: 0x100003DB0, symSize: 0x40 }
  - { offsetInCU: 0xCC2C, offset: 0xCC2C, size: 0x8, addend: 0x0, symName: __ZNSt3__122__compressed_pair_elemIP15EnemyGameEntityLi0ELb0EEC2B7v160006IRS2_vEEOT_, symObjAddr: 0x3780, symBinAddr: 0x100003DF0, symSize: 0x20 }
  - { offsetInCU: 0xCC6D, offset: 0xCC6D, size: 0x8, addend: 0x0, symName: __ZNSt3__122__compressed_pair_elemINS_14default_deleteI15EnemyGameEntityEELi1ELb1EEC2B7v160006ENS_16__value_init_tagE, symObjAddr: 0x37A0, symBinAddr: 0x100003E10, symSize: 0x10 }
  - { offsetInCU: 0xCCA0, offset: 0xCCA0, size: 0x8, addend: 0x0, symName: __ZNSt3__110unique_ptrI16PlayerGameEntityNS_14default_deleteIS1_EEEC1B7v160006ILb1EvEEPS1_, symObjAddr: 0x37B0, symBinAddr: 0x100003E20, symSize: 0x30 }
  - { offsetInCU: 0xCCE2, offset: 0xCCE2, size: 0x8, addend: 0x0, symName: __ZNSt3__110unique_ptrI16PlayerGameEntityNS_14default_deleteIS1_EEEC2B7v160006ILb1EvEEPS1_, symObjAddr: 0x37E0, symBinAddr: 0x100003E50, symSize: 0x40 }
  - { offsetInCU: 0xCD24, offset: 0xCD24, size: 0x8, addend: 0x0, symName: __ZNSt3__117__compressed_pairIP16PlayerGameEntityNS_14default_deleteIS1_EEEC1B7v160006IRS2_NS_16__value_init_tagEEEOT_OT0_, symObjAddr: 0x3820, symBinAddr: 0x100003E90, symSize: 0x30 }
  - { offsetInCU: 0xCD7B, offset: 0xCD7B, size: 0x8, addend: 0x0, symName: __ZNSt3__117__compressed_pairIP16PlayerGameEntityNS_14default_deleteIS1_EEEC2B7v160006IRS2_NS_16__value_init_tagEEEOT_OT0_, symObjAddr: 0x3850, symBinAddr: 0x100003EC0, symSize: 0x40 }
  - { offsetInCU: 0xCDD2, offset: 0xCDD2, size: 0x8, addend: 0x0, symName: __ZNSt3__122__compressed_pair_elemIP16PlayerGameEntityLi0ELb0EEC2B7v160006IRS2_vEEOT_, symObjAddr: 0x3890, symBinAddr: 0x100003F00, symSize: 0x20 }
  - { offsetInCU: 0xCE13, offset: 0xCE13, size: 0x8, addend: 0x0, symName: __ZNSt3__110unique_ptrI16PlayerGameEntityNS_14default_deleteIS1_EEE7releaseB7v160006Ev, symObjAddr: 0x38B0, symBinAddr: 0x100003F20, symSize: 0x40 }
  - { offsetInCU: 0xCE47, offset: 0xCE47, size: 0x8, addend: 0x0, symName: __ZNSt3__110unique_ptrI16PlayerGameEntityNS_14default_deleteIS1_EEE11get_deleterB7v160006Ev, symObjAddr: 0x38F0, symBinAddr: 0x100003F60, symSize: 0x20 }
  - { offsetInCU: 0xCE6C, offset: 0xCE6C, size: 0x8, addend: 0x0, symName: __ZNKSt3__117__compressed_pairIP16PlayerGameEntityNS_14default_deleteIS1_EEE5firstB7v160006Ev, symObjAddr: 0x3910, symBinAddr: 0x100003F80, symSize: 0x20 }
  - { offsetInCU: 0xCE91, offset: 0xCE91, size: 0x8, addend: 0x0, symName: __ZNKSt3__122__compressed_pair_elemIP16PlayerGameEntityLi0ELb0EE5__getB7v160006Ev, symObjAddr: 0x3930, symBinAddr: 0x100003FA0, symSize: 0x10 }
  - { offsetInCU: 0xCEB6, offset: 0xCEB6, size: 0x8, addend: 0x0, symName: __ZNKSt3__117__compressed_pairIP15EnemyGameEntityNS_14default_deleteIS1_EEE5firstB7v160006Ev, symObjAddr: 0x3940, symBinAddr: 0x100003FB0, symSize: 0x20 }
  - { offsetInCU: 0xCEDB, offset: 0xCEDB, size: 0x8, addend: 0x0, symName: __ZNKSt3__122__compressed_pair_elemIP15EnemyGameEntityLi0ELb0EE5__getB7v160006Ev, symObjAddr: 0x3960, symBinAddr: 0x100003FD0, symSize: 0x10 }
  - { offsetInCU: 0xCF00, offset: 0xCF00, size: 0x8, addend: 0x0, symName: __ZNSt3__110shared_ptrI10ProjectileED2B7v160006Ev, symObjAddr: 0x3970, symBinAddr: 0x100003FE0, symSize: 0x40 }
  - { offsetInCU: 0xCF29, offset: 0xCF29, size: 0x8, addend: 0x0, symName: __ZNSt3__119__shared_weak_count16__release_sharedB7v160006Ev, symObjAddr: 0x39B0, symBinAddr: 0x100004020, symSize: 0x40 }
  - { offsetInCU: 0xCF4E, offset: 0xCF4E, size: 0x8, addend: 0x0, symName: __ZNSt3__114__shared_count16__release_sharedB7v160006Ev, symObjAddr: 0x39F0, symBinAddr: 0x100004060, symSize: 0x50 }
  - { offsetInCU: 0xCF73, offset: 0xCF73, size: 0x8, addend: 0x0, symName: __ZNSt3__110shared_ptrI10GameEntityEC2B7v160006I10ProjectilevEEONS0_IT_EE, symObjAddr: 0x3A70, symBinAddr: 0x1000040E0, symSize: 0x40 }
  - { offsetInCU: 0xCFB5, offset: 0xCFB5, size: 0x8, addend: 0x0, symName: __ZNSt3__110shared_ptrI10GameEntityED2B7v160006Ev, symObjAddr: 0x3AB0, symBinAddr: 0x100004120, symSize: 0x32 }
  - { offsetInCU: 0x31F2, offset: 0x1119E, size: 0x8, addend: 0x0, symName: __ZNSt3__111make_sharedB7v160006I10ProjectileJR6SpriteEvEENS_10shared_ptrIT_EEDpOT0_, symObjAddr: 0x290, symBinAddr: 0x100004390, symSize: 0x40 }
  - { offsetInCU: 0x3235, offset: 0x111E1, size: 0x8, addend: 0x0, symName: __ZNSt3__115allocate_sharedB7v160006I10ProjectileNS_9allocatorIS1_EEJR6SpriteEvEENS_10shared_ptrIT_EERKT0_DpOT1_, symObjAddr: 0xA90, symBinAddr: 0x1000047B0, symSize: 0xB0 }
  - { offsetInCU: 0x3576, offset: 0x11522, size: 0x8, addend: 0x0, symName: __ZNSt3__112construct_atB7v160006I10ProjectileJR6SpriteEPS1_EEPT_S6_DpOT0_, symObjAddr: 0x1290, symBinAddr: 0x100004E80, symSize: 0x80 }
  - { offsetInCU: 0x35E6, offset: 0x11592, size: 0x8, addend: 0x0, symName: __ZNSt3__110destroy_atB7v160006I10ProjectileLi0EEEvPT_, symObjAddr: 0x1390, symBinAddr: 0x100004F80, symSize: 0x20 }
  - { offsetInCU: 0x361D, offset: 0x115C9, size: 0x8, addend: 0x0, symName: __ZNSt3__112__destroy_atB7v160006I10ProjectileLi0EEEvPT_, symObjAddr: 0x13B0, symBinAddr: 0x100004FA0, symSize: 0x20 }
  - { offsetInCU: 0x3687, offset: 0x11633, size: 0x8, addend: 0x0, symName: __ZNSt3__14swapB7v160006IP10ProjectileEENS_9enable_ifIXaasr21is_move_constructibleIT_EE5valuesr18is_move_assignableIS4_EE5valueEvE4typeERS4_S7_, symObjAddr: 0x16D0, symBinAddr: 0x1000051C0, symSize: 0x40 }
  - { offsetInCU: 0x36D8, offset: 0x11684, size: 0x8, addend: 0x0, symName: __ZNSt3__14swapB7v160006IPNS_19__shared_weak_countEEENS_9enable_ifIXaasr21is_move_constructibleIT_EE5valuesr18is_move_assignableIS4_EE5valueEvE4typeERS4_S7_, symObjAddr: 0x1710, symBinAddr: 0x100005200, symSize: 0x40 }
  - { offsetInCU: 0x586E, offset: 0x1381A, size: 0x8, addend: 0x0, symName: __ZN15EnemyGameEntityC2EP12SDL_Renderer6Sprite, symObjAddr: 0x0, symBinAddr: 0x100004160, symSize: 0x210 }
  - { offsetInCU: 0x58D1, offset: 0x1387D, size: 0x8, addend: 0x0, symName: __ZNSt3__110shared_ptrI10ProjectileEC1B7v160006Ev, symObjAddr: 0x240, symBinAddr: 0x100004370, symSize: 0x20 }
  - { offsetInCU: 0x58FF, offset: 0x138AB, size: 0x8, addend: 0x0, symName: __ZNSt3__110shared_ptrI10ProjectileEaSB7v160006EOS2_, symObjAddr: 0x2D0, symBinAddr: 0x1000043D0, symSize: 0x50 }
  - { offsetInCU: 0x5933, offset: 0x138DF, size: 0x8, addend: 0x0, symName: __ZN15EnemyGameEntityC1EP12SDL_Renderer6Sprite, symObjAddr: 0x340, symBinAddr: 0x100004420, symSize: 0x30 }
  - { offsetInCU: 0x597B, offset: 0x13927, size: 0x8, addend: 0x0, symName: __ZN15EnemyGameEntityD2Ev, symObjAddr: 0x370, symBinAddr: 0x100004450, symSize: 0x40 }
  - { offsetInCU: 0x59A5, offset: 0x13951, size: 0x8, addend: 0x0, symName: __ZN15EnemyGameEntityD1Ev, symObjAddr: 0x3B0, symBinAddr: 0x100004490, symSize: 0x20 }
  - { offsetInCU: 0x59CF, offset: 0x1397B, size: 0x8, addend: 0x0, symName: __ZN15EnemyGameEntityD0Ev, symObjAddr: 0x3D0, symBinAddr: 0x1000044B0, symSize: 0x30 }
  - { offsetInCU: 0x59F9, offset: 0x139A5, size: 0x8, addend: 0x0, symName: __ZN15EnemyGameEntity5InputEf, symObjAddr: 0x400, symBinAddr: 0x1000044E0, symSize: 0x10 }
  - { offsetInCU: 0x5A2E, offset: 0x139DA, size: 0x8, addend: 0x0, symName: __ZN15EnemyGameEntity6UpdateEf, symObjAddr: 0x410, symBinAddr: 0x1000044F0, symSize: 0x1C0 }
  - { offsetInCU: 0x5A63, offset: 0x13A0F, size: 0x8, addend: 0x0, symName: __ZNKSt3__110shared_ptrI10ProjectileEptB7v160006Ev, symObjAddr: 0x5D0, symBinAddr: 0x1000046B0, symSize: 0x20 }
  - { offsetInCU: 0x5A88, offset: 0x13A34, size: 0x8, addend: 0x0, symName: __ZN15EnemyGameEntity6RenderEP12SDL_Renderer, symObjAddr: 0x5F0, symBinAddr: 0x1000046D0, symSize: 0x60 }
  - { offsetInCU: 0x5ABD, offset: 0x13A69, size: 0x8, addend: 0x0, symName: __ZNK15EnemyGameEntity13GetProjectileEv, symObjAddr: 0x650, symBinAddr: 0x100004730, symSize: 0x30 }
  - { offsetInCU: 0x5AE4, offset: 0x13A90, size: 0x8, addend: 0x0, symName: __ZNSt3__110shared_ptrI10ProjectileEC1B7v160006ERKS2_, symObjAddr: 0x680, symBinAddr: 0x100004760, symSize: 0x30 }
  - { offsetInCU: 0x5B1C, offset: 0x13AC8, size: 0x8, addend: 0x0, symName: __ZNSt3__110shared_ptrI10ProjectileEC2B7v160006Ev, symObjAddr: 0x7E0, symBinAddr: 0x100004790, symSize: 0x20 }
  - { offsetInCU: 0x5B45, offset: 0x13AF1, size: 0x8, addend: 0x0, symName: __ZNSt3__19allocatorI10ProjectileEC1B7v160006Ev, symObjAddr: 0xB40, symBinAddr: 0x100004860, symSize: 0x20 }
  - { offsetInCU: 0x5B8C, offset: 0x13B38, size: 0x8, addend: 0x0, symName: __ZNSt3__118__allocation_guardINS_9allocatorINS_20__shared_ptr_emplaceI10ProjectileNS1_IS3_EEEEEEEC1B7v160006IS4_EET_m, symObjAddr: 0xB60, symBinAddr: 0x100004880, symSize: 0x30 }
  - { offsetInCU: 0x5BDA, offset: 0x13B86, size: 0x8, addend: 0x0, symName: __ZNKSt3__118__allocation_guardINS_9allocatorINS_20__shared_ptr_emplaceI10ProjectileNS1_IS3_EEEEEEE5__getB7v160006Ev, symObjAddr: 0xB90, symBinAddr: 0x1000048B0, symSize: 0x20 }
  - { offsetInCU: 0x5C04, offset: 0x13BB0, size: 0x8, addend: 0x0, symName: __ZNSt3__120__shared_ptr_emplaceI10ProjectileNS_9allocatorIS1_EEEC1B7v160006IJR6SpriteEEES3_DpOT_, symObjAddr: 0xBB0, symBinAddr: 0x1000048D0, symSize: 0x30 }
  - { offsetInCU: 0x5C56, offset: 0x13C02, size: 0x8, addend: 0x0, symName: __ZNSt3__118__allocation_guardINS_9allocatorINS_20__shared_ptr_emplaceI10ProjectileNS1_IS3_EEEEEEE13__release_ptrB7v160006Ev, symObjAddr: 0xBE0, symBinAddr: 0x100004900, symSize: 0x30 }
  - { offsetInCU: 0x5C89, offset: 0x13C35, size: 0x8, addend: 0x0, symName: __ZNSt3__110shared_ptrI10ProjectileE27__create_with_control_blockB7v160006IS1_NS_20__shared_ptr_emplaceIS1_NS_9allocatorIS1_EEEEEES2_PT_PT0_, symObjAddr: 0xC10, symBinAddr: 0x100004930, symSize: 0x70 }
  - { offsetInCU: 0x5CDE, offset: 0x13C8A, size: 0x8, addend: 0x0, symName: __ZNSt3__120__shared_ptr_emplaceI10ProjectileNS_9allocatorIS1_EEE10__get_elemB7v160006Ev, symObjAddr: 0xC80, symBinAddr: 0x1000049A0, symSize: 0x20 }
  - { offsetInCU: 0x5D03, offset: 0x13CAF, size: 0x8, addend: 0x0, symName: __ZNSt3__118__allocation_guardINS_9allocatorINS_20__shared_ptr_emplaceI10ProjectileNS1_IS3_EEEEEEED1B7v160006Ev, symObjAddr: 0xCA0, symBinAddr: 0x1000049C0, symSize: 0x20 }
  - { offsetInCU: 0x5D2C, offset: 0x13CD8, size: 0x8, addend: 0x0, symName: __ZNSt3__118__allocation_guardINS_9allocatorINS_20__shared_ptr_emplaceI10ProjectileNS1_IS3_EEEEEEEC2B7v160006IS4_EET_m, symObjAddr: 0xCC0, symBinAddr: 0x1000049E0, symSize: 0x50 }
  - { offsetInCU: 0x5D7A, offset: 0x13D26, size: 0x8, addend: 0x0, symName: __ZNSt3__19allocatorINS_20__shared_ptr_emplaceI10ProjectileNS0_IS2_EEEEEC1B7v160006IS2_EERKNS0_IT_EE, symObjAddr: 0xD10, symBinAddr: 0x100004A30, symSize: 0x30 }
  - { offsetInCU: 0x5DB6, offset: 0x13D62, size: 0x8, addend: 0x0, symName: __ZNSt3__116allocator_traitsINS_9allocatorINS_20__shared_ptr_emplaceI10ProjectileNS1_IS3_EEEEEEE8allocateB7v160006ERS6_m, symObjAddr: 0xD40, symBinAddr: 0x100004A60, symSize: 0x30 }
  - { offsetInCU: 0x5DE9, offset: 0x13D95, size: 0x8, addend: 0x0, symName: __ZNSt3__19allocatorINS_20__shared_ptr_emplaceI10ProjectileNS0_IS2_EEEEEC2B7v160006IS2_EERKNS0_IT_EE, symObjAddr: 0xD70, symBinAddr: 0x100004A90, symSize: 0x20 }
  - { offsetInCU: 0x5E25, offset: 0x13DD1, size: 0x8, addend: 0x0, symName: __ZNSt3__116__non_trivial_ifILb1ENS_9allocatorINS_20__shared_ptr_emplaceI10ProjectileNS1_IS3_EEEEEEEC2B7v160006Ev, symObjAddr: 0xD90, symBinAddr: 0x100004AB0, symSize: 0x10 }
  - { offsetInCU: 0x5E4E, offset: 0x13DFA, size: 0x8, addend: 0x0, symName: __ZNSt3__19allocatorINS_20__shared_ptr_emplaceI10ProjectileNS0_IS2_EEEEE8allocateB7v160006Em, symObjAddr: 0xDA0, symBinAddr: 0x100004AC0, symSize: 0x50 }
  - { offsetInCU: 0x5E8B, offset: 0x13E37, size: 0x8, addend: 0x0, symName: __ZNSt3__116allocator_traitsINS_9allocatorINS_20__shared_ptr_emplaceI10ProjectileNS1_IS3_EEEEEEE8max_sizeB7v160006IS6_vvEEmRKS6_, symObjAddr: 0xDF0, symBinAddr: 0x100004B10, symSize: 0x30 }
  - { offsetInCU: 0x5EB7, offset: 0x13E63, size: 0x8, addend: 0x0, symName: __ZNSt3__120__shared_ptr_emplaceI10ProjectileNS_9allocatorIS1_EEEC2B7v160006IJR6SpriteEEES3_DpOT_, symObjAddr: 0xF50, symBinAddr: 0x100004B40, symSize: 0xB0 }
  - { offsetInCU: 0x5F2B, offset: 0x13ED7, size: 0x8, addend: 0x0, symName: __ZNSt3__119__shared_weak_countC2B7v160006El, symObjAddr: 0x1000, symBinAddr: 0x100004BF0, symSize: 0x50 }
  - { offsetInCU: 0x5F62, offset: 0x13F0E, size: 0x8, addend: 0x0, symName: __ZNSt3__120__shared_ptr_emplaceI10ProjectileNS_9allocatorIS1_EEE8_StorageC1B7v160006EOS3_, symObjAddr: 0x1050, symBinAddr: 0x100004C40, symSize: 0x30 }
  - { offsetInCU: 0x5F9A, offset: 0x13F46, size: 0x8, addend: 0x0, symName: __ZNSt3__120__shared_ptr_emplaceI10ProjectileNS_9allocatorIS1_EEE11__get_allocB7v160006Ev, symObjAddr: 0x1080, symBinAddr: 0x100004C70, symSize: 0x20 }
  - { offsetInCU: 0x5FC4, offset: 0x13F70, size: 0x8, addend: 0x0, symName: __ZNSt3__116allocator_traitsINS_9allocatorI10ProjectileEEE9constructB7v160006IS2_JR6SpriteEvvEEvRS3_PT_DpOT0_, symObjAddr: 0x10A0, symBinAddr: 0x100004C90, symSize: 0x30 }
  - { offsetInCU: 0x6019, offset: 0x13FC5, size: 0x8, addend: 0x0, symName: __ZNSt3__120__shared_ptr_emplaceI10ProjectileNS_9allocatorIS1_EEE8_StorageD1B7v160006Ev, symObjAddr: 0x10D0, symBinAddr: 0x100004CC0, symSize: 0x20 }
  - { offsetInCU: 0x6042, offset: 0x13FEE, size: 0x8, addend: 0x0, symName: __ZNSt3__120__shared_ptr_emplaceI10ProjectileNS_9allocatorIS1_EEED1Ev, symObjAddr: 0x10F0, symBinAddr: 0x100004CE0, symSize: 0x20 }
  - { offsetInCU: 0x606E, offset: 0x1401A, size: 0x8, addend: 0x0, symName: __ZNSt3__120__shared_ptr_emplaceI10ProjectileNS_9allocatorIS1_EEED0Ev, symObjAddr: 0x1110, symBinAddr: 0x100004D00, symSize: 0x30 }
  - { offsetInCU: 0x609A, offset: 0x14046, size: 0x8, addend: 0x0, symName: __ZNSt3__120__shared_ptr_emplaceI10ProjectileNS_9allocatorIS1_EEE16__on_zero_sharedEv, symObjAddr: 0x1140, symBinAddr: 0x100004D30, symSize: 0x50 }
  - { offsetInCU: 0x60E1, offset: 0x1408D, size: 0x8, addend: 0x0, symName: __ZNSt3__120__shared_ptr_emplaceI10ProjectileNS_9allocatorIS1_EEE21__on_zero_shared_weakEv, symObjAddr: 0x1190, symBinAddr: 0x100004D80, symSize: 0x60 }
  - { offsetInCU: 0x6121, offset: 0x140CD, size: 0x8, addend: 0x0, symName: __ZNSt3__114__shared_countC2B7v160006El, symObjAddr: 0x11F0, symBinAddr: 0x100004DE0, symSize: 0x30 }
  - { offsetInCU: 0x6158, offset: 0x14104, size: 0x8, addend: 0x0, symName: __ZNSt3__120__shared_ptr_emplaceI10ProjectileNS_9allocatorIS1_EEE8_StorageC2B7v160006EOS3_, symObjAddr: 0x1220, symBinAddr: 0x100004E10, symSize: 0x20 }
  - { offsetInCU: 0x6190, offset: 0x1413C, size: 0x8, addend: 0x0, symName: __ZNSt3__120__shared_ptr_emplaceI10ProjectileNS_9allocatorIS1_EEE8_Storage11__get_allocEv, symObjAddr: 0x1240, symBinAddr: 0x100004E30, symSize: 0x40 }
  - { offsetInCU: 0x61E2, offset: 0x1418E, size: 0x8, addend: 0x0, symName: __ZNSt3__117__compressed_pairINS_9allocatorI10ProjectileEES2_E16__get_first_baseB7v160006EPS4_, symObjAddr: 0x1280, symBinAddr: 0x100004E70, symSize: 0x10 }
  - { offsetInCU: 0x6205, offset: 0x141B1, size: 0x8, addend: 0x0, symName: __ZNSt3__120__shared_ptr_emplaceI10ProjectileNS_9allocatorIS1_EEE8_StorageD2B7v160006Ev, symObjAddr: 0x1310, symBinAddr: 0x100004F00, symSize: 0x20 }
  - { offsetInCU: 0x622E, offset: 0x141DA, size: 0x8, addend: 0x0, symName: __ZNSt3__120__shared_ptr_emplaceI10ProjectileNS_9allocatorIS1_EEED2Ev, symObjAddr: 0x1330, symBinAddr: 0x100004F20, symSize: 0x40 }
  - { offsetInCU: 0x625A, offset: 0x14206, size: 0x8, addend: 0x0, symName: __ZNSt3__116allocator_traitsINS_9allocatorI10ProjectileEEE7destroyB7v160006IS2_vvEEvRS3_PT_, symObjAddr: 0x1370, symBinAddr: 0x100004F60, symSize: 0x20 }
  - { offsetInCU: 0x6295, offset: 0x14241, size: 0x8, addend: 0x0, symName: __ZNSt3__116allocator_traitsINS_9allocatorINS_20__shared_ptr_emplaceI10ProjectileNS1_IS3_EEEEEEE10deallocateB7v160006ERS6_PS5_m, symObjAddr: 0x13D0, symBinAddr: 0x100004FC0, symSize: 0x30 }
  - { offsetInCU: 0x62DC, offset: 0x14288, size: 0x8, addend: 0x0, symName: __ZNSt3__114pointer_traitsIPNS_20__shared_ptr_emplaceI10ProjectileNS_9allocatorIS2_EEEEE10pointer_toB7v160006ERS5_, symObjAddr: 0x1400, symBinAddr: 0x100004FF0, symSize: 0x10 }
  - { offsetInCU: 0x62FF, offset: 0x142AB, size: 0x8, addend: 0x0, symName: __ZNSt3__19allocatorINS_20__shared_ptr_emplaceI10ProjectileNS0_IS2_EEEEE10deallocateB7v160006EPS4_m, symObjAddr: 0x1410, symBinAddr: 0x100005000, symSize: 0x40 }
  - { offsetInCU: 0x6340, offset: 0x142EC, size: 0x8, addend: 0x0, symName: __ZNSt3__110shared_ptrI10ProjectileE18__enable_weak_thisB7v160006Ez, symObjAddr: 0x1550, symBinAddr: 0x100005040, symSize: 0x10 }
  - { offsetInCU: 0x6366, offset: 0x14312, size: 0x8, addend: 0x0, symName: __ZNSt3__120__shared_ptr_emplaceI10ProjectileNS_9allocatorIS1_EEE8_Storage10__get_elemEv, symObjAddr: 0x1560, symBinAddr: 0x100005050, symSize: 0x40 }
  - { offsetInCU: 0x63B8, offset: 0x14364, size: 0x8, addend: 0x0, symName: __ZNSt3__117__compressed_pairINS_9allocatorI10ProjectileEES2_E17__get_second_baseB7v160006EPS4_, symObjAddr: 0x15A0, symBinAddr: 0x100005090, symSize: 0x10 }
  - { offsetInCU: 0x63DB, offset: 0x14387, size: 0x8, addend: 0x0, symName: __ZNSt3__118__allocation_guardINS_9allocatorINS_20__shared_ptr_emplaceI10ProjectileNS1_IS3_EEEEEEED2B7v160006Ev, symObjAddr: 0x15B0, symBinAddr: 0x1000050A0, symSize: 0x40 }
  - { offsetInCU: 0x6404, offset: 0x143B0, size: 0x8, addend: 0x0, symName: __ZNSt3__19allocatorI10ProjectileEC2B7v160006Ev, symObjAddr: 0x15F0, symBinAddr: 0x1000050E0, symSize: 0x20 }
  - { offsetInCU: 0x642D, offset: 0x143D9, size: 0x8, addend: 0x0, symName: __ZNSt3__116__non_trivial_ifILb1ENS_9allocatorI10ProjectileEEEC2B7v160006Ev, symObjAddr: 0x1610, symBinAddr: 0x100005100, symSize: 0x10 }
  - { offsetInCU: 0x6456, offset: 0x14402, size: 0x8, addend: 0x0, symName: __ZNSt3__110shared_ptrI10ProjectileEC1B7v160006EOS2_, symObjAddr: 0x1620, symBinAddr: 0x100005110, symSize: 0x30 }
  - { offsetInCU: 0x648E, offset: 0x1443A, size: 0x8, addend: 0x0, symName: __ZNSt3__110shared_ptrI10ProjectileE4swapB7v160006ERS2_, symObjAddr: 0x1650, symBinAddr: 0x100005140, symSize: 0x40 }
  - { offsetInCU: 0x64C2, offset: 0x1446E, size: 0x8, addend: 0x0, symName: __ZNSt3__110shared_ptrI10ProjectileEC2B7v160006EOS2_, symObjAddr: 0x1690, symBinAddr: 0x100005180, symSize: 0x40 }
  - { offsetInCU: 0x64FA, offset: 0x144A6, size: 0x8, addend: 0x0, symName: __ZNSt3__110shared_ptrI10ProjectileEC2B7v160006ERKS2_, symObjAddr: 0x1750, symBinAddr: 0x100005240, symSize: 0x4C }
  - { offsetInCU: 0x26, offset: 0x14544, size: 0x8, addend: 0x0, symName: __ZN10GameEntityC2E6Sprite, symObjAddr: 0x0, symBinAddr: 0x100005290, symSize: 0x50 }
  - { offsetInCU: 0x2DD9, offset: 0x172F7, size: 0x8, addend: 0x0, symName: __ZNSt3__14swapB7v160006IP11SDL_TextureEENS_9enable_ifIXaasr21is_move_constructibleIT_EE5valuesr18is_move_assignableIS4_EE5valueEvE4typeERS4_S7_, symObjAddr: 0x3F0, symBinAddr: 0x100005590, symSize: 0x40 }
  - { offsetInCU: 0x4FFC, offset: 0x1951A, size: 0x8, addend: 0x0, symName: __ZN10GameEntityC2E6Sprite, symObjAddr: 0x0, symBinAddr: 0x100005290, symSize: 0x50 }
  - { offsetInCU: 0x5040, offset: 0x1955E, size: 0x8, addend: 0x0, symName: __ZN6SpriteaSERKS_, symObjAddr: 0x50, symBinAddr: 0x1000052E0, symSize: 0x50 }
  - { offsetInCU: 0x5070, offset: 0x1958E, size: 0x8, addend: 0x0, symName: __ZN10GameEntityC1E6Sprite, symObjAddr: 0xA0, symBinAddr: 0x100005330, symSize: 0x20 }
  - { offsetInCU: 0x50AA, offset: 0x195C8, size: 0x8, addend: 0x0, symName: __ZN10GameEntityD2Ev, symObjAddr: 0xC0, symBinAddr: 0x100005350, symSize: 0x30 }
  - { offsetInCU: 0x50D5, offset: 0x195F3, size: 0x8, addend: 0x0, symName: __ZN10GameEntityD1Ev, symObjAddr: 0xF0, symBinAddr: 0x100005380, symSize: 0x20 }
  - { offsetInCU: 0x5100, offset: 0x1961E, size: 0x8, addend: 0x0, symName: __ZN10GameEntityD0Ev, symObjAddr: 0x110, symBinAddr: 0x1000053A0, symSize: 0x30 }
  - { offsetInCU: 0x512B, offset: 0x19649, size: 0x8, addend: 0x0, symName: __ZN10GameEntity5InputEf, symObjAddr: 0x140, symBinAddr: 0x1000053D0, symSize: 0x10 }
  - { offsetInCU: 0x5160, offset: 0x1967E, size: 0x8, addend: 0x0, symName: __ZN10GameEntity6UpdateEf, symObjAddr: 0x150, symBinAddr: 0x1000053E0, symSize: 0x10 }
  - { offsetInCU: 0x5195, offset: 0x196B3, size: 0x8, addend: 0x0, symName: __ZN10GameEntity6RenderEP12SDL_Renderer, symObjAddr: 0x160, symBinAddr: 0x1000053F0, symSize: 0x10 }
  - { offsetInCU: 0x51CA, offset: 0x196E8, size: 0x8, addend: 0x0, symName: __ZN10GameEntity13SetRenderableEb, symObjAddr: 0x170, symBinAddr: 0x100005400, symSize: 0x20 }
  - { offsetInCU: 0x51FF, offset: 0x1971D, size: 0x8, addend: 0x0, symName: __ZNK10GameEntity12IsRenderableEv, symObjAddr: 0x190, symBinAddr: 0x100005420, symSize: 0x20 }
  - { offsetInCU: 0x5226, offset: 0x19744, size: 0x8, addend: 0x0, symName: __ZN10GameEntity10IntersectsENSt3__110shared_ptrIS_EE, symObjAddr: 0x1B0, symBinAddr: 0x100005440, symSize: 0x80 }
  - { offsetInCU: 0x5286, offset: 0x197A4, size: 0x8, addend: 0x0, symName: __ZNKSt3__110shared_ptrI10GameEntityEptB7v160006Ev, symObjAddr: 0x230, symBinAddr: 0x1000054C0, symSize: 0x20 }
  - { offsetInCU: 0x52AB, offset: 0x197C9, size: 0x8, addend: 0x0, symName: __ZNSt3__110shared_ptrI11SDL_TextureEaSB7v160006ERKS2_, symObjAddr: 0x250, symBinAddr: 0x1000054E0, symSize: 0x50 }
  - { offsetInCU: 0x52DF, offset: 0x197FD, size: 0x8, addend: 0x0, symName: __ZNSt3__110shared_ptrI11SDL_TextureE4swapB7v160006ERS2_, symObjAddr: 0x2D0, symBinAddr: 0x100005530, symSize: 0x40 }
  - { offsetInCU: 0x5313, offset: 0x19831, size: 0x8, addend: 0x0, symName: __ZNSt3__110shared_ptrI11SDL_TextureED1B7v160006Ev, symObjAddr: 0x310, symBinAddr: 0x100005570, symSize: 0x20 }
  - { offsetInCU: 0x533C, offset: 0x1985A, size: 0x8, addend: 0x0, symName: __ZNSt3__110shared_ptrI11SDL_TextureED2B7v160006Ev, symObjAddr: 0x470, symBinAddr: 0x1000055D0, symSize: 0x40 }
  - { offsetInCU: 0x4C8A, offset: 0x1E530, size: 0x8, addend: 0x0, symName: __ZN16PlayerGameEntityC2EP12SDL_Renderer6Sprite, symObjAddr: 0x0, symBinAddr: 0x100005610, symSize: 0x1C0 }
  - { offsetInCU: 0x4CF2, offset: 0x1E598, size: 0x8, addend: 0x0, symName: __ZN16PlayerGameEntityC1EP12SDL_Renderer6Sprite, symObjAddr: 0x2F0, symBinAddr: 0x1000057D0, symSize: 0x30 }
  - { offsetInCU: 0x4D3A, offset: 0x1E5E0, size: 0x8, addend: 0x0, symName: __ZN16PlayerGameEntityD2Ev, symObjAddr: 0x320, symBinAddr: 0x100005800, symSize: 0x40 }
  - { offsetInCU: 0x4D65, offset: 0x1E60B, size: 0x8, addend: 0x0, symName: __ZN16PlayerGameEntityD1Ev, symObjAddr: 0x360, symBinAddr: 0x100005840, symSize: 0x20 }
  - { offsetInCU: 0x4D90, offset: 0x1E636, size: 0x8, addend: 0x0, symName: __ZN16PlayerGameEntityD0Ev, symObjAddr: 0x380, symBinAddr: 0x100005860, symSize: 0x30 }
  - { offsetInCU: 0x4DBB, offset: 0x1E661, size: 0x8, addend: 0x0, symName: __ZN16PlayerGameEntity5InputEf, symObjAddr: 0x3B0, symBinAddr: 0x100005890, symSize: 0x140 }
  - { offsetInCU: 0x4DFE, offset: 0x1E6A4, size: 0x8, addend: 0x0, symName: __ZN16PlayerGameEntity6UpdateEf, symObjAddr: 0x510, symBinAddr: 0x1000059D0, symSize: 0x40 }
  - { offsetInCU: 0x4E33, offset: 0x1E6D9, size: 0x8, addend: 0x0, symName: __ZN16PlayerGameEntity6RenderEP12SDL_Renderer, symObjAddr: 0x550, symBinAddr: 0x100005A10, symSize: 0x50 }
  - { offsetInCU: 0x4E68, offset: 0x1E70E, size: 0x8, addend: 0x0, symName: __ZNK16PlayerGameEntity13GetProjectileEv, symObjAddr: 0x5A0, symBinAddr: 0x100005A60, symSize: 0x30 }
  - { offsetInCU: 0x26, offset: 0x1E76E, size: 0x8, addend: 0x0, symName: __ZN10ProjectileC2E6Sprite, symObjAddr: 0x0, symBinAddr: 0x100005A90, symSize: 0xC0 }
  - { offsetInCU: 0x4E5A, offset: 0x235A2, size: 0x8, addend: 0x0, symName: __ZN10ProjectileC2E6Sprite, symObjAddr: 0x0, symBinAddr: 0x100005A90, symSize: 0xC0 }
  - { offsetInCU: 0x4E99, offset: 0x235E1, size: 0x8, addend: 0x0, symName: __ZN10ProjectileC1E6Sprite, symObjAddr: 0xF0, symBinAddr: 0x100005B50, symSize: 0x20 }
  - { offsetInCU: 0x4ED3, offset: 0x2361B, size: 0x8, addend: 0x0, symName: __ZN10Projectile6LaunchEffbi, symObjAddr: 0x110, symBinAddr: 0x100005B70, symSize: 0x80 }
  - { offsetInCU: 0x4F32, offset: 0x2367A, size: 0x8, addend: 0x0, symName: __ZN10Projectile6UpdateEf, symObjAddr: 0x190, symBinAddr: 0x100005BF0, symSize: 0x120 }
  - { offsetInCU: 0x4F67, offset: 0x236AF, size: 0x8, addend: 0x0, symName: __ZN10Projectile6RenderEP12SDL_Renderer, symObjAddr: 0x2B0, symBinAddr: 0x100005D10, symSize: 0x50 }
  - { offsetInCU: 0x4F9C, offset: 0x236E4, size: 0x8, addend: 0x0, symName: __ZN10ProjectileD1Ev, symObjAddr: 0x300, symBinAddr: 0x100005D60, symSize: 0x20 }
  - { offsetInCU: 0x4FC7, offset: 0x2370F, size: 0x8, addend: 0x0, symName: __ZN10ProjectileD0Ev, symObjAddr: 0x320, symBinAddr: 0x100005D80, symSize: 0x30 }
  - { offsetInCU: 0x4FF2, offset: 0x2373A, size: 0x8, addend: 0x0, symName: __ZN10ProjectileD2Ev, symObjAddr: 0x480, symBinAddr: 0x100005DB0, symSize: 0x1B }
  - { offsetInCU: 0x4C, offset: 0x237B6, size: 0x8, addend: 0x0, symName: __ZN15ResourceManager9mInstanceE, symObjAddr: 0x515D8, symBinAddr: 0x100010000, symSize: 0x0 }
  - { offsetInCU: 0x5C47, offset: 0x293B1, size: 0x8, addend: 0x0, symName: __ZNSt3__1L19piecewise_constructE, symObjAddr: 0x5EA2, symBinAddr: 0x10000BA10, symSize: 0x0 }
  - { offsetInCU: 0x6C8C, offset: 0x2A3F6, size: 0x8, addend: 0x0, symName: __ZNSt3__1eqB7v160006I11SDL_TextureEEbRKNS_10shared_ptrIT_EEDn, symObjAddr: 0x760, symBinAddr: 0x100006510, symSize: 0x30 }
  - { offsetInCU: 0x6CCF, offset: 0x2A439, size: 0x8, addend: 0x0, symName: __ZNSt3__119__debug_db_insert_cB7v160006INS_13unordered_mapINS_12basic_stringIcNS_11char_traitsIcEENS_9allocatorIcEEEENS_10shared_ptrI11SDL_TextureEENS_4hashIS7_EENS_8equal_toIS7_EENS5_INS_4pairIKS7_SA_EEEEEEEEvPT_, symObjAddr: 0x980, symBinAddr: 0x100006730, symSize: 0x10 }
  - { offsetInCU: 0x6D00, offset: 0x2A46A, size: 0x8, addend: 0x0, symName: __ZNSt3__1neB7v160006ERKNS_25__hash_map_const_iteratorINS_21__hash_const_iteratorIPNS_11__hash_nodeINS_17__hash_value_typeINS_12basic_stringIcNS_11char_traitsIcEENS_9allocatorIcEEEENS_10shared_ptrI11SDL_TextureEEEEPvEEEEEESK_, symObjAddr: 0x1120, symBinAddr: 0x100006E60, symSize: 0x30 }
  - { offsetInCU: 0x6D3D, offset: 0x2A4A7, size: 0x8, addend: 0x0, symName: __ZNSt3__1neB7v160006ERKNS_21__hash_const_iteratorIPNS_11__hash_nodeINS_17__hash_value_typeINS_12basic_stringIcNS_11char_traitsIcEENS_9allocatorIcEEEENS_10shared_ptrI11SDL_TextureEEEEPvEEEESI_, symObjAddr: 0x11C0, symBinAddr: 0x100006F00, symSize: 0x30 }
  - { offsetInCU: 0x6D7A, offset: 0x2A4E4, size: 0x8, addend: 0x0, symName: __ZNSt3__1eqB7v160006ERKNS_21__hash_const_iteratorIPNS_11__hash_nodeINS_17__hash_value_typeINS_12basic_stringIcNS_11char_traitsIcEENS_9allocatorIcEEEENS_10shared_ptrI11SDL_TextureEEEEPvEEEESI_, symObjAddr: 0x11F0, symBinAddr: 0x100006F30, symSize: 0x30 }
  - { offsetInCU: 0x6DB7, offset: 0x2A521, size: 0x8, addend: 0x0, symName: __ZNSt3__116__constrain_hashB7v160006Emm, symObjAddr: 0x1460, symBinAddr: 0x1000071A0, symSize: 0x80 }
  - { offsetInCU: 0x6DF1, offset: 0x2A55B, size: 0x8, addend: 0x0, symName: __ZNSt3__116__do_string_hashB7v160006IPKcEEmT_S3_, symObjAddr: 0x16A0, symBinAddr: 0x1000073E0, symSize: 0x40 }
  - { offsetInCU: 0x6E37, offset: 0x2A5A1, size: 0x8, addend: 0x0, symName: __ZNSt3__110__loadwordB7v160006ImEET_PKv, symObjAddr: 0x2010, symBinAddr: 0x100007D50, symSize: 0x20 }
  - { offsetInCU: 0x6E7A, offset: 0x2A5E4, size: 0x8, addend: 0x0, symName: __ZNSt3__14swapB7v160006ImEENS_9enable_ifIXaasr21is_move_constructibleIT_EE5valuesr18is_move_assignableIS2_EE5valueEvE4typeERS2_S5_, symObjAddr: 0x21D0, symBinAddr: 0x100007F10, symSize: 0x40 }
  - { offsetInCU: 0x6ECB, offset: 0x2A635, size: 0x8, addend: 0x0, symName: __ZNSt3__110__loadwordB7v160006IjEET_PKv, symObjAddr: 0x2260, symBinAddr: 0x100007FA0, symSize: 0x20 }
  - { offsetInCU: 0x6F0E, offset: 0x2A678, size: 0x8, addend: 0x0, symName: __ZNSt3__112__to_addressB7v160006IKcEEPT_S3_, symObjAddr: 0x23B0, symBinAddr: 0x1000080F0, symSize: 0x10 }
  - { offsetInCU: 0x6F76, offset: 0x2A6E0, size: 0x8, addend: 0x0, symName: __ZNSt3__1eqB7v160006INS_9allocatorIcEEEEbRKNS_12basic_stringIcNS_11char_traitsIcEET_EES9_, symObjAddr: 0x2670, symBinAddr: 0x1000083B0, symSize: 0x110 }
  - { offsetInCU: 0x6FE9, offset: 0x2A753, size: 0x8, addend: 0x0, symName: __ZNSt3__118__constexpr_memcmpB7v160006IcEEiPKT_S3_m, symObjAddr: 0x27E0, symBinAddr: 0x100008520, symSize: 0x30 }
  - { offsetInCU: 0x703A, offset: 0x2A7A4, size: 0x8, addend: 0x0, symName: __ZNSt3__17launderB7v160006IKNS_4pairIKNS_12basic_stringIcNS_11char_traitsIcEENS_9allocatorIcEEEENS_10shared_ptrI11SDL_TextureEEEEEEPT_SF_, symObjAddr: 0x2810, symBinAddr: 0x100008550, symSize: 0x20 }
  - { offsetInCU: 0x7071, offset: 0x2A7DB, size: 0x8, addend: 0x0, symName: __ZNSt3__19__launderB7v160006IKNS_4pairIKNS_12basic_stringIcNS_11char_traitsIcEENS_9allocatorIcEEEENS_10shared_ptrI11SDL_TextureEEEEEEPT_SF_, symObjAddr: 0x2830, symBinAddr: 0x100008570, symSize: 0x10 }
  - { offsetInCU: 0x7112, offset: 0x2A87C, size: 0x8, addend: 0x0, symName: __ZNSt3__116forward_as_tupleB7v160006IJRKNS_12basic_stringIcNS_11char_traitsIcEENS_9allocatorIcEEEEEEENS_5tupleIJDpOT_EEESC_, symObjAddr: 0x2E60, symBinAddr: 0x100008BA0, symSize: 0x30 }
  - { offsetInCU: 0x714B, offset: 0x2A8B5, size: 0x8, addend: 0x0, symName: __ZNSt3__116forward_as_tupleB7v160006IJEEENS_5tupleIJDpOT_EEES4_, symObjAddr: 0x2E90, symBinAddr: 0x100008BD0, symSize: 0x10 }
  - { offsetInCU: 0x716F, offset: 0x2A8D9, size: 0x8, addend: 0x0, symName: __ZNSt3__116__is_hash_power2B7v160006Em, symObjAddr: 0x3120, symBinAddr: 0x100008E30, symSize: 0x40 }
  - { offsetInCU: 0x71DE, offset: 0x2A948, size: 0x8, addend: 0x0, symName: __ZNSt3__112construct_atB7v160006INS_4pairIKNS_12basic_stringIcNS_11char_traitsIcEENS_9allocatorIcEEEENS_10shared_ptrI11SDL_TextureEEEEJRKNS_21piecewise_construct_tENS_5tupleIJRS8_EEENSG_IJEEEEPSC_EEPT_SM_DpOT0_, symObjAddr: 0x3770, symBinAddr: 0x100009350, symSize: 0x50 }
  - { offsetInCU: 0x7280, offset: 0x2A9EA, size: 0x8, addend: 0x0, symName: __ZNSt3__13getB7v160006ILm0EJRKNS_12basic_stringIcNS_11char_traitsIcEENS_9allocatorIcEEEEEEERNS_13tuple_elementIXT_ENS_5tupleIJDpT0_EEEE4typeERSD_, symObjAddr: 0x3870, symBinAddr: 0x100009450, symSize: 0x20 }
  - { offsetInCU: 0x72C3, offset: 0x2AA2D, size: 0x8, addend: 0x0, symName: __ZNSt3__116__next_hash_pow2B7v160006Em, symObjAddr: 0x3DD0, symBinAddr: 0x1000099B0, symSize: 0x60 }
  - { offsetInCU: 0x72EF, offset: 0x2AA59, size: 0x8, addend: 0x0, symName: __ZNSt3__125__debug_db_invalidate_allB7v160006INS_12__hash_tableINS_17__hash_value_typeINS_12basic_stringIcNS_11char_traitsIcEENS_9allocatorIcEEEENS_10shared_ptrI11SDL_TextureEEEENS_22__unordered_map_hasherIS8_SC_NS_4hashIS8_EENS_8equal_toIS8_EELb1EEENS_21__unordered_map_equalIS8_SC_SH_SF_Lb1EEENS6_ISC_EEEEEEvPT_, symObjAddr: 0x3E30, symBinAddr: 0x100009A10, symSize: 0x10 }
  - { offsetInCU: 0x7320, offset: 0x2AA8A, size: 0x8, addend: 0x0, symName: __ZNSt3__112__libcpp_clzB7v160006Em, symObjAddr: 0x4220, symBinAddr: 0x100009D00, symSize: 0x20 }
  - { offsetInCU: 0x734C, offset: 0x2AAB6, size: 0x8, addend: 0x0, symName: __ZNSt3__110destroy_atB7v160006INS_4pairIKNS_12basic_stringIcNS_11char_traitsIcEENS_9allocatorIcEEEENS_10shared_ptrI11SDL_TextureEEEELi0EEEvPT_, symObjAddr: 0x44A0, symBinAddr: 0x100009F00, symSize: 0x20 }
  - { offsetInCU: 0x7383, offset: 0x2AAED, size: 0x8, addend: 0x0, symName: __ZNSt3__112__destroy_atB7v160006INS_4pairIKNS_12basic_stringIcNS_11char_traitsIcEENS_9allocatorIcEEEENS_10shared_ptrI11SDL_TextureEEEELi0EEEvPT_, symObjAddr: 0x44C0, symBinAddr: 0x100009F20, symSize: 0x20 }
  - { offsetInCU: 0x7411, offset: 0x2AB7B, size: 0x8, addend: 0x0, symName: __ZNSt3__17launderB7v160006INS_4pairIKNS_12basic_stringIcNS_11char_traitsIcEENS_9allocatorIcEEEENS_10shared_ptrI11SDL_TextureEEEEEEPT_SE_, symObjAddr: 0x4660, symBinAddr: 0x10000A0C0, symSize: 0x20 }
  - { offsetInCU: 0x7448, offset: 0x2ABB2, size: 0x8, addend: 0x0, symName: __ZNSt3__19__launderB7v160006INS_4pairIKNS_12basic_stringIcNS_11char_traitsIcEENS_9allocatorIcEEEENS_10shared_ptrI11SDL_TextureEEEEEEPT_SE_, symObjAddr: 0x4680, symBinAddr: 0x10000A0E0, symSize: 0x10 }
  - { offsetInCU: 0x747F, offset: 0x2ABE9, size: 0x8, addend: 0x0, symName: __ZNSt3__112construct_atB7v160006INS_4pairIKNS_12basic_stringIcNS_11char_traitsIcEENS_9allocatorIcEEEENS_10shared_ptrI11SDL_TextureEEEEJSC_EPSC_EEPT_SF_DpOT0_, symObjAddr: 0x5090, symBinAddr: 0x10000A8B0, symSize: 0x40 }
  - { offsetInCU: 0xA305, offset: 0x2DA6F, size: 0x8, addend: 0x0, symName: __Z19make_shared_textureP12SDL_RendererP11SDL_Surface, symObjAddr: 0x0, symBinAddr: 0x100005DD0, symSize: 0x70 }
  - { offsetInCU: 0xA38D, offset: 0x2DAF7, size: 0x8, addend: 0x0, symName: __ZNSt3__110shared_ptrI11SDL_TextureEC1B7v160006IS1_21TextureFunctorDeletervEEPT_T0_, symObjAddr: 0x70, symBinAddr: 0x100005E40, symSize: 0x30 }
  - { offsetInCU: 0xA517, offset: 0x2DC81, size: 0x8, addend: 0x0, symName: __ZN6SpriteC2Ev, symObjAddr: 0xA0, symBinAddr: 0x100005E70, symSize: 0x60 }
  - { offsetInCU: 0xA542, offset: 0x2DCAC, size: 0x8, addend: 0x0, symName: __ZNSt3__110shared_ptrI11SDL_TextureEC1B7v160006Ev, symObjAddr: 0x100, symBinAddr: 0x100005ED0, symSize: 0x20 }
  - { offsetInCU: 0xA56B, offset: 0x2DCD5, size: 0x8, addend: 0x0, symName: __ZN6SpriteC1Ev, symObjAddr: 0x120, symBinAddr: 0x100005EF0, symSize: 0x20 }
  - { offsetInCU: 0xA596, offset: 0x2DD00, size: 0x8, addend: 0x0, symName: __ZN6Sprite12CreateSpriteEP12SDL_RendererNSt3__112basic_stringIcNS2_11char_traitsIcEENS2_9allocatorIcEEEE, symObjAddr: 0x140, symBinAddr: 0x100005F10, symSize: 0x60 }
  - { offsetInCU: 0xA5DA, offset: 0x2DD44, size: 0x8, addend: 0x0, symName: __ZN15ResourceManager8InstanceEv, symObjAddr: 0x1A0, symBinAddr: 0x100005F70, symSize: 0x80 }
  - { offsetInCU: 0xA5EE, offset: 0x2DD58, size: 0x8, addend: 0x0, symName: __ZN15ResourceManager11LoadTextureEP12SDL_RendererRKNSt3__112basic_stringIcNS2_11char_traitsIcEENS2_9allocatorIcEEEE, symObjAddr: 0x220, symBinAddr: 0x100005FF0, symSize: 0x400 }
  - { offsetInCU: 0xA67F, offset: 0x2DDE9, size: 0x8, addend: 0x0, symName: __ZNSt3__110shared_ptrI11SDL_TextureEaSB7v160006EOS2_, symObjAddr: 0x620, symBinAddr: 0x1000063F0, symSize: 0x50 }
  - { offsetInCU: 0xA6B3, offset: 0x2DE1D, size: 0x8, addend: 0x0, symName: __ZN6SpriteD2Ev, symObjAddr: 0x690, symBinAddr: 0x100006440, symSize: 0x20 }
  - { offsetInCU: 0xA6DE, offset: 0x2DE48, size: 0x8, addend: 0x0, symName: __ZN6SpriteD1Ev, symObjAddr: 0x6B0, symBinAddr: 0x100006460, symSize: 0x20 }
  - { offsetInCU: 0xA709, offset: 0x2DE73, size: 0x8, addend: 0x0, symName: __ZN6Sprite6UpdateEf, symObjAddr: 0x6D0, symBinAddr: 0x100006480, symSize: 0x10 }
  - { offsetInCU: 0xA73E, offset: 0x2DEA8, size: 0x8, addend: 0x0, symName: __ZN6Sprite6RenderEP12SDL_Renderer, symObjAddr: 0x6E0, symBinAddr: 0x100006490, symSize: 0x80 }
  - { offsetInCU: 0xA773, offset: 0x2DEDD, size: 0x8, addend: 0x0, symName: __ZNKSt3__110shared_ptrI11SDL_TextureE3getB7v160006Ev, symObjAddr: 0x790, symBinAddr: 0x100006540, symSize: 0x20 }
  - { offsetInCU: 0xA798, offset: 0x2DF02, size: 0x8, addend: 0x0, symName: __ZN6Sprite4SetWEf, symObjAddr: 0x7B0, symBinAddr: 0x100006560, symSize: 0x20 }
  - { offsetInCU: 0xA7CD, offset: 0x2DF37, size: 0x8, addend: 0x0, symName: __ZN6Sprite4SetXEf, symObjAddr: 0x7D0, symBinAddr: 0x100006580, symSize: 0x20 }
  - { offsetInCU: 0xA802, offset: 0x2DF6C, size: 0x8, addend: 0x0, symName: __ZN6Sprite4SetYEf, symObjAddr: 0x7F0, symBinAddr: 0x1000065A0, symSize: 0x20 }
  - { offsetInCU: 0xA837, offset: 0x2DFA1, size: 0x8, addend: 0x0, symName: __ZNK6Sprite4GetXEv, symObjAddr: 0x810, symBinAddr: 0x1000065C0, symSize: 0x20 }
  - { offsetInCU: 0xA85E, offset: 0x2DFC8, size: 0x8, addend: 0x0, symName: __ZNK6Sprite4GetYEv, symObjAddr: 0x830, symBinAddr: 0x1000065E0, symSize: 0x20 }
  - { offsetInCU: 0xA885, offset: 0x2DFEF, size: 0x8, addend: 0x0, symName: __ZN6Sprite4MoveEff, symObjAddr: 0x850, symBinAddr: 0x100006600, symSize: 0x30 }
  - { offsetInCU: 0xA8C8, offset: 0x2E032, size: 0x8, addend: 0x0, symName: __ZNK6Sprite12GetRectangleEv, symObjAddr: 0x880, symBinAddr: 0x100006630, symSize: 0x20 }
  - { offsetInCU: 0xA8EF, offset: 0x2E059, size: 0x8, addend: 0x0, symName: __ZNSt3__110shared_ptrI11SDL_TextureEC2B7v160006Ev, symObjAddr: 0x8A0, symBinAddr: 0x100006650, symSize: 0x20 }
  - { offsetInCU: 0xA918, offset: 0x2E082, size: 0x8, addend: 0x0, symName: __ZN15ResourceManagerC1Ev, symObjAddr: 0x8C0, symBinAddr: 0x100006670, symSize: 0x20 }
  - { offsetInCU: 0xA941, offset: 0x2E0AB, size: 0x8, addend: 0x0, symName: __ZN15ResourceManagerC2Ev, symObjAddr: 0x8E0, symBinAddr: 0x100006690, symSize: 0x20 }
  - { offsetInCU: 0xA96A, offset: 0x2E0D4, size: 0x8, addend: 0x0, symName: __ZNSt3__113unordered_mapINS_12basic_stringIcNS_11char_traitsIcEENS_9allocatorIcEEEENS_10shared_ptrI11SDL_TextureEENS_4hashIS6_EENS_8equal_toIS6_EENS4_INS_4pairIKS6_S9_EEEEEC1B7v160006Ev, symObjAddr: 0x900, symBinAddr: 0x1000066B0, symSize: 0x20 }
  - { offsetInCU: 0xA993, offset: 0x2E0FD, size: 0x8, addend: 0x0, symName: __ZNSt3__113unordered_mapINS_12basic_stringIcNS_11char_traitsIcEENS_9allocatorIcEEEENS_10shared_ptrI11SDL_TextureEENS_4hashIS6_EENS_8equal_toIS6_EENS4_INS_4pairIKS6_S9_EEEEEC2B7v160006Ev, symObjAddr: 0x920, symBinAddr: 0x1000066D0, symSize: 0x40 }
  - { offsetInCU: 0xA9BC, offset: 0x2E126, size: 0x8, addend: 0x0, symName: __ZNSt3__112__hash_tableINS_17__hash_value_typeINS_12basic_stringIcNS_11char_traitsIcEENS_9allocatorIcEEEENS_10shared_ptrI11SDL_TextureEEEENS_22__unordered_map_hasherIS7_SB_NS_4hashIS7_EENS_8equal_toIS7_EELb1EEENS_21__unordered_map_equalIS7_SB_SG_SE_Lb1EEENS5_ISB_EEEC1Ev, symObjAddr: 0x960, symBinAddr: 0x100006710, symSize: 0x20 }
  - { offsetInCU: 0xA9E7, offset: 0x2E151, size: 0x8, addend: 0x0, symName: __ZNSt3__112__hash_tableINS_17__hash_value_typeINS_12basic_stringIcNS_11char_traitsIcEENS_9allocatorIcEEEENS_10shared_ptrI11SDL_TextureEEEENS_22__unordered_map_hasherIS7_SB_NS_4hashIS7_EENS_8equal_toIS7_EELb1EEENS_21__unordered_map_equalIS7_SB_SG_SE_Lb1EEENS5_ISB_EEEC2Ev, symObjAddr: 0x9A0, symBinAddr: 0x100006740, symSize: 0x80 }
  - { offsetInCU: 0xAA12, offset: 0x2E17C, size: 0x8, addend: 0x0, symName: __ZNSt3__110unique_ptrIA_PNS_16__hash_node_baseIPNS_11__hash_nodeINS_17__hash_value_typeINS_12basic_stringIcNS_11char_traitsIcEENS_9allocatorIcEEEENS_10shared_ptrI11SDL_TextureEEEEPvEEEENS_25__bucket_list_deallocatorINS7_ISI_EEEEEC1B7v160006ILb1EvEEv, symObjAddr: 0xA20, symBinAddr: 0x1000067C0, symSize: 0x20 }
  - { offsetInCU: 0xAA46, offset: 0x2E1B0, size: 0x8, addend: 0x0, symName: __ZNSt3__117__compressed_pairINS_16__hash_node_baseIPNS_11__hash_nodeINS_17__hash_value_typeINS_12basic_stringIcNS_11char_traitsIcEENS_9allocatorIcEEEENS_10shared_ptrI11SDL_TextureEEEEPvEEEENS7_ISF_EEEC1B7v160006ILb1EvEEv, symObjAddr: 0xA40, symBinAddr: 0x1000067E0, symSize: 0x20 }
  - { offsetInCU: 0xAA84, offset: 0x2E1EE, size: 0x8, addend: 0x0, symName: __ZNSt3__117__compressed_pairImNS_22__unordered_map_hasherINS_12basic_stringIcNS_11char_traitsIcEENS_9allocatorIcEEEENS_17__hash_value_typeIS7_NS_10shared_ptrI11SDL_TextureEEEENS_4hashIS7_EENS_8equal_toIS7_EELb1EEEEC1B7v160006IiNS_18__default_init_tagEEEOT_OT0_, symObjAddr: 0xA60, symBinAddr: 0x100006800, symSize: 0x30 }
  - { offsetInCU: 0xAAE0, offset: 0x2E24A, size: 0x8, addend: 0x0, symName: __ZNSt3__117__compressed_pairIfNS_21__unordered_map_equalINS_12basic_stringIcNS_11char_traitsIcEENS_9allocatorIcEEEENS_17__hash_value_typeIS7_NS_10shared_ptrI11SDL_TextureEEEENS_8equal_toIS7_EENS_4hashIS7_EELb1EEEEC1B7v160006IfNS_18__default_init_tagEEEOT_OT0_, symObjAddr: 0xA90, symBinAddr: 0x100006830, symSize: 0x30 }
  - { offsetInCU: 0xAB37, offset: 0x2E2A1, size: 0x8, addend: 0x0, symName: __ZNSt3__110unique_ptrIA_PNS_16__hash_node_baseIPNS_11__hash_nodeINS_17__hash_value_typeINS_12basic_stringIcNS_11char_traitsIcEENS_9allocatorIcEEEENS_10shared_ptrI11SDL_TextureEEEEPvEEEENS_25__bucket_list_deallocatorINS7_ISI_EEEEEC2B7v160006ILb1EvEEv, symObjAddr: 0xAC0, symBinAddr: 0x100006860, symSize: 0x30 }
  - { offsetInCU: 0xAB70, offset: 0x2E2DA, size: 0x8, addend: 0x0, symName: __ZNSt3__117__compressed_pairIPPNS_16__hash_node_baseIPNS_11__hash_nodeINS_17__hash_value_typeINS_12basic_stringIcNS_11char_traitsIcEENS_9allocatorIcEEEENS_10shared_ptrI11SDL_TextureEEEEPvEEEENS_25__bucket_list_deallocatorINS7_ISI_EEEEEC1B7v160006INS_16__value_init_tagESP_EEOT_OT0_, symObjAddr: 0xAF0, symBinAddr: 0x100006890, symSize: 0x30 }
  - { offsetInCU: 0xABC7, offset: 0x2E331, size: 0x8, addend: 0x0, symName: __ZNSt3__117__compressed_pairIPPNS_16__hash_node_baseIPNS_11__hash_nodeINS_17__hash_value_typeINS_12basic_stringIcNS_11char_traitsIcEENS_9allocatorIcEEEENS_10shared_ptrI11SDL_TextureEEEEPvEEEENS_25__bucket_list_deallocatorINS7_ISI_EEEEEC2B7v160006INS_16__value_init_tagESP_EEOT_OT0_, symObjAddr: 0xB20, symBinAddr: 0x1000068C0, symSize: 0x40 }
  - { offsetInCU: 0xAC1E, offset: 0x2E388, size: 0x8, addend: 0x0, symName: __ZNSt3__122__compressed_pair_elemIPPNS_16__hash_node_baseIPNS_11__hash_nodeINS_17__hash_value_typeINS_12basic_stringIcNS_11char_traitsIcEENS_9allocatorIcEEEENS_10shared_ptrI11SDL_TextureEEEEPvEEEELi0ELb0EEC2B7v160006ENS_16__value_init_tagE, symObjAddr: 0xB60, symBinAddr: 0x100006900, symSize: 0x20 }
  - { offsetInCU: 0xAC51, offset: 0x2E3BB, size: 0x8, addend: 0x0, symName: __ZNSt3__122__compressed_pair_elemINS_25__bucket_list_deallocatorINS_9allocatorIPNS_16__hash_node_baseIPNS_11__hash_nodeINS_17__hash_value_typeINS_12basic_stringIcNS_11char_traitsIcEENS2_IcEEEENS_10shared_ptrI11SDL_TextureEEEEPvEEEEEEEELi1ELb0EEC2B7v160006ENS_16__value_init_tagE, symObjAddr: 0xB80, symBinAddr: 0x100006920, symSize: 0x20 }
  - { offsetInCU: 0xAC84, offset: 0x2E3EE, size: 0x8, addend: 0x0, symName: __ZNSt3__125__bucket_list_deallocatorINS_9allocatorIPNS_16__hash_node_baseIPNS_11__hash_nodeINS_17__hash_value_typeINS_12basic_stringIcNS_11char_traitsIcEENS1_IcEEEENS_10shared_ptrI11SDL_TextureEEEEPvEEEEEEEC1B7v160006Ev, symObjAddr: 0xBA0, symBinAddr: 0x100006940, symSize: 0x20 }
  - { offsetInCU: 0xACAD, offset: 0x2E417, size: 0x8, addend: 0x0, symName: __ZNSt3__125__bucket_list_deallocatorINS_9allocatorIPNS_16__hash_node_baseIPNS_11__hash_nodeINS_17__hash_value_typeINS_12basic_stringIcNS_11char_traitsIcEENS1_IcEEEENS_10shared_ptrI11SDL_TextureEEEEPvEEEEEEEC2B7v160006Ev, symObjAddr: 0xBC0, symBinAddr: 0x100006960, symSize: 0x40 }
  - { offsetInCU: 0xACD6, offset: 0x2E440, size: 0x8, addend: 0x0, symName: __ZNSt3__117__compressed_pairImNS_9allocatorIPNS_16__hash_node_baseIPNS_11__hash_nodeINS_17__hash_value_typeINS_12basic_stringIcNS_11char_traitsIcEENS1_IcEEEENS_10shared_ptrI11SDL_TextureEEEEPvEEEEEEEC1B7v160006IiNS_18__default_init_tagEEEOT_OT0_, symObjAddr: 0xC00, symBinAddr: 0x1000069A0, symSize: 0x30 }
  - { offsetInCU: 0xAD2D, offset: 0x2E497, size: 0x8, addend: 0x0, symName: __ZNSt3__117__compressed_pairImNS_9allocatorIPNS_16__hash_node_baseIPNS_11__hash_nodeINS_17__hash_value_typeINS_12basic_stringIcNS_11char_traitsIcEENS1_IcEEEENS_10shared_ptrI11SDL_TextureEEEEPvEEEEEEEC2B7v160006IiNS_18__default_init_tagEEEOT_OT0_, symObjAddr: 0xC30, symBinAddr: 0x1000069D0, symSize: 0x40 }
  - { offsetInCU: 0xAD84, offset: 0x2E4EE, size: 0x8, addend: 0x0, symName: __ZNSt3__122__compressed_pair_elemImLi0ELb0EEC2B7v160006IivEEOT_, symObjAddr: 0xC70, symBinAddr: 0x100006A10, symSize: 0x20 }
  - { offsetInCU: 0xADC5, offset: 0x2E52F, size: 0x8, addend: 0x0, symName: __ZNSt3__122__compressed_pair_elemINS_9allocatorIPNS_16__hash_node_baseIPNS_11__hash_nodeINS_17__hash_value_typeINS_12basic_stringIcNS_11char_traitsIcEENS1_IcEEEENS_10shared_ptrI11SDL_TextureEEEEPvEEEEEELi1ELb1EEC2B7v160006ENS_18__default_init_tagE, symObjAddr: 0xC90, symBinAddr: 0x100006A30, symSize: 0x20 }
  - { offsetInCU: 0xADF8, offset: 0x2E562, size: 0x8, addend: 0x0, symName: __ZNSt3__19allocatorIPNS_16__hash_node_baseIPNS_11__hash_nodeINS_17__hash_value_typeINS_12basic_stringIcNS_11char_traitsIcEENS0_IcEEEENS_10shared_ptrI11SDL_TextureEEEEPvEEEEEC2B7v160006Ev, symObjAddr: 0xCB0, symBinAddr: 0x100006A50, symSize: 0x20 }
  - { offsetInCU: 0xAE21, offset: 0x2E58B, size: 0x8, addend: 0x0, symName: __ZNSt3__116__non_trivial_ifILb1ENS_9allocatorIPNS_16__hash_node_baseIPNS_11__hash_nodeINS_17__hash_value_typeINS_12basic_stringIcNS_11char_traitsIcEENS1_IcEEEENS_10shared_ptrI11SDL_TextureEEEEPvEEEEEEEC2B7v160006Ev, symObjAddr: 0xCD0, symBinAddr: 0x100006A70, symSize: 0x10 }
  - { offsetInCU: 0xAE4A, offset: 0x2E5B4, size: 0x8, addend: 0x0, symName: __ZNSt3__117__compressed_pairINS_16__hash_node_baseIPNS_11__hash_nodeINS_17__hash_value_typeINS_12basic_stringIcNS_11char_traitsIcEENS_9allocatorIcEEEENS_10shared_ptrI11SDL_TextureEEEEPvEEEENS7_ISF_EEEC2B7v160006ILb1EvEEv, symObjAddr: 0xCE0, symBinAddr: 0x100006A80, symSize: 0x30 }
  - { offsetInCU: 0xAE7E, offset: 0x2E5E8, size: 0x8, addend: 0x0, symName: __ZNSt3__122__compressed_pair_elemINS_16__hash_node_baseIPNS_11__hash_nodeINS_17__hash_value_typeINS_12basic_stringIcNS_11char_traitsIcEENS_9allocatorIcEEEENS_10shared_ptrI11SDL_TextureEEEEPvEEEELi0ELb0EEC2B7v160006ENS_16__value_init_tagE, symObjAddr: 0xD10, symBinAddr: 0x100006AB0, symSize: 0x20 }
  - { offsetInCU: 0xAEB1, offset: 0x2E61B, size: 0x8, addend: 0x0, symName: __ZNSt3__122__compressed_pair_elemINS_9allocatorINS_11__hash_nodeINS_17__hash_value_typeINS_12basic_stringIcNS_11char_traitsIcEENS1_IcEEEENS_10shared_ptrI11SDL_TextureEEEEPvEEEELi1ELb1EEC2B7v160006ENS_16__value_init_tagE, symObjAddr: 0xD30, symBinAddr: 0x100006AD0, symSize: 0x20 }
  - { offsetInCU: 0xAEE4, offset: 0x2E64E, size: 0x8, addend: 0x0, symName: __ZNSt3__116__hash_node_baseIPNS_11__hash_nodeINS_17__hash_value_typeINS_12basic_stringIcNS_11char_traitsIcEENS_9allocatorIcEEEENS_10shared_ptrI11SDL_TextureEEEEPvEEEC1B7v160006Ev, symObjAddr: 0xD50, symBinAddr: 0x100006AF0, symSize: 0x20 }
  - { offsetInCU: 0xAF0D, offset: 0x2E677, size: 0x8, addend: 0x0, symName: __ZNSt3__116__hash_node_baseIPNS_11__hash_nodeINS_17__hash_value_typeINS_12basic_stringIcNS_11char_traitsIcEENS_9allocatorIcEEEENS_10shared_ptrI11SDL_TextureEEEEPvEEEC2B7v160006Ev, symObjAddr: 0xD70, symBinAddr: 0x100006B10, symSize: 0x20 }
  - { offsetInCU: 0xAF36, offset: 0x2E6A0, size: 0x8, addend: 0x0, symName: __ZNSt3__19allocatorINS_11__hash_nodeINS_17__hash_value_typeINS_12basic_stringIcNS_11char_traitsIcEENS0_IcEEEENS_10shared_ptrI11SDL_TextureEEEEPvEEEC2B7v160006Ev, symObjAddr: 0xD90, symBinAddr: 0x100006B30, symSize: 0x20 }
  - { offsetInCU: 0xAF5F, offset: 0x2E6C9, size: 0x8, addend: 0x0, symName: __ZNSt3__116__non_trivial_ifILb1ENS_9allocatorINS_11__hash_nodeINS_17__hash_value_typeINS_12basic_stringIcNS_11char_traitsIcEENS1_IcEEEENS_10shared_ptrI11SDL_TextureEEEEPvEEEEEC2B7v160006Ev, symObjAddr: 0xDB0, symBinAddr: 0x100006B50, symSize: 0x10 }
  - { offsetInCU: 0xAF88, offset: 0x2E6F2, size: 0x8, addend: 0x0, symName: __ZNSt3__117__compressed_pairImNS_22__unordered_map_hasherINS_12basic_stringIcNS_11char_traitsIcEENS_9allocatorIcEEEENS_17__hash_value_typeIS7_NS_10shared_ptrI11SDL_TextureEEEENS_4hashIS7_EENS_8equal_toIS7_EELb1EEEEC2B7v160006IiNS_18__default_init_tagEEEOT_OT0_, symObjAddr: 0xDC0, symBinAddr: 0x100006B60, symSize: 0x40 }
  - { offsetInCU: 0xAFDF, offset: 0x2E749, size: 0x8, addend: 0x0, symName: __ZNSt3__122__compressed_pair_elemINS_22__unordered_map_hasherINS_12basic_stringIcNS_11char_traitsIcEENS_9allocatorIcEEEENS_17__hash_value_typeIS7_NS_10shared_ptrI11SDL_TextureEEEENS_4hashIS7_EENS_8equal_toIS7_EELb1EEELi1ELb1EEC2B7v160006ENS_18__default_init_tagE, symObjAddr: 0xE00, symBinAddr: 0x100006BA0, symSize: 0x20 }
  - { offsetInCU: 0xB012, offset: 0x2E77C, size: 0x8, addend: 0x0, symName: __ZNSt3__122__unordered_map_hasherINS_12basic_stringIcNS_11char_traitsIcEENS_9allocatorIcEEEENS_17__hash_value_typeIS6_NS_10shared_ptrI11SDL_TextureEEEENS_4hashIS6_EENS_8equal_toIS6_EELb1EEC2B7v160006Ev, symObjAddr: 0xE20, symBinAddr: 0x100006BC0, symSize: 0x10 }
  - { offsetInCU: 0xB03B, offset: 0x2E7A5, size: 0x8, addend: 0x0, symName: __ZNSt3__117__compressed_pairIfNS_21__unordered_map_equalINS_12basic_stringIcNS_11char_traitsIcEENS_9allocatorIcEEEENS_17__hash_value_typeIS7_NS_10shared_ptrI11SDL_TextureEEEENS_8equal_toIS7_EENS_4hashIS7_EELb1EEEEC2B7v160006IfNS_18__default_init_tagEEEOT_OT0_, symObjAddr: 0xE30, symBinAddr: 0x100006BD0, symSize: 0x40 }
  - { offsetInCU: 0xB092, offset: 0x2E7FC, size: 0x8, addend: 0x0, symName: __ZNSt3__122__compressed_pair_elemIfLi0ELb0EEC2B7v160006IfvEEOT_, symObjAddr: 0xE70, symBinAddr: 0x100006C10, symSize: 0x20 }
  - { offsetInCU: 0xB0D3, offset: 0x2E83D, size: 0x8, addend: 0x0, symName: __ZNSt3__122__compressed_pair_elemINS_21__unordered_map_equalINS_12basic_stringIcNS_11char_traitsIcEENS_9allocatorIcEEEENS_17__hash_value_typeIS7_NS_10shared_ptrI11SDL_TextureEEEENS_8equal_toIS7_EENS_4hashIS7_EELb1EEELi1ELb1EEC2B7v160006ENS_18__default_init_tagE, symObjAddr: 0xE90, symBinAddr: 0x100006C30, symSize: 0x20 }
  - { offsetInCU: 0xB106, offset: 0x2E870, size: 0x8, addend: 0x0, symName: __ZNSt3__121__unordered_map_equalINS_12basic_stringIcNS_11char_traitsIcEENS_9allocatorIcEEEENS_17__hash_value_typeIS6_NS_10shared_ptrI11SDL_TextureEEEENS_8equal_toIS6_EENS_4hashIS6_EELb1EEC2B7v160006Ev, symObjAddr: 0xEB0, symBinAddr: 0x100006C50, symSize: 0x10 }
  - { offsetInCU: 0xB12F, offset: 0x2E899, size: 0x8, addend: 0x0, symName: __ZNKSt3__113unordered_mapINS_12basic_stringIcNS_11char_traitsIcEENS_9allocatorIcEEEENS_10shared_ptrI11SDL_TextureEENS_4hashIS6_EENS_8equal_toIS6_EENS4_INS_4pairIKS6_S9_EEEEE8containsB7v160006ERSF_, symObjAddr: 0xEC0, symBinAddr: 0x100006C60, symSize: 0x50 }
  - { offsetInCU: 0xB163, offset: 0x2E8CD, size: 0x8, addend: 0x0, symName: __ZNKSt3__112basic_stringIcNS_11char_traitsIcEENS_9allocatorIcEEE5c_strB7v160006Ev, symObjAddr: 0xF10, symBinAddr: 0x100006CB0, symSize: 0x20 }
  - { offsetInCU: 0xB188, offset: 0x2E8F2, size: 0x8, addend: 0x0, symName: __ZNSt3__113unordered_mapINS_12basic_stringIcNS_11char_traitsIcEENS_9allocatorIcEEEENS_10shared_ptrI11SDL_TextureEENS_4hashIS6_EENS_8equal_toIS6_EENS4_INS_4pairIKS6_S9_EEEEEixERSF_, symObjAddr: 0xF30, symBinAddr: 0x100006CD0, symSize: 0x70 }
  - { offsetInCU: 0xB1C2, offset: 0x2E92C, size: 0x8, addend: 0x0, symName: __ZNSt3__110shared_ptrI11SDL_TextureEC1B7v160006EDn, symObjAddr: 0x1000, symBinAddr: 0x100006D40, symSize: 0x30 }
  - { offsetInCU: 0xB1F7, offset: 0x2E961, size: 0x8, addend: 0x0, symName: __ZNKSt3__110shared_ptrI11SDL_TextureEcvbB7v160006Ev, symObjAddr: 0x1030, symBinAddr: 0x100006D70, symSize: 0x30 }
  - { offsetInCU: 0xB21C, offset: 0x2E986, size: 0x8, addend: 0x0, symName: __ZNSt3__113unordered_mapINS_12basic_stringIcNS_11char_traitsIcEENS_9allocatorIcEEEENS_10shared_ptrI11SDL_TextureEENS_4hashIS6_EENS_8equal_toIS6_EENS4_INS_4pairIKS6_S9_EEEEE6insertB7v160006EOSG_, symObjAddr: 0x1060, symBinAddr: 0x100006DA0, symSize: 0x40 }
  - { offsetInCU: 0xB250, offset: 0x2E9BA, size: 0x8, addend: 0x0, symName: __ZNSt3__14pairIKNS_12basic_stringIcNS_11char_traitsIcEENS_9allocatorIcEEEENS_10shared_ptrI11SDL_TextureEEEC1B7v160006IRS7_RSA_LPv0EEEOT_OT0_, symObjAddr: 0x10A0, symBinAddr: 0x100006DE0, symSize: 0x30 }
  - { offsetInCU: 0xB2AD, offset: 0x2EA17, size: 0x8, addend: 0x0, symName: __ZNSt3__14pairIKNS_12basic_stringIcNS_11char_traitsIcEENS_9allocatorIcEEEENS_10shared_ptrI11SDL_TextureEEED1Ev, symObjAddr: 0x10D0, symBinAddr: 0x100006E10, symSize: 0x20 }
  - { offsetInCU: 0xB2D8, offset: 0x2EA42, size: 0x8, addend: 0x0, symName: __ZNSt3__110shared_ptrI11SDL_TextureEC1B7v160006EOS2_, symObjAddr: 0x10F0, symBinAddr: 0x100006E30, symSize: 0x30 }
  - { offsetInCU: 0xB310, offset: 0x2EA7A, size: 0x8, addend: 0x0, symName: __ZNKSt3__113unordered_mapINS_12basic_stringIcNS_11char_traitsIcEENS_9allocatorIcEEEENS_10shared_ptrI11SDL_TextureEENS_4hashIS6_EENS_8equal_toIS6_EENS4_INS_4pairIKS6_S9_EEEEE4findB7v160006ERSF_, symObjAddr: 0x1150, symBinAddr: 0x100006E90, symSize: 0x40 }
  - { offsetInCU: 0xB344, offset: 0x2EAAE, size: 0x8, addend: 0x0, symName: __ZNKSt3__113unordered_mapINS_12basic_stringIcNS_11char_traitsIcEENS_9allocatorIcEEEENS_10shared_ptrI11SDL_TextureEENS_4hashIS6_EENS_8equal_toIS6_EENS4_INS_4pairIKS6_S9_EEEEE3endB7v160006Ev, symObjAddr: 0x1190, symBinAddr: 0x100006ED0, symSize: 0x30 }
  - { offsetInCU: 0xB369, offset: 0x2EAD3, size: 0x8, addend: 0x0, symName: __ZNKSt3__112__hash_tableINS_17__hash_value_typeINS_12basic_stringIcNS_11char_traitsIcEENS_9allocatorIcEEEENS_10shared_ptrI11SDL_TextureEEEENS_22__unordered_map_hasherIS7_SB_NS_4hashIS7_EENS_8equal_toIS7_EELb1EEENS_21__unordered_map_equalIS7_SB_SG_SE_Lb1EEENS5_ISB_EEE4findIS7_EENS_21__hash_const_iteratorIPNS_11__hash_nodeISB_PvEEEERKT_, symObjAddr: 0x1220, symBinAddr: 0x100006F60, symSize: 0x190 }
  - { offsetInCU: 0xB3F1, offset: 0x2EB5B, size: 0x8, addend: 0x0, symName: __ZNSt3__125__hash_map_const_iteratorINS_21__hash_const_iteratorIPNS_11__hash_nodeINS_17__hash_value_typeINS_12basic_stringIcNS_11char_traitsIcEENS_9allocatorIcEEEENS_10shared_ptrI11SDL_TextureEEEEPvEEEEEC1B7v160006ESH_, symObjAddr: 0x13B0, symBinAddr: 0x1000070F0, symSize: 0x30 }
  - { offsetInCU: 0xB429, offset: 0x2EB93, size: 0x8, addend: 0x0, symName: __ZNKSt3__112__hash_tableINS_17__hash_value_typeINS_12basic_stringIcNS_11char_traitsIcEENS_9allocatorIcEEEENS_10shared_ptrI11SDL_TextureEEEENS_22__unordered_map_hasherIS7_SB_NS_4hashIS7_EENS_8equal_toIS7_EELb1EEENS_21__unordered_map_equalIS7_SB_SG_SE_Lb1EEENS5_ISB_EEE13hash_functionB7v160006Ev, symObjAddr: 0x13E0, symBinAddr: 0x100007120, symSize: 0x20 }
  - { offsetInCU: 0xB44E, offset: 0x2EBB8, size: 0x8, addend: 0x0, symName: __ZNKSt3__122__unordered_map_hasherINS_12basic_stringIcNS_11char_traitsIcEENS_9allocatorIcEEEENS_17__hash_value_typeIS6_NS_10shared_ptrI11SDL_TextureEEEENS_4hashIS6_EENS_8equal_toIS6_EELb1EEclB7v160006ERKS6_, symObjAddr: 0x1400, symBinAddr: 0x100007140, symSize: 0x30 }
  - { offsetInCU: 0xB482, offset: 0x2EBEC, size: 0x8, addend: 0x0, symName: __ZNKSt3__112__hash_tableINS_17__hash_value_typeINS_12basic_stringIcNS_11char_traitsIcEENS_9allocatorIcEEEENS_10shared_ptrI11SDL_TextureEEEENS_22__unordered_map_hasherIS7_SB_NS_4hashIS7_EENS_8equal_toIS7_EELb1EEENS_21__unordered_map_equalIS7_SB_SG_SE_Lb1EEENS5_ISB_EEE12bucket_countB7v160006Ev, symObjAddr: 0x1430, symBinAddr: 0x100007170, symSize: 0x30 }
  - { offsetInCU: 0xB4A7, offset: 0x2EC11, size: 0x8, addend: 0x0, symName: __ZNKSt3__110unique_ptrIA_PNS_16__hash_node_baseIPNS_11__hash_nodeINS_17__hash_value_typeINS_12basic_stringIcNS_11char_traitsIcEENS_9allocatorIcEEEENS_10shared_ptrI11SDL_TextureEEEEPvEEEENS_25__bucket_list_deallocatorINS7_ISI_EEEEEixB7v160006Em, symObjAddr: 0x14E0, symBinAddr: 0x100007220, symSize: 0x30 }
  - { offsetInCU: 0xB4DB, offset: 0x2EC45, size: 0x8, addend: 0x0, symName: __ZNKSt3__116__hash_node_baseIPNS_11__hash_nodeINS_17__hash_value_typeINS_12basic_stringIcNS_11char_traitsIcEENS_9allocatorIcEEEENS_10shared_ptrI11SDL_TextureEEEEPvEEE6__hashB7v160006Ev, symObjAddr: 0x1510, symBinAddr: 0x100007250, symSize: 0x20 }
  - { offsetInCU: 0xB500, offset: 0x2EC6A, size: 0x8, addend: 0x0, symName: __ZNKSt3__112__hash_tableINS_17__hash_value_typeINS_12basic_stringIcNS_11char_traitsIcEENS_9allocatorIcEEEENS_10shared_ptrI11SDL_TextureEEEENS_22__unordered_map_hasherIS7_SB_NS_4hashIS7_EENS_8equal_toIS7_EELb1EEENS_21__unordered_map_equalIS7_SB_SG_SE_Lb1EEENS5_ISB_EEE6key_eqB7v160006Ev, symObjAddr: 0x1530, symBinAddr: 0x100007270, symSize: 0x20 }
  - { offsetInCU: 0xB525, offset: 0x2EC8F, size: 0x8, addend: 0x0, symName: __ZNKSt3__121__unordered_map_equalINS_12basic_stringIcNS_11char_traitsIcEENS_9allocatorIcEEEENS_17__hash_value_typeIS6_NS_10shared_ptrI11SDL_TextureEEEENS_8equal_toIS6_EENS_4hashIS6_EELb1EEclB7v160006ERKSB_RKS6_, symObjAddr: 0x1550, symBinAddr: 0x100007290, symSize: 0x40 }
  - { offsetInCU: 0xB568, offset: 0x2ECD2, size: 0x8, addend: 0x0, symName: __ZNSt3__116__hash_node_baseIPNS_11__hash_nodeINS_17__hash_value_typeINS_12basic_stringIcNS_11char_traitsIcEENS_9allocatorIcEEEENS_10shared_ptrI11SDL_TextureEEEEPvEEE8__upcastB7v160006Ev, symObjAddr: 0x1590, symBinAddr: 0x1000072D0, symSize: 0x20 }
  - { offsetInCU: 0xB58D, offset: 0x2ECF7, size: 0x8, addend: 0x0, symName: __ZNSt3__121__hash_const_iteratorIPNS_11__hash_nodeINS_17__hash_value_typeINS_12basic_stringIcNS_11char_traitsIcEENS_9allocatorIcEEEENS_10shared_ptrI11SDL_TextureEEEEPvEEEC1B7v160006EPNS_16__hash_node_baseISF_EEPKv, symObjAddr: 0x15B0, symBinAddr: 0x1000072F0, symSize: 0x30 }
  - { offsetInCU: 0xB5D4, offset: 0x2ED3E, size: 0x8, addend: 0x0, symName: __ZNKSt3__112__hash_tableINS_17__hash_value_typeINS_12basic_stringIcNS_11char_traitsIcEENS_9allocatorIcEEEENS_10shared_ptrI11SDL_TextureEEEENS_22__unordered_map_hasherIS7_SB_NS_4hashIS7_EENS_8equal_toIS7_EELb1EEENS_21__unordered_map_equalIS7_SB_SG_SE_Lb1EEENS5_ISB_EEE3endEv, symObjAddr: 0x15E0, symBinAddr: 0x100007320, symSize: 0x30 }
  - { offsetInCU: 0xB5FA, offset: 0x2ED64, size: 0x8, addend: 0x0, symName: __ZNKSt3__117__compressed_pairImNS_22__unordered_map_hasherINS_12basic_stringIcNS_11char_traitsIcEENS_9allocatorIcEEEENS_17__hash_value_typeIS7_NS_10shared_ptrI11SDL_TextureEEEENS_4hashIS7_EENS_8equal_toIS7_EELb1EEEE6secondB7v160006Ev, symObjAddr: 0x1610, symBinAddr: 0x100007350, symSize: 0x20 }
  - { offsetInCU: 0xB61F, offset: 0x2ED89, size: 0x8, addend: 0x0, symName: __ZNKSt3__122__compressed_pair_elemINS_22__unordered_map_hasherINS_12basic_stringIcNS_11char_traitsIcEENS_9allocatorIcEEEENS_17__hash_value_typeIS7_NS_10shared_ptrI11SDL_TextureEEEENS_4hashIS7_EENS_8equal_toIS7_EELb1EEELi1ELb1EE5__getB7v160006Ev, symObjAddr: 0x1630, symBinAddr: 0x100007370, symSize: 0x10 }
  - { offsetInCU: 0xB644, offset: 0x2EDAE, size: 0x8, addend: 0x0, symName: __ZNKSt3__113__string_hashIcNS_9allocatorIcEEEclERKNS_12basic_stringIcNS_11char_traitsIcEES2_EE, symObjAddr: 0x1640, symBinAddr: 0x100007380, symSize: 0x60 }
  - { offsetInCU: 0xB678, offset: 0x2EDE2, size: 0x8, addend: 0x0, symName: __ZNKSt3__112basic_stringIcNS_11char_traitsIcEENS_9allocatorIcEEE4dataB7v160006Ev, symObjAddr: 0x16E0, symBinAddr: 0x100007420, symSize: 0x30 }
  - { offsetInCU: 0xB69D, offset: 0x2EE07, size: 0x8, addend: 0x0, symName: __ZNKSt3__112basic_stringIcNS_11char_traitsIcEENS_9allocatorIcEEE4sizeB7v160006Ev, symObjAddr: 0x1710, symBinAddr: 0x100007450, symSize: 0x50 }
  - { offsetInCU: 0xB6C2, offset: 0x2EE2C, size: 0x8, addend: 0x0, symName: __ZNSt3__121__murmur2_or_cityhashImLm64EEclEPKvm, symObjAddr: 0x1760, symBinAddr: 0x1000074A0, symSize: 0x3D0 }
  - { offsetInCU: 0xB75A, offset: 0x2EEC4, size: 0x8, addend: 0x0, symName: __ZNSt3__121__murmur2_or_cityhashImLm64EE18__hash_len_0_to_16EPKcm, symObjAddr: 0x1B30, symBinAddr: 0x100007870, symSize: 0x180 }
  - { offsetInCU: 0xB833, offset: 0x2EF9D, size: 0x8, addend: 0x0, symName: __ZNSt3__121__murmur2_or_cityhashImLm64EE19__hash_len_17_to_32EPKcm, symObjAddr: 0x1CB0, symBinAddr: 0x1000079F0, symSize: 0x100 }
  - { offsetInCU: 0xB89C, offset: 0x2F006, size: 0x8, addend: 0x0, symName: __ZNSt3__121__murmur2_or_cityhashImLm64EE19__hash_len_33_to_64EPKcm, symObjAddr: 0x1DB0, symBinAddr: 0x100007AF0, symSize: 0x260 }
  - { offsetInCU: 0xB94E, offset: 0x2F0B8, size: 0x8, addend: 0x0, symName: __ZNSt3__121__murmur2_or_cityhashImLm64EE13__hash_len_16Emm, symObjAddr: 0x2030, symBinAddr: 0x100007D70, symSize: 0x90 }
  - { offsetInCU: 0xB9A9, offset: 0x2F113, size: 0x8, addend: 0x0, symName: __ZNSt3__121__murmur2_or_cityhashImLm64EE29__weak_hash_len_32_with_seedsEPKcmm, symObjAddr: 0x20C0, symBinAddr: 0x100007E00, symSize: 0x90 }
  - { offsetInCU: 0xB9E8, offset: 0x2F152, size: 0x8, addend: 0x0, symName: __ZNSt3__121__murmur2_or_cityhashImLm64EE8__rotateEmi, symObjAddr: 0x2150, symBinAddr: 0x100007E90, symSize: 0x50 }
  - { offsetInCU: 0xBA19, offset: 0x2F183, size: 0x8, addend: 0x0, symName: __ZNSt3__14pairImmEaSB7v160006EOS1_, symObjAddr: 0x21A0, symBinAddr: 0x100007EE0, symSize: 0x30 }
  - { offsetInCU: 0xBA4D, offset: 0x2F1B7, size: 0x8, addend: 0x0, symName: __ZNSt3__121__murmur2_or_cityhashImLm64EE11__shift_mixEm, symObjAddr: 0x2210, symBinAddr: 0x100007F50, symSize: 0x20 }
  - { offsetInCU: 0xBA70, offset: 0x2F1DA, size: 0x8, addend: 0x0, symName: __ZNSt3__121__murmur2_or_cityhashImLm64EE22__rotate_by_at_least_1Emi, symObjAddr: 0x2230, symBinAddr: 0x100007F70, symSize: 0x30 }
  - { offsetInCU: 0xBAA1, offset: 0x2F20B, size: 0x8, addend: 0x0, symName: __ZNSt3__121__murmur2_or_cityhashImLm64EE29__weak_hash_len_32_with_seedsEmmmmmm, symObjAddr: 0x2280, symBinAddr: 0x100007FC0, symSize: 0xD0 }
  - { offsetInCU: 0xBB1E, offset: 0x2F288, size: 0x8, addend: 0x0, symName: __ZNSt3__14pairImmEC1B7v160006ImmLPv0EEEOT_OT0_, symObjAddr: 0x2350, symBinAddr: 0x100008090, symSize: 0x30 }
  - { offsetInCU: 0xBB7B, offset: 0x2F2E5, size: 0x8, addend: 0x0, symName: __ZNSt3__14pairImmEC2B7v160006ImmLPv0EEEOT_OT0_, symObjAddr: 0x2380, symBinAddr: 0x1000080C0, symSize: 0x30 }
  - { offsetInCU: 0xBBD8, offset: 0x2F342, size: 0x8, addend: 0x0, symName: __ZNKSt3__112basic_stringIcNS_11char_traitsIcEENS_9allocatorIcEEE13__get_pointerB7v160006Ev, symObjAddr: 0x23C0, symBinAddr: 0x100008100, symSize: 0x50 }
  - { offsetInCU: 0xBBFD, offset: 0x2F367, size: 0x8, addend: 0x0, symName: __ZNKSt3__112basic_stringIcNS_11char_traitsIcEENS_9allocatorIcEEE9__is_longB7v160006Ev, symObjAddr: 0x2410, symBinAddr: 0x100008150, symSize: 0x30 }
  - { offsetInCU: 0xBC22, offset: 0x2F38C, size: 0x8, addend: 0x0, symName: __ZNKSt3__112basic_stringIcNS_11char_traitsIcEENS_9allocatorIcEEE18__get_long_pointerB7v160006Ev, symObjAddr: 0x2440, symBinAddr: 0x100008180, symSize: 0x20 }
  - { offsetInCU: 0xBC47, offset: 0x2F3B1, size: 0x8, addend: 0x0, symName: __ZNKSt3__112basic_stringIcNS_11char_traitsIcEENS_9allocatorIcEEE19__get_short_pointerB7v160006Ev, symObjAddr: 0x2460, symBinAddr: 0x1000081A0, symSize: 0x30 }
  - { offsetInCU: 0xBC6C, offset: 0x2F3D6, size: 0x8, addend: 0x0, symName: __ZNKSt3__117__compressed_pairINS_12basic_stringIcNS_11char_traitsIcEENS_9allocatorIcEEE5__repES5_E5firstB7v160006Ev, symObjAddr: 0x2490, symBinAddr: 0x1000081D0, symSize: 0x20 }
  - { offsetInCU: 0xBC91, offset: 0x2F3FB, size: 0x8, addend: 0x0, symName: __ZNKSt3__122__compressed_pair_elemINS_12basic_stringIcNS_11char_traitsIcEENS_9allocatorIcEEE5__repELi0ELb0EE5__getB7v160006Ev, symObjAddr: 0x24B0, symBinAddr: 0x1000081F0, symSize: 0x10 }
  - { offsetInCU: 0xBCB6, offset: 0x2F420, size: 0x8, addend: 0x0, symName: __ZNSt3__114pointer_traitsIPKcE10pointer_toB7v160006ERS1_, symObjAddr: 0x24C0, symBinAddr: 0x100008200, symSize: 0x10 }
  - { offsetInCU: 0xBCD9, offset: 0x2F443, size: 0x8, addend: 0x0, symName: __ZNKSt3__112basic_stringIcNS_11char_traitsIcEENS_9allocatorIcEEE15__get_long_sizeB7v160006Ev, symObjAddr: 0x24D0, symBinAddr: 0x100008210, symSize: 0x20 }
  - { offsetInCU: 0xBCFE, offset: 0x2F468, size: 0x8, addend: 0x0, symName: __ZNKSt3__112basic_stringIcNS_11char_traitsIcEENS_9allocatorIcEEE16__get_short_sizeB7v160006Ev, symObjAddr: 0x24F0, symBinAddr: 0x100008230, symSize: 0x30 }
  - { offsetInCU: 0xBD23, offset: 0x2F48D, size: 0x8, addend: 0x0, symName: __ZNKSt3__110unique_ptrIA_PNS_16__hash_node_baseIPNS_11__hash_nodeINS_17__hash_value_typeINS_12basic_stringIcNS_11char_traitsIcEENS_9allocatorIcEEEENS_10shared_ptrI11SDL_TextureEEEEPvEEEENS_25__bucket_list_deallocatorINS7_ISI_EEEEE11get_deleterB7v160006Ev, symObjAddr: 0x2520, symBinAddr: 0x100008260, symSize: 0x20 }
  - { offsetInCU: 0xBD48, offset: 0x2F4B2, size: 0x8, addend: 0x0, symName: __ZNKSt3__125__bucket_list_deallocatorINS_9allocatorIPNS_16__hash_node_baseIPNS_11__hash_nodeINS_17__hash_value_typeINS_12basic_stringIcNS_11char_traitsIcEENS1_IcEEEENS_10shared_ptrI11SDL_TextureEEEEPvEEEEEEE4sizeB7v160006Ev, symObjAddr: 0x2540, symBinAddr: 0x100008280, symSize: 0x20 }
  - { offsetInCU: 0xBD6D, offset: 0x2F4D7, size: 0x8, addend: 0x0, symName: __ZNKSt3__117__compressed_pairIPPNS_16__hash_node_baseIPNS_11__hash_nodeINS_17__hash_value_typeINS_12basic_stringIcNS_11char_traitsIcEENS_9allocatorIcEEEENS_10shared_ptrI11SDL_TextureEEEEPvEEEENS_25__bucket_list_deallocatorINS7_ISI_EEEEE6secondB7v160006Ev, symObjAddr: 0x2560, symBinAddr: 0x1000082A0, symSize: 0x20 }
  - { offsetInCU: 0xBD92, offset: 0x2F4FC, size: 0x8, addend: 0x0, symName: __ZNKSt3__122__compressed_pair_elemINS_25__bucket_list_deallocatorINS_9allocatorIPNS_16__hash_node_baseIPNS_11__hash_nodeINS_17__hash_value_typeINS_12basic_stringIcNS_11char_traitsIcEENS2_IcEEEENS_10shared_ptrI11SDL_TextureEEEEPvEEEEEEEELi1ELb0EE5__getB7v160006Ev, symObjAddr: 0x2580, symBinAddr: 0x1000082C0, symSize: 0x10 }
  - { offsetInCU: 0xBDB7, offset: 0x2F521, size: 0x8, addend: 0x0, symName: __ZNKSt3__117__compressed_pairImNS_9allocatorIPNS_16__hash_node_baseIPNS_11__hash_nodeINS_17__hash_value_typeINS_12basic_stringIcNS_11char_traitsIcEENS1_IcEEEENS_10shared_ptrI11SDL_TextureEEEEPvEEEEEEE5firstB7v160006Ev, symObjAddr: 0x2590, symBinAddr: 0x1000082D0, symSize: 0x20 }
  - { offsetInCU: 0xBDDC, offset: 0x2F546, size: 0x8, addend: 0x0, symName: __ZNKSt3__122__compressed_pair_elemImLi0ELb0EE5__getB7v160006Ev, symObjAddr: 0x25B0, symBinAddr: 0x1000082F0, symSize: 0x10 }
  - { offsetInCU: 0xBE01, offset: 0x2F56B, size: 0x8, addend: 0x0, symName: __ZNKSt3__117__compressed_pairIPPNS_16__hash_node_baseIPNS_11__hash_nodeINS_17__hash_value_typeINS_12basic_stringIcNS_11char_traitsIcEENS_9allocatorIcEEEENS_10shared_ptrI11SDL_TextureEEEEPvEEEENS_25__bucket_list_deallocatorINS7_ISI_EEEEE5firstB7v160006Ev, symObjAddr: 0x25C0, symBinAddr: 0x100008300, symSize: 0x20 }
  - { offsetInCU: 0xBE26, offset: 0x2F590, size: 0x8, addend: 0x0, symName: __ZNKSt3__122__compressed_pair_elemIPPNS_16__hash_node_baseIPNS_11__hash_nodeINS_17__hash_value_typeINS_12basic_stringIcNS_11char_traitsIcEENS_9allocatorIcEEEENS_10shared_ptrI11SDL_TextureEEEEPvEEEELi0ELb0EE5__getB7v160006Ev, symObjAddr: 0x25E0, symBinAddr: 0x100008320, symSize: 0x10 }
  - { offsetInCU: 0xBE4B, offset: 0x2F5B5, size: 0x8, addend: 0x0, symName: __ZNKSt3__117__compressed_pairIfNS_21__unordered_map_equalINS_12basic_stringIcNS_11char_traitsIcEENS_9allocatorIcEEEENS_17__hash_value_typeIS7_NS_10shared_ptrI11SDL_TextureEEEENS_8equal_toIS7_EENS_4hashIS7_EELb1EEEE6secondB7v160006Ev, symObjAddr: 0x25F0, symBinAddr: 0x100008330, symSize: 0x20 }
  - { offsetInCU: 0xBE70, offset: 0x2F5DA, size: 0x8, addend: 0x0, symName: __ZNKSt3__122__compressed_pair_elemINS_21__unordered_map_equalINS_12basic_stringIcNS_11char_traitsIcEENS_9allocatorIcEEEENS_17__hash_value_typeIS7_NS_10shared_ptrI11SDL_TextureEEEENS_8equal_toIS7_EENS_4hashIS7_EELb1EEELi1ELb1EE5__getB7v160006Ev, symObjAddr: 0x2610, symBinAddr: 0x100008350, symSize: 0x10 }
  - { offsetInCU: 0xBE95, offset: 0x2F5FF, size: 0x8, addend: 0x0, symName: __ZNKSt3__18equal_toINS_12basic_stringIcNS_11char_traitsIcEENS_9allocatorIcEEEEEclB7v160006ERKS6_S9_, symObjAddr: 0x2620, symBinAddr: 0x100008360, symSize: 0x30 }
  - { offsetInCU: 0xBED8, offset: 0x2F642, size: 0x8, addend: 0x0, symName: __ZNKSt3__117__hash_value_typeINS_12basic_stringIcNS_11char_traitsIcEENS_9allocatorIcEEEENS_10shared_ptrI11SDL_TextureEEE11__get_valueB7v160006Ev, symObjAddr: 0x2650, symBinAddr: 0x100008390, symSize: 0x20 }
  - { offsetInCU: 0xBEFD, offset: 0x2F667, size: 0x8, addend: 0x0, symName: __ZNSt3__111char_traitsIcE7compareEPKcS3_m, symObjAddr: 0x2780, symBinAddr: 0x1000084C0, symSize: 0x60 }
  - { offsetInCU: 0xBF3C, offset: 0x2F6A6, size: 0x8, addend: 0x0, symName: __ZNSt3__114pointer_traitsIPNS_16__hash_node_baseIPNS_11__hash_nodeINS_17__hash_value_typeINS_12basic_stringIcNS_11char_traitsIcEENS_9allocatorIcEEEENS_10shared_ptrI11SDL_TextureEEEEPvEEEEE10pointer_toB7v160006ERSH_, symObjAddr: 0x2840, symBinAddr: 0x100008580, symSize: 0x10 }
  - { offsetInCU: 0xBF5F, offset: 0x2F6C9, size: 0x8, addend: 0x0, symName: __ZNSt3__121__hash_const_iteratorIPNS_11__hash_nodeINS_17__hash_value_typeINS_12basic_stringIcNS_11char_traitsIcEENS_9allocatorIcEEEENS_10shared_ptrI11SDL_TextureEEEEPvEEEC2B7v160006EPNS_16__hash_node_baseISF_EEPKv, symObjAddr: 0x2850, symBinAddr: 0x100008590, symSize: 0x20 }
  - { offsetInCU: 0xBFA6, offset: 0x2F710, size: 0x8, addend: 0x0, symName: __ZNSt3__125__hash_map_const_iteratorINS_21__hash_const_iteratorIPNS_11__hash_nodeINS_17__hash_value_typeINS_12basic_stringIcNS_11char_traitsIcEENS_9allocatorIcEEEENS_10shared_ptrI11SDL_TextureEEEEPvEEEEEC2B7v160006ESH_, symObjAddr: 0x2870, symBinAddr: 0x1000085B0, symSize: 0x20 }
  - { offsetInCU: 0xBFF2, offset: 0x2F75C, size: 0x8, addend: 0x0, symName: __ZNSt3__112__hash_tableINS_17__hash_value_typeINS_12basic_stringIcNS_11char_traitsIcEENS_9allocatorIcEEEENS_10shared_ptrI11SDL_TextureEEEENS_22__unordered_map_hasherIS7_SB_NS_4hashIS7_EENS_8equal_toIS7_EELb1EEENS_21__unordered_map_equalIS7_SB_SG_SE_Lb1EEENS5_ISB_EEE25__emplace_unique_key_argsIS7_JRKNS_21piecewise_construct_tENS_5tupleIJRKS7_EEENSQ_IJEEEEEENS_4pairINS_15__hash_iteratorIPNS_11__hash_nodeISB_PvEEEEbEERKT_DpOT0_, symObjAddr: 0x2890, symBinAddr: 0x1000085D0, symSize: 0x5D0 }
  - { offsetInCU: 0xC0F9, offset: 0x2F863, size: 0x8, addend: 0x0, symName: __ZNKSt3__115__hash_iteratorIPNS_11__hash_nodeINS_17__hash_value_typeINS_12basic_stringIcNS_11char_traitsIcEENS_9allocatorIcEEEENS_10shared_ptrI11SDL_TextureEEEEPvEEEptB7v160006Ev, symObjAddr: 0x2EA0, symBinAddr: 0x100008BE0, symSize: 0x30 }
  - { offsetInCU: 0xC11E, offset: 0x2F888, size: 0x8, addend: 0x0, symName: __ZNSt3__117__hash_value_typeINS_12basic_stringIcNS_11char_traitsIcEENS_9allocatorIcEEEENS_10shared_ptrI11SDL_TextureEEE11__get_valueB7v160006Ev, symObjAddr: 0x2ED0, symBinAddr: 0x100008C10, symSize: 0x20 }
  - { offsetInCU: 0xC143, offset: 0x2F8AD, size: 0x8, addend: 0x0, symName: __ZNSt3__112__hash_tableINS_17__hash_value_typeINS_12basic_stringIcNS_11char_traitsIcEENS_9allocatorIcEEEENS_10shared_ptrI11SDL_TextureEEEENS_22__unordered_map_hasherIS7_SB_NS_4hashIS7_EENS_8equal_toIS7_EELb1EEENS_21__unordered_map_equalIS7_SB_SG_SE_Lb1EEENS5_ISB_EEE13hash_functionB7v160006Ev, symObjAddr: 0x2EF0, symBinAddr: 0x100008C30, symSize: 0x20 }
  - { offsetInCU: 0xC168, offset: 0x2F8D2, size: 0x8, addend: 0x0, symName: __ZNSt3__112__hash_tableINS_17__hash_value_typeINS_12basic_stringIcNS_11char_traitsIcEENS_9allocatorIcEEEENS_10shared_ptrI11SDL_TextureEEEENS_22__unordered_map_hasherIS7_SB_NS_4hashIS7_EENS_8equal_toIS7_EELb1EEENS_21__unordered_map_equalIS7_SB_SG_SE_Lb1EEENS5_ISB_EEE6key_eqB7v160006Ev, symObjAddr: 0x2F10, symBinAddr: 0x100008C50, symSize: 0x20 }
  - { offsetInCU: 0xC18D, offset: 0x2F8F7, size: 0x8, addend: 0x0, symName: __ZNSt3__112__hash_tableINS_17__hash_value_typeINS_12basic_stringIcNS_11char_traitsIcEENS_9allocatorIcEEEENS_10shared_ptrI11SDL_TextureEEEENS_22__unordered_map_hasherIS7_SB_NS_4hashIS7_EENS_8equal_toIS7_EELb1EEENS_21__unordered_map_equalIS7_SB_SG_SE_Lb1EEENS5_ISB_EEE21__construct_node_hashIRKNS_21piecewise_construct_tEJNS_5tupleIJRKS7_EEENSQ_IJEEEEEENS_10unique_ptrINS_11__hash_nodeISB_PvEENS_22__hash_node_destructorINS5_ISY_EEEEEEmOT_DpOT0_, symObjAddr: 0x2F30, symBinAddr: 0x100008C70, symSize: 0x150 }
  - { offsetInCU: 0xC227, offset: 0x2F991, size: 0x8, addend: 0x0, symName: __ZNSt3__112__hash_tableINS_17__hash_value_typeINS_12basic_stringIcNS_11char_traitsIcEENS_9allocatorIcEEEENS_10shared_ptrI11SDL_TextureEEEENS_22__unordered_map_hasherIS7_SB_NS_4hashIS7_EENS_8equal_toIS7_EELb1EEENS_21__unordered_map_equalIS7_SB_SG_SE_Lb1EEENS5_ISB_EEE4sizeB7v160006Ev, symObjAddr: 0x3080, symBinAddr: 0x100008DC0, symSize: 0x20 }
  - { offsetInCU: 0xC24C, offset: 0x2F9B6, size: 0x8, addend: 0x0, symName: __ZNSt3__112__hash_tableINS_17__hash_value_typeINS_12basic_stringIcNS_11char_traitsIcEENS_9allocatorIcEEEENS_10shared_ptrI11SDL_TextureEEEENS_22__unordered_map_hasherIS7_SB_NS_4hashIS7_EENS_8equal_toIS7_EELb1EEENS_21__unordered_map_equalIS7_SB_SG_SE_Lb1EEENS5_ISB_EEE15max_load_factorB7v160006Ev, symObjAddr: 0x30A0, symBinAddr: 0x100008DE0, symSize: 0x20 }
  - { offsetInCU: 0xC271, offset: 0x2F9DB, size: 0x8, addend: 0x0, symName: __ZNSt3__112__hash_tableINS_17__hash_value_typeINS_12basic_stringIcNS_11char_traitsIcEENS_9allocatorIcEEEENS_10shared_ptrI11SDL_TextureEEEENS_22__unordered_map_hasherIS7_SB_NS_4hashIS7_EENS_8equal_toIS7_EELb1EEENS_21__unordered_map_equalIS7_SB_SG_SE_Lb1EEENS5_ISB_EEE15__rehash_uniqueB7v160006Em, symObjAddr: 0x30C0, symBinAddr: 0x100008E00, symSize: 0x30 }
  - { offsetInCU: 0xC2A4, offset: 0x2FA0E, size: 0x8, addend: 0x0, symName: __Z4ceilB7v160006f, symObjAddr: 0x3160, symBinAddr: 0x100008E70, symSize: 0x20 }
  - { offsetInCU: 0xC2D3, offset: 0x2FA3D, size: 0x8, addend: 0x0, symName: __ZNSt3__117__compressed_pairINS_16__hash_node_baseIPNS_11__hash_nodeINS_17__hash_value_typeINS_12basic_stringIcNS_11char_traitsIcEENS_9allocatorIcEEEENS_10shared_ptrI11SDL_TextureEEEEPvEEEENS7_ISF_EEE5firstB7v160006Ev, symObjAddr: 0x3180, symBinAddr: 0x100008E90, symSize: 0x20 }
  - { offsetInCU: 0xC2F8, offset: 0x2FA62, size: 0x8, addend: 0x0, symName: __ZNSt3__116__hash_node_baseIPNS_11__hash_nodeINS_17__hash_value_typeINS_12basic_stringIcNS_11char_traitsIcEENS_9allocatorIcEEEENS_10shared_ptrI11SDL_TextureEEEEPvEEE5__ptrB7v160006Ev, symObjAddr: 0x31A0, symBinAddr: 0x100008EB0, symSize: 0x20 }
  - { offsetInCU: 0xC31D, offset: 0x2FA87, size: 0x8, addend: 0x0, symName: __ZNKSt3__110unique_ptrINS_11__hash_nodeINS_17__hash_value_typeINS_12basic_stringIcNS_11char_traitsIcEENS_9allocatorIcEEEENS_10shared_ptrI11SDL_TextureEEEEPvEENS_22__hash_node_destructorINS6_ISE_EEEEEptB7v160006Ev, symObjAddr: 0x31C0, symBinAddr: 0x100008ED0, symSize: 0x20 }
  - { offsetInCU: 0xC342, offset: 0x2FAAC, size: 0x8, addend: 0x0, symName: __ZNKSt3__110unique_ptrINS_11__hash_nodeINS_17__hash_value_typeINS_12basic_stringIcNS_11char_traitsIcEENS_9allocatorIcEEEENS_10shared_ptrI11SDL_TextureEEEEPvEENS_22__hash_node_destructorINS6_ISE_EEEEE3getB7v160006Ev, symObjAddr: 0x31E0, symBinAddr: 0x100008EF0, symSize: 0x20 }
  - { offsetInCU: 0xC367, offset: 0x2FAD1, size: 0x8, addend: 0x0, symName: __ZNSt3__110unique_ptrINS_11__hash_nodeINS_17__hash_value_typeINS_12basic_stringIcNS_11char_traitsIcEENS_9allocatorIcEEEENS_10shared_ptrI11SDL_TextureEEEEPvEENS_22__hash_node_destructorINS6_ISE_EEEEE7releaseB7v160006Ev, symObjAddr: 0x3200, symBinAddr: 0x100008F10, symSize: 0x40 }
  - { offsetInCU: 0xC39B, offset: 0x2FB05, size: 0x8, addend: 0x0, symName: __ZNSt3__110unique_ptrINS_11__hash_nodeINS_17__hash_value_typeINS_12basic_stringIcNS_11char_traitsIcEENS_9allocatorIcEEEENS_10shared_ptrI11SDL_TextureEEEEPvEENS_22__hash_node_destructorINS6_ISE_EEEEED1B7v160006Ev, symObjAddr: 0x3240, symBinAddr: 0x100008F50, symSize: 0x20 }
  - { offsetInCU: 0xC3C4, offset: 0x2FB2E, size: 0x8, addend: 0x0, symName: __ZNSt3__115__hash_iteratorIPNS_11__hash_nodeINS_17__hash_value_typeINS_12basic_stringIcNS_11char_traitsIcEENS_9allocatorIcEEEENS_10shared_ptrI11SDL_TextureEEEEPvEEEC1B7v160006EPNS_16__hash_node_baseISF_EEPKv, symObjAddr: 0x3260, symBinAddr: 0x100008F70, symSize: 0x30 }
  - { offsetInCU: 0xC415, offset: 0x2FB7F, size: 0x8, addend: 0x0, symName: __ZNSt3__14pairINS_15__hash_iteratorIPNS_11__hash_nodeINS_17__hash_value_typeINS_12basic_stringIcNS_11char_traitsIcEENS_9allocatorIcEEEENS_10shared_ptrI11SDL_TextureEEEEPvEEEEbEC1B7v160006ISH_RbLSE_0EEEOT_OT0_, symObjAddr: 0x3290, symBinAddr: 0x100008FA0, symSize: 0x30 }
  - { offsetInCU: 0xC472, offset: 0x2FBDC, size: 0x8, addend: 0x0, symName: __ZNSt3__117__compressed_pairImNS_22__unordered_map_hasherINS_12basic_stringIcNS_11char_traitsIcEENS_9allocatorIcEEEENS_17__hash_value_typeIS7_NS_10shared_ptrI11SDL_TextureEEEENS_4hashIS7_EENS_8equal_toIS7_EELb1EEEE6secondB7v160006Ev, symObjAddr: 0x32C0, symBinAddr: 0x100008FD0, symSize: 0x20 }
  - { offsetInCU: 0xC497, offset: 0x2FC01, size: 0x8, addend: 0x0, symName: __ZNSt3__122__compressed_pair_elemINS_22__unordered_map_hasherINS_12basic_stringIcNS_11char_traitsIcEENS_9allocatorIcEEEENS_17__hash_value_typeIS7_NS_10shared_ptrI11SDL_TextureEEEENS_4hashIS7_EENS_8equal_toIS7_EELb1EEELi1ELb1EE5__getB7v160006Ev, symObjAddr: 0x32E0, symBinAddr: 0x100008FF0, symSize: 0x10 }
  - { offsetInCU: 0xC4BC, offset: 0x2FC26, size: 0x8, addend: 0x0, symName: __ZNSt3__117__compressed_pairIfNS_21__unordered_map_equalINS_12basic_stringIcNS_11char_traitsIcEENS_9allocatorIcEEEENS_17__hash_value_typeIS7_NS_10shared_ptrI11SDL_TextureEEEENS_8equal_toIS7_EENS_4hashIS7_EELb1EEEE6secondB7v160006Ev, symObjAddr: 0x32F0, symBinAddr: 0x100009000, symSize: 0x20 }
  - { offsetInCU: 0xC4E1, offset: 0x2FC4B, size: 0x8, addend: 0x0, symName: __ZNSt3__122__compressed_pair_elemINS_21__unordered_map_equalINS_12basic_stringIcNS_11char_traitsIcEENS_9allocatorIcEEEENS_17__hash_value_typeIS7_NS_10shared_ptrI11SDL_TextureEEEENS_8equal_toIS7_EENS_4hashIS7_EELb1EEELi1ELb1EE5__getB7v160006Ev, symObjAddr: 0x3310, symBinAddr: 0x100009020, symSize: 0x10 }
  - { offsetInCU: 0xC506, offset: 0x2FC70, size: 0x8, addend: 0x0, symName: __ZNSt3__112__hash_tableINS_17__hash_value_typeINS_12basic_stringIcNS_11char_traitsIcEENS_9allocatorIcEEEENS_10shared_ptrI11SDL_TextureEEEENS_22__unordered_map_hasherIS7_SB_NS_4hashIS7_EENS_8equal_toIS7_EELb1EEENS_21__unordered_map_equalIS7_SB_SG_SE_Lb1EEENS5_ISB_EEE12__node_allocB7v160006Ev, symObjAddr: 0x3320, symBinAddr: 0x100009030, symSize: 0x20 }
  - { offsetInCU: 0xC52B, offset: 0x2FC95, size: 0x8, addend: 0x0, symName: __ZNSt3__116allocator_traitsINS_9allocatorINS_11__hash_nodeINS_17__hash_value_typeINS_12basic_stringIcNS_11char_traitsIcEENS1_IcEEEENS_10shared_ptrI11SDL_TextureEEEEPvEEEEE8allocateB7v160006ERSF_m, symObjAddr: 0x3340, symBinAddr: 0x100009050, symSize: 0x30 }
  - { offsetInCU: 0xC55E, offset: 0x2FCC8, size: 0x8, addend: 0x0, symName: __ZNSt3__122__hash_node_destructorINS_9allocatorINS_11__hash_nodeINS_17__hash_value_typeINS_12basic_stringIcNS_11char_traitsIcEENS1_IcEEEENS_10shared_ptrI11SDL_TextureEEEEPvEEEEEC1B7v160006ERSF_b, symObjAddr: 0x3370, symBinAddr: 0x100009080, symSize: 0x40 }
  - { offsetInCU: 0xC5AA, offset: 0x2FD14, size: 0x8, addend: 0x0, symName: __ZNSt3__110unique_ptrINS_11__hash_nodeINS_17__hash_value_typeINS_12basic_stringIcNS_11char_traitsIcEENS_9allocatorIcEEEENS_10shared_ptrI11SDL_TextureEEEEPvEENS_22__hash_node_destructorINS6_ISE_EEEEEC1B7v160006ILb1EvEEPSE_NS_16__dependent_typeINS_27__unique_ptr_deleter_sfinaeISH_EEXT_EE20__good_rval_ref_typeE, symObjAddr: 0x33B0, symBinAddr: 0x1000090C0, symSize: 0x30 }
  - { offsetInCU: 0xC5FA, offset: 0x2FD64, size: 0x8, addend: 0x0, symName: __ZNSt3__116allocator_traitsINS_9allocatorINS_11__hash_nodeINS_17__hash_value_typeINS_12basic_stringIcNS_11char_traitsIcEENS1_IcEEEENS_10shared_ptrI11SDL_TextureEEEEPvEEEEE9constructB7v160006INS_4pairIKS8_SB_EEJRKNS_21piecewise_construct_tENS_5tupleIJRSJ_EEENSO_IJEEEEvvEEvRSF_PT_DpOT0_, symObjAddr: 0x33E0, symBinAddr: 0x1000090F0, symSize: 0x40 }
  - { offsetInCU: 0xC677, offset: 0x2FDE1, size: 0x8, addend: 0x0, symName: __ZNSt3__122__hash_key_value_typesINS_17__hash_value_typeINS_12basic_stringIcNS_11char_traitsIcEENS_9allocatorIcEEEENS_10shared_ptrI11SDL_TextureEEEEE9__get_ptrB7v160006ERSB_, symObjAddr: 0x3420, symBinAddr: 0x100009130, symSize: 0x20 }
  - { offsetInCU: 0xC69A, offset: 0x2FE04, size: 0x8, addend: 0x0, symName: __ZNSt3__110unique_ptrINS_11__hash_nodeINS_17__hash_value_typeINS_12basic_stringIcNS_11char_traitsIcEENS_9allocatorIcEEEENS_10shared_ptrI11SDL_TextureEEEEPvEENS_22__hash_node_destructorINS6_ISE_EEEEE11get_deleterB7v160006Ev, symObjAddr: 0x3440, symBinAddr: 0x100009150, symSize: 0x20 }
  - { offsetInCU: 0xC6BF, offset: 0x2FE29, size: 0x8, addend: 0x0, symName: __ZNSt3__117__compressed_pairINS_16__hash_node_baseIPNS_11__hash_nodeINS_17__hash_value_typeINS_12basic_stringIcNS_11char_traitsIcEENS_9allocatorIcEEEENS_10shared_ptrI11SDL_TextureEEEEPvEEEENS7_ISF_EEE6secondB7v160006Ev, symObjAddr: 0x3460, symBinAddr: 0x100009170, symSize: 0x20 }
  - { offsetInCU: 0xC6E4, offset: 0x2FE4E, size: 0x8, addend: 0x0, symName: __ZNSt3__122__compressed_pair_elemINS_9allocatorINS_11__hash_nodeINS_17__hash_value_typeINS_12basic_stringIcNS_11char_traitsIcEENS1_IcEEEENS_10shared_ptrI11SDL_TextureEEEEPvEEEELi1ELb1EE5__getB7v160006Ev, symObjAddr: 0x3480, symBinAddr: 0x100009190, symSize: 0x10 }
  - { offsetInCU: 0xC709, offset: 0x2FE73, size: 0x8, addend: 0x0, symName: __ZNSt3__19allocatorINS_11__hash_nodeINS_17__hash_value_typeINS_12basic_stringIcNS_11char_traitsIcEENS0_IcEEEENS_10shared_ptrI11SDL_TextureEEEEPvEEE8allocateB7v160006Em, symObjAddr: 0x3490, symBinAddr: 0x1000091A0, symSize: 0x50 }
  - { offsetInCU: 0xC746, offset: 0x2FEB0, size: 0x8, addend: 0x0, symName: __ZNSt3__116allocator_traitsINS_9allocatorINS_11__hash_nodeINS_17__hash_value_typeINS_12basic_stringIcNS_11char_traitsIcEENS1_IcEEEENS_10shared_ptrI11SDL_TextureEEEEPvEEEEE8max_sizeB7v160006ISF_vvEEmRKSF_, symObjAddr: 0x34E0, symBinAddr: 0x1000091F0, symSize: 0x30 }
  - { offsetInCU: 0xC772, offset: 0x2FEDC, size: 0x8, addend: 0x0, symName: __ZNSt3__122__hash_node_destructorINS_9allocatorINS_11__hash_nodeINS_17__hash_value_typeINS_12basic_stringIcNS_11char_traitsIcEENS1_IcEEEENS_10shared_ptrI11SDL_TextureEEEEPvEEEEEC2B7v160006ERSF_b, symObjAddr: 0x3640, symBinAddr: 0x100009220, symSize: 0x30 }
  - { offsetInCU: 0xC7B9, offset: 0x2FF23, size: 0x8, addend: 0x0, symName: __ZNSt3__110unique_ptrINS_11__hash_nodeINS_17__hash_value_typeINS_12basic_stringIcNS_11char_traitsIcEENS_9allocatorIcEEEENS_10shared_ptrI11SDL_TextureEEEEPvEENS_22__hash_node_destructorINS6_ISE_EEEEEC2B7v160006ILb1EvEEPSE_NS_16__dependent_typeINS_27__unique_ptr_deleter_sfinaeISH_EEXT_EE20__good_rval_ref_typeE, symObjAddr: 0x3670, symBinAddr: 0x100009250, symSize: 0x40 }
  - { offsetInCU: 0xC809, offset: 0x2FF73, size: 0x8, addend: 0x0, symName: __ZNSt3__117__compressed_pairIPNS_11__hash_nodeINS_17__hash_value_typeINS_12basic_stringIcNS_11char_traitsIcEENS_9allocatorIcEEEENS_10shared_ptrI11SDL_TextureEEEEPvEENS_22__hash_node_destructorINS6_ISE_EEEEEC1B7v160006IRSF_SI_EEOT_OT0_, symObjAddr: 0x36B0, symBinAddr: 0x100009290, symSize: 0x30 }
  - { offsetInCU: 0xC860, offset: 0x2FFCA, size: 0x8, addend: 0x0, symName: __ZNSt3__117__compressed_pairIPNS_11__hash_nodeINS_17__hash_value_typeINS_12basic_stringIcNS_11char_traitsIcEENS_9allocatorIcEEEENS_10shared_ptrI11SDL_TextureEEEEPvEENS_22__hash_node_destructorINS6_ISE_EEEEEC2B7v160006IRSF_SI_EEOT_OT0_, symObjAddr: 0x36E0, symBinAddr: 0x1000092C0, symSize: 0x40 }
  - { offsetInCU: 0xC8B7, offset: 0x30021, size: 0x8, addend: 0x0, symName: __ZNSt3__122__compressed_pair_elemIPNS_11__hash_nodeINS_17__hash_value_typeINS_12basic_stringIcNS_11char_traitsIcEENS_9allocatorIcEEEENS_10shared_ptrI11SDL_TextureEEEEPvEELi0ELb0EEC2B7v160006IRSF_vEEOT_, symObjAddr: 0x3720, symBinAddr: 0x100009300, symSize: 0x20 }
  - { offsetInCU: 0xC8F8, offset: 0x30062, size: 0x8, addend: 0x0, symName: __ZNSt3__122__compressed_pair_elemINS_22__hash_node_destructorINS_9allocatorINS_11__hash_nodeINS_17__hash_value_typeINS_12basic_stringIcNS_11char_traitsIcEENS2_IcEEEENS_10shared_ptrI11SDL_TextureEEEEPvEEEEEELi1ELb0EEC2B7v160006ISH_vEEOT_, symObjAddr: 0x3740, symBinAddr: 0x100009320, symSize: 0x30 }
  - { offsetInCU: 0xC939, offset: 0x300A3, size: 0x8, addend: 0x0, symName: __ZNSt3__14pairIKNS_12basic_stringIcNS_11char_traitsIcEENS_9allocatorIcEEEENS_10shared_ptrI11SDL_TextureEEEC1B7v160006IJRS7_EJEEENS_21piecewise_construct_tENS_5tupleIJDpT_EEENSF_IJDpT0_EEE, symObjAddr: 0x37C0, symBinAddr: 0x1000093A0, symSize: 0x30 }
  - { offsetInCU: 0xC99F, offset: 0x30109, size: 0x8, addend: 0x0, symName: __ZNSt3__14pairIKNS_12basic_stringIcNS_11char_traitsIcEENS_9allocatorIcEEEENS_10shared_ptrI11SDL_TextureEEEC1B7v160006IJRS7_EJEJLm0EEJEEENS_21piecewise_construct_tERNS_5tupleIJDpT_EEERNSF_IJDpT0_EEENS_15__tuple_indicesIJXspT1_EEEENSO_IJXspT2_EEEE, symObjAddr: 0x37F0, symBinAddr: 0x1000093D0, symSize: 0x30 }
  - { offsetInCU: 0xCA2E, offset: 0x30198, size: 0x8, addend: 0x0, symName: __ZNSt3__14pairIKNS_12basic_stringIcNS_11char_traitsIcEENS_9allocatorIcEEEENS_10shared_ptrI11SDL_TextureEEEC2B7v160006IJRS7_EJEJLm0EEJEEENS_21piecewise_construct_tERNS_5tupleIJDpT_EEERNSF_IJDpT0_EEENS_15__tuple_indicesIJXspT1_EEEENSO_IJXspT2_EEEE, symObjAddr: 0x3820, symBinAddr: 0x100009400, symSize: 0x50 }
  - { offsetInCU: 0xCABD, offset: 0x30227, size: 0x8, addend: 0x0, symName: __ZNSt3__112__tuple_leafILm0ERKNS_12basic_stringIcNS_11char_traitsIcEENS_9allocatorIcEEEELb0EE3getB7v160006Ev, symObjAddr: 0x3890, symBinAddr: 0x100009470, symSize: 0x20 }
  - { offsetInCU: 0xCAE2, offset: 0x3024C, size: 0x8, addend: 0x0, symName: __ZNSt3__117__compressed_pairIPNS_11__hash_nodeINS_17__hash_value_typeINS_12basic_stringIcNS_11char_traitsIcEENS_9allocatorIcEEEENS_10shared_ptrI11SDL_TextureEEEEPvEENS_22__hash_node_destructorINS6_ISE_EEEEE6secondB7v160006Ev, symObjAddr: 0x38B0, symBinAddr: 0x100009490, symSize: 0x20 }
  - { offsetInCU: 0xCB07, offset: 0x30271, size: 0x8, addend: 0x0, symName: __ZNSt3__122__compressed_pair_elemINS_22__hash_node_destructorINS_9allocatorINS_11__hash_nodeINS_17__hash_value_typeINS_12basic_stringIcNS_11char_traitsIcEENS2_IcEEEENS_10shared_ptrI11SDL_TextureEEEEPvEEEEEELi1ELb0EE5__getB7v160006Ev, symObjAddr: 0x38D0, symBinAddr: 0x1000094B0, symSize: 0x10 }
  - { offsetInCU: 0xCB2C, offset: 0x30296, size: 0x8, addend: 0x0, symName: __ZNSt3__117__compressed_pairImNS_22__unordered_map_hasherINS_12basic_stringIcNS_11char_traitsIcEENS_9allocatorIcEEEENS_17__hash_value_typeIS7_NS_10shared_ptrI11SDL_TextureEEEENS_4hashIS7_EENS_8equal_toIS7_EELb1EEEE5firstB7v160006Ev, symObjAddr: 0x38E0, symBinAddr: 0x1000094C0, symSize: 0x20 }
  - { offsetInCU: 0xCB51, offset: 0x302BB, size: 0x8, addend: 0x0, symName: __ZNSt3__122__compressed_pair_elemImLi0ELb0EE5__getB7v160006Ev, symObjAddr: 0x3900, symBinAddr: 0x1000094E0, symSize: 0x10 }
  - { offsetInCU: 0xCB76, offset: 0x302E0, size: 0x8, addend: 0x0, symName: __ZNSt3__117__compressed_pairIfNS_21__unordered_map_equalINS_12basic_stringIcNS_11char_traitsIcEENS_9allocatorIcEEEENS_17__hash_value_typeIS7_NS_10shared_ptrI11SDL_TextureEEEENS_8equal_toIS7_EENS_4hashIS7_EELb1EEEE5firstB7v160006Ev, symObjAddr: 0x3910, symBinAddr: 0x1000094F0, symSize: 0x20 }
  - { offsetInCU: 0xCB9B, offset: 0x30305, size: 0x8, addend: 0x0, symName: __ZNSt3__122__compressed_pair_elemIfLi0ELb0EE5__getB7v160006Ev, symObjAddr: 0x3930, symBinAddr: 0x100009510, symSize: 0x10 }
  - { offsetInCU: 0xCBC0, offset: 0x3032A, size: 0x8, addend: 0x0, symName: __ZNSt3__112__hash_tableINS_17__hash_value_typeINS_12basic_stringIcNS_11char_traitsIcEENS_9allocatorIcEEEENS_10shared_ptrI11SDL_TextureEEEENS_22__unordered_map_hasherIS7_SB_NS_4hashIS7_EENS_8equal_toIS7_EELb1EEENS_21__unordered_map_equalIS7_SB_SG_SE_Lb1EEENS5_ISB_EEE8__rehashILb1EEEvm, symObjAddr: 0x3940, symBinAddr: 0x100009520, symSize: 0x230 }
  - { offsetInCU: 0xCC0E, offset: 0x30378, size: 0x8, addend: 0x0, symName: __ZNSt3__112__hash_tableINS_17__hash_value_typeINS_12basic_stringIcNS_11char_traitsIcEENS_9allocatorIcEEEENS_10shared_ptrI11SDL_TextureEEEENS_22__unordered_map_hasherIS7_SB_NS_4hashIS7_EENS_8equal_toIS7_EELb1EEENS_21__unordered_map_equalIS7_SB_SG_SE_Lb1EEENS5_ISB_EEE11__do_rehashILb1EEEvm, symObjAddr: 0x3B70, symBinAddr: 0x100009750, symSize: 0x260 }
  - { offsetInCU: 0xCCEF, offset: 0x30459, size: 0x8, addend: 0x0, symName: __ZNSt3__110unique_ptrIA_PNS_16__hash_node_baseIPNS_11__hash_nodeINS_17__hash_value_typeINS_12basic_stringIcNS_11char_traitsIcEENS_9allocatorIcEEEENS_10shared_ptrI11SDL_TextureEEEEPvEEEENS_25__bucket_list_deallocatorINS7_ISI_EEEEE11get_deleterB7v160006Ev, symObjAddr: 0x3E40, symBinAddr: 0x100009A20, symSize: 0x20 }
  - { offsetInCU: 0xCD14, offset: 0x3047E, size: 0x8, addend: 0x0, symName: __ZNSt3__125__bucket_list_deallocatorINS_9allocatorIPNS_16__hash_node_baseIPNS_11__hash_nodeINS_17__hash_value_typeINS_12basic_stringIcNS_11char_traitsIcEENS1_IcEEEENS_10shared_ptrI11SDL_TextureEEEEPvEEEEEEE7__allocB7v160006Ev, symObjAddr: 0x3E60, symBinAddr: 0x100009A40, symSize: 0x20 }
  - { offsetInCU: 0xCD39, offset: 0x304A3, size: 0x8, addend: 0x0, symName: __ZNSt3__110unique_ptrIA_PNS_16__hash_node_baseIPNS_11__hash_nodeINS_17__hash_value_typeINS_12basic_stringIcNS_11char_traitsIcEENS_9allocatorIcEEEENS_10shared_ptrI11SDL_TextureEEEEPvEEEENS_25__bucket_list_deallocatorINS7_ISI_EEEEE5resetB7v160006IPSI_EENS_9enable_ifIXsr28_CheckArrayPointerConversionIT_EE5valueEvE4typeESR_, symObjAddr: 0x3E80, symBinAddr: 0x100009A60, symSize: 0x70 }
  - { offsetInCU: 0xCD85, offset: 0x304EF, size: 0x8, addend: 0x0, symName: __ZNSt3__116allocator_traitsINS_9allocatorIPNS_16__hash_node_baseIPNS_11__hash_nodeINS_17__hash_value_typeINS_12basic_stringIcNS_11char_traitsIcEENS1_IcEEEENS_10shared_ptrI11SDL_TextureEEEEPvEEEEEEE8allocateB7v160006ERSJ_m, symObjAddr: 0x3EF0, symBinAddr: 0x100009AD0, symSize: 0x30 }
  - { offsetInCU: 0xCDB8, offset: 0x30522, size: 0x8, addend: 0x0, symName: __ZNSt3__125__bucket_list_deallocatorINS_9allocatorIPNS_16__hash_node_baseIPNS_11__hash_nodeINS_17__hash_value_typeINS_12basic_stringIcNS_11char_traitsIcEENS1_IcEEEENS_10shared_ptrI11SDL_TextureEEEEPvEEEEEEE4sizeB7v160006Ev, symObjAddr: 0x3F20, symBinAddr: 0x100009B00, symSize: 0x20 }
  - { offsetInCU: 0xCDDD, offset: 0x30547, size: 0x8, addend: 0x0, symName: __ZNSt3__117__compressed_pairIPPNS_16__hash_node_baseIPNS_11__hash_nodeINS_17__hash_value_typeINS_12basic_stringIcNS_11char_traitsIcEENS_9allocatorIcEEEENS_10shared_ptrI11SDL_TextureEEEEPvEEEENS_25__bucket_list_deallocatorINS7_ISI_EEEEE6secondB7v160006Ev, symObjAddr: 0x3F40, symBinAddr: 0x100009B20, symSize: 0x20 }
  - { offsetInCU: 0xCE02, offset: 0x3056C, size: 0x8, addend: 0x0, symName: __ZNSt3__122__compressed_pair_elemINS_25__bucket_list_deallocatorINS_9allocatorIPNS_16__hash_node_baseIPNS_11__hash_nodeINS_17__hash_value_typeINS_12basic_stringIcNS_11char_traitsIcEENS2_IcEEEENS_10shared_ptrI11SDL_TextureEEEEPvEEEEEEEELi1ELb0EE5__getB7v160006Ev, symObjAddr: 0x3F60, symBinAddr: 0x100009B40, symSize: 0x10 }
  - { offsetInCU: 0xCE27, offset: 0x30591, size: 0x8, addend: 0x0, symName: __ZNSt3__117__compressed_pairImNS_9allocatorIPNS_16__hash_node_baseIPNS_11__hash_nodeINS_17__hash_value_typeINS_12basic_stringIcNS_11char_traitsIcEENS1_IcEEEENS_10shared_ptrI11SDL_TextureEEEEPvEEEEEEE6secondB7v160006Ev, symObjAddr: 0x3F70, symBinAddr: 0x100009B50, symSize: 0x20 }
  - { offsetInCU: 0xCE4C, offset: 0x305B6, size: 0x8, addend: 0x0, symName: __ZNSt3__122__compressed_pair_elemINS_9allocatorIPNS_16__hash_node_baseIPNS_11__hash_nodeINS_17__hash_value_typeINS_12basic_stringIcNS_11char_traitsIcEENS1_IcEEEENS_10shared_ptrI11SDL_TextureEEEEPvEEEEEELi1ELb1EE5__getB7v160006Ev, symObjAddr: 0x3F90, symBinAddr: 0x100009B70, symSize: 0x10 }
  - { offsetInCU: 0xCE71, offset: 0x305DB, size: 0x8, addend: 0x0, symName: __ZNSt3__117__compressed_pairIPPNS_16__hash_node_baseIPNS_11__hash_nodeINS_17__hash_value_typeINS_12basic_stringIcNS_11char_traitsIcEENS_9allocatorIcEEEENS_10shared_ptrI11SDL_TextureEEEEPvEEEENS_25__bucket_list_deallocatorINS7_ISI_EEEEE5firstB7v160006Ev, symObjAddr: 0x3FA0, symBinAddr: 0x100009B80, symSize: 0x20 }
  - { offsetInCU: 0xCE96, offset: 0x30600, size: 0x8, addend: 0x0, symName: __ZNSt3__125__bucket_list_deallocatorINS_9allocatorIPNS_16__hash_node_baseIPNS_11__hash_nodeINS_17__hash_value_typeINS_12basic_stringIcNS_11char_traitsIcEENS1_IcEEEENS_10shared_ptrI11SDL_TextureEEEEPvEEEEEEEclB7v160006EPSI_, symObjAddr: 0x3FC0, symBinAddr: 0x100009BA0, symSize: 0x50 }
  - { offsetInCU: 0xCECA, offset: 0x30634, size: 0x8, addend: 0x0, symName: __ZNSt3__122__compressed_pair_elemIPPNS_16__hash_node_baseIPNS_11__hash_nodeINS_17__hash_value_typeINS_12basic_stringIcNS_11char_traitsIcEENS_9allocatorIcEEEENS_10shared_ptrI11SDL_TextureEEEEPvEEEELi0ELb0EE5__getB7v160006Ev, symObjAddr: 0x4010, symBinAddr: 0x100009BF0, symSize: 0x10 }
  - { offsetInCU: 0xCEEF, offset: 0x30659, size: 0x8, addend: 0x0, symName: __ZNSt3__116allocator_traitsINS_9allocatorIPNS_16__hash_node_baseIPNS_11__hash_nodeINS_17__hash_value_typeINS_12basic_stringIcNS_11char_traitsIcEENS1_IcEEEENS_10shared_ptrI11SDL_TextureEEEEPvEEEEEEE10deallocateB7v160006ERSJ_PSI_m, symObjAddr: 0x4020, symBinAddr: 0x100009C00, symSize: 0x30 }
  - { offsetInCU: 0xCF31, offset: 0x3069B, size: 0x8, addend: 0x0, symName: __ZNSt3__19allocatorIPNS_16__hash_node_baseIPNS_11__hash_nodeINS_17__hash_value_typeINS_12basic_stringIcNS_11char_traitsIcEENS0_IcEEEENS_10shared_ptrI11SDL_TextureEEEEPvEEEEE10deallocateB7v160006EPSH_m, symObjAddr: 0x4050, symBinAddr: 0x100009C30, symSize: 0x40 }
  - { offsetInCU: 0xCF72, offset: 0x306DC, size: 0x8, addend: 0x0, symName: __ZNSt3__19allocatorIPNS_16__hash_node_baseIPNS_11__hash_nodeINS_17__hash_value_typeINS_12basic_stringIcNS_11char_traitsIcEENS0_IcEEEENS_10shared_ptrI11SDL_TextureEEEEPvEEEEE8allocateB7v160006Em, symObjAddr: 0x4190, symBinAddr: 0x100009C70, symSize: 0x50 }
  - { offsetInCU: 0xCFAF, offset: 0x30719, size: 0x8, addend: 0x0, symName: __ZNSt3__116allocator_traitsINS_9allocatorIPNS_16__hash_node_baseIPNS_11__hash_nodeINS_17__hash_value_typeINS_12basic_stringIcNS_11char_traitsIcEENS1_IcEEEENS_10shared_ptrI11SDL_TextureEEEEPvEEEEEEE8max_sizeB7v160006ISJ_vvEEmRKSJ_, symObjAddr: 0x41E0, symBinAddr: 0x100009CC0, symSize: 0x20 }
  - { offsetInCU: 0xCFDB, offset: 0x30745, size: 0x8, addend: 0x0, symName: __ZNSt3__117__compressed_pairImNS_9allocatorIPNS_16__hash_node_baseIPNS_11__hash_nodeINS_17__hash_value_typeINS_12basic_stringIcNS_11char_traitsIcEENS1_IcEEEENS_10shared_ptrI11SDL_TextureEEEEPvEEEEEEE5firstB7v160006Ev, symObjAddr: 0x4200, symBinAddr: 0x100009CE0, symSize: 0x20 }
  - { offsetInCU: 0xD000, offset: 0x3076A, size: 0x8, addend: 0x0, symName: __ZNSt3__122__compressed_pair_elemINS_16__hash_node_baseIPNS_11__hash_nodeINS_17__hash_value_typeINS_12basic_stringIcNS_11char_traitsIcEENS_9allocatorIcEEEENS_10shared_ptrI11SDL_TextureEEEEPvEEEELi0ELb0EE5__getB7v160006Ev, symObjAddr: 0x42C0, symBinAddr: 0x100009D20, symSize: 0x10 }
  - { offsetInCU: 0xD025, offset: 0x3078F, size: 0x8, addend: 0x0, symName: __ZNKSt3__117__compressed_pairIPNS_11__hash_nodeINS_17__hash_value_typeINS_12basic_stringIcNS_11char_traitsIcEENS_9allocatorIcEEEENS_10shared_ptrI11SDL_TextureEEEEPvEENS_22__hash_node_destructorINS6_ISE_EEEEE5firstB7v160006Ev, symObjAddr: 0x42D0, symBinAddr: 0x100009D30, symSize: 0x20 }
  - { offsetInCU: 0xD04A, offset: 0x307B4, size: 0x8, addend: 0x0, symName: __ZNKSt3__122__compressed_pair_elemIPNS_11__hash_nodeINS_17__hash_value_typeINS_12basic_stringIcNS_11char_traitsIcEENS_9allocatorIcEEEENS_10shared_ptrI11SDL_TextureEEEEPvEELi0ELb0EE5__getB7v160006Ev, symObjAddr: 0x42F0, symBinAddr: 0x100009D50, symSize: 0x10 }
  - { offsetInCU: 0xD06F, offset: 0x307D9, size: 0x8, addend: 0x0, symName: __ZNSt3__117__compressed_pairIPNS_11__hash_nodeINS_17__hash_value_typeINS_12basic_stringIcNS_11char_traitsIcEENS_9allocatorIcEEEENS_10shared_ptrI11SDL_TextureEEEEPvEENS_22__hash_node_destructorINS6_ISE_EEEEE5firstB7v160006Ev, symObjAddr: 0x4300, symBinAddr: 0x100009D60, symSize: 0x20 }
  - { offsetInCU: 0xD094, offset: 0x307FE, size: 0x8, addend: 0x0, symName: __ZNSt3__122__compressed_pair_elemIPNS_11__hash_nodeINS_17__hash_value_typeINS_12basic_stringIcNS_11char_traitsIcEENS_9allocatorIcEEEENS_10shared_ptrI11SDL_TextureEEEEPvEELi0ELb0EE5__getB7v160006Ev, symObjAddr: 0x4320, symBinAddr: 0x100009D80, symSize: 0x10 }
  - { offsetInCU: 0xD0B9, offset: 0x30823, size: 0x8, addend: 0x0, symName: __ZNSt3__110unique_ptrINS_11__hash_nodeINS_17__hash_value_typeINS_12basic_stringIcNS_11char_traitsIcEENS_9allocatorIcEEEENS_10shared_ptrI11SDL_TextureEEEEPvEENS_22__hash_node_destructorINS6_ISE_EEEEED2B7v160006Ev, symObjAddr: 0x4330, symBinAddr: 0x100009D90, symSize: 0x20 }
  - { offsetInCU: 0xD0E2, offset: 0x3084C, size: 0x8, addend: 0x0, symName: __ZNSt3__110unique_ptrINS_11__hash_nodeINS_17__hash_value_typeINS_12basic_stringIcNS_11char_traitsIcEENS_9allocatorIcEEEENS_10shared_ptrI11SDL_TextureEEEEPvEENS_22__hash_node_destructorINS6_ISE_EEEEE5resetB7v160006EPSE_, symObjAddr: 0x4350, symBinAddr: 0x100009DB0, symSize: 0x70 }
  - { offsetInCU: 0xD125, offset: 0x3088F, size: 0x8, addend: 0x0, symName: __ZNSt3__122__hash_node_destructorINS_9allocatorINS_11__hash_nodeINS_17__hash_value_typeINS_12basic_stringIcNS_11char_traitsIcEENS1_IcEEEENS_10shared_ptrI11SDL_TextureEEEEPvEEEEEclB7v160006EPSE_, symObjAddr: 0x43C0, symBinAddr: 0x100009E20, symSize: 0x90 }
  - { offsetInCU: 0xD159, offset: 0x308C3, size: 0x8, addend: 0x0, symName: __ZNSt3__116allocator_traitsINS_9allocatorINS_11__hash_nodeINS_17__hash_value_typeINS_12basic_stringIcNS_11char_traitsIcEENS1_IcEEEENS_10shared_ptrI11SDL_TextureEEEEPvEEEEE7destroyB7v160006INS_4pairIKS8_SB_EEvvEEvRSF_PT_, symObjAddr: 0x4450, symBinAddr: 0x100009EB0, symSize: 0x20 }
  - { offsetInCU: 0xD194, offset: 0x308FE, size: 0x8, addend: 0x0, symName: __ZNSt3__116allocator_traitsINS_9allocatorINS_11__hash_nodeINS_17__hash_value_typeINS_12basic_stringIcNS_11char_traitsIcEENS1_IcEEEENS_10shared_ptrI11SDL_TextureEEEEPvEEEEE10deallocateB7v160006ERSF_PSE_m, symObjAddr: 0x4470, symBinAddr: 0x100009ED0, symSize: 0x30 }
  - { offsetInCU: 0xD1D6, offset: 0x30940, size: 0x8, addend: 0x0, symName: __ZNSt3__19allocatorINS_11__hash_nodeINS_17__hash_value_typeINS_12basic_stringIcNS_11char_traitsIcEENS0_IcEEEENS_10shared_ptrI11SDL_TextureEEEEPvEEE10deallocateB7v160006EPSD_m, symObjAddr: 0x44E0, symBinAddr: 0x100009F40, symSize: 0x40 }
  - { offsetInCU: 0xD217, offset: 0x30981, size: 0x8, addend: 0x0, symName: __ZNSt3__115__hash_iteratorIPNS_11__hash_nodeINS_17__hash_value_typeINS_12basic_stringIcNS_11char_traitsIcEENS_9allocatorIcEEEENS_10shared_ptrI11SDL_TextureEEEEPvEEEC2B7v160006EPNS_16__hash_node_baseISF_EEPKv, symObjAddr: 0x4520, symBinAddr: 0x100009F80, symSize: 0x20 }
  - { offsetInCU: 0xD25E, offset: 0x309C8, size: 0x8, addend: 0x0, symName: __ZNSt3__14pairINS_15__hash_iteratorIPNS_11__hash_nodeINS_17__hash_value_typeINS_12basic_stringIcNS_11char_traitsIcEENS_9allocatorIcEEEENS_10shared_ptrI11SDL_TextureEEEEPvEEEEbEC2B7v160006ISH_RbLSE_0EEEOT_OT0_, symObjAddr: 0x4540, symBinAddr: 0x100009FA0, symSize: 0x30 }
  - { offsetInCU: 0xD2BB, offset: 0x30A25, size: 0x8, addend: 0x0, symName: __ZNSt3__15tupleIJRKNS_12basic_stringIcNS_11char_traitsIcEENS_9allocatorIcEEEEEEC1B7v160006INS_4_AndELi0EEES8_, symObjAddr: 0x4570, symBinAddr: 0x100009FD0, symSize: 0x30 }
  - { offsetInCU: 0xD303, offset: 0x30A6D, size: 0x8, addend: 0x0, symName: __ZNSt3__15tupleIJRKNS_12basic_stringIcNS_11char_traitsIcEENS_9allocatorIcEEEEEEC2B7v160006INS_4_AndELi0EEES8_, symObjAddr: 0x45A0, symBinAddr: 0x10000A000, symSize: 0x30 }
  - { offsetInCU: 0xD34B, offset: 0x30AB5, size: 0x8, addend: 0x0, symName: __ZNSt3__112__tuple_implINS_15__tuple_indicesIJLm0EEEEJRKNS_12basic_stringIcNS_11char_traitsIcEENS_9allocatorIcEEEEEEC1B7v160006IJLm0EEJSA_EJEJEJSA_EEENS1_IJXspT_EEEENS_13__tuple_typesIJDpT0_EEENS1_IJXspT1_EEEENSE_IJDpT2_EEEDpOT3_, symObjAddr: 0x45D0, symBinAddr: 0x10000A030, symSize: 0x30 }
  - { offsetInCU: 0xD3DF, offset: 0x30B49, size: 0x8, addend: 0x0, symName: __ZNSt3__112__tuple_implINS_15__tuple_indicesIJLm0EEEEJRKNS_12basic_stringIcNS_11char_traitsIcEENS_9allocatorIcEEEEEEC2B7v160006IJLm0EEJSA_EJEJEJSA_EEENS1_IJXspT_EEEENS_13__tuple_typesIJDpT0_EEENS1_IJXspT1_EEEENSE_IJDpT2_EEEDpOT3_, symObjAddr: 0x4600, symBinAddr: 0x10000A060, symSize: 0x30 }
  - { offsetInCU: 0xD473, offset: 0x30BDD, size: 0x8, addend: 0x0, symName: __ZNSt3__112__tuple_leafILm0ERKNS_12basic_stringIcNS_11char_traitsIcEENS_9allocatorIcEEEELb0EEC2B7v160006IS8_vEEOT_, symObjAddr: 0x4630, symBinAddr: 0x10000A090, symSize: 0x20 }
  - { offsetInCU: 0xD4B5, offset: 0x30C1F, size: 0x8, addend: 0x0, symName: __ZNSt3__114pointer_traitsIPNS_17__hash_value_typeINS_12basic_stringIcNS_11char_traitsIcEENS_9allocatorIcEEEENS_10shared_ptrI11SDL_TextureEEEEE10pointer_toB7v160006ERSB_, symObjAddr: 0x4650, symBinAddr: 0x10000A0B0, symSize: 0x10 }
  - { offsetInCU: 0xD4D8, offset: 0x30C42, size: 0x8, addend: 0x0, symName: __ZNSt3__110shared_ptrI11SDL_TextureEC2B7v160006EDn, symObjAddr: 0x48D0, symBinAddr: 0x10000A0F0, symSize: 0x30 }
  - { offsetInCU: 0xD50D, offset: 0x30C77, size: 0x8, addend: 0x0, symName: __ZNSt3__112__hash_tableINS_17__hash_value_typeINS_12basic_stringIcNS_11char_traitsIcEENS_9allocatorIcEEEENS_10shared_ptrI11SDL_TextureEEEENS_22__unordered_map_hasherIS7_SB_NS_4hashIS7_EENS_8equal_toIS7_EELb1EEENS_21__unordered_map_equalIS7_SB_SG_SE_Lb1EEENS5_ISB_EEE15__insert_uniqueB7v160006EONS_4pairIKS7_SA_EE, symObjAddr: 0x4900, symBinAddr: 0x10000A120, symSize: 0x50 }
  - { offsetInCU: 0xD541, offset: 0x30CAB, size: 0x8, addend: 0x0, symName: __ZNSt3__14pairINS_19__hash_map_iteratorINS_15__hash_iteratorIPNS_11__hash_nodeINS_17__hash_value_typeINS_12basic_stringIcNS_11char_traitsIcEENS_9allocatorIcEEEENS_10shared_ptrI11SDL_TextureEEEEPvEEEEEEbEC1B7v160006ISI_bLSF_0EEEONS0_IT_T0_EE, symObjAddr: 0x4950, symBinAddr: 0x10000A170, symSize: 0x30 }
  - { offsetInCU: 0xD591, offset: 0x30CFB, size: 0x8, addend: 0x0, symName: __ZNSt3__112__hash_tableINS_17__hash_value_typeINS_12basic_stringIcNS_11char_traitsIcEENS_9allocatorIcEEEENS_10shared_ptrI11SDL_TextureEEEENS_22__unordered_map_hasherIS7_SB_NS_4hashIS7_EENS_8equal_toIS7_EELb1EEENS_21__unordered_map_equalIS7_SB_SG_SE_Lb1EEENS5_ISB_EEE25__emplace_unique_key_argsIS7_JNS_4pairIKS7_SA_EEEEENSN_INS_15__hash_iteratorIPNS_11__hash_nodeISB_PvEEEEbEERKT_DpOT0_, symObjAddr: 0x4980, symBinAddr: 0x10000A1A0, symSize: 0x590 }
  - { offsetInCU: 0xD66E, offset: 0x30DD8, size: 0x8, addend: 0x0, symName: __ZNSt3__122__hash_key_value_typesINS_17__hash_value_typeINS_12basic_stringIcNS_11char_traitsIcEENS_9allocatorIcEEEENS_10shared_ptrI11SDL_TextureEEEEE9__get_keyB7v160006ERKNS_4pairIKS7_SA_EE, symObjAddr: 0x4F10, symBinAddr: 0x10000A730, symSize: 0x10 }
  - { offsetInCU: 0xD691, offset: 0x30DFB, size: 0x8, addend: 0x0, symName: __ZNSt3__112__hash_tableINS_17__hash_value_typeINS_12basic_stringIcNS_11char_traitsIcEENS_9allocatorIcEEEENS_10shared_ptrI11SDL_TextureEEEENS_22__unordered_map_hasherIS7_SB_NS_4hashIS7_EENS_8equal_toIS7_EELb1EEENS_21__unordered_map_equalIS7_SB_SG_SE_Lb1EEENS5_ISB_EEE21__construct_node_hashINS_4pairIKS7_SA_EEJEEENS_10unique_ptrINS_11__hash_nodeISB_PvEENS_22__hash_node_destructorINS5_IST_EEEEEEmOT_DpOT0_, symObjAddr: 0x4F20, symBinAddr: 0x10000A740, symSize: 0x140 }
  - { offsetInCU: 0xD702, offset: 0x30E6C, size: 0x8, addend: 0x0, symName: __ZNSt3__116allocator_traitsINS_9allocatorINS_11__hash_nodeINS_17__hash_value_typeINS_12basic_stringIcNS_11char_traitsIcEENS1_IcEEEENS_10shared_ptrI11SDL_TextureEEEEPvEEEEE9constructB7v160006INS_4pairIKS8_SB_EEJSK_EvvEEvRSF_PT_DpOT0_, symObjAddr: 0x5060, symBinAddr: 0x10000A880, symSize: 0x30 }
  - { offsetInCU: 0xD757, offset: 0x30EC1, size: 0x8, addend: 0x0, symName: __ZNSt3__14pairIKNS_12basic_stringIcNS_11char_traitsIcEENS_9allocatorIcEEEENS_10shared_ptrI11SDL_TextureEEEC1EOSB_, symObjAddr: 0x50D0, symBinAddr: 0x10000A8F0, symSize: 0x30 }
  - { offsetInCU: 0xD78A, offset: 0x30EF4, size: 0x8, addend: 0x0, symName: __ZNSt3__14pairIKNS_12basic_stringIcNS_11char_traitsIcEENS_9allocatorIcEEEENS_10shared_ptrI11SDL_TextureEEEC2EOSB_, symObjAddr: 0x5100, symBinAddr: 0x10000A920, symSize: 0x40 }
  - { offsetInCU: 0xD7BD, offset: 0x30F27, size: 0x8, addend: 0x0, symName: __ZNSt3__14pairINS_19__hash_map_iteratorINS_15__hash_iteratorIPNS_11__hash_nodeINS_17__hash_value_typeINS_12basic_stringIcNS_11char_traitsIcEENS_9allocatorIcEEEENS_10shared_ptrI11SDL_TextureEEEEPvEEEEEEbEC2B7v160006ISI_bLSF_0EEEONS0_IT_T0_EE, symObjAddr: 0x5140, symBinAddr: 0x10000A960, symSize: 0x50 }
  - { offsetInCU: 0xD80D, offset: 0x30F77, size: 0x8, addend: 0x0, symName: __ZNSt3__119__hash_map_iteratorINS_15__hash_iteratorIPNS_11__hash_nodeINS_17__hash_value_typeINS_12basic_stringIcNS_11char_traitsIcEENS_9allocatorIcEEEENS_10shared_ptrI11SDL_TextureEEEEPvEEEEEC1B7v160006ESH_, symObjAddr: 0x5190, symBinAddr: 0x10000A9B0, symSize: 0x30 }
  - { offsetInCU: 0xD845, offset: 0x30FAF, size: 0x8, addend: 0x0, symName: __ZNSt3__119__hash_map_iteratorINS_15__hash_iteratorIPNS_11__hash_nodeINS_17__hash_value_typeINS_12basic_stringIcNS_11char_traitsIcEENS_9allocatorIcEEEENS_10shared_ptrI11SDL_TextureEEEEPvEEEEEC2B7v160006ESH_, symObjAddr: 0x51C0, symBinAddr: 0x10000A9E0, symSize: 0x20 }
  - { offsetInCU: 0xD87D, offset: 0x30FE7, size: 0x8, addend: 0x0, symName: __ZNSt3__14pairIKNS_12basic_stringIcNS_11char_traitsIcEENS_9allocatorIcEEEENS_10shared_ptrI11SDL_TextureEEEC2B7v160006IRS7_RSA_LPv0EEEOT_OT0_, symObjAddr: 0x51E0, symBinAddr: 0x10000AA00, symSize: 0x40 }
  - { offsetInCU: 0xD8DA, offset: 0x31044, size: 0x8, addend: 0x0, symName: __ZNSt3__14pairIKNS_12basic_stringIcNS_11char_traitsIcEENS_9allocatorIcEEEENS_10shared_ptrI11SDL_TextureEEED2Ev, symObjAddr: 0x5220, symBinAddr: 0x10000AA40, symSize: 0x30 }
  - { offsetInCU: 0xD905, offset: 0x3106F, size: 0x8, addend: 0x0, symName: __ZNSt3__110shared_ptrI11SDL_TextureEC2B7v160006EOS2_, symObjAddr: 0x5250, symBinAddr: 0x10000AA70, symSize: 0x40 }
  - { offsetInCU: 0xD93D, offset: 0x310A7, size: 0x8, addend: 0x0, symName: __ZNSt3__110shared_ptrI11SDL_TextureEC2B7v160006IS1_21TextureFunctorDeletervEEPT_T0_, symObjAddr: 0x5290, symBinAddr: 0x10000AAB0, symSize: 0x100 }
  - { offsetInCU: 0xD9A1, offset: 0x3110B, size: 0x8, addend: 0x0, symName: __ZNSt3__19allocatorI11SDL_TextureEC1B7v160006Ev, symObjAddr: 0x5390, symBinAddr: 0x10000ABB0, symSize: 0x20 }
  - { offsetInCU: 0xDA88, offset: 0x311F2, size: 0x8, addend: 0x0, symName: __ZNSt3__120__shared_ptr_pointerIP11SDL_Texture21TextureFunctorDeleterNS_9allocatorIS1_EEEC1B7v160006ES2_S3_S5_, symObjAddr: 0x53B0, symBinAddr: 0x10000ABD0, symSize: 0x30 }
  - { offsetInCU: 0xDADB, offset: 0x31245, size: 0x8, addend: 0x0, symName: __ZNSt3__110shared_ptrI11SDL_TextureE18__enable_weak_thisB7v160006Ez, symObjAddr: 0x53E0, symBinAddr: 0x10000AC00, symSize: 0x10 }
  - { offsetInCU: 0xDB01, offset: 0x3126B, size: 0x8, addend: 0x0, symName: __ZNK21TextureFunctorDeleterclEP11SDL_Texture, symObjAddr: 0x53F0, symBinAddr: 0x10000AC10, symSize: 0x20 }
  - { offsetInCU: 0xDB34, offset: 0x3129E, size: 0x8, addend: 0x0, symName: __ZNSt3__19allocatorI11SDL_TextureEC2B7v160006Ev, symObjAddr: 0x5410, symBinAddr: 0x10000AC30, symSize: 0x20 }
  - { offsetInCU: 0xDB5D, offset: 0x312C7, size: 0x8, addend: 0x0, symName: __ZNSt3__116__non_trivial_ifILb1ENS_9allocatorI11SDL_TextureEEEC2B7v160006Ev, symObjAddr: 0x5430, symBinAddr: 0x10000AC50, symSize: 0x10 }
  - { offsetInCU: 0xDB86, offset: 0x312F0, size: 0x8, addend: 0x0, symName: __ZNSt3__120__shared_ptr_pointerIP11SDL_Texture21TextureFunctorDeleterNS_9allocatorIS1_EEEC2B7v160006ES2_S3_S5_, symObjAddr: 0x5440, symBinAddr: 0x10000AC60, symSize: 0x90 }
  - { offsetInCU: 0xDBDE, offset: 0x31348, size: 0x8, addend: 0x0, symName: __ZNSt3__117__compressed_pairIP11SDL_Texture21TextureFunctorDeleterEC1B7v160006IRS2_S3_EEOT_OT0_, symObjAddr: 0x5520, symBinAddr: 0x10000ACF0, symSize: 0x30 }
  - { offsetInCU: 0xDC3F, offset: 0x313A9, size: 0x8, addend: 0x0, symName: __ZNSt3__117__compressed_pairINS0_IP11SDL_Texture21TextureFunctorDeleterEENS_9allocatorIS1_EEEC1B7v160006IS4_S6_EEOT_OT0_, symObjAddr: 0x5550, symBinAddr: 0x10000AD20, symSize: 0x30 }
  - { offsetInCU: 0xDC96, offset: 0x31400, size: 0x8, addend: 0x0, symName: __ZNSt3__120__shared_ptr_pointerIP11SDL_Texture21TextureFunctorDeleterNS_9allocatorIS1_EEED1Ev, symObjAddr: 0x5580, symBinAddr: 0x10000AD50, symSize: 0x20 }
  - { offsetInCU: 0xDCC1, offset: 0x3142B, size: 0x8, addend: 0x0, symName: __ZNSt3__120__shared_ptr_pointerIP11SDL_Texture21TextureFunctorDeleterNS_9allocatorIS1_EEED0Ev, symObjAddr: 0x55A0, symBinAddr: 0x10000AD70, symSize: 0x30 }
  - { offsetInCU: 0xDCEC, offset: 0x31456, size: 0x8, addend: 0x0, symName: __ZNSt3__120__shared_ptr_pointerIP11SDL_Texture21TextureFunctorDeleterNS_9allocatorIS1_EEE16__on_zero_sharedEv, symObjAddr: 0x55D0, symBinAddr: 0x10000ADA0, symSize: 0x80 }
  - { offsetInCU: 0xDD12, offset: 0x3147C, size: 0x8, addend: 0x0, symName: __ZNKSt3__120__shared_ptr_pointerIP11SDL_Texture21TextureFunctorDeleterNS_9allocatorIS1_EEE13__get_deleterERKSt9type_info, symObjAddr: 0x5650, symBinAddr: 0x10000AE20, symSize: 0x70 }
  - { offsetInCU: 0xDD46, offset: 0x314B0, size: 0x8, addend: 0x0, symName: __ZNSt3__120__shared_ptr_pointerIP11SDL_Texture21TextureFunctorDeleterNS_9allocatorIS1_EEE21__on_zero_shared_weakEv, symObjAddr: 0x56C0, symBinAddr: 0x10000AE90, symSize: 0x60 }
  - { offsetInCU: 0xDD86, offset: 0x314F0, size: 0x8, addend: 0x0, symName: __ZNSt3__117__compressed_pairIP11SDL_Texture21TextureFunctorDeleterEC2B7v160006IRS2_S3_EEOT_OT0_, symObjAddr: 0x5750, symBinAddr: 0x10000AEF0, symSize: 0x40 }
  - { offsetInCU: 0xDDDD, offset: 0x31547, size: 0x8, addend: 0x0, symName: __ZNSt3__122__compressed_pair_elemIP11SDL_TextureLi0ELb0EEC2B7v160006IRS2_vEEOT_, symObjAddr: 0x5790, symBinAddr: 0x10000AF30, symSize: 0x20 }
  - { offsetInCU: 0xDE1E, offset: 0x31588, size: 0x8, addend: 0x0, symName: __ZNSt3__122__compressed_pair_elemI21TextureFunctorDeleterLi1ELb1EEC2B7v160006IS1_vEEOT_, symObjAddr: 0x57B0, symBinAddr: 0x10000AF50, symSize: 0x10 }
  - { offsetInCU: 0xDE5F, offset: 0x315C9, size: 0x8, addend: 0x0, symName: __ZNSt3__117__compressed_pairINS0_IP11SDL_Texture21TextureFunctorDeleterEENS_9allocatorIS1_EEEC2B7v160006IS4_S6_EEOT_OT0_, symObjAddr: 0x57C0, symBinAddr: 0x10000AF60, symSize: 0x40 }
  - { offsetInCU: 0xDEB6, offset: 0x31620, size: 0x8, addend: 0x0, symName: __ZNSt3__122__compressed_pair_elemINS_17__compressed_pairIP11SDL_Texture21TextureFunctorDeleterEELi0ELb0EEC2B7v160006IS5_vEEOT_, symObjAddr: 0x5800, symBinAddr: 0x10000AFA0, symSize: 0x20 }
  - { offsetInCU: 0xDEF7, offset: 0x31661, size: 0x8, addend: 0x0, symName: __ZNSt3__122__compressed_pair_elemINS_9allocatorI11SDL_TextureEELi1ELb1EEC2B7v160006IS3_vEEOT_, symObjAddr: 0x5820, symBinAddr: 0x10000AFC0, symSize: 0x10 }
  - { offsetInCU: 0xDF38, offset: 0x316A2, size: 0x8, addend: 0x0, symName: __ZNSt3__120__shared_ptr_pointerIP11SDL_Texture21TextureFunctorDeleterNS_9allocatorIS1_EEED2Ev, symObjAddr: 0x5830, symBinAddr: 0x10000AFD0, symSize: 0x20 }
  - { offsetInCU: 0xDF63, offset: 0x316CD, size: 0x8, addend: 0x0, symName: __ZNSt3__117__compressed_pairINS0_IP11SDL_Texture21TextureFunctorDeleterEENS_9allocatorIS1_EEE5firstB7v160006Ev, symObjAddr: 0x5850, symBinAddr: 0x10000AFF0, symSize: 0x20 }
  - { offsetInCU: 0xDF88, offset: 0x316F2, size: 0x8, addend: 0x0, symName: __ZNSt3__117__compressed_pairIP11SDL_Texture21TextureFunctorDeleterE6secondB7v160006Ev, symObjAddr: 0x5870, symBinAddr: 0x10000B010, symSize: 0x20 }
  - { offsetInCU: 0xDFAD, offset: 0x31717, size: 0x8, addend: 0x0, symName: __ZNSt3__117__compressed_pairIP11SDL_Texture21TextureFunctorDeleterE5firstB7v160006Ev, symObjAddr: 0x5890, symBinAddr: 0x10000B030, symSize: 0x20 }
  - { offsetInCU: 0xDFD2, offset: 0x3173C, size: 0x8, addend: 0x0, symName: __ZNSt3__122__compressed_pair_elemINS_17__compressed_pairIP11SDL_Texture21TextureFunctorDeleterEELi0ELb0EE5__getB7v160006Ev, symObjAddr: 0x58B0, symBinAddr: 0x10000B050, symSize: 0x10 }
  - { offsetInCU: 0xDFF7, offset: 0x31761, size: 0x8, addend: 0x0, symName: __ZNSt3__122__compressed_pair_elemI21TextureFunctorDeleterLi1ELb1EE5__getB7v160006Ev, symObjAddr: 0x58C0, symBinAddr: 0x10000B060, symSize: 0x10 }
  - { offsetInCU: 0xE01C, offset: 0x31786, size: 0x8, addend: 0x0, symName: __ZNSt3__122__compressed_pair_elemIP11SDL_TextureLi0ELb0EE5__getB7v160006Ev, symObjAddr: 0x58D0, symBinAddr: 0x10000B070, symSize: 0x10 }
  - { offsetInCU: 0xE05F, offset: 0x317C9, size: 0x8, addend: 0x0, symName: __ZNKSt9type_infoeqB7v160006ERKS_, symObjAddr: 0x58E0, symBinAddr: 0x10000B080, symSize: 0x40 }
  - { offsetInCU: 0xE0BA, offset: 0x31824, size: 0x8, addend: 0x0, symName: __ZNKSt3__117__compressed_pairINS0_IP11SDL_Texture21TextureFunctorDeleterEENS_9allocatorIS1_EEE5firstB7v160006Ev, symObjAddr: 0x5920, symBinAddr: 0x10000B0C0, symSize: 0x20 }
  - { offsetInCU: 0xE0DF, offset: 0x31849, size: 0x8, addend: 0x0, symName: __ZNKSt3__117__compressed_pairIP11SDL_Texture21TextureFunctorDeleterE6secondB7v160006Ev, symObjAddr: 0x5940, symBinAddr: 0x10000B0E0, symSize: 0x20 }
  - { offsetInCU: 0xE104, offset: 0x3186E, size: 0x8, addend: 0x0, symName: __ZNKSt3__122__compressed_pair_elemINS_17__compressed_pairIP11SDL_Texture21TextureFunctorDeleterEELi0ELb0EE5__getB7v160006Ev, symObjAddr: 0x5960, symBinAddr: 0x10000B100, symSize: 0x10 }
  - { offsetInCU: 0xE129, offset: 0x31893, size: 0x8, addend: 0x0, symName: __ZNKSt3__122__compressed_pair_elemI21TextureFunctorDeleterLi1ELb1EE5__getB7v160006Ev, symObjAddr: 0x5970, symBinAddr: 0x10000B110, symSize: 0x10 }
  - { offsetInCU: 0xE14E, offset: 0x318B8, size: 0x8, addend: 0x0, symName: __ZNSt3__117__compressed_pairINS0_IP11SDL_Texture21TextureFunctorDeleterEENS_9allocatorIS1_EEE6secondB7v160006Ev, symObjAddr: 0x5980, symBinAddr: 0x10000B120, symSize: 0x20 }
  - { offsetInCU: 0xE182, offset: 0x318EC, size: 0x8, addend: 0x0, symName: __ZNSt3__19allocatorINS_20__shared_ptr_pointerIP11SDL_Texture21TextureFunctorDeleterNS0_IS2_EEEEEC1B7v160006IS2_EERKNS0_IT_EE, symObjAddr: 0x59A0, symBinAddr: 0x10000B140, symSize: 0x30 }
  - { offsetInCU: 0xE1BE, offset: 0x31928, size: 0x8, addend: 0x0, symName: __ZNSt3__19allocatorINS_20__shared_ptr_pointerIP11SDL_Texture21TextureFunctorDeleterNS0_IS2_EEEEE10deallocateB7v160006EPS6_m, symObjAddr: 0x59D0, symBinAddr: 0x10000B170, symSize: 0x40 }
  - { offsetInCU: 0xE204, offset: 0x3196E, size: 0x8, addend: 0x0, symName: __ZNSt3__114pointer_traitsIPNS_20__shared_ptr_pointerIP11SDL_Texture21TextureFunctorDeleterNS_9allocatorIS2_EEEEE10pointer_toB7v160006ERS7_, symObjAddr: 0x5A10, symBinAddr: 0x10000B1B0, symSize: 0x10 }
  - { offsetInCU: 0xE227, offset: 0x31991, size: 0x8, addend: 0x0, symName: __ZNSt3__122__compressed_pair_elemINS_9allocatorI11SDL_TextureEELi1ELb1EE5__getB7v160006Ev, symObjAddr: 0x5A20, symBinAddr: 0x10000B1C0, symSize: 0x10 }
  - { offsetInCU: 0xE24C, offset: 0x319B6, size: 0x8, addend: 0x0, symName: __ZNSt3__19allocatorINS_20__shared_ptr_pointerIP11SDL_Texture21TextureFunctorDeleterNS0_IS2_EEEEEC2B7v160006IS2_EERKNS0_IT_EE, symObjAddr: 0x5A30, symBinAddr: 0x10000B1D0, symSize: 0x20 }
  - { offsetInCU: 0xE288, offset: 0x319F2, size: 0x8, addend: 0x0, symName: __ZNSt3__116__non_trivial_ifILb1ENS_9allocatorINS_20__shared_ptr_pointerIP11SDL_Texture21TextureFunctorDeleterNS1_IS3_EEEEEEEC2B7v160006Ev, symObjAddr: 0x5A50, symBinAddr: 0x10000B1F0, symSize: 0x10 }
  - { offsetInCU: 0x26, offset: 0x31FB5, size: 0x8, addend: 0x0, symName: _main, symObjAddr: 0x0, symBinAddr: 0x10000B200, symSize: 0x77 }
  - { offsetInCU: 0x338B, offset: 0x3531A, size: 0x8, addend: 0x0, symName: _main, symObjAddr: 0x0, symBinAddr: 0x10000B200, symSize: 0x77 }
...
