---
triple:          'x86_64-apple-darwin'
binary-path:     mygameengine.so
relocations:
  - { offsetInCU: 0x8B39, offset: 0x8B39, size: 0x8, addend: 0x0, symName: __ZNSt3__119__debug_db_insert_cB7v160006INS_12basic_stringIcNS_11char_traitsIcEENS_9allocatorIcEEEEEEvPT_, symObjAddr: 0x920, symBinAddr: 0x18C0, symSize: 0x10 }
  - { offsetInCU: 0x8B6A, offset: 0x8B6A, size: 0x8, addend: 0x0, symName: __ZNSt3__118__constexpr_strlenB7v160006EPKc, symObjAddr: 0x9C0, symBinAddr: 0x1960, symSize: 0x20 }
  - { offsetInCU: 0x8B96, offset: 0x8B96, size: 0x8, addend: 0x0, symName: __ZNSt3__112__to_addressB7v160006IKcEEPT_S3_, symObjAddr: 0xA10, symBinAddr: 0x19B0, symSize: 0x10 }
  - { offsetInCU: 0x8BFE, offset: 0x8BFE, size: 0x8, addend: 0x0, symName: __ZNSt3__120__throw_out_of_rangeB7v160006EPKc, symObjAddr: 0xB60, symBinAddr: 0x1B00, symSize: 0x70 }
  - { offsetInCU: 0x8C5B, offset: 0x8C5B, size: 0x8, addend: 0x0, symName: __ZNSt3__1ltB7v160006ENS_15strong_orderingENS_20_CmpUnspecifiedParamE, symObjAddr: 0xFA0, symBinAddr: 0x1F40, symSize: 0x20 }
  - { offsetInCU: 0x8C94, offset: 0x8C94, size: 0x8, addend: 0x0, symName: __ZNSt3__1ssB7v160006IcNS_11char_traitsIcEENS_9allocatorIcEEEEDaRKNS_12basic_stringIT_T0_T1_EESC_, symObjAddr: 0xFC0, symBinAddr: 0x1F60, symSize: 0x60 }
  - { offsetInCU: 0x8D08, offset: 0x8D08, size: 0x8, addend: 0x0, symName: __ZNSt3__1ssB7v160006IcNS_11char_traitsIcEEEEDaNS_17basic_string_viewIT_T0_EES7_, symObjAddr: 0x1050, symBinAddr: 0x1FF0, symSize: 0x90 }
  - { offsetInCU: 0x8D57, offset: 0x8D57, size: 0x8, addend: 0x0, symName: __ZNSt3__13minB7v160006ImEERKT_S3_S3_, symObjAddr: 0x1230, symBinAddr: 0x21D0, symSize: 0x30 }
  - { offsetInCU: 0x8D9A, offset: 0x8D9A, size: 0x8, addend: 0x0, symName: __ZNSt3__13minB7v160006ImNS_6__lessImmEEEERKT_S5_S5_T0_, symObjAddr: 0x1300, symBinAddr: 0x22A0, symSize: 0x50 }
  - { offsetInCU: 0x8E2F, offset: 0x8E2F, size: 0x8, addend: 0x0, symName: __ZNSt3__118__constexpr_memcmpB7v160006IcEEiPKT_S3_m, symObjAddr: 0x1380, symBinAddr: 0x2320, symSize: 0x30 }
  - { offsetInCU: 0x8E80, offset: 0x8E80, size: 0x8, addend: 0x0, symName: __ZNSt3__17launderB7v160006IKNS_4pairIKNS_12basic_stringIcNS_11char_traitsIcEENS_9allocatorIcEEEES7_EEEEPT_SC_, symObjAddr: 0x14E0, symBinAddr: 0x2480, symSize: 0x20 }
  - { offsetInCU: 0x8EB7, offset: 0x8EB7, size: 0x8, addend: 0x0, symName: __ZNSt3__19__launderB7v160006IKNS_4pairIKNS_12basic_stringIcNS_11char_traitsIcEENS_9allocatorIcEEEES7_EEEEPT_SC_, symObjAddr: 0x1500, symBinAddr: 0x24A0, symSize: 0x10 }
  - { offsetInCU: 0x8EEE, offset: 0x8EEE, size: 0x8, addend: 0x0, symName: __ZNSt3__17launderB7v160006INS_4pairIKNS_12basic_stringIcNS_11char_traitsIcEENS_9allocatorIcEEEES7_EEEEPT_SB_, symObjAddr: 0x15B0, symBinAddr: 0x2550, symSize: 0x20 }
  - { offsetInCU: 0x8F25, offset: 0x8F25, size: 0x8, addend: 0x0, symName: __ZNSt3__19__launderB7v160006INS_4pairIKNS_12basic_stringIcNS_11char_traitsIcEENS_9allocatorIcEEEES7_EEEEPT_SB_, symObjAddr: 0x15D0, symBinAddr: 0x2570, symSize: 0xE }
  - { offsetInCU: 0xC111, offset: 0xC111, size: 0x8, addend: 0x0, symName: __ZN11ApplicationC2ERKNSt3__13mapINS0_12basic_stringIcNS0_11char_traitsIcEENS0_9allocatorIcEEEES7_NS0_4lessIS7_EENS5_INS0_4pairIKS7_S7_EEEEEE, symObjAddr: 0x0, symBinAddr: 0xFA0, symSize: 0x230 }
  - { offsetInCU: 0xC17B, offset: 0xC17B, size: 0x8, addend: 0x0, symName: __ZNKSt3__13mapINS_12basic_stringIcNS_11char_traitsIcEENS_9allocatorIcEEEES6_NS_4lessIS6_EENS4_INS_4pairIKS6_S6_EEEEE2atERSA_, symObjAddr: 0x230, symBinAddr: 0x11D0, symSize: 0x60 }
  - { offsetInCU: 0xC1D3, offset: 0xC1D3, size: 0x8, addend: 0x0, symName: __ZNSt3__112basic_stringIcNS_11char_traitsIcEENS_9allocatorIcEEEC1B7v160006IDnEEPKc, symObjAddr: 0x290, symBinAddr: 0x1230, symSize: 0x30 }
  - { offsetInCU: 0xC20F, offset: 0xC20F, size: 0x8, addend: 0x0, symName: __ZN11Application7StartUpERKNSt3__112basic_stringIcNS0_11char_traitsIcEENS0_9allocatorIcEEEEii, symObjAddr: 0x2C0, symBinAddr: 0x1260, symSize: 0xD0 }
  - { offsetInCU: 0xC27B, offset: 0xC27B, size: 0x8, addend: 0x0, symName: __ZN11ApplicationC1ERKNSt3__13mapINS0_12basic_stringIcNS0_11char_traitsIcEENS0_9allocatorIcEEEES7_NS0_4lessIS7_EENS5_INS0_4pairIKS7_S7_EEEEEE, symObjAddr: 0x390, symBinAddr: 0x1330, symSize: 0x30 }
  - { offsetInCU: 0xC2B3, offset: 0xC2B3, size: 0x8, addend: 0x0, symName: __ZN11ApplicationD2Ev, symObjAddr: 0x3C0, symBinAddr: 0x1360, symSize: 0x40 }
  - { offsetInCU: 0xC2DD, offset: 0xC2DD, size: 0x8, addend: 0x0, symName: __ZN11Application8ShutdownEv, symObjAddr: 0x400, symBinAddr: 0x13A0, symSize: 0x30 }
  - { offsetInCU: 0xC303, offset: 0xC303, size: 0x8, addend: 0x0, symName: __ZN11ApplicationD1Ev, symObjAddr: 0x440, symBinAddr: 0x13E0, symSize: 0x20 }
  - { offsetInCU: 0xC32D, offset: 0xC32D, size: 0x8, addend: 0x0, symName: __ZN11Application3LogEPKc, symObjAddr: 0x460, symBinAddr: 0x1400, symSize: 0x30 }
  - { offsetInCU: 0xC361, offset: 0xC361, size: 0x8, addend: 0x0, symName: __ZNKSt3__112basic_stringIcNS_11char_traitsIcEENS_9allocatorIcEEE5c_strB7v160006Ev, symObjAddr: 0x490, symBinAddr: 0x1430, symSize: 0x20 }
  - { offsetInCU: 0xC385, offset: 0xC385, size: 0x8, addend: 0x0, symName: __ZN11Application5InputEf, symObjAddr: 0x4B0, symBinAddr: 0x1450, symSize: 0x120 }
  - { offsetInCU: 0xC3CA, offset: 0xC3CA, size: 0x8, addend: 0x0, symName: __ZN11Application6UpdateEf, symObjAddr: 0x5D0, symBinAddr: 0x1570, symSize: 0x30 }
  - { offsetInCU: 0xC3FE, offset: 0xC3FE, size: 0x8, addend: 0x0, symName: __ZN11Application6RenderEv, symObjAddr: 0x600, symBinAddr: 0x15A0, symSize: 0x20 }
  - { offsetInCU: 0xC424, offset: 0xC424, size: 0x8, addend: 0x0, symName: __ZN11Application4LoopEf, symObjAddr: 0x620, symBinAddr: 0x15C0, symSize: 0x240 }
  - { offsetInCU: 0xC4D7, offset: 0xC4D7, size: 0x8, addend: 0x0, symName: __ZNSt3__112basic_stringIcNS_11char_traitsIcEENS_9allocatorIcEEEC2B7v160006IDnEEPKc, symObjAddr: 0x860, symBinAddr: 0x1800, symSize: 0x60 }
  - { offsetInCU: 0xC518, offset: 0xC518, size: 0x8, addend: 0x0, symName: __ZNSt3__117__compressed_pairINS_12basic_stringIcNS_11char_traitsIcEENS_9allocatorIcEEE5__repES5_EC1B7v160006INS_18__default_init_tagESA_EEOT_OT0_, symObjAddr: 0x8C0, symBinAddr: 0x1860, symSize: 0x30 }
  - { offsetInCU: 0xC56E, offset: 0xC56E, size: 0x8, addend: 0x0, symName: __ZNSt3__111char_traitsIcE6lengthEPKc, symObjAddr: 0x8F0, symBinAddr: 0x1890, symSize: 0x30 }
  - { offsetInCU: 0xC590, offset: 0xC590, size: 0x8, addend: 0x0, symName: __ZNSt3__117__compressed_pairINS_12basic_stringIcNS_11char_traitsIcEENS_9allocatorIcEEE5__repES5_EC2B7v160006INS_18__default_init_tagESA_EEOT_OT0_, symObjAddr: 0x930, symBinAddr: 0x18D0, symSize: 0x30 }
  - { offsetInCU: 0xC5E6, offset: 0xC5E6, size: 0x8, addend: 0x0, symName: __ZNSt3__122__compressed_pair_elemINS_12basic_stringIcNS_11char_traitsIcEENS_9allocatorIcEEE5__repELi0ELb0EEC2B7v160006ENS_18__default_init_tagE, symObjAddr: 0x960, symBinAddr: 0x1900, symSize: 0x10 }
  - { offsetInCU: 0xC618, offset: 0xC618, size: 0x8, addend: 0x0, symName: __ZNSt3__122__compressed_pair_elemINS_9allocatorIcEELi1ELb1EEC2B7v160006ENS_18__default_init_tagE, symObjAddr: 0x970, symBinAddr: 0x1910, symSize: 0x20 }
  - { offsetInCU: 0xC64A, offset: 0xC64A, size: 0x8, addend: 0x0, symName: __ZNSt3__19allocatorIcEC2B7v160006Ev, symObjAddr: 0x990, symBinAddr: 0x1930, symSize: 0x20 }
  - { offsetInCU: 0xC672, offset: 0xC672, size: 0x8, addend: 0x0, symName: __ZNSt3__116__non_trivial_ifILb1ENS_9allocatorIcEEEC2B7v160006Ev, symObjAddr: 0x9B0, symBinAddr: 0x1950, symSize: 0x10 }
  - { offsetInCU: 0xC69A, offset: 0xC69A, size: 0x8, addend: 0x0, symName: __ZNKSt3__112basic_stringIcNS_11char_traitsIcEENS_9allocatorIcEEE4dataB7v160006Ev, symObjAddr: 0x9E0, symBinAddr: 0x1980, symSize: 0x30 }
  - { offsetInCU: 0xC6BE, offset: 0xC6BE, size: 0x8, addend: 0x0, symName: __ZNKSt3__112basic_stringIcNS_11char_traitsIcEENS_9allocatorIcEEE13__get_pointerB7v160006Ev, symObjAddr: 0xA20, symBinAddr: 0x19C0, symSize: 0x50 }
  - { offsetInCU: 0xC6E2, offset: 0xC6E2, size: 0x8, addend: 0x0, symName: __ZNKSt3__112basic_stringIcNS_11char_traitsIcEENS_9allocatorIcEEE9__is_longB7v160006Ev, symObjAddr: 0xA70, symBinAddr: 0x1A10, symSize: 0x30 }
  - { offsetInCU: 0xC706, offset: 0xC706, size: 0x8, addend: 0x0, symName: __ZNKSt3__112basic_stringIcNS_11char_traitsIcEENS_9allocatorIcEEE18__get_long_pointerB7v160006Ev, symObjAddr: 0xAA0, symBinAddr: 0x1A40, symSize: 0x20 }
  - { offsetInCU: 0xC72A, offset: 0xC72A, size: 0x8, addend: 0x0, symName: __ZNKSt3__112basic_stringIcNS_11char_traitsIcEENS_9allocatorIcEEE19__get_short_pointerB7v160006Ev, symObjAddr: 0xAC0, symBinAddr: 0x1A60, symSize: 0x30 }
  - { offsetInCU: 0xC74E, offset: 0xC74E, size: 0x8, addend: 0x0, symName: __ZNKSt3__117__compressed_pairINS_12basic_stringIcNS_11char_traitsIcEENS_9allocatorIcEEE5__repES5_E5firstB7v160006Ev, symObjAddr: 0xAF0, symBinAddr: 0x1A90, symSize: 0x20 }
  - { offsetInCU: 0xC772, offset: 0xC772, size: 0x8, addend: 0x0, symName: __ZNKSt3__122__compressed_pair_elemINS_12basic_stringIcNS_11char_traitsIcEENS_9allocatorIcEEE5__repELi0ELb0EE5__getB7v160006Ev, symObjAddr: 0xB10, symBinAddr: 0x1AB0, symSize: 0x10 }
  - { offsetInCU: 0xC796, offset: 0xC796, size: 0x8, addend: 0x0, symName: __ZNSt3__114pointer_traitsIPKcE10pointer_toB7v160006ERS1_, symObjAddr: 0xB20, symBinAddr: 0x1AC0, symSize: 0x10 }
  - { offsetInCU: 0xC7B8, offset: 0xC7B8, size: 0x8, addend: 0x0, symName: __ZNKSt3__16__treeINS_12__value_typeINS_12basic_stringIcNS_11char_traitsIcEENS_9allocatorIcEEEES7_EENS_19__map_value_compareIS7_S8_NS_4lessIS7_EELb1EEENS5_IS8_EEE12__find_equalB7v160006IS7_EERPNS_16__tree_node_baseIPvEERPNS_15__tree_end_nodeISJ_EERKT_, symObjAddr: 0xB30, symBinAddr: 0x1AD0, symSize: 0x30 }
  - { offsetInCU: 0xC803, offset: 0xC803, size: 0x8, addend: 0x0, symName: __ZNSt3__112__value_typeINS_12basic_stringIcNS_11char_traitsIcEENS_9allocatorIcEEEES6_E11__get_valueB7v160006Ev, symObjAddr: 0xBD0, symBinAddr: 0x1B70, symSize: 0x20 }
  - { offsetInCU: 0xC827, offset: 0xC827, size: 0x8, addend: 0x0, symName: __ZNSt3__16__treeINS_12__value_typeINS_12basic_stringIcNS_11char_traitsIcEENS_9allocatorIcEEEES7_EENS_19__map_value_compareIS7_S8_NS_4lessIS7_EELb1EEENS5_IS8_EEE12__find_equalIS7_EERPNS_16__tree_node_baseIPvEERPNS_15__tree_end_nodeISJ_EERKT_, symObjAddr: 0xBF0, symBinAddr: 0x1B90, symSize: 0x180 }
  - { offsetInCU: 0xC892, offset: 0xC892, size: 0x8, addend: 0x0, symName: __ZNKSt3__16__treeINS_12__value_typeINS_12basic_stringIcNS_11char_traitsIcEENS_9allocatorIcEEEES7_EENS_19__map_value_compareIS7_S8_NS_4lessIS7_EELb1EEENS5_IS8_EEE6__rootB7v160006Ev, symObjAddr: 0xD70, symBinAddr: 0x1D10, symSize: 0x20 }
  - { offsetInCU: 0xC8B6, offset: 0xC8B6, size: 0x8, addend: 0x0, symName: __ZNKSt3__16__treeINS_12__value_typeINS_12basic_stringIcNS_11char_traitsIcEENS_9allocatorIcEEEES7_EENS_19__map_value_compareIS7_S8_NS_4lessIS7_EELb1EEENS5_IS8_EEE10__root_ptrEv, symObjAddr: 0xD90, symBinAddr: 0x1D30, symSize: 0x20 }
  - { offsetInCU: 0xC8DA, offset: 0xC8DA, size: 0x8, addend: 0x0, symName: __ZNSt3__16__treeINS_12__value_typeINS_12basic_stringIcNS_11char_traitsIcEENS_9allocatorIcEEEES7_EENS_19__map_value_compareIS7_S8_NS_4lessIS7_EELb1EEENS5_IS8_EEE10value_compB7v160006Ev, symObjAddr: 0xDB0, symBinAddr: 0x1D50, symSize: 0x20 }
  - { offsetInCU: 0xC8FE, offset: 0xC8FE, size: 0x8, addend: 0x0, symName: __ZNKSt3__119__map_value_compareINS_12basic_stringIcNS_11char_traitsIcEENS_9allocatorIcEEEENS_12__value_typeIS6_S6_EENS_4lessIS6_EELb1EEclB7v160006ERKS6_RKS8_, symObjAddr: 0xDD0, symBinAddr: 0x1D70, symSize: 0x50 }
  - { offsetInCU: 0xC940, offset: 0xC940, size: 0x8, addend: 0x0, symName: __ZNKSt3__119__map_value_compareINS_12basic_stringIcNS_11char_traitsIcEENS_9allocatorIcEEEENS_12__value_typeIS6_S6_EENS_4lessIS6_EELb1EEclB7v160006ERKS8_RKS6_, symObjAddr: 0xE20, symBinAddr: 0x1DC0, symSize: 0x40 }
  - { offsetInCU: 0xC982, offset: 0xC982, size: 0x8, addend: 0x0, symName: __ZNSt3__16__treeINS_12__value_typeINS_12basic_stringIcNS_11char_traitsIcEENS_9allocatorIcEEEES7_EENS_19__map_value_compareIS7_S8_NS_4lessIS7_EELb1EEENS5_IS8_EEE10__end_nodeB7v160006Ev, symObjAddr: 0xE60, symBinAddr: 0x1E00, symSize: 0x30 }
  - { offsetInCU: 0xC9A6, offset: 0xC9A6, size: 0x8, addend: 0x0, symName: __ZNKSt3__16__treeINS_12__value_typeINS_12basic_stringIcNS_11char_traitsIcEENS_9allocatorIcEEEES7_EENS_19__map_value_compareIS7_S8_NS_4lessIS7_EELb1EEENS5_IS8_EEE10__end_nodeB7v160006Ev, symObjAddr: 0xE90, symBinAddr: 0x1E30, symSize: 0x30 }
  - { offsetInCU: 0xC9CA, offset: 0xC9CA, size: 0x8, addend: 0x0, symName: __ZNSt3__114pointer_traitsIPNS_15__tree_end_nodeIPNS_16__tree_node_baseIPvEEEEE10pointer_toB7v160006ERS6_, symObjAddr: 0xEC0, symBinAddr: 0x1E60, symSize: 0x10 }
  - { offsetInCU: 0xC9EC, offset: 0xC9EC, size: 0x8, addend: 0x0, symName: __ZNKSt3__117__compressed_pairINS_15__tree_end_nodeIPNS_16__tree_node_baseIPvEEEENS_9allocatorINS_11__tree_nodeINS_12__value_typeINS_12basic_stringIcNS_11char_traitsIcEENS7_IcEEEESE_EES3_EEEEE5firstB7v160006Ev, symObjAddr: 0xED0, symBinAddr: 0x1E70, symSize: 0x20 }
  - { offsetInCU: 0xCA10, offset: 0xCA10, size: 0x8, addend: 0x0, symName: __ZNKSt3__122__compressed_pair_elemINS_15__tree_end_nodeIPNS_16__tree_node_baseIPvEEEELi0ELb0EE5__getB7v160006Ev, symObjAddr: 0xEF0, symBinAddr: 0x1E90, symSize: 0x10 }
  - { offsetInCU: 0xCA34, offset: 0xCA34, size: 0x8, addend: 0x0, symName: __ZNSt3__117__compressed_pairImNS_19__map_value_compareINS_12basic_stringIcNS_11char_traitsIcEENS_9allocatorIcEEEENS_12__value_typeIS7_S7_EENS_4lessIS7_EELb1EEEE6secondB7v160006Ev, symObjAddr: 0xF00, symBinAddr: 0x1EA0, symSize: 0x20 }
  - { offsetInCU: 0xCA58, offset: 0xCA58, size: 0x8, addend: 0x0, symName: __ZNSt3__122__compressed_pair_elemINS_19__map_value_compareINS_12basic_stringIcNS_11char_traitsIcEENS_9allocatorIcEEEENS_12__value_typeIS7_S7_EENS_4lessIS7_EELb1EEELi1ELb1EE5__getB7v160006Ev, symObjAddr: 0xF20, symBinAddr: 0x1EC0, symSize: 0x10 }
  - { offsetInCU: 0xCA7C, offset: 0xCA7C, size: 0x8, addend: 0x0, symName: __ZNKSt3__14lessINS_12basic_stringIcNS_11char_traitsIcEENS_9allocatorIcEEEEEclB7v160006ERKS6_S9_, symObjAddr: 0xF30, symBinAddr: 0x1ED0, symSize: 0x50 }
  - { offsetInCU: 0xCABE, offset: 0xCABE, size: 0x8, addend: 0x0, symName: __ZNKSt3__112__value_typeINS_12basic_stringIcNS_11char_traitsIcEENS_9allocatorIcEEEES6_E11__get_valueB7v160006Ev, symObjAddr: 0xF80, symBinAddr: 0x1F20, symSize: 0x20 }
  - { offsetInCU: 0xCAF0, offset: 0xCAF0, size: 0x8, addend: 0x0, symName: __ZNSt3__120_CmpUnspecifiedParamC1B7v160006EMS0_i, symObjAddr: 0x1020, symBinAddr: 0x1FC0, symSize: 0x30 }
  - { offsetInCU: 0xCB22, offset: 0xCB22, size: 0x8, addend: 0x0, symName: __ZNKSt3__112basic_stringIcNS_11char_traitsIcEENS_9allocatorIcEEEcvNS_17basic_string_viewIcS2_EEB7v160006Ev, symObjAddr: 0x10E0, symBinAddr: 0x2080, symSize: 0x50 }
  - { offsetInCU: 0xCB46, offset: 0xCB46, size: 0x8, addend: 0x0, symName: __ZNKSt3__117basic_string_viewIcNS_11char_traitsIcEEE7compareES3_, symObjAddr: 0x1130, symBinAddr: 0x20D0, symSize: 0x100 }
  - { offsetInCU: 0xCB97, offset: 0xCB97, size: 0x8, addend: 0x0, symName: __ZNKSt3__117basic_string_viewIcNS_11char_traitsIcEEE4sizeB7v160006Ev, symObjAddr: 0x1260, symBinAddr: 0x2200, symSize: 0x20 }
  - { offsetInCU: 0xCBBB, offset: 0xCBBB, size: 0x8, addend: 0x0, symName: __ZNSt3__111char_traitsIcE7compareEPKcS3_m, symObjAddr: 0x1280, symBinAddr: 0x2220, symSize: 0x60 }
  - { offsetInCU: 0xCBF9, offset: 0xCBF9, size: 0x8, addend: 0x0, symName: __ZNKSt3__117basic_string_viewIcNS_11char_traitsIcEEE4dataB7v160006Ev, symObjAddr: 0x12E0, symBinAddr: 0x2280, symSize: 0x20 }
  - { offsetInCU: 0xCC27, offset: 0xCC27, size: 0x8, addend: 0x0, symName: __ZNKSt3__16__lessImmEclB7v160006ERKmS3_, symObjAddr: 0x1350, symBinAddr: 0x22F0, symSize: 0x30 }
  - { offsetInCU: 0xCC67, offset: 0xCC67, size: 0x8, addend: 0x0, symName: __ZNKSt3__112basic_stringIcNS_11char_traitsIcEENS_9allocatorIcEEE4sizeB7v160006Ev, symObjAddr: 0x13B0, symBinAddr: 0x2350, symSize: 0x50 }
  - { offsetInCU: 0xCC8B, offset: 0xCC8B, size: 0x8, addend: 0x0, symName: __ZNSt3__117basic_string_viewIcNS_11char_traitsIcEEEC1B7v160006EPKcm, symObjAddr: 0x1400, symBinAddr: 0x23A0, symSize: 0x30 }
  - { offsetInCU: 0xCCD1, offset: 0xCCD1, size: 0x8, addend: 0x0, symName: __ZNKSt3__112basic_stringIcNS_11char_traitsIcEENS_9allocatorIcEEE15__get_long_sizeB7v160006Ev, symObjAddr: 0x1430, symBinAddr: 0x23D0, symSize: 0x20 }
  - { offsetInCU: 0xCCF5, offset: 0xCCF5, size: 0x8, addend: 0x0, symName: __ZNKSt3__112basic_stringIcNS_11char_traitsIcEENS_9allocatorIcEEE16__get_short_sizeB7v160006Ev, symObjAddr: 0x1450, symBinAddr: 0x23F0, symSize: 0x30 }
  - { offsetInCU: 0xCD19, offset: 0xCD19, size: 0x8, addend: 0x0, symName: __ZNSt3__117basic_string_viewIcNS_11char_traitsIcEEEC2B7v160006EPKcm, symObjAddr: 0x1480, symBinAddr: 0x2420, symSize: 0x50 }
  - { offsetInCU: 0xCD5F, offset: 0xCD5F, size: 0x8, addend: 0x0, symName: __ZNSt3__120_CmpUnspecifiedParamC2B7v160006EMS0_i, symObjAddr: 0x14D0, symBinAddr: 0x2470, symSize: 0x10 }
  - { offsetInCU: 0xCD91, offset: 0xCD91, size: 0x8, addend: 0x0, symName: __ZNSt3__117__compressed_pairINS_15__tree_end_nodeIPNS_16__tree_node_baseIPvEEEENS_9allocatorINS_11__tree_nodeINS_12__value_typeINS_12basic_stringIcNS_11char_traitsIcEENS7_IcEEEESE_EES3_EEEEE5firstB7v160006Ev, symObjAddr: 0x1510, symBinAddr: 0x24B0, symSize: 0x20 }
  - { offsetInCU: 0xCDB5, offset: 0xCDB5, size: 0x8, addend: 0x0, symName: __ZNSt3__122__compressed_pair_elemINS_15__tree_end_nodeIPNS_16__tree_node_baseIPvEEEELi0ELb0EE5__getB7v160006Ev, symObjAddr: 0x1530, symBinAddr: 0x24D0, symSize: 0x10 }
  - { offsetInCU: 0xCDD9, offset: 0xCDD9, size: 0x8, addend: 0x0, symName: __ZNSt12out_of_rangeC1B7v160006EPKc, symObjAddr: 0x1540, symBinAddr: 0x24E0, symSize: 0x30 }
  - { offsetInCU: 0xCE0F, offset: 0xCE0F, size: 0x8, addend: 0x0, symName: __ZNSt12out_of_rangeC2B7v160006EPKc, symObjAddr: 0x1570, symBinAddr: 0x2510, symSize: 0x40 }
  - { offsetInCU: 0x26, offset: 0xDDCC, size: 0x8, addend: 0x0, symName: __ZN20Collision2DComponentC2Ev, symObjAddr: 0x0, symBinAddr: 0x2580, symSize: 0x70 }
  - { offsetInCU: 0xD28, offset: 0xEACE, size: 0x8, addend: 0x0, symName: __ZNSt3__134__libcpp_atomic_refcount_incrementB7v160006IlEET_RS1_, symObjAddr: 0x660, symBinAddr: 0x2BE0, symSize: 0x30 }
  - { offsetInCU: 0xD5D, offset: 0xEB03, size: 0x8, addend: 0x0, symName: __ZNSt3__134__libcpp_atomic_refcount_decrementB7v160006IlEET_RS1_, symObjAddr: 0x760, symBinAddr: 0x2CE0, symSize: 0x30 }
  - { offsetInCU: 0x3075, offset: 0x10E1B, size: 0x8, addend: 0x0, symName: __ZN20Collision2DComponentC2Ev, symObjAddr: 0x0, symBinAddr: 0x2580, symSize: 0x70 }
  - { offsetInCU: 0x309F, offset: 0x10E45, size: 0x8, addend: 0x0, symName: __ZN9ComponentC2Ev, symObjAddr: 0x70, symBinAddr: 0x25F0, symSize: 0x30 }
  - { offsetInCU: 0x30C7, offset: 0x10E6D, size: 0x8, addend: 0x0, symName: __ZN20Collision2DComponentC1Ev, symObjAddr: 0xA0, symBinAddr: 0x2620, symSize: 0x20 }
  - { offsetInCU: 0x30F1, offset: 0x10E97, size: 0x8, addend: 0x0, symName: __ZN20Collision2DComponentD2Ev, symObjAddr: 0xC0, symBinAddr: 0x2640, symSize: 0x20 }
  - { offsetInCU: 0x311B, offset: 0x10EC1, size: 0x8, addend: 0x0, symName: __ZN9ComponentD2Ev, symObjAddr: 0xE0, symBinAddr: 0x2660, symSize: 0x30 }
  - { offsetInCU: 0x3143, offset: 0x10EE9, size: 0x8, addend: 0x0, symName: __ZN20Collision2DComponentD1Ev, symObjAddr: 0x110, symBinAddr: 0x2690, symSize: 0x20 }
  - { offsetInCU: 0x316D, offset: 0x10F13, size: 0x8, addend: 0x0, symName: __ZN20Collision2DComponentD0Ev, symObjAddr: 0x130, symBinAddr: 0x26B0, symSize: 0x30 }
  - { offsetInCU: 0x3197, offset: 0x10F3D, size: 0x8, addend: 0x0, symName: __ZN20Collision2DComponent5InputEf, symObjAddr: 0x160, symBinAddr: 0x26E0, symSize: 0x10 }
  - { offsetInCU: 0x31CB, offset: 0x10F71, size: 0x8, addend: 0x0, symName: __ZN20Collision2DComponent6UpdateEf, symObjAddr: 0x170, symBinAddr: 0x26F0, symSize: 0x130 }
  - { offsetInCU: 0x320D, offset: 0x10FB3, size: 0x8, addend: 0x0, symName: __ZN9Component13GetGameEntityEv, symObjAddr: 0x2A0, symBinAddr: 0x2820, symSize: 0x30 }
  - { offsetInCU: 0x3231, offset: 0x10FD7, size: 0x8, addend: 0x0, symName: __ZNKSt3__110shared_ptrI10GameEntityEptB7v160006Ev, symObjAddr: 0x2D0, symBinAddr: 0x2850, symSize: 0x20 }
  - { offsetInCU: 0x3255, offset: 0x10FFB, size: 0x8, addend: 0x0, symName: __ZNSt3__110shared_ptrI10GameEntityED1B7v160006Ev, symObjAddr: 0x2F0, symBinAddr: 0x2870, symSize: 0x20 }
  - { offsetInCU: 0x327D, offset: 0x11023, size: 0x8, addend: 0x0, symName: __ZN20Collision2DComponent5SetWHEff, symObjAddr: 0x310, symBinAddr: 0x2890, symSize: 0x30 }
  - { offsetInCU: 0x32BF, offset: 0x11065, size: 0x8, addend: 0x0, symName: __ZNKSt3__110shared_ptrI18TransformComponentEptB7v160006Ev, symObjAddr: 0x340, symBinAddr: 0x28C0, symSize: 0x20 }
  - { offsetInCU: 0x32E3, offset: 0x11089, size: 0x8, addend: 0x0, symName: __ZN20Collision2DComponent5SetXYEff, symObjAddr: 0x360, symBinAddr: 0x28E0, symSize: 0x30 }
  - { offsetInCU: 0x3325, offset: 0x110CB, size: 0x8, addend: 0x0, symName: __ZNSt3__110shared_ptrI18TransformComponentED1B7v160006Ev, symObjAddr: 0x390, symBinAddr: 0x2910, symSize: 0x20 }
  - { offsetInCU: 0x334D, offset: 0x110F3, size: 0x8, addend: 0x0, symName: __ZN20Collision2DComponent6RenderEP12SDL_Renderer, symObjAddr: 0x3B0, symBinAddr: 0x2930, symSize: 0x30 }
  - { offsetInCU: 0x3381, offset: 0x11127, size: 0x8, addend: 0x0, symName: __ZN20Collision2DComponent7GetTypeEv, symObjAddr: 0x3E0, symBinAddr: 0x2960, symSize: 0x10 }
  - { offsetInCU: 0x33A7, offset: 0x1114D, size: 0x8, addend: 0x0, symName: __ZN20Collision2DComponent4SetWEf, symObjAddr: 0x3F0, symBinAddr: 0x2970, symSize: 0x20 }
  - { offsetInCU: 0x33DB, offset: 0x11181, size: 0x8, addend: 0x0, symName: __ZN20Collision2DComponent4SetHEf, symObjAddr: 0x410, symBinAddr: 0x2990, symSize: 0x20 }
  - { offsetInCU: 0x340F, offset: 0x111B5, size: 0x8, addend: 0x0, symName: __ZNK20Collision2DComponent4GetWEv, symObjAddr: 0x430, symBinAddr: 0x29B0, symSize: 0x20 }
  - { offsetInCU: 0x3435, offset: 0x111DB, size: 0x8, addend: 0x0, symName: __ZNK20Collision2DComponent4GetHEv, symObjAddr: 0x450, symBinAddr: 0x29D0, symSize: 0x20 }
  - { offsetInCU: 0x345B, offset: 0x11201, size: 0x8, addend: 0x0, symName: __ZN20Collision2DComponent4SetXEf, symObjAddr: 0x470, symBinAddr: 0x29F0, symSize: 0x20 }
  - { offsetInCU: 0x348F, offset: 0x11235, size: 0x8, addend: 0x0, symName: __ZN20Collision2DComponent4SetYEf, symObjAddr: 0x490, symBinAddr: 0x2A10, symSize: 0x20 }
  - { offsetInCU: 0x34C3, offset: 0x11269, size: 0x8, addend: 0x0, symName: __ZNK20Collision2DComponent4GetXEv, symObjAddr: 0x4B0, symBinAddr: 0x2A30, symSize: 0x20 }
  - { offsetInCU: 0x34E9, offset: 0x1128F, size: 0x8, addend: 0x0, symName: __ZNK20Collision2DComponent4GetYEv, symObjAddr: 0x4D0, symBinAddr: 0x2A50, symSize: 0x20 }
  - { offsetInCU: 0x350F, offset: 0x112B5, size: 0x8, addend: 0x0, symName: __ZNK20Collision2DComponent12GetRectangleEv, symObjAddr: 0x4F0, symBinAddr: 0x2A70, symSize: 0x20 }
  - { offsetInCU: 0x3535, offset: 0x112DB, size: 0x8, addend: 0x0, symName: __ZNSt3__110shared_ptrI10GameEntityEC1B7v160006Ev, symObjAddr: 0x510, symBinAddr: 0x2A90, symSize: 0x20 }
  - { offsetInCU: 0x355D, offset: 0x11303, size: 0x8, addend: 0x0, symName: __ZN9ComponentD1Ev, symObjAddr: 0x530, symBinAddr: 0x2AB0, symSize: 0x10 }
  - { offsetInCU: 0x3585, offset: 0x1132B, size: 0x8, addend: 0x0, symName: __ZN9ComponentD0Ev, symObjAddr: 0x540, symBinAddr: 0x2AC0, symSize: 0x10 }
  - { offsetInCU: 0x35AD, offset: 0x11353, size: 0x8, addend: 0x0, symName: __ZN9Component5InputEf, symObjAddr: 0x550, symBinAddr: 0x2AD0, symSize: 0x10 }
  - { offsetInCU: 0x35DF, offset: 0x11385, size: 0x8, addend: 0x0, symName: __ZN9Component6UpdateEf, symObjAddr: 0x560, symBinAddr: 0x2AE0, symSize: 0x10 }
  - { offsetInCU: 0x3611, offset: 0x113B7, size: 0x8, addend: 0x0, symName: __ZN9Component6RenderEP12SDL_Renderer, symObjAddr: 0x570, symBinAddr: 0x2AF0, symSize: 0x10 }
  - { offsetInCU: 0x3643, offset: 0x113E9, size: 0x8, addend: 0x0, symName: __ZNSt3__110shared_ptrI10GameEntityEC2B7v160006Ev, symObjAddr: 0x580, symBinAddr: 0x2B00, symSize: 0x20 }
  - { offsetInCU: 0x366B, offset: 0x11411, size: 0x8, addend: 0x0, symName: __ZNSt3__110shared_ptrI10GameEntityEC1B7v160006ERKS2_, symObjAddr: 0x5A0, symBinAddr: 0x2B20, symSize: 0x30 }
  - { offsetInCU: 0x36A2, offset: 0x11448, size: 0x8, addend: 0x0, symName: __ZNSt3__110shared_ptrI10GameEntityEC2B7v160006ERKS2_, symObjAddr: 0x5D0, symBinAddr: 0x2B50, symSize: 0x50 }
  - { offsetInCU: 0x36D9, offset: 0x1147F, size: 0x8, addend: 0x0, symName: __ZNSt3__119__shared_weak_count12__add_sharedB7v160006Ev, symObjAddr: 0x620, symBinAddr: 0x2BA0, symSize: 0x20 }
  - { offsetInCU: 0x36FD, offset: 0x114A3, size: 0x8, addend: 0x0, symName: __ZNSt3__114__shared_count12__add_sharedB7v160006Ev, symObjAddr: 0x640, symBinAddr: 0x2BC0, symSize: 0x20 }
  - { offsetInCU: 0x3721, offset: 0x114C7, size: 0x8, addend: 0x0, symName: __ZNSt3__110shared_ptrI10GameEntityED2B7v160006Ev, symObjAddr: 0x690, symBinAddr: 0x2C10, symSize: 0x40 }
  - { offsetInCU: 0x3749, offset: 0x114EF, size: 0x8, addend: 0x0, symName: __ZNSt3__119__shared_weak_count16__release_sharedB7v160006Ev, symObjAddr: 0x6D0, symBinAddr: 0x2C50, symSize: 0x40 }
  - { offsetInCU: 0x376D, offset: 0x11513, size: 0x8, addend: 0x0, symName: __ZNSt3__114__shared_count16__release_sharedB7v160006Ev, symObjAddr: 0x710, symBinAddr: 0x2C90, symSize: 0x50 }
  - { offsetInCU: 0x3791, offset: 0x11537, size: 0x8, addend: 0x0, symName: __ZNSt3__110shared_ptrI18TransformComponentED2B7v160006Ev, symObjAddr: 0x790, symBinAddr: 0x2D10, symSize: 0x32 }
  - { offsetInCU: 0x49, offset: 0x115CB, size: 0x8, addend: 0x0, symName: __ZNSt3__1L19piecewise_constructE, symObjAddr: 0x2CD2, symBinAddr: 0x62EEA, symSize: 0x0 }
  - { offsetInCU: 0x2DBD, offset: 0x1433F, size: 0x8, addend: 0x0, symName: __ZNSt3__120dynamic_pointer_castB7v160006I10Projectile10GameEntityEENS_10shared_ptrIT_EERKNS3_IT0_EE, symObjAddr: 0x980, symBinAddr: 0x36B0, symSize: 0xA0 }
  - { offsetInCU: 0x3D1A, offset: 0x1529C, size: 0x8, addend: 0x0, symName: __ZNSt3__1neB7v160006ERKNS_14__map_iteratorINS_15__tree_iteratorINS_12__value_typeI13ComponentTypeNS_10shared_ptrI9ComponentEEEEPNS_11__tree_nodeIS7_PvEElEEEESF_, symObjAddr: 0x2D0, symBinAddr: 0x3020, symSize: 0x30 }
  - { offsetInCU: 0x3D57, offset: 0x152D9, size: 0x8, addend: 0x0, symName: __ZNSt3__13getB7v160006ILm0EK13ComponentTypeNS_10shared_ptrI9ComponentEEEERNS_13tuple_elementIXT_ENS_4pairIT0_T1_EEE4typeERSA_, symObjAddr: 0x330, symBinAddr: 0x3080, symSize: 0x20 }
  - { offsetInCU: 0x3DA1, offset: 0x15323, size: 0x8, addend: 0x0, symName: __ZNSt3__13getB7v160006ILm1EK13ComponentTypeNS_10shared_ptrI9ComponentEEEERNS_13tuple_elementIXT_ENS_4pairIT0_T1_EEE4typeERSA_, symObjAddr: 0x350, symBinAddr: 0x30A0, symSize: 0x20 }
  - { offsetInCU: 0x3DEB, offset: 0x1536D, size: 0x8, addend: 0x0, symName: __ZNSt3__1neB7v160006IPNS_10shared_ptrI10GameEntityEEEEbRKNS_11__wrap_iterIT_EES9_, symObjAddr: 0x490, symBinAddr: 0x31E0, symSize: 0x30 }
  - { offsetInCU: 0x3EA8, offset: 0x1542A, size: 0x8, addend: 0x0, symName: __ZNSt3__1eqB7v160006IPNS_10shared_ptrI10GameEntityEEEEbRKNS_11__wrap_iterIT_EES9_, symObjAddr: 0xDC0, symBinAddr: 0x3A90, symSize: 0x40 }
  - { offsetInCU: 0x3EEB, offset: 0x1546D, size: 0x8, addend: 0x0, symName: __ZNSt3__1neB7v160006ERKNS_15__tree_iteratorINS_12__value_typeI13ComponentTypeNS_10shared_ptrI9ComponentEEEEPNS_11__tree_nodeIS6_PvEElEESD_, symObjAddr: 0x10A0, symBinAddr: 0x3C50, symSize: 0x30 }
  - { offsetInCU: 0x3F28, offset: 0x154AA, size: 0x8, addend: 0x0, symName: __ZNSt3__1eqB7v160006ERKNS_15__tree_iteratorINS_12__value_typeI13ComponentTypeNS_10shared_ptrI9ComponentEEEEPNS_11__tree_nodeIS6_PvEElEESD_, symObjAddr: 0x10D0, symBinAddr: 0x3C80, symSize: 0x30 }
  - { offsetInCU: 0x3F65, offset: 0x154E7, size: 0x8, addend: 0x0, symName: __ZNSt3__116__tree_next_iterB7v160006IPNS_15__tree_end_nodeIPNS_16__tree_node_baseIPvEEEES5_EET_T0_, symObjAddr: 0x1130, symBinAddr: 0x3CE0, symSize: 0x90 }
  - { offsetInCU: 0x3FA3, offset: 0x15525, size: 0x8, addend: 0x0, symName: __ZNSt3__110__tree_minB7v160006IPNS_16__tree_node_baseIPvEEEET_S5_, symObjAddr: 0x11C0, symBinAddr: 0x3D70, symSize: 0x30 }
  - { offsetInCU: 0x3FD8, offset: 0x1555A, size: 0x8, addend: 0x0, symName: __ZNSt3__120__tree_is_left_childB7v160006IPNS_16__tree_node_baseIPvEEEEbT_, symObjAddr: 0x11F0, symBinAddr: 0x3DA0, symSize: 0x30 }
  - { offsetInCU: 0x4040, offset: 0x155C2, size: 0x8, addend: 0x0, symName: __ZNSt3__17launderB7v160006INS_4pairIK13ComponentTypeNS_10shared_ptrI9ComponentEEEEEEPT_S9_, symObjAddr: 0x12D0, symBinAddr: 0x3E70, symSize: 0x20 }
  - { offsetInCU: 0x4077, offset: 0x155F9, size: 0x8, addend: 0x0, symName: __ZNSt3__19__launderB7v160006INS_4pairIK13ComponentTypeNS_10shared_ptrI9ComponentEEEEEEPT_S9_, symObjAddr: 0x12F0, symBinAddr: 0x3E90, symSize: 0x10 }
  - { offsetInCU: 0x40E6, offset: 0x15668, size: 0x8, addend: 0x0, symName: __ZNSt3__116forward_as_tupleB7v160006IJRK13ComponentTypeEEENS_5tupleIJDpOT_EEES7_, symObjAddr: 0x1400, symBinAddr: 0x3FA0, symSize: 0x30 }
  - { offsetInCU: 0x411F, offset: 0x156A1, size: 0x8, addend: 0x0, symName: __ZNSt3__116forward_as_tupleB7v160006IJEEENS_5tupleIJDpOT_EEES4_, symObjAddr: 0x1430, symBinAddr: 0x3FD0, symSize: 0x10 }
  - { offsetInCU: 0x4144, offset: 0x156C6, size: 0x8, addend: 0x0, symName: __ZNSt3__17launderB7v160006IKNS_4pairIK13ComponentTypeNS_10shared_ptrI9ComponentEEEEEEPT_SA_, symObjAddr: 0x1A50, symBinAddr: 0x45E0, symSize: 0x20 }
  - { offsetInCU: 0x417B, offset: 0x156FD, size: 0x8, addend: 0x0, symName: __ZNSt3__19__launderB7v160006IKNS_4pairIK13ComponentTypeNS_10shared_ptrI9ComponentEEEEEEPT_SA_, symObjAddr: 0x1A70, symBinAddr: 0x4600, symSize: 0x10 }
  - { offsetInCU: 0x41D0, offset: 0x15752, size: 0x8, addend: 0x0, symName: __ZNSt3__117__libcpp_allocateB7v160006Emm, symObjAddr: 0x1CD0, symBinAddr: 0x4860, symSize: 0x60 }
  - { offsetInCU: 0x4420, offset: 0x159A2, size: 0x8, addend: 0x0, symName: __ZNSt3__124__is_overaligned_for_newB7v160006Em, symObjAddr: 0x1D50, symBinAddr: 0x48E0, symSize: 0x20 }
  - { offsetInCU: 0x444E, offset: 0x159D0, size: 0x8, addend: 0x0, symName: __ZNSt3__121__libcpp_operator_newB7v160006IJmSt11align_val_tEEEPvDpT_, symObjAddr: 0x1D70, symBinAddr: 0x4900, symSize: 0x30 }
  - { offsetInCU: 0x449B, offset: 0x15A1D, size: 0x8, addend: 0x0, symName: __ZNSt3__121__libcpp_operator_newB7v160006IJmEEEPvDpT_, symObjAddr: 0x1DA0, symBinAddr: 0x4930, symSize: 0x20 }
  - { offsetInCU: 0x44FB, offset: 0x15A7D, size: 0x8, addend: 0x0, symName: __ZNSt3__112construct_atB7v160006INS_4pairIK13ComponentTypeNS_10shared_ptrI9ComponentEEEEJRKNS_21piecewise_construct_tENS_5tupleIJRS3_EEENSB_IJEEEEPS7_EEPT_SH_DpOT0_, symObjAddr: 0x1EF0, symBinAddr: 0x4A80, symSize: 0x50 }
  - { offsetInCU: 0x459F, offset: 0x15B21, size: 0x8, addend: 0x0, symName: __ZNSt3__13getB7v160006ILm0EJRK13ComponentTypeEEERNS_13tuple_elementIXT_ENS_5tupleIJDpT0_EEEE4typeERS8_, symObjAddr: 0x1FF0, symBinAddr: 0x4B80, symSize: 0x20 }
  - { offsetInCU: 0x45E2, offset: 0x15B64, size: 0x8, addend: 0x0, symName: __ZNSt3__127__tree_balance_after_insertB7v160006IPNS_16__tree_node_baseIPvEEEEvT_S5_, symObjAddr: 0x20D0, symBinAddr: 0x4C60, symSize: 0x240 }
  - { offsetInCU: 0x465F, offset: 0x15BE1, size: 0x8, addend: 0x0, symName: __ZNSt3__118__tree_left_rotateB7v160006IPNS_16__tree_node_baseIPvEEEEvT_, symObjAddr: 0x2330, symBinAddr: 0x4EC0, symSize: 0xD0 }
  - { offsetInCU: 0x46A2, offset: 0x15C24, size: 0x8, addend: 0x0, symName: __ZNSt3__119__tree_right_rotateB7v160006IPNS_16__tree_node_baseIPvEEEEvT_, symObjAddr: 0x2400, symBinAddr: 0x4F90, symSize: 0xC0 }
  - { offsetInCU: 0x46E5, offset: 0x15C67, size: 0x8, addend: 0x0, symName: __ZNSt3__110destroy_atB7v160006INS_4pairIK13ComponentTypeNS_10shared_ptrI9ComponentEEEELi0EEEvPT_, symObjAddr: 0x26A0, symBinAddr: 0x5230, symSize: 0x20 }
  - { offsetInCU: 0x471D, offset: 0x15C9F, size: 0x8, addend: 0x0, symName: __ZNSt3__112__destroy_atB7v160006INS_4pairIK13ComponentTypeNS_10shared_ptrI9ComponentEEEELi0EEEvPT_, symObjAddr: 0x26C0, symBinAddr: 0x5250, symSize: 0x20 }
  - { offsetInCU: 0x4755, offset: 0x15CD7, size: 0x8, addend: 0x0, symName: __ZNSt3__119__libcpp_deallocateB7v160006EPvmm, symObjAddr: 0x27C0, symBinAddr: 0x5350, symSize: 0x60 }
  - { offsetInCU: 0x47BB, offset: 0x15D3D, size: 0x8, addend: 0x0, symName: __ZNSt3__127__do_deallocate_handle_sizeB7v160006IJSt11align_val_tEEEvPvmDpT_, symObjAddr: 0x2820, symBinAddr: 0x53B0, symSize: 0x30 }
  - { offsetInCU: 0x480F, offset: 0x15D91, size: 0x8, addend: 0x0, symName: __ZNSt3__127__do_deallocate_handle_sizeB7v160006IJEEEvPvmDpT_, symObjAddr: 0x2850, symBinAddr: 0x53E0, symSize: 0x20 }
  - { offsetInCU: 0x484F, offset: 0x15DD1, size: 0x8, addend: 0x0, symName: __ZNSt3__124__libcpp_operator_deleteB7v160006IJPvSt11align_val_tEEEvDpT_, symObjAddr: 0x2870, symBinAddr: 0x5400, symSize: 0x30 }
  - { offsetInCU: 0x4899, offset: 0x15E1B, size: 0x8, addend: 0x0, symName: __ZNSt3__124__libcpp_operator_deleteB7v160006IJPvEEEvDpT_, symObjAddr: 0x28A0, symBinAddr: 0x5430, symSize: 0x20 }
  - { offsetInCU: 0x490C, offset: 0x15E8E, size: 0x8, addend: 0x0, symName: __ZSt28__throw_bad_array_new_lengthB7v160006v, symObjAddr: 0x1C90, symBinAddr: 0x4820, symSize: 0x40 }
  - { offsetInCU: 0x6E7C, offset: 0x183FE, size: 0x8, addend: 0x0, symName: __ZN15EnemyGameEntityC2EP12SDL_Renderer, symObjAddr: 0x0, symBinAddr: 0x2D50, symSize: 0xA0 }
  - { offsetInCU: 0x6EB4, offset: 0x18436, size: 0x8, addend: 0x0, symName: __ZN15EnemyGameEntityC1EP12SDL_Renderer, symObjAddr: 0xA0, symBinAddr: 0x2DF0, symSize: 0x30 }
  - { offsetInCU: 0x6EEC, offset: 0x1846E, size: 0x8, addend: 0x0, symName: __ZN15EnemyGameEntityD2Ev, symObjAddr: 0xD0, symBinAddr: 0x2E20, symSize: 0x20 }
  - { offsetInCU: 0x6F16, offset: 0x18498, size: 0x8, addend: 0x0, symName: __ZN15EnemyGameEntityD1Ev, symObjAddr: 0xF0, symBinAddr: 0x2E40, symSize: 0x20 }
  - { offsetInCU: 0x6F40, offset: 0x184C2, size: 0x8, addend: 0x0, symName: __ZN15EnemyGameEntityD0Ev, symObjAddr: 0x110, symBinAddr: 0x2E60, symSize: 0x30 }
  - { offsetInCU: 0x6F6A, offset: 0x184EC, size: 0x8, addend: 0x0, symName: __ZN15EnemyGameEntity5InputEf, symObjAddr: 0x140, symBinAddr: 0x2E90, symSize: 0x130 }
  - { offsetInCU: 0x705C, offset: 0x185DE, size: 0x8, addend: 0x0, symName: __ZNSt3__13mapI13ComponentTypeNS_10shared_ptrI9ComponentEENS_4lessIS1_EENS_9allocatorINS_4pairIKS1_S4_EEEEE5beginB7v160006Ev, symObjAddr: 0x270, symBinAddr: 0x2FC0, symSize: 0x30 }
  - { offsetInCU: 0x7080, offset: 0x18602, size: 0x8, addend: 0x0, symName: __ZNSt3__13mapI13ComponentTypeNS_10shared_ptrI9ComponentEENS_4lessIS1_EENS_9allocatorINS_4pairIKS1_S4_EEEEE3endB7v160006Ev, symObjAddr: 0x2A0, symBinAddr: 0x2FF0, symSize: 0x30 }
  - { offsetInCU: 0x70A4, offset: 0x18626, size: 0x8, addend: 0x0, symName: __ZNKSt3__114__map_iteratorINS_15__tree_iteratorINS_12__value_typeI13ComponentTypeNS_10shared_ptrI9ComponentEEEEPNS_11__tree_nodeIS7_PvEElEEEdeB7v160006Ev, symObjAddr: 0x300, symBinAddr: 0x3050, symSize: 0x30 }
  - { offsetInCU: 0x70C8, offset: 0x1864A, size: 0x8, addend: 0x0, symName: __ZNSt3__13mapI13ComponentTypeNS_10shared_ptrI9ComponentEENS_4lessIS1_EENS_9allocatorINS_4pairIKS1_S4_EEEEEixERS9_, symObjAddr: 0x370, symBinAddr: 0x30C0, symSize: 0x70 }
  - { offsetInCU: 0x70FD, offset: 0x1867F, size: 0x8, addend: 0x0, symName: __ZNKSt3__110shared_ptrI9ComponentEptB7v160006Ev, symObjAddr: 0x3E0, symBinAddr: 0x3130, symSize: 0x20 }
  - { offsetInCU: 0x7121, offset: 0x186A3, size: 0x8, addend: 0x0, symName: __ZNSt3__114__map_iteratorINS_15__tree_iteratorINS_12__value_typeI13ComponentTypeNS_10shared_ptrI9ComponentEEEEPNS_11__tree_nodeIS7_PvEElEEEppB7v160006Ev, symObjAddr: 0x400, symBinAddr: 0x3150, symSize: 0x30 }
  - { offsetInCU: 0x7145, offset: 0x186C7, size: 0x8, addend: 0x0, symName: __ZNSt3__16vectorINS_10shared_ptrI10GameEntityEENS_9allocatorIS3_EEE5beginB7v160006Ev, symObjAddr: 0x430, symBinAddr: 0x3180, symSize: 0x30 }
  - { offsetInCU: 0x716B, offset: 0x186ED, size: 0x8, addend: 0x0, symName: __ZNSt3__16vectorINS_10shared_ptrI10GameEntityEENS_9allocatorIS3_EEE3endB7v160006Ev, symObjAddr: 0x460, symBinAddr: 0x31B0, symSize: 0x30 }
  - { offsetInCU: 0x7191, offset: 0x18713, size: 0x8, addend: 0x0, symName: __ZNKSt3__111__wrap_iterIPNS_10shared_ptrI10GameEntityEEEdeB7v160006Ev, symObjAddr: 0x4C0, symBinAddr: 0x3210, symSize: 0x20 }
  - { offsetInCU: 0x71B5, offset: 0x18737, size: 0x8, addend: 0x0, symName: __ZNSt3__111__wrap_iterIPNS_10shared_ptrI10GameEntityEEEppB7v160006Ev, symObjAddr: 0x500, symBinAddr: 0x3230, symSize: 0x20 }
  - { offsetInCU: 0x71D8, offset: 0x1875A, size: 0x8, addend: 0x0, symName: __ZN15EnemyGameEntity6UpdateEf, symObjAddr: 0x520, symBinAddr: 0x3250, symSize: 0x460 }
  - { offsetInCU: 0x72EC, offset: 0x1886E, size: 0x8, addend: 0x0, symName: __ZNKSt3__110shared_ptrI10ProjectileEptB7v160006Ev, symObjAddr: 0xA60, symBinAddr: 0x3750, symSize: 0x20 }
  - { offsetInCU: 0x7310, offset: 0x18892, size: 0x8, addend: 0x0, symName: __ZNSt3__110shared_ptrI10ProjectileED1B7v160006Ev, symObjAddr: 0xAA0, symBinAddr: 0x3770, symSize: 0x20 }
  - { offsetInCU: 0x7337, offset: 0x188B9, size: 0x8, addend: 0x0, symName: __ZN15EnemyGameEntity6RenderEP12SDL_Renderer, symObjAddr: 0xAC0, symBinAddr: 0x3790, symSize: 0x250 }
  - { offsetInCU: 0x743D, offset: 0x189BF, size: 0x8, addend: 0x0, symName: __ZNSt3__110__get_pairILm0EE3getB7v160006IK13ComponentTypeNS_10shared_ptrI9ComponentEEEERT_RNS_4pairIS8_T0_EE, symObjAddr: 0xD10, symBinAddr: 0x39E0, symSize: 0x10 }
  - { offsetInCU: 0x7472, offset: 0x189F4, size: 0x8, addend: 0x0, symName: __ZNSt3__110__get_pairILm1EE3getB7v160006IK13ComponentTypeNS_10shared_ptrI9ComponentEEEERT0_RNS_4pairIT_S8_EE, symObjAddr: 0xD20, symBinAddr: 0x39F0, symSize: 0x20 }
  - { offsetInCU: 0x74A7, offset: 0x18A29, size: 0x8, addend: 0x0, symName: __ZNSt3__16vectorINS_10shared_ptrI10GameEntityEENS_9allocatorIS3_EEE11__make_iterB7v160006EPS3_, symObjAddr: 0xD40, symBinAddr: 0x3A10, symSize: 0x30 }
  - { offsetInCU: 0x74DA, offset: 0x18A5C, size: 0x8, addend: 0x0, symName: __ZNSt3__111__wrap_iterIPNS_10shared_ptrI10GameEntityEEEC1B7v160006EPKvS4_, symObjAddr: 0xD70, symBinAddr: 0x3A40, symSize: 0x30 }
  - { offsetInCU: 0x751E, offset: 0x18AA0, size: 0x8, addend: 0x0, symName: __ZNSt3__111__wrap_iterIPNS_10shared_ptrI10GameEntityEEEC2B7v160006EPKvS4_, symObjAddr: 0xDA0, symBinAddr: 0x3A70, symSize: 0x20 }
  - { offsetInCU: 0x7562, offset: 0x18AE4, size: 0x8, addend: 0x0, symName: __ZNKSt3__111__wrap_iterIPNS_10shared_ptrI10GameEntityEEE4baseB7v160006Ev, symObjAddr: 0xE00, symBinAddr: 0x3AD0, symSize: 0x20 }
  - { offsetInCU: 0x7586, offset: 0x18B08, size: 0x8, addend: 0x0, symName: __ZNSt3__16__treeINS_12__value_typeI13ComponentTypeNS_10shared_ptrI9ComponentEEEENS_19__map_value_compareIS2_S6_NS_4lessIS2_EELb1EEENS_9allocatorIS6_EEE5beginB7v160006Ev, symObjAddr: 0xF20, symBinAddr: 0x3AF0, symSize: 0x30 }
  - { offsetInCU: 0x75AA, offset: 0x18B2C, size: 0x8, addend: 0x0, symName: __ZNSt3__114__map_iteratorINS_15__tree_iteratorINS_12__value_typeI13ComponentTypeNS_10shared_ptrI9ComponentEEEEPNS_11__tree_nodeIS7_PvEElEEEC1B7v160006ESC_, symObjAddr: 0xF50, symBinAddr: 0x3B20, symSize: 0x30 }
  - { offsetInCU: 0x75E1, offset: 0x18B63, size: 0x8, addend: 0x0, symName: __ZNSt3__16__treeINS_12__value_typeI13ComponentTypeNS_10shared_ptrI9ComponentEEEENS_19__map_value_compareIS2_S6_NS_4lessIS2_EELb1EEENS_9allocatorIS6_EEE12__begin_nodeB7v160006Ev, symObjAddr: 0xF80, symBinAddr: 0x3B50, symSize: 0x10 }
  - { offsetInCU: 0x7605, offset: 0x18B87, size: 0x8, addend: 0x0, symName: __ZNSt3__115__tree_iteratorINS_12__value_typeI13ComponentTypeNS_10shared_ptrI9ComponentEEEEPNS_11__tree_nodeIS6_PvEElEC1B7v160006EPNS_15__tree_end_nodeIPNS_16__tree_node_baseIS8_EEEE, symObjAddr: 0xF90, symBinAddr: 0x3B60, symSize: 0x30 }
  - { offsetInCU: 0x763C, offset: 0x18BBE, size: 0x8, addend: 0x0, symName: __ZNSt3__115__tree_iteratorINS_12__value_typeI13ComponentTypeNS_10shared_ptrI9ComponentEEEEPNS_11__tree_nodeIS6_PvEElEC2B7v160006EPNS_15__tree_end_nodeIPNS_16__tree_node_baseIS8_EEEE, symObjAddr: 0xFC0, symBinAddr: 0x3B90, symSize: 0x20 }
  - { offsetInCU: 0x7673, offset: 0x18BF5, size: 0x8, addend: 0x0, symName: __ZNSt3__114__map_iteratorINS_15__tree_iteratorINS_12__value_typeI13ComponentTypeNS_10shared_ptrI9ComponentEEEEPNS_11__tree_nodeIS7_PvEElEEEC2B7v160006ESC_, symObjAddr: 0xFE0, symBinAddr: 0x3BB0, symSize: 0x20 }
  - { offsetInCU: 0x76AA, offset: 0x18C2C, size: 0x8, addend: 0x0, symName: __ZNSt3__16__treeINS_12__value_typeI13ComponentTypeNS_10shared_ptrI9ComponentEEEENS_19__map_value_compareIS2_S6_NS_4lessIS2_EELb1EEENS_9allocatorIS6_EEE3endB7v160006Ev, symObjAddr: 0x1000, symBinAddr: 0x3BD0, symSize: 0x30 }
  - { offsetInCU: 0x76CE, offset: 0x18C50, size: 0x8, addend: 0x0, symName: __ZNSt3__16__treeINS_12__value_typeI13ComponentTypeNS_10shared_ptrI9ComponentEEEENS_19__map_value_compareIS2_S6_NS_4lessIS2_EELb1EEENS_9allocatorIS6_EEE10__end_nodeB7v160006Ev, symObjAddr: 0x1030, symBinAddr: 0x3C00, symSize: 0x30 }
  - { offsetInCU: 0x76F2, offset: 0x18C74, size: 0x8, addend: 0x0, symName: __ZNSt3__117__compressed_pairINS_15__tree_end_nodeIPNS_16__tree_node_baseIPvEEEENS_9allocatorINS_11__tree_nodeINS_12__value_typeI13ComponentTypeNS_10shared_ptrI9ComponentEEEES3_EEEEE5firstB7v160006Ev, symObjAddr: 0x1070, symBinAddr: 0x3C30, symSize: 0x20 }
  - { offsetInCU: 0x7716, offset: 0x18C98, size: 0x8, addend: 0x0, symName: __ZNSt3__115__tree_iteratorINS_12__value_typeI13ComponentTypeNS_10shared_ptrI9ComponentEEEEPNS_11__tree_nodeIS6_PvEElEppB7v160006Ev, symObjAddr: 0x1100, symBinAddr: 0x3CB0, symSize: 0x30 }
  - { offsetInCU: 0x773A, offset: 0x18CBC, size: 0x8, addend: 0x0, symName: __ZNKSt3__116__tree_node_baseIPvE15__parent_unsafeB7v160006Ev, symObjAddr: 0x1220, symBinAddr: 0x3DD0, symSize: 0x20 }
  - { offsetInCU: 0x775E, offset: 0x18CE0, size: 0x8, addend: 0x0, symName: __ZNKSt3__115__tree_iteratorINS_12__value_typeI13ComponentTypeNS_10shared_ptrI9ComponentEEEEPNS_11__tree_nodeIS6_PvEElEptB7v160006Ev, symObjAddr: 0x1250, symBinAddr: 0x3DF0, symSize: 0x30 }
  - { offsetInCU: 0x7782, offset: 0x18D04, size: 0x8, addend: 0x0, symName: __ZNSt3__112__value_typeI13ComponentTypeNS_10shared_ptrI9ComponentEEE11__get_valueB7v160006Ev, symObjAddr: 0x1280, symBinAddr: 0x3E20, symSize: 0x20 }
  - { offsetInCU: 0x77A6, offset: 0x18D28, size: 0x8, addend: 0x0, symName: __ZNSt3__114pointer_traitsIPNS_12__value_typeI13ComponentTypeNS_10shared_ptrI9ComponentEEEEE10pointer_toB7v160006ERS6_, symObjAddr: 0x12A0, symBinAddr: 0x3E40, symSize: 0x10 }
  - { offsetInCU: 0x77C8, offset: 0x18D4A, size: 0x8, addend: 0x0, symName: __ZNKSt3__115__tree_iteratorINS_12__value_typeI13ComponentTypeNS_10shared_ptrI9ComponentEEEEPNS_11__tree_nodeIS6_PvEElE8__get_npB7v160006Ev, symObjAddr: 0x12B0, symBinAddr: 0x3E50, symSize: 0x20 }
  - { offsetInCU: 0x7800, offset: 0x18D82, size: 0x8, addend: 0x0, symName: __ZNSt3__16__treeINS_12__value_typeI13ComponentTypeNS_10shared_ptrI9ComponentEEEENS_19__map_value_compareIS2_S6_NS_4lessIS2_EELb1EEENS_9allocatorIS6_EEE25__emplace_unique_key_argsIS2_JRKNS_21piecewise_construct_tENS_5tupleIJRKS2_EEENSI_IJEEEEEENS_4pairINS_15__tree_iteratorIS6_PNS_11__tree_nodeIS6_PvEElEEbEERKT_DpOT0_, symObjAddr: 0x1300, symBinAddr: 0x3EA0, symSize: 0x100 }
  - { offsetInCU: 0x78DD, offset: 0x18E5F, size: 0x8, addend: 0x0, symName: __ZNSt3__16__treeINS_12__value_typeI13ComponentTypeNS_10shared_ptrI9ComponentEEEENS_19__map_value_compareIS2_S6_NS_4lessIS2_EELb1EEENS_9allocatorIS6_EEE12__find_equalIS2_EERPNS_16__tree_node_baseIPvEERPNS_15__tree_end_nodeISI_EERKT_, symObjAddr: 0x1440, symBinAddr: 0x3FE0, symSize: 0x180 }
  - { offsetInCU: 0x7948, offset: 0x18ECA, size: 0x8, addend: 0x0, symName: __ZNSt3__16__treeINS_12__value_typeI13ComponentTypeNS_10shared_ptrI9ComponentEEEENS_19__map_value_compareIS2_S6_NS_4lessIS2_EELb1EEENS_9allocatorIS6_EEE16__construct_nodeIJRKNS_21piecewise_construct_tENS_5tupleIJRKS2_EEENSI_IJEEEEEENS_10unique_ptrINS_11__tree_nodeIS6_PvEENS_22__tree_node_destructorINSB_ISQ_EEEEEEDpOT_, symObjAddr: 0x15C0, symBinAddr: 0x4160, symSize: 0x120 }
  - { offsetInCU: 0x79CF, offset: 0x18F51, size: 0x8, addend: 0x0, symName: __ZNSt3__16__treeINS_12__value_typeI13ComponentTypeNS_10shared_ptrI9ComponentEEEENS_19__map_value_compareIS2_S6_NS_4lessIS2_EELb1EEENS_9allocatorIS6_EEE16__insert_node_atEPNS_15__tree_end_nodeIPNS_16__tree_node_baseIPvEEEERSI_SI_, symObjAddr: 0x16E0, symBinAddr: 0x4280, symSize: 0xC0 }
  - { offsetInCU: 0x7A22, offset: 0x18FA4, size: 0x8, addend: 0x0, symName: __ZNKSt3__110unique_ptrINS_11__tree_nodeINS_12__value_typeI13ComponentTypeNS_10shared_ptrI9ComponentEEEEPvEENS_22__tree_node_destructorINS_9allocatorIS9_EEEEE3getB7v160006Ev, symObjAddr: 0x17A0, symBinAddr: 0x4340, symSize: 0x20 }
  - { offsetInCU: 0x7A46, offset: 0x18FC8, size: 0x8, addend: 0x0, symName: __ZNSt3__110unique_ptrINS_11__tree_nodeINS_12__value_typeI13ComponentTypeNS_10shared_ptrI9ComponentEEEEPvEENS_22__tree_node_destructorINS_9allocatorIS9_EEEEE7releaseB7v160006Ev, symObjAddr: 0x17C0, symBinAddr: 0x4360, symSize: 0x40 }
  - { offsetInCU: 0x7A79, offset: 0x18FFB, size: 0x8, addend: 0x0, symName: __ZNSt3__110unique_ptrINS_11__tree_nodeINS_12__value_typeI13ComponentTypeNS_10shared_ptrI9ComponentEEEEPvEENS_22__tree_node_destructorINS_9allocatorIS9_EEEEED1B7v160006Ev, symObjAddr: 0x1800, symBinAddr: 0x43A0, symSize: 0x20 }
  - { offsetInCU: 0x7AA1, offset: 0x19023, size: 0x8, addend: 0x0, symName: __ZNSt3__115__tree_iteratorINS_12__value_typeI13ComponentTypeNS_10shared_ptrI9ComponentEEEEPNS_11__tree_nodeIS6_PvEElEC1B7v160006ESA_, symObjAddr: 0x1820, symBinAddr: 0x43C0, symSize: 0x30 }
  - { offsetInCU: 0x7AE2, offset: 0x19064, size: 0x8, addend: 0x0, symName: __ZNSt3__14pairINS_15__tree_iteratorINS_12__value_typeI13ComponentTypeNS_10shared_ptrI9ComponentEEEEPNS_11__tree_nodeIS7_PvEElEEbEC1B7v160006ISC_RbLS9_0EEEOT_OT0_, symObjAddr: 0x1850, symBinAddr: 0x43F0, symSize: 0x30 }
  - { offsetInCU: 0x7B3F, offset: 0x190C1, size: 0x8, addend: 0x0, symName: __ZNKSt3__16__treeINS_12__value_typeI13ComponentTypeNS_10shared_ptrI9ComponentEEEENS_19__map_value_compareIS2_S6_NS_4lessIS2_EELb1EEENS_9allocatorIS6_EEE6__rootB7v160006Ev, symObjAddr: 0x1880, symBinAddr: 0x4420, symSize: 0x20 }
  - { offsetInCU: 0x7B63, offset: 0x190E5, size: 0x8, addend: 0x0, symName: __ZNKSt3__16__treeINS_12__value_typeI13ComponentTypeNS_10shared_ptrI9ComponentEEEENS_19__map_value_compareIS2_S6_NS_4lessIS2_EELb1EEENS_9allocatorIS6_EEE10__root_ptrEv, symObjAddr: 0x18A0, symBinAddr: 0x4440, symSize: 0x20 }
  - { offsetInCU: 0x7B87, offset: 0x19109, size: 0x8, addend: 0x0, symName: __ZNSt3__16__treeINS_12__value_typeI13ComponentTypeNS_10shared_ptrI9ComponentEEEENS_19__map_value_compareIS2_S6_NS_4lessIS2_EELb1EEENS_9allocatorIS6_EEE10value_compB7v160006Ev, symObjAddr: 0x18C0, symBinAddr: 0x4460, symSize: 0x20 }
  - { offsetInCU: 0x7BAB, offset: 0x1912D, size: 0x8, addend: 0x0, symName: __ZNKSt3__119__map_value_compareI13ComponentTypeNS_12__value_typeIS1_NS_10shared_ptrI9ComponentEEEENS_4lessIS1_EELb1EEclB7v160006ERKS1_RKS6_, symObjAddr: 0x18E0, symBinAddr: 0x4480, symSize: 0x50 }
  - { offsetInCU: 0x7BED, offset: 0x1916F, size: 0x8, addend: 0x0, symName: __ZNKSt3__119__map_value_compareI13ComponentTypeNS_12__value_typeIS1_NS_10shared_ptrI9ComponentEEEENS_4lessIS1_EELb1EEclB7v160006ERKS6_RKS1_, symObjAddr: 0x1930, symBinAddr: 0x44D0, symSize: 0x40 }
  - { offsetInCU: 0x7C2F, offset: 0x191B1, size: 0x8, addend: 0x0, symName: __ZNKSt3__16__treeINS_12__value_typeI13ComponentTypeNS_10shared_ptrI9ComponentEEEENS_19__map_value_compareIS2_S6_NS_4lessIS2_EELb1EEENS_9allocatorIS6_EEE10__end_nodeB7v160006Ev, symObjAddr: 0x1970, symBinAddr: 0x4510, symSize: 0x30 }
  - { offsetInCU: 0x7C53, offset: 0x191D5, size: 0x8, addend: 0x0, symName: __ZNKSt3__117__compressed_pairINS_15__tree_end_nodeIPNS_16__tree_node_baseIPvEEEENS_9allocatorINS_11__tree_nodeINS_12__value_typeI13ComponentTypeNS_10shared_ptrI9ComponentEEEES3_EEEEE5firstB7v160006Ev, symObjAddr: 0x19A0, symBinAddr: 0x4540, symSize: 0x20 }
  - { offsetInCU: 0x7C77, offset: 0x191F9, size: 0x8, addend: 0x0, symName: __ZNSt3__117__compressed_pairImNS_19__map_value_compareI13ComponentTypeNS_12__value_typeIS2_NS_10shared_ptrI9ComponentEEEENS_4lessIS2_EELb1EEEE6secondB7v160006Ev, symObjAddr: 0x19D0, symBinAddr: 0x4560, symSize: 0x20 }
  - { offsetInCU: 0x7C9B, offset: 0x1921D, size: 0x8, addend: 0x0, symName: __ZNSt3__122__compressed_pair_elemINS_19__map_value_compareI13ComponentTypeNS_12__value_typeIS2_NS_10shared_ptrI9ComponentEEEENS_4lessIS2_EELb1EEELi1ELb1EE5__getB7v160006Ev, symObjAddr: 0x19F0, symBinAddr: 0x4580, symSize: 0x10 }
  - { offsetInCU: 0x7CBF, offset: 0x19241, size: 0x8, addend: 0x0, symName: __ZNKSt3__14lessI13ComponentTypeEclB7v160006ERKS1_S4_, symObjAddr: 0x1A00, symBinAddr: 0x4590, symSize: 0x30 }
  - { offsetInCU: 0x7D01, offset: 0x19283, size: 0x8, addend: 0x0, symName: __ZNKSt3__112__value_typeI13ComponentTypeNS_10shared_ptrI9ComponentEEE11__get_valueB7v160006Ev, symObjAddr: 0x1A30, symBinAddr: 0x45C0, symSize: 0x20 }
  - { offsetInCU: 0x7D25, offset: 0x192A7, size: 0x8, addend: 0x0, symName: __ZNSt3__16__treeINS_12__value_typeI13ComponentTypeNS_10shared_ptrI9ComponentEEEENS_19__map_value_compareIS2_S6_NS_4lessIS2_EELb1EEENS_9allocatorIS6_EEE12__node_allocB7v160006Ev, symObjAddr: 0x1A80, symBinAddr: 0x4610, symSize: 0x20 }
  - { offsetInCU: 0x7D49, offset: 0x192CB, size: 0x8, addend: 0x0, symName: __ZNSt3__116allocator_traitsINS_9allocatorINS_11__tree_nodeINS_12__value_typeI13ComponentTypeNS_10shared_ptrI9ComponentEEEEPvEEEEE8allocateB7v160006ERSB_m, symObjAddr: 0x1AA0, symBinAddr: 0x4630, symSize: 0x30 }
  - { offsetInCU: 0x7D7B, offset: 0x192FD, size: 0x8, addend: 0x0, symName: __ZNSt3__122__tree_node_destructorINS_9allocatorINS_11__tree_nodeINS_12__value_typeI13ComponentTypeNS_10shared_ptrI9ComponentEEEEPvEEEEEC1B7v160006ERSB_b, symObjAddr: 0x1AD0, symBinAddr: 0x4660, symSize: 0x40 }
  - { offsetInCU: 0x7DC6, offset: 0x19348, size: 0x8, addend: 0x0, symName: __ZNSt3__110unique_ptrINS_11__tree_nodeINS_12__value_typeI13ComponentTypeNS_10shared_ptrI9ComponentEEEEPvEENS_22__tree_node_destructorINS_9allocatorIS9_EEEEEC1B7v160006ILb1EvEEPS9_NS_16__dependent_typeINS_27__unique_ptr_deleter_sfinaeISD_EEXT_EE20__good_rval_ref_typeE, symObjAddr: 0x1B10, symBinAddr: 0x46A0, symSize: 0x30 }
  - { offsetInCU: 0x7E16, offset: 0x19398, size: 0x8, addend: 0x0, symName: __ZNSt3__116allocator_traitsINS_9allocatorINS_11__tree_nodeINS_12__value_typeI13ComponentTypeNS_10shared_ptrI9ComponentEEEEPvEEEEE9constructB7v160006INS_4pairIKS4_S7_EEJRKNS_21piecewise_construct_tENS_5tupleIJRSF_EEENSK_IJEEEEvvEEvRSB_PT_DpOT0_, symObjAddr: 0x1B40, symBinAddr: 0x46D0, symSize: 0x40 }
  - { offsetInCU: 0x7E93, offset: 0x19415, size: 0x8, addend: 0x0, symName: __ZNSt3__122__tree_key_value_typesINS_12__value_typeI13ComponentTypeNS_10shared_ptrI9ComponentEEEEE9__get_ptrB7v160006ERS6_, symObjAddr: 0x1B80, symBinAddr: 0x4710, symSize: 0x20 }
  - { offsetInCU: 0x7EB6, offset: 0x19438, size: 0x8, addend: 0x0, symName: __ZNKSt3__110unique_ptrINS_11__tree_nodeINS_12__value_typeI13ComponentTypeNS_10shared_ptrI9ComponentEEEEPvEENS_22__tree_node_destructorINS_9allocatorIS9_EEEEEptB7v160006Ev, symObjAddr: 0x1BA0, symBinAddr: 0x4730, symSize: 0x20 }
  - { offsetInCU: 0x7EDA, offset: 0x1945C, size: 0x8, addend: 0x0, symName: __ZNSt3__110unique_ptrINS_11__tree_nodeINS_12__value_typeI13ComponentTypeNS_10shared_ptrI9ComponentEEEEPvEENS_22__tree_node_destructorINS_9allocatorIS9_EEEEE11get_deleterB7v160006Ev, symObjAddr: 0x1BC0, symBinAddr: 0x4750, symSize: 0x20 }
  - { offsetInCU: 0x7EFE, offset: 0x19480, size: 0x8, addend: 0x0, symName: __ZNSt3__117__compressed_pairINS_15__tree_end_nodeIPNS_16__tree_node_baseIPvEEEENS_9allocatorINS_11__tree_nodeINS_12__value_typeI13ComponentTypeNS_10shared_ptrI9ComponentEEEES3_EEEEE6secondB7v160006Ev, symObjAddr: 0x1BE0, symBinAddr: 0x4770, symSize: 0x20 }
  - { offsetInCU: 0x7F22, offset: 0x194A4, size: 0x8, addend: 0x0, symName: __ZNSt3__122__compressed_pair_elemINS_9allocatorINS_11__tree_nodeINS_12__value_typeI13ComponentTypeNS_10shared_ptrI9ComponentEEEEPvEEEELi1ELb1EE5__getB7v160006Ev, symObjAddr: 0x1C00, symBinAddr: 0x4790, symSize: 0x10 }
  - { offsetInCU: 0x7F46, offset: 0x194C8, size: 0x8, addend: 0x0, symName: __ZNSt3__19allocatorINS_11__tree_nodeINS_12__value_typeI13ComponentTypeNS_10shared_ptrI9ComponentEEEEPvEEE8allocateB7v160006Em, symObjAddr: 0x1C10, symBinAddr: 0x47A0, symSize: 0x50 }
  - { offsetInCU: 0x7F82, offset: 0x19504, size: 0x8, addend: 0x0, symName: __ZNSt3__116allocator_traitsINS_9allocatorINS_11__tree_nodeINS_12__value_typeI13ComponentTypeNS_10shared_ptrI9ComponentEEEEPvEEEEE8max_sizeB7v160006ISB_vvEEmRKSB_, symObjAddr: 0x1C60, symBinAddr: 0x47F0, symSize: 0x30 }
  - { offsetInCU: 0x7FAE, offset: 0x19530, size: 0x8, addend: 0x0, symName: __ZNSt3__114numeric_limitsImE3maxB7v160006Ev, symObjAddr: 0x1D30, symBinAddr: 0x48C0, symSize: 0x10 }
  - { offsetInCU: 0x7FC2, offset: 0x19544, size: 0x8, addend: 0x0, symName: __ZNSt3__123__libcpp_numeric_limitsImLb1EE3maxB7v160006Ev, symObjAddr: 0x1D40, symBinAddr: 0x48D0, symSize: 0x10 }
  - { offsetInCU: 0x7FD6, offset: 0x19558, size: 0x8, addend: 0x0, symName: __ZNSt3__122__tree_node_destructorINS_9allocatorINS_11__tree_nodeINS_12__value_typeI13ComponentTypeNS_10shared_ptrI9ComponentEEEEPvEEEEEC2B7v160006ERSB_b, symObjAddr: 0x1DC0, symBinAddr: 0x4950, symSize: 0x30 }
  - { offsetInCU: 0x801C, offset: 0x1959E, size: 0x8, addend: 0x0, symName: __ZNSt3__110unique_ptrINS_11__tree_nodeINS_12__value_typeI13ComponentTypeNS_10shared_ptrI9ComponentEEEEPvEENS_22__tree_node_destructorINS_9allocatorIS9_EEEEEC2B7v160006ILb1EvEEPS9_NS_16__dependent_typeINS_27__unique_ptr_deleter_sfinaeISD_EEXT_EE20__good_rval_ref_typeE, symObjAddr: 0x1DF0, symBinAddr: 0x4980, symSize: 0x40 }
  - { offsetInCU: 0x806C, offset: 0x195EE, size: 0x8, addend: 0x0, symName: __ZNSt3__117__compressed_pairIPNS_11__tree_nodeINS_12__value_typeI13ComponentTypeNS_10shared_ptrI9ComponentEEEEPvEENS_22__tree_node_destructorINS_9allocatorIS9_EEEEEC1B7v160006IRSA_SE_EEOT_OT0_, symObjAddr: 0x1E30, symBinAddr: 0x49C0, symSize: 0x30 }
  - { offsetInCU: 0x80C2, offset: 0x19644, size: 0x8, addend: 0x0, symName: __ZNSt3__117__compressed_pairIPNS_11__tree_nodeINS_12__value_typeI13ComponentTypeNS_10shared_ptrI9ComponentEEEEPvEENS_22__tree_node_destructorINS_9allocatorIS9_EEEEEC2B7v160006IRSA_SE_EEOT_OT0_, symObjAddr: 0x1E60, symBinAddr: 0x49F0, symSize: 0x40 }
  - { offsetInCU: 0x8118, offset: 0x1969A, size: 0x8, addend: 0x0, symName: __ZNSt3__122__compressed_pair_elemIPNS_11__tree_nodeINS_12__value_typeI13ComponentTypeNS_10shared_ptrI9ComponentEEEEPvEELi0ELb0EEC2B7v160006IRSA_vEEOT_, symObjAddr: 0x1EA0, symBinAddr: 0x4A30, symSize: 0x20 }
  - { offsetInCU: 0x8159, offset: 0x196DB, size: 0x8, addend: 0x0, symName: __ZNSt3__122__compressed_pair_elemINS_22__tree_node_destructorINS_9allocatorINS_11__tree_nodeINS_12__value_typeI13ComponentTypeNS_10shared_ptrI9ComponentEEEEPvEEEEEELi1ELb0EEC2B7v160006ISD_vEEOT_, symObjAddr: 0x1EC0, symBinAddr: 0x4A50, symSize: 0x30 }
  - { offsetInCU: 0x819A, offset: 0x1971C, size: 0x8, addend: 0x0, symName: __ZNSt3__14pairIK13ComponentTypeNS_10shared_ptrI9ComponentEEEC1B7v160006IJRS2_EJEEENS_21piecewise_construct_tENS_5tupleIJDpT_EEENSA_IJDpT0_EEE, symObjAddr: 0x1F40, symBinAddr: 0x4AD0, symSize: 0x40 }
  - { offsetInCU: 0x8200, offset: 0x19782, size: 0x8, addend: 0x0, symName: __ZNSt3__14pairIK13ComponentTypeNS_10shared_ptrI9ComponentEEEC1B7v160006IJRS2_EJEJLm0EEJEEENS_21piecewise_construct_tERNS_5tupleIJDpT_EEERNSA_IJDpT0_EEENS_15__tuple_indicesIJXspT1_EEEENSJ_IJXspT2_EEEE, symObjAddr: 0x1F80, symBinAddr: 0x4B10, symSize: 0x30 }
  - { offsetInCU: 0x828F, offset: 0x19811, size: 0x8, addend: 0x0, symName: __ZNSt3__14pairIK13ComponentTypeNS_10shared_ptrI9ComponentEEEC2B7v160006IJRS2_EJEJLm0EEJEEENS_21piecewise_construct_tERNS_5tupleIJDpT_EEERNSA_IJDpT0_EEENS_15__tuple_indicesIJXspT1_EEEENSJ_IJXspT2_EEEE, symObjAddr: 0x1FB0, symBinAddr: 0x4B40, symSize: 0x40 }
  - { offsetInCU: 0x831E, offset: 0x198A0, size: 0x8, addend: 0x0, symName: __ZNSt3__110shared_ptrI9ComponentEC1B7v160006Ev, symObjAddr: 0x2010, symBinAddr: 0x4BA0, symSize: 0x20 }
  - { offsetInCU: 0x8346, offset: 0x198C8, size: 0x8, addend: 0x0, symName: __ZNSt3__112__tuple_leafILm0ERK13ComponentTypeLb0EE3getB7v160006Ev, symObjAddr: 0x2030, symBinAddr: 0x4BC0, symSize: 0x20 }
  - { offsetInCU: 0x836A, offset: 0x198EC, size: 0x8, addend: 0x0, symName: __ZNSt3__110shared_ptrI9ComponentEC2B7v160006Ev, symObjAddr: 0x2050, symBinAddr: 0x4BE0, symSize: 0x20 }
  - { offsetInCU: 0x8392, offset: 0x19914, size: 0x8, addend: 0x0, symName: __ZNKSt3__117__compressed_pairIPNS_11__tree_nodeINS_12__value_typeI13ComponentTypeNS_10shared_ptrI9ComponentEEEEPvEENS_22__tree_node_destructorINS_9allocatorIS9_EEEEE5firstB7v160006Ev, symObjAddr: 0x2070, symBinAddr: 0x4C00, symSize: 0x20 }
  - { offsetInCU: 0x83B6, offset: 0x19938, size: 0x8, addend: 0x0, symName: __ZNKSt3__122__compressed_pair_elemIPNS_11__tree_nodeINS_12__value_typeI13ComponentTypeNS_10shared_ptrI9ComponentEEEEPvEELi0ELb0EE5__getB7v160006Ev, symObjAddr: 0x2090, symBinAddr: 0x4C20, symSize: 0x10 }
  - { offsetInCU: 0x83DA, offset: 0x1995C, size: 0x8, addend: 0x0, symName: __ZNSt3__117__compressed_pairIPNS_11__tree_nodeINS_12__value_typeI13ComponentTypeNS_10shared_ptrI9ComponentEEEEPvEENS_22__tree_node_destructorINS_9allocatorIS9_EEEEE6secondB7v160006Ev, symObjAddr: 0x20A0, symBinAddr: 0x4C30, symSize: 0x20 }
  - { offsetInCU: 0x83FE, offset: 0x19980, size: 0x8, addend: 0x0, symName: __ZNSt3__122__compressed_pair_elemINS_22__tree_node_destructorINS_9allocatorINS_11__tree_nodeINS_12__value_typeI13ComponentTypeNS_10shared_ptrI9ComponentEEEEPvEEEEEELi1ELb0EE5__getB7v160006Ev, symObjAddr: 0x20C0, symBinAddr: 0x4C50, symSize: 0x10 }
  - { offsetInCU: 0x8422, offset: 0x199A4, size: 0x8, addend: 0x0, symName: __ZNSt3__16__treeINS_12__value_typeI13ComponentTypeNS_10shared_ptrI9ComponentEEEENS_19__map_value_compareIS2_S6_NS_4lessIS2_EELb1EEENS_9allocatorIS6_EEE4sizeB7v160006Ev, symObjAddr: 0x2310, symBinAddr: 0x4EA0, symSize: 0x20 }
  - { offsetInCU: 0x8446, offset: 0x199C8, size: 0x8, addend: 0x0, symName: __ZNSt3__116__tree_node_baseIPvE12__set_parentB7v160006EPS2_, symObjAddr: 0x24C0, symBinAddr: 0x5050, symSize: 0x20 }
  - { offsetInCU: 0x8479, offset: 0x199FB, size: 0x8, addend: 0x0, symName: __ZNSt3__117__compressed_pairImNS_19__map_value_compareI13ComponentTypeNS_12__value_typeIS2_NS_10shared_ptrI9ComponentEEEENS_4lessIS2_EELb1EEEE5firstB7v160006Ev, symObjAddr: 0x24E0, symBinAddr: 0x5070, symSize: 0x20 }
  - { offsetInCU: 0x849D, offset: 0x19A1F, size: 0x8, addend: 0x0, symName: __ZNSt3__122__compressed_pair_elemImLi0ELb0EE5__getB7v160006Ev, symObjAddr: 0x2500, symBinAddr: 0x5090, symSize: 0x10 }
  - { offsetInCU: 0x84C1, offset: 0x19A43, size: 0x8, addend: 0x0, symName: __ZNSt3__117__compressed_pairIPNS_11__tree_nodeINS_12__value_typeI13ComponentTypeNS_10shared_ptrI9ComponentEEEEPvEENS_22__tree_node_destructorINS_9allocatorIS9_EEEEE5firstB7v160006Ev, symObjAddr: 0x2510, symBinAddr: 0x50A0, symSize: 0x20 }
  - { offsetInCU: 0x84E5, offset: 0x19A67, size: 0x8, addend: 0x0, symName: __ZNSt3__122__compressed_pair_elemIPNS_11__tree_nodeINS_12__value_typeI13ComponentTypeNS_10shared_ptrI9ComponentEEEEPvEELi0ELb0EE5__getB7v160006Ev, symObjAddr: 0x2530, symBinAddr: 0x50C0, symSize: 0x10 }
  - { offsetInCU: 0x8509, offset: 0x19A8B, size: 0x8, addend: 0x0, symName: __ZNSt3__110unique_ptrINS_11__tree_nodeINS_12__value_typeI13ComponentTypeNS_10shared_ptrI9ComponentEEEEPvEENS_22__tree_node_destructorINS_9allocatorIS9_EEEEED2B7v160006Ev, symObjAddr: 0x2540, symBinAddr: 0x50D0, symSize: 0x20 }
  - { offsetInCU: 0x8531, offset: 0x19AB3, size: 0x8, addend: 0x0, symName: __ZNSt3__110unique_ptrINS_11__tree_nodeINS_12__value_typeI13ComponentTypeNS_10shared_ptrI9ComponentEEEEPvEENS_22__tree_node_destructorINS_9allocatorIS9_EEEEE5resetB7v160006EPS9_, symObjAddr: 0x2560, symBinAddr: 0x50F0, symSize: 0x70 }
  - { offsetInCU: 0x8573, offset: 0x19AF5, size: 0x8, addend: 0x0, symName: __ZNSt3__122__tree_node_destructorINS_9allocatorINS_11__tree_nodeINS_12__value_typeI13ComponentTypeNS_10shared_ptrI9ComponentEEEEPvEEEEEclB7v160006EPSA_, symObjAddr: 0x25D0, symBinAddr: 0x5160, symSize: 0x80 }
  - { offsetInCU: 0x85A6, offset: 0x19B28, size: 0x8, addend: 0x0, symName: __ZNSt3__116allocator_traitsINS_9allocatorINS_11__tree_nodeINS_12__value_typeI13ComponentTypeNS_10shared_ptrI9ComponentEEEEPvEEEEE7destroyB7v160006INS_4pairIKS4_S7_EEvvEEvRSB_PT_, symObjAddr: 0x2650, symBinAddr: 0x51E0, symSize: 0x20 }
  - { offsetInCU: 0x85E1, offset: 0x19B63, size: 0x8, addend: 0x0, symName: __ZNSt3__116allocator_traitsINS_9allocatorINS_11__tree_nodeINS_12__value_typeI13ComponentTypeNS_10shared_ptrI9ComponentEEEEPvEEEEE10deallocateB7v160006ERSB_PSA_m, symObjAddr: 0x2670, symBinAddr: 0x5200, symSize: 0x30 }
  - { offsetInCU: 0x8621, offset: 0x19BA3, size: 0x8, addend: 0x0, symName: __ZNSt3__14pairIK13ComponentTypeNS_10shared_ptrI9ComponentEEED1Ev, symObjAddr: 0x26E0, symBinAddr: 0x5270, symSize: 0x20 }
  - { offsetInCU: 0x864B, offset: 0x19BCD, size: 0x8, addend: 0x0, symName: __ZNSt3__14pairIK13ComponentTypeNS_10shared_ptrI9ComponentEEED2Ev, symObjAddr: 0x2700, symBinAddr: 0x5290, symSize: 0x20 }
  - { offsetInCU: 0x8676, offset: 0x19BF8, size: 0x8, addend: 0x0, symName: __ZNSt3__110shared_ptrI9ComponentED1B7v160006Ev, symObjAddr: 0x2720, symBinAddr: 0x52B0, symSize: 0x20 }
  - { offsetInCU: 0x869E, offset: 0x19C20, size: 0x8, addend: 0x0, symName: __ZNSt3__110shared_ptrI9ComponentED2B7v160006Ev, symObjAddr: 0x2740, symBinAddr: 0x52D0, symSize: 0x40 }
  - { offsetInCU: 0x86C6, offset: 0x19C48, size: 0x8, addend: 0x0, symName: __ZNSt3__19allocatorINS_11__tree_nodeINS_12__value_typeI13ComponentTypeNS_10shared_ptrI9ComponentEEEEPvEEE10deallocateB7v160006EPS9_m, symObjAddr: 0x2780, symBinAddr: 0x5310, symSize: 0x40 }
  - { offsetInCU: 0x8706, offset: 0x19C88, size: 0x8, addend: 0x0, symName: __ZNSt3__115__tree_iteratorINS_12__value_typeI13ComponentTypeNS_10shared_ptrI9ComponentEEEEPNS_11__tree_nodeIS6_PvEElEC2B7v160006ESA_, symObjAddr: 0x28C0, symBinAddr: 0x5450, symSize: 0x20 }
  - { offsetInCU: 0x873D, offset: 0x19CBF, size: 0x8, addend: 0x0, symName: __ZNSt3__14pairINS_15__tree_iteratorINS_12__value_typeI13ComponentTypeNS_10shared_ptrI9ComponentEEEEPNS_11__tree_nodeIS7_PvEElEEbEC2B7v160006ISC_RbLS9_0EEEOT_OT0_, symObjAddr: 0x28E0, symBinAddr: 0x5470, symSize: 0x30 }
  - { offsetInCU: 0x879A, offset: 0x19D1C, size: 0x8, addend: 0x0, symName: __ZNSt3__15tupleIJRK13ComponentTypeEEC1B7v160006INS_4_AndELi0EEES3_, symObjAddr: 0x2910, symBinAddr: 0x54A0, symSize: 0x30 }
  - { offsetInCU: 0x87E2, offset: 0x19D64, size: 0x8, addend: 0x0, symName: __ZNSt3__15tupleIJRK13ComponentTypeEEC2B7v160006INS_4_AndELi0EEES3_, symObjAddr: 0x2940, symBinAddr: 0x54D0, symSize: 0x30 }
  - { offsetInCU: 0x882A, offset: 0x19DAC, size: 0x8, addend: 0x0, symName: __ZNSt3__112__tuple_implINS_15__tuple_indicesIJLm0EEEEJRK13ComponentTypeEEC1B7v160006IJLm0EEJS5_EJEJEJS5_EEENS1_IJXspT_EEEENS_13__tuple_typesIJDpT0_EEENS1_IJXspT1_EEEENS9_IJDpT2_EEEDpOT3_, symObjAddr: 0x2970, symBinAddr: 0x5500, symSize: 0x30 }
  - { offsetInCU: 0x88BC, offset: 0x19E3E, size: 0x8, addend: 0x0, symName: __ZNSt3__112__tuple_implINS_15__tuple_indicesIJLm0EEEEJRK13ComponentTypeEEC2B7v160006IJLm0EEJS5_EJEJEJS5_EEENS1_IJXspT_EEEENS_13__tuple_typesIJDpT0_EEENS1_IJXspT1_EEEENS9_IJDpT2_EEEDpOT3_, symObjAddr: 0x29A0, symBinAddr: 0x5530, symSize: 0x30 }
  - { offsetInCU: 0x894E, offset: 0x19ED0, size: 0x8, addend: 0x0, symName: __ZNSt3__112__tuple_leafILm0ERK13ComponentTypeLb0EEC2B7v160006IS3_vEEOT_, symObjAddr: 0x29D0, symBinAddr: 0x5560, symSize: 0x20 }
  - { offsetInCU: 0x8990, offset: 0x19F12, size: 0x8, addend: 0x0, symName: __ZNKSt3__110shared_ptrI10GameEntityE3getB7v160006Ev, symObjAddr: 0x29F0, symBinAddr: 0x5580, symSize: 0x20 }
  - { offsetInCU: 0x89B4, offset: 0x19F36, size: 0x8, addend: 0x0, symName: __ZNSt3__110shared_ptrI10ProjectileEC1B7v160006I10GameEntityEERKNS0_IT_EEPS1_, symObjAddr: 0x2A10, symBinAddr: 0x55A0, symSize: 0x30 }
  - { offsetInCU: 0x8A03, offset: 0x19F85, size: 0x8, addend: 0x0, symName: __ZNSt3__110shared_ptrI10ProjectileEC1B7v160006Ev, symObjAddr: 0x2A40, symBinAddr: 0x55D0, symSize: 0x20 }
  - { offsetInCU: 0x8A2B, offset: 0x19FAD, size: 0x8, addend: 0x0, symName: __ZNSt3__110shared_ptrI10ProjectileEC2B7v160006I10GameEntityEERKNS0_IT_EEPS1_, symObjAddr: 0x2A60, symBinAddr: 0x55F0, symSize: 0x50 }
  - { offsetInCU: 0x8A7A, offset: 0x19FFC, size: 0x8, addend: 0x0, symName: __ZNSt3__110shared_ptrI10ProjectileEC2B7v160006Ev, symObjAddr: 0x2B20, symBinAddr: 0x5640, symSize: 0x20 }
  - { offsetInCU: 0x8AA2, offset: 0x1A024, size: 0x8, addend: 0x0, symName: __ZNSt3__110shared_ptrI10ProjectileED2B7v160006Ev, symObjAddr: 0x2B40, symBinAddr: 0x5660, symSize: 0x40 }
  - { offsetInCU: 0x5C, offset: 0x1A156, size: 0x8, addend: 0x0, symName: __ZNSt3__1L19piecewise_constructE, symObjAddr: 0x76D2, symBinAddr: 0x62F28, symSize: 0x0 }
  - { offsetInCU: 0x5BEA, offset: 0x1FCE4, size: 0x8, addend: 0x0, symName: __ZNSt3__17advanceB7v160006IPNS_10shared_ptrI10GameEntityEEllvEEvRT_T0_, symObjAddr: 0x3370, symBinAddr: 0x82D0, symSize: 0x50 }
  - { offsetInCU: 0x5E6B, offset: 0x1FF65, size: 0x8, addend: 0x0, symName: __ZNSt3__17advanceB7v160006INS_16reverse_iteratorIPNS_10shared_ptrI10GameEntityEEEEllvEEvRT_T0_, symObjAddr: 0x3770, symBinAddr: 0x86D0, symSize: 0x50 }
  - { offsetInCU: 0x6555, offset: 0x2064F, size: 0x8, addend: 0x0, symName: __ZNSt3__120dynamic_pointer_castB7v160006I16TextureComponent9ComponentEENS_10shared_ptrIT_EERKNS3_IT0_EE, symObjAddr: 0x1480, symBinAddr: 0x67E0, symSize: 0xA0 }
  - { offsetInCU: 0x69AE, offset: 0x20AA8, size: 0x8, addend: 0x0, symName: __ZNSt3__120dynamic_pointer_castB7v160006I18TransformComponent9ComponentEENS_10shared_ptrIT_EERKNS3_IT0_EE, symObjAddr: 0x1580, symBinAddr: 0x68E0, symSize: 0xA0 }
  - { offsetInCU: 0x6A09, offset: 0x20B03, size: 0x8, addend: 0x0, symName: __ZNSt3__120dynamic_pointer_castB7v160006I20Collision2DComponent9ComponentEENS_10shared_ptrIT_EERKNS3_IT0_EE, symObjAddr: 0x1650, symBinAddr: 0x69B0, symSize: 0xA0 }
  - { offsetInCU: 0x6C74, offset: 0x20D6E, size: 0x8, addend: 0x0, symName: __ZNSt3__120dynamic_pointer_castB7v160006I14InputComponent9ComponentEENS_10shared_ptrIT_EERKNS3_IT0_EE, symObjAddr: 0x17D0, symBinAddr: 0x6B30, symSize: 0xA0 }
  - { offsetInCU: 0x7BD9, offset: 0x21CD3, size: 0x8, addend: 0x0, symName: __ZNSt3__111make_sharedB7v160006I18TransformComponentJEvEENS_10shared_ptrIT_EEDpOT0_, symObjAddr: 0x8A0, symBinAddr: 0x5C90, symSize: 0x40 }
  - { offsetInCU: 0x7C09, offset: 0x21D03, size: 0x8, addend: 0x0, symName: __ZNSt3__119__debug_db_insert_cB7v160006INS_6vectorINS_10shared_ptrI10GameEntityEENS_9allocatorIS4_EEEEEEvPT_, symObjAddr: 0x1980, symBinAddr: 0x6CD0, symSize: 0x10 }
  - { offsetInCU: 0x7C3A, offset: 0x21D34, size: 0x8, addend: 0x0, symName: __ZNSt3__118__debug_db_erase_cB7v160006INS_6vectorINS_10shared_ptrI10GameEntityEENS_9allocatorIS4_EEEEEEvPT_, symObjAddr: 0x1C10, symBinAddr: 0x6F60, symSize: 0x10 }
  - { offsetInCU: 0x7C6B, offset: 0x21D65, size: 0x8, addend: 0x0, symName: __ZNSt3__112__to_addressB7v160006INS_10shared_ptrI10GameEntityEEEEPT_S5_, symObjAddr: 0x1D20, symBinAddr: 0x7070, symSize: 0x10 }
  - { offsetInCU: 0x7CA0, offset: 0x21D9A, size: 0x8, addend: 0x0, symName: __ZNSt3__110destroy_atB7v160006INS_10shared_ptrI10GameEntityEELi0EEEvPT_, symObjAddr: 0x1DD0, symBinAddr: 0x7120, symSize: 0x20 }
  - { offsetInCU: 0x7CD8, offset: 0x21DD2, size: 0x8, addend: 0x0, symName: __ZNSt3__112__destroy_atB7v160006INS_10shared_ptrI10GameEntityEELi0EEEvPT_, symObjAddr: 0x1DF0, symBinAddr: 0x7140, symSize: 0x20 }
  - { offsetInCU: 0x7D37, offset: 0x21E31, size: 0x8, addend: 0x0, symName: __ZNSt3__112construct_atB7v160006INS_10shared_ptrI10GameEntityEEJRKS3_EPS3_EEPT_S8_DpOT0_, symObjAddr: 0x2370, symBinAddr: 0x7490, symSize: 0x40 }
  - { offsetInCU: 0x7DA9, offset: 0x21EA3, size: 0x8, addend: 0x0, symName: __ZNSt3__13maxB7v160006ImEERKT_S3_S3_, symObjAddr: 0x2680, symBinAddr: 0x77A0, symSize: 0x30 }
  - { offsetInCU: 0x7FDF, offset: 0x220D9, size: 0x8, addend: 0x0, symName: __ZNSt3__120__throw_length_errorB7v160006EPKc, symObjAddr: 0x2810, symBinAddr: 0x7860, symSize: 0x70 }
  - { offsetInCU: 0x8008, offset: 0x22102, size: 0x8, addend: 0x0, symName: __ZNSt3__13maxB7v160006ImNS_6__lessImmEEEERKT_S5_S5_T0_, symObjAddr: 0x28F0, symBinAddr: 0x7940, symSize: 0x50 }
  - { offsetInCU: 0x8062, offset: 0x2215C, size: 0x8, addend: 0x0, symName: __ZNSt3__119__allocate_at_leastB7v160006INS_9allocatorINS_10shared_ptrI10GameEntityEEEEEENS_19__allocation_resultINS_16allocator_traitsIT_E7pointerEEERS8_m, symObjAddr: 0x2A40, symBinAddr: 0x7A90, symSize: 0x40 }
  - { offsetInCU: 0x80A5, offset: 0x2219F, size: 0x8, addend: 0x0, symName: __ZNSt3__142__uninitialized_allocator_move_if_noexceptB7v160006INS_9allocatorINS_10shared_ptrI10GameEntityEEEENS_16reverse_iteratorIPS4_EES8_S8_EET2_RT_T0_T1_S9_, symObjAddr: 0x2CC0, symBinAddr: 0x7C20, symSize: 0x180 }
  - { offsetInCU: 0x8144, offset: 0x2223E, size: 0x8, addend: 0x0, symName: __ZNSt3__14swapB7v160006IPNS_10shared_ptrI10GameEntityEEEENS_9enable_ifIXaasr21is_move_constructibleIT_EE5valuesr18is_move_assignableIS6_EE5valueEvE4typeERS6_S9_, symObjAddr: 0x2E90, symBinAddr: 0x7DF0, symSize: 0x40 }
  - { offsetInCU: 0x8195, offset: 0x2228F, size: 0x8, addend: 0x0, symName: __ZNSt3__125__debug_db_invalidate_allB7v160006INS_6vectorINS_10shared_ptrI10GameEntityEENS_9allocatorIS4_EEEEEEvPT_, symObjAddr: 0x2F80, symBinAddr: 0x7EE0, symSize: 0x10 }
  - { offsetInCU: 0x81C6, offset: 0x222C0, size: 0x8, addend: 0x0, symName: __ZNSt3__122__make_exception_guardB7v160006INS_29_AllocatorDestroyRangeReverseINS_9allocatorINS_10shared_ptrI10GameEntityEEEENS_16reverse_iteratorIPS5_EEEEEENS_28__exception_guard_exceptionsIT_EESC_, symObjAddr: 0x2F90, symBinAddr: 0x7EF0, symSize: 0x60 }
  - { offsetInCU: 0x81FB, offset: 0x222F5, size: 0x8, addend: 0x0, symName: __ZNSt3__1neB7v160006IPNS_10shared_ptrI10GameEntityEES4_EEbRKNS_16reverse_iteratorIT_EERKNS5_IT0_EE, symObjAddr: 0x3030, symBinAddr: 0x7F90, symSize: 0x40 }
  - { offsetInCU: 0x8247, offset: 0x22341, size: 0x8, addend: 0x0, symName: __ZNSt3__112__to_addressB7v160006INS_16reverse_iteratorIPNS_10shared_ptrI10GameEntityEEEEvEENS_5decayIDTclsr19__to_address_helperIT_EE6__callclsr3stdE7declvalIRKS8_EEEEE4typeESA_, symObjAddr: 0x30A0, symBinAddr: 0x8000, symSize: 0x20 }
  - { offsetInCU: 0x827E, offset: 0x22378, size: 0x8, addend: 0x0, symName: __ZNSt3__112construct_atB7v160006INS_10shared_ptrI10GameEntityEEJS3_EPS3_EEPT_S6_DpOT0_, symObjAddr: 0x3200, symBinAddr: 0x8160, symSize: 0x40 }
  - { offsetInCU: 0x831A, offset: 0x22414, size: 0x8, addend: 0x0, symName: __ZNSt3__14prevB7v160006IPNS_10shared_ptrI10GameEntityEEEENS_9enable_ifIXsr25__is_cpp17_input_iteratorIT_EE5valueES6_E4typeES6_NS_15iterator_traitsIS6_E15difference_typeE, symObjAddr: 0x3320, symBinAddr: 0x8280, symSize: 0x50 }
  - { offsetInCU: 0x835D, offset: 0x22457, size: 0x8, addend: 0x0, symName: __ZNSt3__121__convert_to_integralB7v160006El, symObjAddr: 0x33C0, symBinAddr: 0x8320, symSize: 0x10 }
  - { offsetInCU: 0x8389, offset: 0x22483, size: 0x8, addend: 0x0, symName: __ZNSt3__19__advanceB7v160006IPNS_10shared_ptrI10GameEntityEEEEvRT_NS_15iterator_traitsIS5_E15difference_typeENS_26random_access_iterator_tagE, symObjAddr: 0x33D0, symBinAddr: 0x8330, symSize: 0x20 }
  - { offsetInCU: 0x83D2, offset: 0x224CC, size: 0x8, addend: 0x0, symName: __ZNSt3__119__allocator_destroyB7v160006INS_9allocatorINS_10shared_ptrI10GameEntityEEEENS_16reverse_iteratorINS6_IPS4_EEEES9_EEvRT_T0_T1_, symObjAddr: 0x3520, symBinAddr: 0x8480, symSize: 0x70 }
  - { offsetInCU: 0x8436, offset: 0x22530, size: 0x8, addend: 0x0, symName: __ZNSt3__1neB7v160006INS_16reverse_iteratorIPNS_10shared_ptrI10GameEntityEEEES6_EEbRKNS1_IT_EERKNS1_IT0_EE, symObjAddr: 0x35C0, symBinAddr: 0x8520, symSize: 0x50 }
  - { offsetInCU: 0x8482, offset: 0x2257C, size: 0x8, addend: 0x0, symName: __ZNSt3__112__to_addressB7v160006INS_16reverse_iteratorINS1_IPNS_10shared_ptrI10GameEntityEEEEEEvEENS_5decayIDTclsr19__to_address_helperIT_EE6__callclsr3stdE7declvalIRKS9_EEEEE4typeESB_, symObjAddr: 0x3610, symBinAddr: 0x8570, symSize: 0x20 }
  - { offsetInCU: 0x84E3, offset: 0x225DD, size: 0x8, addend: 0x0, symName: __ZNSt3__14prevB7v160006INS_16reverse_iteratorIPNS_10shared_ptrI10GameEntityEEEEEENS_9enable_ifIXsr25__is_cpp17_input_iteratorIT_EE5valueES8_E4typeES8_NS_15iterator_traitsIS8_E15difference_typeE, symObjAddr: 0x3710, symBinAddr: 0x8670, symSize: 0x60 }
  - { offsetInCU: 0x8526, offset: 0x22620, size: 0x8, addend: 0x0, symName: __ZNSt3__19__advanceB7v160006INS_16reverse_iteratorIPNS_10shared_ptrI10GameEntityEEEEEEvRT_NS_15iterator_traitsIS7_E15difference_typeENS_26random_access_iterator_tagE, symObjAddr: 0x37C0, symBinAddr: 0x8720, symSize: 0x30 }
  - { offsetInCU: 0x856F, offset: 0x22669, size: 0x8, addend: 0x0, symName: __ZNSt3__14swapB7v160006IP10GameEntityEENS_9enable_ifIXaasr21is_move_constructibleIT_EE5valuesr18is_move_assignableIS4_EE5valueEvE4typeERS4_S7_, symObjAddr: 0x3BF0, symBinAddr: 0x8A70, symSize: 0x40 }
  - { offsetInCU: 0x85C0, offset: 0x226BA, size: 0x8, addend: 0x0, symName: __ZNSt3__14swapB7v160006IPNS_19__shared_weak_countEEENS_9enable_ifIXaasr21is_move_constructibleIT_EE5valuesr18is_move_assignableIS4_EE5valueEvE4typeERS4_S7_, symObjAddr: 0x3C30, symBinAddr: 0x8AB0, symSize: 0x40 }
  - { offsetInCU: 0x8611, offset: 0x2270B, size: 0x8, addend: 0x0, symName: __ZNSt3__120__throw_bad_weak_ptrB7v160006Ev, symObjAddr: 0x3D50, symBinAddr: 0x8BD0, symSize: 0x40 }
  - { offsetInCU: 0x86BC, offset: 0x227B6, size: 0x8, addend: 0x0, symName: __ZNSt3__115allocate_sharedB7v160006I18TransformComponentNS_9allocatorIS1_EEJEvEENS_10shared_ptrIT_EERKT0_DpOT1_, symObjAddr: 0x5D60, symBinAddr: 0x9180, symSize: 0xA0 }
  - { offsetInCU: 0x89E8, offset: 0x22AE2, size: 0x8, addend: 0x0, symName: __ZNSt3__112construct_atB7v160006I18TransformComponentJEPS1_EEPT_S4_DpOT0_, symObjAddr: 0x63F0, symBinAddr: 0x9810, symSize: 0x30 }
  - { offsetInCU: 0x8A47, offset: 0x22B41, size: 0x8, addend: 0x0, symName: __ZNSt3__110destroy_atB7v160006I18TransformComponentLi0EEEvPT_, symObjAddr: 0x64A0, symBinAddr: 0x98C0, symSize: 0x20 }
  - { offsetInCU: 0x8A7F, offset: 0x22B79, size: 0x8, addend: 0x0, symName: __ZNSt3__112__destroy_atB7v160006I18TransformComponentLi0EEEvPT_, symObjAddr: 0x64C0, symBinAddr: 0x98E0, symSize: 0x20 }
  - { offsetInCU: 0x8AEA, offset: 0x22BE4, size: 0x8, addend: 0x0, symName: __ZNSt3__116forward_as_tupleB7v160006IJ13ComponentTypeEEENS_5tupleIJDpOT_EEES5_, symObjAddr: 0x6840, symBinAddr: 0x9C20, symSize: 0x30 }
  - { offsetInCU: 0x8B23, offset: 0x22C1D, size: 0x8, addend: 0x0, symName: __ZNSt3__112construct_atB7v160006INS_4pairIK13ComponentTypeNS_10shared_ptrI9ComponentEEEEJRKNS_21piecewise_construct_tENS_5tupleIJOS2_EEENSB_IJEEEEPS7_EEPT_SH_DpOT0_, symObjAddr: 0x69D0, symBinAddr: 0x9DB0, symSize: 0x50 }
  - { offsetInCU: 0x8BBB, offset: 0x22CB5, size: 0x8, addend: 0x0, symName: __ZNSt3__13getB7v160006ILm0EJO13ComponentTypeEEERNS_13tuple_elementIXT_ENS_5tupleIJDpT0_EEEE4typeERS7_, symObjAddr: 0x6AD0, symBinAddr: 0x9EB0, symSize: 0x20 }
  - { offsetInCU: 0x8C13, offset: 0x22D0D, size: 0x8, addend: 0x0, symName: __ZNSt3__14swapB7v160006IP9ComponentEENS_9enable_ifIXaasr21is_move_constructibleIT_EE5valuesr18is_move_assignableIS4_EE5valueEvE4typeERS4_S7_, symObjAddr: 0x6CB0, symBinAddr: 0xA090, symSize: 0x40 }
  - { offsetInCU: 0x960B, offset: 0x23705, size: 0x8, addend: 0x0, symName: __ZNSt3__16vectorINS_10shared_ptrI10GameEntityEENS_9allocatorIS3_EEE26__swap_out_circular_bufferERNS_14__split_bufferIS3_RS5_EE, symObjAddr: 0x24B0, symBinAddr: 0x75D0, symSize: 0x130 }
  - { offsetInCU: 0xB770, offset: 0x2586A, size: 0x8, addend: 0x0, symName: __ZN10GameEntityC2Ev, symObjAddr: 0x0, symBinAddr: 0x56A0, symSize: 0x50 }
  - { offsetInCU: 0xB79A, offset: 0x25894, size: 0x8, addend: 0x0, symName: __ZNSt3__123enable_shared_from_thisI10GameEntityEC2B7v160006Ev, symObjAddr: 0x50, symBinAddr: 0x56F0, symSize: 0x20 }
  - { offsetInCU: 0xB7C2, offset: 0x258BC, size: 0x8, addend: 0x0, symName: __ZNSt3__13mapI13ComponentTypeNS_10shared_ptrI9ComponentEENS_4lessIS1_EENS_9allocatorINS_4pairIKS1_S4_EEEEEC1B7v160006Ev, symObjAddr: 0x70, symBinAddr: 0x5710, symSize: 0x20 }
  - { offsetInCU: 0xB7EA, offset: 0x258E4, size: 0x8, addend: 0x0, symName: __ZNSt3__16vectorINS_10shared_ptrI10GameEntityEENS_9allocatorIS3_EEEC1B7v160006Ev, symObjAddr: 0x90, symBinAddr: 0x5730, symSize: 0x20 }
  - { offsetInCU: 0xB812, offset: 0x2590C, size: 0x8, addend: 0x0, symName: __ZN10GameEntityC1Ev, symObjAddr: 0xB0, symBinAddr: 0x5750, symSize: 0x20 }
  - { offsetInCU: 0xB83C, offset: 0x25936, size: 0x8, addend: 0x0, symName: __ZN10GameEntityD2Ev, symObjAddr: 0xD0, symBinAddr: 0x5770, symSize: 0x50 }
  - { offsetInCU: 0xB866, offset: 0x25960, size: 0x8, addend: 0x0, symName: __ZNSt3__16vectorINS_10shared_ptrI10GameEntityEENS_9allocatorIS3_EEED1B7v160006Ev, symObjAddr: 0x120, symBinAddr: 0x57C0, symSize: 0x20 }
  - { offsetInCU: 0xB88E, offset: 0x25988, size: 0x8, addend: 0x0, symName: __ZNSt3__13mapI13ComponentTypeNS_10shared_ptrI9ComponentEENS_4lessIS1_EENS_9allocatorINS_4pairIKS1_S4_EEEEED1B7v160006Ev, symObjAddr: 0x140, symBinAddr: 0x57E0, symSize: 0x20 }
  - { offsetInCU: 0xB8B6, offset: 0x259B0, size: 0x8, addend: 0x0, symName: __ZNSt3__123enable_shared_from_thisI10GameEntityED2B7v160006Ev, symObjAddr: 0x160, symBinAddr: 0x5800, symSize: 0x20 }
  - { offsetInCU: 0xB8DE, offset: 0x259D8, size: 0x8, addend: 0x0, symName: __ZN10GameEntityD1Ev, symObjAddr: 0x180, symBinAddr: 0x5820, symSize: 0x20 }
  - { offsetInCU: 0xB908, offset: 0x25A02, size: 0x8, addend: 0x0, symName: __ZN10GameEntityD0Ev, symObjAddr: 0x1A0, symBinAddr: 0x5840, symSize: 0x30 }
  - { offsetInCU: 0xB932, offset: 0x25A2C, size: 0x8, addend: 0x0, symName: __ZN10GameEntity5InputEf, symObjAddr: 0x1D0, symBinAddr: 0x5870, symSize: 0x130 }
  - { offsetInCU: 0xBA23, offset: 0x25B1D, size: 0x8, addend: 0x0, symName: __ZN10GameEntity6UpdateEf, symObjAddr: 0x5B0, symBinAddr: 0x59A0, symSize: 0x130 }
  - { offsetInCU: 0xBB14, offset: 0x25C0E, size: 0x8, addend: 0x0, symName: __ZN10GameEntity6RenderEP12SDL_Renderer, symObjAddr: 0x6E0, symBinAddr: 0x5AD0, symSize: 0x130 }
  - { offsetInCU: 0xBC05, offset: 0x25CFF, size: 0x8, addend: 0x0, symName: __ZN10GameEntity19AddDefaultTransformEv, symObjAddr: 0x810, symBinAddr: 0x5C00, symSize: 0x90 }
  - { offsetInCU: 0xBC39, offset: 0x25D33, size: 0x8, addend: 0x0, symName: __ZN10GameEntity12AddComponentI18TransformComponentEEvNSt3__110shared_ptrIT_EE, symObjAddr: 0x8E0, symBinAddr: 0x5CD0, symSize: 0xC0 }
  - { offsetInCU: 0xBC75, offset: 0x25D6F, size: 0x8, addend: 0x0, symName: __ZNSt3__110shared_ptrI18TransformComponentEC1B7v160006ERKS2_, symObjAddr: 0x9A0, symBinAddr: 0x5D90, symSize: 0x30 }
  - { offsetInCU: 0xBCAC, offset: 0x25DA6, size: 0x8, addend: 0x0, symName: __ZN10GameEntity12GetTransformEv, symObjAddr: 0x9F0, symBinAddr: 0x5DC0, symSize: 0x30 }
  - { offsetInCU: 0xBCD2, offset: 0x25DCC, size: 0x8, addend: 0x0, symName: __ZN10GameEntity12GetComponentI18TransformComponentEENSt3__110shared_ptrIT_EE13ComponentType, symObjAddr: 0xA20, symBinAddr: 0x5DF0, symSize: 0xB0 }
  - { offsetInCU: 0xBD1B, offset: 0x25E15, size: 0x8, addend: 0x0, symName: __ZN10GameEntity18AddChildGameEntityENSt3__110shared_ptrIS_EE, symObjAddr: 0xAD0, symBinAddr: 0x5EA0, symSize: 0x30 }
  - { offsetInCU: 0xBD50, offset: 0x25E4A, size: 0x8, addend: 0x0, symName: __ZNSt3__16vectorINS_10shared_ptrI10GameEntityEENS_9allocatorIS3_EEE9push_backB7v160006ERKS3_, symObjAddr: 0xB00, symBinAddr: 0x5ED0, symSize: 0x60 }
  - { offsetInCU: 0xBD85, offset: 0x25E7F, size: 0x8, addend: 0x0, symName: __ZN10GameEntity25GetChildGameEntityAtIndexEm, symObjAddr: 0xB60, symBinAddr: 0x5F30, symSize: 0x50 }
  - { offsetInCU: 0xBDB9, offset: 0x25EB3, size: 0x8, addend: 0x0, symName: __ZNSt3__16vectorINS_10shared_ptrI10GameEntityEENS_9allocatorIS3_EEE2atEm, symObjAddr: 0xBB0, symBinAddr: 0x5F80, symSize: 0x60 }
  - { offsetInCU: 0xBDEE, offset: 0x25EE8, size: 0x8, addend: 0x0, symName: __ZN10GameEntity13SetRenderableEb, symObjAddr: 0xC40, symBinAddr: 0x5FE0, symSize: 0x20 }
  - { offsetInCU: 0xBE22, offset: 0x25F1C, size: 0x8, addend: 0x0, symName: __ZNK10GameEntity12IsRenderableEv, symObjAddr: 0xC60, symBinAddr: 0x6000, symSize: 0x20 }
  - { offsetInCU: 0xBE48, offset: 0x25F42, size: 0x8, addend: 0x0, symName: __ZN10GameEntity10IntersectsENSt3__110shared_ptrIS_EE, symObjAddr: 0xC80, symBinAddr: 0x6020, symSize: 0x150 }
  - { offsetInCU: 0xBEA9, offset: 0x25FA3, size: 0x8, addend: 0x0, symName: __ZN10GameEntity12GetComponentI20Collision2DComponentEENSt3__110shared_ptrIT_EE13ComponentType, symObjAddr: 0xDD0, symBinAddr: 0x6170, symSize: 0xB0 }
  - { offsetInCU: 0xBEF2, offset: 0x25FEC, size: 0x8, addend: 0x0, symName: __ZNKSt3__110shared_ptrI20Collision2DComponentEptB7v160006Ev, symObjAddr: 0xE80, symBinAddr: 0x6220, symSize: 0x20 }
  - { offsetInCU: 0xBF16, offset: 0x26010, size: 0x8, addend: 0x0, symName: __ZNSt3__110shared_ptrI20Collision2DComponentED1B7v160006Ev, symObjAddr: 0xEA0, symBinAddr: 0x6240, symSize: 0x20 }
  - { offsetInCU: 0xBF3E, offset: 0x26038, size: 0x8, addend: 0x0, symName: __ZN10GameEntity12AddComponentI16TextureComponentEEvNSt3__110shared_ptrIT_EE, symObjAddr: 0xEC0, symBinAddr: 0x6260, symSize: 0xC0 }
  - { offsetInCU: 0xBF7A, offset: 0x26074, size: 0x8, addend: 0x0, symName: __ZNSt3__13mapI13ComponentTypeNS_10shared_ptrI9ComponentEENS_4lessIS1_EENS_9allocatorINS_4pairIKS1_S4_EEEEEixEOS1_, symObjAddr: 0xF80, symBinAddr: 0x6320, symSize: 0x70 }
  - { offsetInCU: 0xBFAF, offset: 0x260A9, size: 0x8, addend: 0x0, symName: __ZNKSt3__110shared_ptrI16TextureComponentEptB7v160006Ev, symObjAddr: 0xFF0, symBinAddr: 0x6390, symSize: 0x20 }
  - { offsetInCU: 0xBFD3, offset: 0x260CD, size: 0x8, addend: 0x0, symName: __ZNSt3__110shared_ptrI9ComponentEaSB7v160006I16TextureComponentvEERS2_RKNS0_IT_EE, symObjAddr: 0x1010, symBinAddr: 0x63B0, symSize: 0x50 }
  - { offsetInCU: 0xC011, offset: 0x2610B, size: 0x8, addend: 0x0, symName: __ZN9Component13SetGameEntityENSt3__110shared_ptrI10GameEntityEE, symObjAddr: 0x1060, symBinAddr: 0x6400, symSize: 0x30 }
  - { offsetInCU: 0xC044, offset: 0x2613E, size: 0x8, addend: 0x0, symName: __ZN10GameEntity10GetThisPtrEv, symObjAddr: 0x1090, symBinAddr: 0x6430, symSize: 0x30 }
  - { offsetInCU: 0xC068, offset: 0x26162, size: 0x8, addend: 0x0, symName: __ZNSt3__110shared_ptrI9ComponentEaSB7v160006I18TransformComponentvEERS2_RKNS0_IT_EE, symObjAddr: 0x1100, symBinAddr: 0x6460, symSize: 0x50 }
  - { offsetInCU: 0xC0A6, offset: 0x261A0, size: 0x8, addend: 0x0, symName: __ZN10GameEntity12AddComponentI20Collision2DComponentEEvNSt3__110shared_ptrIT_EE, symObjAddr: 0x1150, symBinAddr: 0x64B0, symSize: 0xC0 }
  - { offsetInCU: 0xC0E2, offset: 0x261DC, size: 0x8, addend: 0x0, symName: __ZNSt3__110shared_ptrI9ComponentEaSB7v160006I20Collision2DComponentvEERS2_RKNS0_IT_EE, symObjAddr: 0x1210, symBinAddr: 0x6570, symSize: 0x50 }
  - { offsetInCU: 0xC120, offset: 0x2621A, size: 0x8, addend: 0x0, symName: __ZN10GameEntity12AddComponentI14InputComponentEEvNSt3__110shared_ptrIT_EE, symObjAddr: 0x1260, symBinAddr: 0x65C0, symSize: 0xC0 }
  - { offsetInCU: 0xC15C, offset: 0x26256, size: 0x8, addend: 0x0, symName: __ZNKSt3__110shared_ptrI14InputComponentEptB7v160006Ev, symObjAddr: 0x1320, symBinAddr: 0x6680, symSize: 0x20 }
  - { offsetInCU: 0xC180, offset: 0x2627A, size: 0x8, addend: 0x0, symName: __ZNSt3__110shared_ptrI9ComponentEaSB7v160006I14InputComponentvEERS2_RKNS0_IT_EE, symObjAddr: 0x1340, symBinAddr: 0x66A0, symSize: 0x50 }
  - { offsetInCU: 0xC1BE, offset: 0x262B8, size: 0x8, addend: 0x0, symName: __ZN10GameEntity12GetComponentI16TextureComponentEENSt3__110shared_ptrIT_EE13ComponentType, symObjAddr: 0x1390, symBinAddr: 0x66F0, symSize: 0xB0 }
  - { offsetInCU: 0xC207, offset: 0x26301, size: 0x8, addend: 0x0, symName: __ZNSt3__13mapI13ComponentTypeNS_10shared_ptrI9ComponentEENS_4lessIS1_EENS_9allocatorINS_4pairIKS1_S4_EEEEE4findB7v160006ERS9_, symObjAddr: 0x1440, symBinAddr: 0x67A0, symSize: 0x40 }
  - { offsetInCU: 0xC23A, offset: 0x26334, size: 0x8, addend: 0x0, symName: __ZNKSt3__114__map_iteratorINS_15__tree_iteratorINS_12__value_typeI13ComponentTypeNS_10shared_ptrI9ComponentEEEEPNS_11__tree_nodeIS7_PvEElEEEptB7v160006Ev, symObjAddr: 0x1520, symBinAddr: 0x6880, symSize: 0x30 }
  - { offsetInCU: 0xC25E, offset: 0x26358, size: 0x8, addend: 0x0, symName: __ZNSt3__110shared_ptrI16TextureComponentEC1B7v160006EDn, symObjAddr: 0x1550, symBinAddr: 0x68B0, symSize: 0x30 }
  - { offsetInCU: 0xC291, offset: 0x2638B, size: 0x8, addend: 0x0, symName: __ZNSt3__110shared_ptrI18TransformComponentEC1B7v160006EDn, symObjAddr: 0x1620, symBinAddr: 0x6980, symSize: 0x30 }
  - { offsetInCU: 0xC2C4, offset: 0x263BE, size: 0x8, addend: 0x0, symName: __ZNSt3__110shared_ptrI20Collision2DComponentEC1B7v160006EDn, symObjAddr: 0x16F0, symBinAddr: 0x6A50, symSize: 0x30 }
  - { offsetInCU: 0xC2F7, offset: 0x263F1, size: 0x8, addend: 0x0, symName: __ZN10GameEntity12GetComponentI14InputComponentEENSt3__110shared_ptrIT_EE13ComponentType, symObjAddr: 0x1720, symBinAddr: 0x6A80, symSize: 0xB0 }
  - { offsetInCU: 0xC340, offset: 0x2643A, size: 0x8, addend: 0x0, symName: __ZNSt3__110shared_ptrI14InputComponentEC1B7v160006EDn, symObjAddr: 0x1870, symBinAddr: 0x6BD0, symSize: 0x30 }
  - { offsetInCU: 0xC373, offset: 0x2646D, size: 0x8, addend: 0x0, symName: __ZNSt3__18weak_ptrI10GameEntityEC1Ev, symObjAddr: 0x18A0, symBinAddr: 0x6C00, symSize: 0x20 }
  - { offsetInCU: 0xC39E, offset: 0x26498, size: 0x8, addend: 0x0, symName: __ZNSt3__18weak_ptrI10GameEntityEC2Ev, symObjAddr: 0x18C0, symBinAddr: 0x6C20, symSize: 0x20 }
  - { offsetInCU: 0xC3C9, offset: 0x264C3, size: 0x8, addend: 0x0, symName: __ZNSt3__16vectorINS_10shared_ptrI10GameEntityEENS_9allocatorIS3_EEEC2B7v160006Ev, symObjAddr: 0x18E0, symBinAddr: 0x6C40, symSize: 0x60 }
  - { offsetInCU: 0xC3FB, offset: 0x264F5, size: 0x8, addend: 0x0, symName: __ZNSt3__117__compressed_pairIPNS_10shared_ptrI10GameEntityEENS_9allocatorIS3_EEEC1B7v160006IDnNS_18__default_init_tagEEEOT_OT0_, symObjAddr: 0x1940, symBinAddr: 0x6CA0, symSize: 0x30 }
  - { offsetInCU: 0xC451, offset: 0x2654B, size: 0x8, addend: 0x0, symName: __ZNSt3__117__compressed_pairIPNS_10shared_ptrI10GameEntityEENS_9allocatorIS3_EEEC2B7v160006IDnNS_18__default_init_tagEEEOT_OT0_, symObjAddr: 0x1990, symBinAddr: 0x6CE0, symSize: 0x40 }
  - { offsetInCU: 0xC4A7, offset: 0x265A1, size: 0x8, addend: 0x0, symName: __ZNSt3__122__compressed_pair_elemIPNS_10shared_ptrI10GameEntityEELi0ELb0EEC2B7v160006IDnvEEOT_, symObjAddr: 0x19D0, symBinAddr: 0x6D20, symSize: 0x20 }
  - { offsetInCU: 0xC4E8, offset: 0x265E2, size: 0x8, addend: 0x0, symName: __ZNSt3__122__compressed_pair_elemINS_9allocatorINS_10shared_ptrI10GameEntityEEEELi1ELb1EEC2B7v160006ENS_18__default_init_tagE, symObjAddr: 0x19F0, symBinAddr: 0x6D40, symSize: 0x20 }
  - { offsetInCU: 0xC51A, offset: 0x26614, size: 0x8, addend: 0x0, symName: __ZNSt3__19allocatorINS_10shared_ptrI10GameEntityEEEC2B7v160006Ev, symObjAddr: 0x1A10, symBinAddr: 0x6D60, symSize: 0x20 }
  - { offsetInCU: 0xC542, offset: 0x2663C, size: 0x8, addend: 0x0, symName: __ZNSt3__116__non_trivial_ifILb1ENS_9allocatorINS_10shared_ptrI10GameEntityEEEEEC2B7v160006Ev, symObjAddr: 0x1A30, symBinAddr: 0x6D80, symSize: 0x10 }
  - { offsetInCU: 0xC56A, offset: 0x26664, size: 0x8, addend: 0x0, symName: __ZNSt3__16vectorINS_10shared_ptrI10GameEntityEENS_9allocatorIS3_EEED2B7v160006Ev, symObjAddr: 0x1A40, symBinAddr: 0x6D90, symSize: 0x40 }
  - { offsetInCU: 0xC592, offset: 0x2668C, size: 0x8, addend: 0x0, symName: __ZNSt3__16vectorINS_10shared_ptrI10GameEntityEENS_9allocatorIS3_EEE16__destroy_vectorC1ERS6_, symObjAddr: 0x1A80, symBinAddr: 0x6DD0, symSize: 0x30 }
  - { offsetInCU: 0xC5C9, offset: 0x266C3, size: 0x8, addend: 0x0, symName: __ZNSt3__16vectorINS_10shared_ptrI10GameEntityEENS_9allocatorIS3_EEE16__destroy_vectorclB7v160006Ev, symObjAddr: 0x1AB0, symBinAddr: 0x6E00, symSize: 0x90 }
  - { offsetInCU: 0xC5ED, offset: 0x266E7, size: 0x8, addend: 0x0, symName: __ZNSt3__16vectorINS_10shared_ptrI10GameEntityEENS_9allocatorIS3_EEE16__destroy_vectorC2ERS6_, symObjAddr: 0x1B40, symBinAddr: 0x6E90, symSize: 0x20 }
  - { offsetInCU: 0xC624, offset: 0x2671E, size: 0x8, addend: 0x0, symName: __ZNKSt3__16vectorINS_10shared_ptrI10GameEntityEENS_9allocatorIS3_EEE17__annotate_deleteB7v160006Ev, symObjAddr: 0x1B60, symBinAddr: 0x6EB0, symSize: 0xB0 }
  - { offsetInCU: 0xC648, offset: 0x26742, size: 0x8, addend: 0x0, symName: __ZNSt3__16vectorINS_10shared_ptrI10GameEntityEENS_9allocatorIS3_EEE7__clearB7v160006Ev, symObjAddr: 0x1C20, symBinAddr: 0x6F70, symSize: 0x20 }
  - { offsetInCU: 0xC66C, offset: 0x26766, size: 0x8, addend: 0x0, symName: __ZNSt3__116allocator_traitsINS_9allocatorINS_10shared_ptrI10GameEntityEEEEE10deallocateB7v160006ERS5_PS4_m, symObjAddr: 0x1C40, symBinAddr: 0x6F90, symSize: 0x30 }
  - { offsetInCU: 0xC6AD, offset: 0x267A7, size: 0x8, addend: 0x0, symName: __ZNSt3__16vectorINS_10shared_ptrI10GameEntityEENS_9allocatorIS3_EEE7__allocB7v160006Ev, symObjAddr: 0x1C70, symBinAddr: 0x6FC0, symSize: 0x20 }
  - { offsetInCU: 0xC6D1, offset: 0x267CB, size: 0x8, addend: 0x0, symName: __ZNKSt3__16vectorINS_10shared_ptrI10GameEntityEENS_9allocatorIS3_EEE8capacityB7v160006Ev, symObjAddr: 0x1C90, symBinAddr: 0x6FE0, symSize: 0x30 }
  - { offsetInCU: 0xC6F5, offset: 0x267EF, size: 0x8, addend: 0x0, symName: __ZNKSt3__16vectorINS_10shared_ptrI10GameEntityEENS_9allocatorIS3_EEE31__annotate_contiguous_containerB7v160006EPKvS8_S8_S8_, symObjAddr: 0x1CC0, symBinAddr: 0x7010, symSize: 0x20 }
  - { offsetInCU: 0xC745, offset: 0x2683F, size: 0x8, addend: 0x0, symName: __ZNKSt3__16vectorINS_10shared_ptrI10GameEntityEENS_9allocatorIS3_EEE4dataB7v160006Ev, symObjAddr: 0x1CE0, symBinAddr: 0x7030, symSize: 0x20 }
  - { offsetInCU: 0xC769, offset: 0x26863, size: 0x8, addend: 0x0, symName: __ZNKSt3__16vectorINS_10shared_ptrI10GameEntityEENS_9allocatorIS3_EEE4sizeB7v160006Ev, symObjAddr: 0x1D00, symBinAddr: 0x7050, symSize: 0x20 }
  - { offsetInCU: 0xC78D, offset: 0x26887, size: 0x8, addend: 0x0, symName: __ZNSt3__16vectorINS_10shared_ptrI10GameEntityEENS_9allocatorIS3_EEE22__base_destruct_at_endB7v160006EPS3_, symObjAddr: 0x1D30, symBinAddr: 0x7080, symSize: 0x80 }
  - { offsetInCU: 0xC7CF, offset: 0x268C9, size: 0x8, addend: 0x0, symName: __ZNSt3__116allocator_traitsINS_9allocatorINS_10shared_ptrI10GameEntityEEEEE7destroyB7v160006IS4_vvEEvRS5_PT_, symObjAddr: 0x1DB0, symBinAddr: 0x7100, symSize: 0x20 }
  - { offsetInCU: 0xC80A, offset: 0x26904, size: 0x8, addend: 0x0, symName: __ZNSt3__19allocatorINS_10shared_ptrI10GameEntityEEE10deallocateB7v160006EPS3_m, symObjAddr: 0x1E10, symBinAddr: 0x7160, symSize: 0x40 }
  - { offsetInCU: 0xC84A, offset: 0x26944, size: 0x8, addend: 0x0, symName: __ZNSt3__117__compressed_pairIPNS_10shared_ptrI10GameEntityEENS_9allocatorIS3_EEE6secondB7v160006Ev, symObjAddr: 0x1F70, symBinAddr: 0x71A0, symSize: 0x20 }
  - { offsetInCU: 0xC86E, offset: 0x26968, size: 0x8, addend: 0x0, symName: __ZNSt3__122__compressed_pair_elemINS_9allocatorINS_10shared_ptrI10GameEntityEEEELi1ELb1EE5__getB7v160006Ev, symObjAddr: 0x1F90, symBinAddr: 0x71C0, symSize: 0x10 }
  - { offsetInCU: 0xC892, offset: 0x2698C, size: 0x8, addend: 0x0, symName: __ZNKSt3__16vectorINS_10shared_ptrI10GameEntityEENS_9allocatorIS3_EEE9__end_capB7v160006Ev, symObjAddr: 0x1FA0, symBinAddr: 0x71D0, symSize: 0x20 }
  - { offsetInCU: 0xC8B6, offset: 0x269B0, size: 0x8, addend: 0x0, symName: __ZNKSt3__117__compressed_pairIPNS_10shared_ptrI10GameEntityEENS_9allocatorIS3_EEE5firstB7v160006Ev, symObjAddr: 0x1FC0, symBinAddr: 0x71F0, symSize: 0x20 }
  - { offsetInCU: 0xC8DA, offset: 0x269D4, size: 0x8, addend: 0x0, symName: __ZNKSt3__122__compressed_pair_elemIPNS_10shared_ptrI10GameEntityEELi0ELb0EE5__getB7v160006Ev, symObjAddr: 0x1FE0, symBinAddr: 0x7210, symSize: 0x10 }
  - { offsetInCU: 0xC8FE, offset: 0x269F8, size: 0x8, addend: 0x0, symName: __ZNSt3__16vectorINS_10shared_ptrI10GameEntityEENS_9allocatorIS3_EEE9__end_capB7v160006Ev, symObjAddr: 0x2100, symBinAddr: 0x7220, symSize: 0x20 }
  - { offsetInCU: 0xC922, offset: 0x26A1C, size: 0x8, addend: 0x0, symName: __ZNSt3__16vectorINS_10shared_ptrI10GameEntityEENS_9allocatorIS3_EEE22__construct_one_at_endB7v160006IJRKS3_EEEvDpOT_, symObjAddr: 0x2120, symBinAddr: 0x7240, symSize: 0x90 }
  - { offsetInCU: 0xC96F, offset: 0x26A69, size: 0x8, addend: 0x0, symName: __ZNSt3__16vectorINS_10shared_ptrI10GameEntityEENS_9allocatorIS3_EEE21__push_back_slow_pathIRKS3_EEvOT_, symObjAddr: 0x21B0, symBinAddr: 0x72D0, symSize: 0xD0 }
  - { offsetInCU: 0xC9CB, offset: 0x26AC5, size: 0x8, addend: 0x0, symName: __ZNSt3__117__compressed_pairIPNS_10shared_ptrI10GameEntityEENS_9allocatorIS3_EEE5firstB7v160006Ev, symObjAddr: 0x2280, symBinAddr: 0x73A0, symSize: 0x20 }
  - { offsetInCU: 0xC9EF, offset: 0x26AE9, size: 0x8, addend: 0x0, symName: __ZNSt3__122__compressed_pair_elemIPNS_10shared_ptrI10GameEntityEELi0ELb0EE5__getB7v160006Ev, symObjAddr: 0x22A0, symBinAddr: 0x73C0, symSize: 0x10 }
  - { offsetInCU: 0xCA2C, offset: 0x26B26, size: 0x8, addend: 0x0, symName: __ZNSt3__16vectorINS_10shared_ptrI10GameEntityEENS_9allocatorIS3_EEE21_ConstructTransactionC1B7v160006ERS6_m, symObjAddr: 0x22B0, symBinAddr: 0x73D0, symSize: 0x30 }
  - { offsetInCU: 0xCA72, offset: 0x26B6C, size: 0x8, addend: 0x0, symName: __ZNSt3__116allocator_traitsINS_9allocatorINS_10shared_ptrI10GameEntityEEEEE9constructB7v160006IS4_JRKS4_EvvEEvRS5_PT_DpOT0_, symObjAddr: 0x22E0, symBinAddr: 0x7400, symSize: 0x30 }
  - { offsetInCU: 0xCAC7, offset: 0x26BC1, size: 0x8, addend: 0x0, symName: __ZNSt3__16vectorINS_10shared_ptrI10GameEntityEENS_9allocatorIS3_EEE21_ConstructTransactionD1B7v160006Ev, symObjAddr: 0x2310, symBinAddr: 0x7430, symSize: 0x20 }
  - { offsetInCU: 0xCAEF, offset: 0x26BE9, size: 0x8, addend: 0x0, symName: __ZNSt3__16vectorINS_10shared_ptrI10GameEntityEENS_9allocatorIS3_EEE21_ConstructTransactionC2B7v160006ERS6_m, symObjAddr: 0x2330, symBinAddr: 0x7450, symSize: 0x40 }
  - { offsetInCU: 0xCB35, offset: 0x26C2F, size: 0x8, addend: 0x0, symName: __ZNSt3__16vectorINS_10shared_ptrI10GameEntityEENS_9allocatorIS3_EEE21_ConstructTransactionD2B7v160006Ev, symObjAddr: 0x23B0, symBinAddr: 0x74D0, symSize: 0x20 }
  - { offsetInCU: 0xCB5D, offset: 0x26C57, size: 0x8, addend: 0x0, symName: __ZNKSt3__16vectorINS_10shared_ptrI10GameEntityEENS_9allocatorIS3_EEE11__recommendB7v160006Em, symObjAddr: 0x23D0, symBinAddr: 0x74F0, symSize: 0xA0 }
  - { offsetInCU: 0xCBB0, offset: 0x26CAA, size: 0x8, addend: 0x0, symName: __ZNSt3__114__split_bufferINS_10shared_ptrI10GameEntityEERNS_9allocatorIS3_EEEC1EmmS6_, symObjAddr: 0x2470, symBinAddr: 0x7590, symSize: 0x40 }
  - { offsetInCU: 0xCC05, offset: 0x26CFF, size: 0x8, addend: 0x0, symName: __ZNSt3__114__split_bufferINS_10shared_ptrI10GameEntityEERNS_9allocatorIS3_EEED1Ev, symObjAddr: 0x25E0, symBinAddr: 0x7700, symSize: 0x20 }
  - { offsetInCU: 0xCC30, offset: 0x26D2A, size: 0x8, addend: 0x0, symName: __ZNKSt3__16vectorINS_10shared_ptrI10GameEntityEENS_9allocatorIS3_EEE8max_sizeEv, symObjAddr: 0x2600, symBinAddr: 0x7720, symSize: 0x60 }
  - { offsetInCU: 0xCC56, offset: 0x26D50, size: 0x8, addend: 0x0, symName: __ZNKSt3__16vectorINS_10shared_ptrI10GameEntityEENS_9allocatorIS3_EEE20__throw_length_errorB7v160006Ev, symObjAddr: 0x2660, symBinAddr: 0x7780, symSize: 0x20 }
  - { offsetInCU: 0xCC84, offset: 0x26D7E, size: 0x8, addend: 0x0, symName: __ZNSt3__116allocator_traitsINS_9allocatorINS_10shared_ptrI10GameEntityEEEEE8max_sizeB7v160006IS5_vvEEmRKS5_, symObjAddr: 0x26E0, symBinAddr: 0x77D0, symSize: 0x20 }
  - { offsetInCU: 0xCCB0, offset: 0x26DAA, size: 0x8, addend: 0x0, symName: __ZNKSt3__16vectorINS_10shared_ptrI10GameEntityEENS_9allocatorIS3_EEE7__allocB7v160006Ev, symObjAddr: 0x2700, symBinAddr: 0x77F0, symSize: 0x20 }
  - { offsetInCU: 0xCCD4, offset: 0x26DCE, size: 0x8, addend: 0x0, symName: __ZNSt3__114numeric_limitsIlE3maxB7v160006Ev, symObjAddr: 0x2720, symBinAddr: 0x7810, symSize: 0x10 }
  - { offsetInCU: 0xCCE8, offset: 0x26DE2, size: 0x8, addend: 0x0, symName: __ZNKSt3__117__compressed_pairIPNS_10shared_ptrI10GameEntityEENS_9allocatorIS3_EEE6secondB7v160006Ev, symObjAddr: 0x27D0, symBinAddr: 0x7820, symSize: 0x20 }
  - { offsetInCU: 0xCD0C, offset: 0x26E06, size: 0x8, addend: 0x0, symName: __ZNKSt3__122__compressed_pair_elemINS_9allocatorINS_10shared_ptrI10GameEntityEEEELi1ELb1EE5__getB7v160006Ev, symObjAddr: 0x27F0, symBinAddr: 0x7840, symSize: 0x10 }
  - { offsetInCU: 0xCD30, offset: 0x26E2A, size: 0x8, addend: 0x0, symName: __ZNSt3__123__libcpp_numeric_limitsIlLb1EE3maxB7v160006Ev, symObjAddr: 0x2800, symBinAddr: 0x7850, symSize: 0x10 }
  - { offsetInCU: 0xCD44, offset: 0x26E3E, size: 0x8, addend: 0x0, symName: __ZNSt12length_errorC1B7v160006EPKc, symObjAddr: 0x2880, symBinAddr: 0x78D0, symSize: 0x30 }
  - { offsetInCU: 0xCD7A, offset: 0x26E74, size: 0x8, addend: 0x0, symName: __ZNSt12length_errorC2B7v160006EPKc, symObjAddr: 0x28B0, symBinAddr: 0x7900, symSize: 0x40 }
  - { offsetInCU: 0xCDB0, offset: 0x26EAA, size: 0x8, addend: 0x0, symName: __ZNSt3__114__split_bufferINS_10shared_ptrI10GameEntityEERNS_9allocatorIS3_EEEC2EmmS6_, symObjAddr: 0x2940, symBinAddr: 0x7990, symSize: 0xD0 }
  - { offsetInCU: 0xCE22, offset: 0x26F1C, size: 0x8, addend: 0x0, symName: __ZNSt3__117__compressed_pairIPNS_10shared_ptrI10GameEntityEERNS_9allocatorIS3_EEEC1B7v160006IDnS7_EEOT_OT0_, symObjAddr: 0x2A10, symBinAddr: 0x7A60, symSize: 0x30 }
  - { offsetInCU: 0xCE78, offset: 0x26F72, size: 0x8, addend: 0x0, symName: __ZNSt3__114__split_bufferINS_10shared_ptrI10GameEntityEERNS_9allocatorIS3_EEE7__allocB7v160006Ev, symObjAddr: 0x2A80, symBinAddr: 0x7AD0, symSize: 0x20 }
  - { offsetInCU: 0xCE9C, offset: 0x26F96, size: 0x8, addend: 0x0, symName: __ZNSt3__114__split_bufferINS_10shared_ptrI10GameEntityEERNS_9allocatorIS3_EEE9__end_capB7v160006Ev, symObjAddr: 0x2AA0, symBinAddr: 0x7AF0, symSize: 0x20 }
  - { offsetInCU: 0xCEC0, offset: 0x26FBA, size: 0x8, addend: 0x0, symName: __ZNSt3__117__compressed_pairIPNS_10shared_ptrI10GameEntityEERNS_9allocatorIS3_EEEC2B7v160006IDnS7_EEOT_OT0_, symObjAddr: 0x2AC0, symBinAddr: 0x7B10, symSize: 0x40 }
  - { offsetInCU: 0xCF16, offset: 0x27010, size: 0x8, addend: 0x0, symName: __ZNSt3__122__compressed_pair_elemIRNS_9allocatorINS_10shared_ptrI10GameEntityEEEELi1ELb0EEC2B7v160006IS6_vEEOT_, symObjAddr: 0x2B00, symBinAddr: 0x7B50, symSize: 0x20 }
  - { offsetInCU: 0xCF57, offset: 0x27051, size: 0x8, addend: 0x0, symName: __ZNSt3__19allocatorINS_10shared_ptrI10GameEntityEEE8allocateB7v160006Em, symObjAddr: 0x2B20, symBinAddr: 0x7B70, symSize: 0x50 }
  - { offsetInCU: 0xCF89, offset: 0x27083, size: 0x8, addend: 0x0, symName: __ZNSt3__117__compressed_pairIPNS_10shared_ptrI10GameEntityEERNS_9allocatorIS3_EEE6secondB7v160006Ev, symObjAddr: 0x2C60, symBinAddr: 0x7BC0, symSize: 0x20 }
  - { offsetInCU: 0xCFAD, offset: 0x270A7, size: 0x8, addend: 0x0, symName: __ZNSt3__122__compressed_pair_elemIRNS_9allocatorINS_10shared_ptrI10GameEntityEEEELi1ELb0EE5__getB7v160006Ev, symObjAddr: 0x2C80, symBinAddr: 0x7BE0, symSize: 0x20 }
  - { offsetInCU: 0xCFD1, offset: 0x270CB, size: 0x8, addend: 0x0, symName: __ZNSt3__117__compressed_pairIPNS_10shared_ptrI10GameEntityEERNS_9allocatorIS3_EEE5firstB7v160006Ev, symObjAddr: 0x2CA0, symBinAddr: 0x7C00, symSize: 0x20 }
  - { offsetInCU: 0xCFF5, offset: 0x270EF, size: 0x8, addend: 0x0, symName: __ZNSt3__116reverse_iteratorIPNS_10shared_ptrI10GameEntityEEEC1B7v160006ES4_, symObjAddr: 0x2E40, symBinAddr: 0x7DA0, symSize: 0x30 }
  - { offsetInCU: 0xD02B, offset: 0x27125, size: 0x8, addend: 0x0, symName: __ZNKSt3__116reverse_iteratorIPNS_10shared_ptrI10GameEntityEEE4baseB7v160006Ev, symObjAddr: 0x2E70, symBinAddr: 0x7DD0, symSize: 0x20 }
  - { offsetInCU: 0xD04F, offset: 0x27149, size: 0x8, addend: 0x0, symName: __ZNKSt3__16vectorINS_10shared_ptrI10GameEntityEENS_9allocatorIS3_EEE14__annotate_newB7v160006Em, symObjAddr: 0x2ED0, symBinAddr: 0x7E30, symSize: 0xB0 }
  - { offsetInCU: 0xD082, offset: 0x2717C, size: 0x8, addend: 0x0, symName: __ZNSt3__129_AllocatorDestroyRangeReverseINS_9allocatorINS_10shared_ptrI10GameEntityEEEENS_16reverse_iteratorIPS4_EEEC1B7v160006ERS5_RS8_SB_, symObjAddr: 0x2FF0, symBinAddr: 0x7F50, symSize: 0x40 }
  - { offsetInCU: 0xD0D7, offset: 0x271D1, size: 0x8, addend: 0x0, symName: __ZNSt3__116allocator_traitsINS_9allocatorINS_10shared_ptrI10GameEntityEEEEE9constructB7v160006IS4_JS4_EvvEEvRS5_PT_DpOT0_, symObjAddr: 0x3070, symBinAddr: 0x7FD0, symSize: 0x30 }
  - { offsetInCU: 0xD12C, offset: 0x27226, size: 0x8, addend: 0x0, symName: __ZNKSt3__116reverse_iteratorIPNS_10shared_ptrI10GameEntityEEEdeB7v160006Ev, symObjAddr: 0x30C0, symBinAddr: 0x8020, symSize: 0x30 }
  - { offsetInCU: 0xD15E, offset: 0x27258, size: 0x8, addend: 0x0, symName: __ZNSt3__116reverse_iteratorIPNS_10shared_ptrI10GameEntityEEEppB7v160006Ev, symObjAddr: 0x30F0, symBinAddr: 0x8050, symSize: 0x20 }
  - { offsetInCU: 0xD182, offset: 0x2727C, size: 0x8, addend: 0x0, symName: __ZNSt3__128__exception_guard_exceptionsINS_29_AllocatorDestroyRangeReverseINS_9allocatorINS_10shared_ptrI10GameEntityEEEENS_16reverse_iteratorIPS5_EEEEE10__completeB7v160006Ev, symObjAddr: 0x3110, symBinAddr: 0x8070, symSize: 0x20 }
  - { offsetInCU: 0xD1A6, offset: 0x272A0, size: 0x8, addend: 0x0, symName: __ZNSt3__128__exception_guard_exceptionsINS_29_AllocatorDestroyRangeReverseINS_9allocatorINS_10shared_ptrI10GameEntityEEEENS_16reverse_iteratorIPS5_EEEEED1B7v160006Ev, symObjAddr: 0x3130, symBinAddr: 0x8090, symSize: 0x20 }
  - { offsetInCU: 0xD1CE, offset: 0x272C8, size: 0x8, addend: 0x0, symName: __ZNSt3__128__exception_guard_exceptionsINS_29_AllocatorDestroyRangeReverseINS_9allocatorINS_10shared_ptrI10GameEntityEEEENS_16reverse_iteratorIPS5_EEEEEC1B7v160006ESA_, symObjAddr: 0x3150, symBinAddr: 0x80B0, symSize: 0x40 }
  - { offsetInCU: 0xD204, offset: 0x272FE, size: 0x8, addend: 0x0, symName: __ZNSt3__128__exception_guard_exceptionsINS_29_AllocatorDestroyRangeReverseINS_9allocatorINS_10shared_ptrI10GameEntityEEEENS_16reverse_iteratorIPS5_EEEEEC2B7v160006ESA_, symObjAddr: 0x3190, symBinAddr: 0x80F0, symSize: 0x30 }
  - { offsetInCU: 0xD23A, offset: 0x27334, size: 0x8, addend: 0x0, symName: __ZNSt3__129_AllocatorDestroyRangeReverseINS_9allocatorINS_10shared_ptrI10GameEntityEEEENS_16reverse_iteratorIPS4_EEEC2B7v160006ERS5_RS8_SB_, symObjAddr: 0x31C0, symBinAddr: 0x8120, symSize: 0x40 }
  - { offsetInCU: 0xD28F, offset: 0x27389, size: 0x8, addend: 0x0, symName: __ZNSt3__110shared_ptrI10GameEntityEC1B7v160006EOS2_, symObjAddr: 0x3240, symBinAddr: 0x81A0, symSize: 0x30 }
  - { offsetInCU: 0xD2C6, offset: 0x273C0, size: 0x8, addend: 0x0, symName: __ZNSt3__110shared_ptrI10GameEntityEC2B7v160006EOS2_, symObjAddr: 0x3270, symBinAddr: 0x81D0, symSize: 0x40 }
  - { offsetInCU: 0xD302, offset: 0x273FC, size: 0x8, addend: 0x0, symName: __ZNSt3__119__to_address_helperINS_16reverse_iteratorIPNS_10shared_ptrI10GameEntityEEEEvE6__callB7v160006ERKS6_, symObjAddr: 0x32B0, symBinAddr: 0x8210, symSize: 0x40 }
  - { offsetInCU: 0xD324, offset: 0x2741E, size: 0x8, addend: 0x0, symName: __ZNKSt3__116reverse_iteratorIPNS_10shared_ptrI10GameEntityEEEptB7v160006Ev, symObjAddr: 0x32F0, symBinAddr: 0x8250, symSize: 0x30 }
  - { offsetInCU: 0xD348, offset: 0x27442, size: 0x8, addend: 0x0, symName: __ZNSt3__128__exception_guard_exceptionsINS_29_AllocatorDestroyRangeReverseINS_9allocatorINS_10shared_ptrI10GameEntityEEEENS_16reverse_iteratorIPS5_EEEEED2B7v160006Ev, symObjAddr: 0x33F0, symBinAddr: 0x8350, symSize: 0x40 }
  - { offsetInCU: 0xD370, offset: 0x2746A, size: 0x8, addend: 0x0, symName: __ZNKSt3__129_AllocatorDestroyRangeReverseINS_9allocatorINS_10shared_ptrI10GameEntityEEEENS_16reverse_iteratorIPS4_EEEclB7v160006Ev, symObjAddr: 0x3430, symBinAddr: 0x8390, symSize: 0xF0 }
  - { offsetInCU: 0xD395, offset: 0x2748F, size: 0x8, addend: 0x0, symName: __ZNSt3__116reverse_iteratorINS0_IPNS_10shared_ptrI10GameEntityEEEEEC1B7v160006ES5_, symObjAddr: 0x3590, symBinAddr: 0x84F0, symSize: 0x30 }
  - { offsetInCU: 0xD3CB, offset: 0x274C5, size: 0x8, addend: 0x0, symName: __ZNSt3__116reverse_iteratorINS0_IPNS_10shared_ptrI10GameEntityEEEEEppB7v160006Ev, symObjAddr: 0x3630, symBinAddr: 0x8590, symSize: 0x30 }
  - { offsetInCU: 0xD3EF, offset: 0x274E9, size: 0x8, addend: 0x0, symName: __ZNKSt3__116reverse_iteratorINS0_IPNS_10shared_ptrI10GameEntityEEEEE4baseB7v160006Ev, symObjAddr: 0x3660, symBinAddr: 0x85C0, symSize: 0x20 }
  - { offsetInCU: 0xD418, offset: 0x27512, size: 0x8, addend: 0x0, symName: __ZNSt3__119__to_address_helperINS_16reverse_iteratorINS1_IPNS_10shared_ptrI10GameEntityEEEEEEvE6__callB7v160006ERKS7_, symObjAddr: 0x3680, symBinAddr: 0x85E0, symSize: 0x40 }
  - { offsetInCU: 0xD43A, offset: 0x27534, size: 0x8, addend: 0x0, symName: __ZNKSt3__116reverse_iteratorINS0_IPNS_10shared_ptrI10GameEntityEEEEEptB7v160006Ev, symObjAddr: 0x36C0, symBinAddr: 0x8620, symSize: 0x50 }
  - { offsetInCU: 0xD45E, offset: 0x27558, size: 0x8, addend: 0x0, symName: __ZNSt3__116reverse_iteratorIPNS_10shared_ptrI10GameEntityEEEpLB7v160006El, symObjAddr: 0x37F0, symBinAddr: 0x8750, symSize: 0x30 }
  - { offsetInCU: 0xD490, offset: 0x2758A, size: 0x8, addend: 0x0, symName: __ZNSt3__116reverse_iteratorIPNS_10shared_ptrI10GameEntityEEEmmB7v160006Ev, symObjAddr: 0x3820, symBinAddr: 0x8780, symSize: 0x20 }
  - { offsetInCU: 0xD4B4, offset: 0x275AE, size: 0x8, addend: 0x0, symName: __ZNSt3__116reverse_iteratorINS0_IPNS_10shared_ptrI10GameEntityEEEEEC2B7v160006ES5_, symObjAddr: 0x3840, symBinAddr: 0x87A0, symSize: 0x40 }
  - { offsetInCU: 0xD4EA, offset: 0x275E4, size: 0x8, addend: 0x0, symName: __ZNSt3__116reverse_iteratorIPNS_10shared_ptrI10GameEntityEEEC2B7v160006ES4_, symObjAddr: 0x3880, symBinAddr: 0x87E0, symSize: 0x30 }
  - { offsetInCU: 0xD520, offset: 0x2761A, size: 0x8, addend: 0x0, symName: __ZNSt3__114__split_bufferINS_10shared_ptrI10GameEntityEERNS_9allocatorIS3_EEED2Ev, symObjAddr: 0x38B0, symBinAddr: 0x8810, symSize: 0x70 }
  - { offsetInCU: 0xD54B, offset: 0x27645, size: 0x8, addend: 0x0, symName: __ZNSt3__114__split_bufferINS_10shared_ptrI10GameEntityEERNS_9allocatorIS3_EEE5clearB7v160006Ev, symObjAddr: 0x3920, symBinAddr: 0x8880, symSize: 0x20 }
  - { offsetInCU: 0xD56F, offset: 0x27669, size: 0x8, addend: 0x0, symName: __ZNKSt3__114__split_bufferINS_10shared_ptrI10GameEntityEERNS_9allocatorIS3_EEE8capacityB7v160006Ev, symObjAddr: 0x3940, symBinAddr: 0x88A0, symSize: 0x30 }
  - { offsetInCU: 0xD593, offset: 0x2768D, size: 0x8, addend: 0x0, symName: __ZNSt3__114__split_bufferINS_10shared_ptrI10GameEntityEERNS_9allocatorIS3_EEE17__destruct_at_endB7v160006EPS3_, symObjAddr: 0x3970, symBinAddr: 0x88D0, symSize: 0x30 }
  - { offsetInCU: 0xD5C5, offset: 0x276BF, size: 0x8, addend: 0x0, symName: __ZNSt3__114__split_bufferINS_10shared_ptrI10GameEntityEERNS_9allocatorIS3_EEE17__destruct_at_endB7v160006EPS3_NS_17integral_constantIbLb0EEE, symObjAddr: 0x39A0, symBinAddr: 0x8900, symSize: 0x80 }
  - { offsetInCU: 0xD603, offset: 0x276FD, size: 0x8, addend: 0x0, symName: __ZNKSt3__114__split_bufferINS_10shared_ptrI10GameEntityEERNS_9allocatorIS3_EEE9__end_capB7v160006Ev, symObjAddr: 0x3A20, symBinAddr: 0x8980, symSize: 0x20 }
  - { offsetInCU: 0xD627, offset: 0x27721, size: 0x8, addend: 0x0, symName: __ZNKSt3__117__compressed_pairIPNS_10shared_ptrI10GameEntityEERNS_9allocatorIS3_EEE5firstB7v160006Ev, symObjAddr: 0x3A40, symBinAddr: 0x89A0, symSize: 0x20 }
  - { offsetInCU: 0xD64B, offset: 0x27745, size: 0x8, addend: 0x0, symName: __ZNKSt3__16vectorINS_10shared_ptrI10GameEntityEENS_9allocatorIS3_EEE20__throw_out_of_rangeB7v160006Ev, symObjAddr: 0x3A60, symBinAddr: 0x89C0, symSize: 0x20 }
  - { offsetInCU: 0xD66F, offset: 0x27769, size: 0x8, addend: 0x0, symName: __ZNSt3__110shared_ptrI10GameEntityEaSB7v160006ERKS2_, symObjAddr: 0x3B60, symBinAddr: 0x89E0, symSize: 0x50 }
  - { offsetInCU: 0xD6A2, offset: 0x2779C, size: 0x8, addend: 0x0, symName: __ZNSt3__110shared_ptrI10GameEntityE4swapB7v160006ERS2_, symObjAddr: 0x3BB0, symBinAddr: 0x8A30, symSize: 0x40 }
  - { offsetInCU: 0xD6D5, offset: 0x277CF, size: 0x8, addend: 0x0, symName: __ZNSt3__123enable_shared_from_thisI10GameEntityE16shared_from_thisB7v160006Ev, symObjAddr: 0x3C70, symBinAddr: 0x8AF0, symSize: 0x30 }
  - { offsetInCU: 0xD6F9, offset: 0x277F3, size: 0x8, addend: 0x0, symName: __ZNSt3__110shared_ptrI10GameEntityEC1B7v160006IS1_vEERKNS_8weak_ptrIT_EE, symObjAddr: 0x3CA0, symBinAddr: 0x8B20, symSize: 0x30 }
  - { offsetInCU: 0xD73B, offset: 0x27835, size: 0x8, addend: 0x0, symName: __ZNSt3__110shared_ptrI10GameEntityEC2B7v160006IS1_vEERKNS_8weak_ptrIT_EE, symObjAddr: 0x3CD0, symBinAddr: 0x8B50, symSize: 0x80 }
  - { offsetInCU: 0xD791, offset: 0x2788B, size: 0x8, addend: 0x0, symName: __ZNSt3__112bad_weak_ptrC1Ev, symObjAddr: 0x3D90, symBinAddr: 0x8C10, symSize: 0x20 }
  - { offsetInCU: 0xD7B9, offset: 0x278B3, size: 0x8, addend: 0x0, symName: __ZNSt3__112bad_weak_ptrC2Ev, symObjAddr: 0x3DB0, symBinAddr: 0x8C30, symSize: 0x40 }
  - { offsetInCU: 0xD7E1, offset: 0x278DB, size: 0x8, addend: 0x0, symName: __ZNSt9exceptionC2B7v160006Ev, symObjAddr: 0x3DF0, symBinAddr: 0x8C70, symSize: 0x20 }
  - { offsetInCU: 0xD809, offset: 0x27903, size: 0x8, addend: 0x0, symName: __ZNSt3__110shared_ptrI16TextureComponentEC2B7v160006EDn, symObjAddr: 0x3E10, symBinAddr: 0x8C90, symSize: 0x30 }
  - { offsetInCU: 0xD83C, offset: 0x27936, size: 0x8, addend: 0x0, symName: __ZNSt3__110shared_ptrI18TransformComponentEC2B7v160006EDn, symObjAddr: 0x3E40, symBinAddr: 0x8CC0, symSize: 0x30 }
  - { offsetInCU: 0xD86F, offset: 0x27969, size: 0x8, addend: 0x0, symName: __ZNSt3__110shared_ptrI20Collision2DComponentEC2B7v160006EDn, symObjAddr: 0x3E70, symBinAddr: 0x8CF0, symSize: 0x30 }
  - { offsetInCU: 0xD8A2, offset: 0x2799C, size: 0x8, addend: 0x0, symName: __ZNSt3__110shared_ptrI14InputComponentEC2B7v160006EDn, symObjAddr: 0x3EA0, symBinAddr: 0x8D20, symSize: 0x30 }
  - { offsetInCU: 0xD8D5, offset: 0x279CF, size: 0x8, addend: 0x0, symName: __ZNSt3__13mapI13ComponentTypeNS_10shared_ptrI9ComponentEENS_4lessIS1_EENS_9allocatorINS_4pairIKS1_S4_EEEEEC2B7v160006Ev, symObjAddr: 0x4090, symBinAddr: 0x8D50, symSize: 0x30 }
  - { offsetInCU: 0xD8FD, offset: 0x279F7, size: 0x8, addend: 0x0, symName: __ZNSt3__119__map_value_compareI13ComponentTypeNS_12__value_typeIS1_NS_10shared_ptrI9ComponentEEEENS_4lessIS1_EELb1EEC1B7v160006ES8_, symObjAddr: 0x40C0, symBinAddr: 0x8D80, symSize: 0x20 }
  - { offsetInCU: 0xD934, offset: 0x27A2E, size: 0x8, addend: 0x0, symName: __ZNSt3__16__treeINS_12__value_typeI13ComponentTypeNS_10shared_ptrI9ComponentEEEENS_19__map_value_compareIS2_S6_NS_4lessIS2_EELb1EEENS_9allocatorIS6_EEEC1ERKSA_, symObjAddr: 0x40E0, symBinAddr: 0x8DA0, symSize: 0x30 }
  - { offsetInCU: 0xD96E, offset: 0x27A68, size: 0x8, addend: 0x0, symName: __ZNSt3__119__map_value_compareI13ComponentTypeNS_12__value_typeIS1_NS_10shared_ptrI9ComponentEEEENS_4lessIS1_EELb1EEC2B7v160006ES8_, symObjAddr: 0x4110, symBinAddr: 0x8DD0, symSize: 0x10 }
  - { offsetInCU: 0xD9A5, offset: 0x27A9F, size: 0x8, addend: 0x0, symName: __ZNSt3__16__treeINS_12__value_typeI13ComponentTypeNS_10shared_ptrI9ComponentEEEENS_19__map_value_compareIS2_S6_NS_4lessIS2_EELb1EEENS_9allocatorIS6_EEEC2ERKSA_, symObjAddr: 0x4120, symBinAddr: 0x8DE0, symSize: 0x80 }
  - { offsetInCU: 0xD9DF, offset: 0x27AD9, size: 0x8, addend: 0x0, symName: __ZNSt3__117__compressed_pairINS_15__tree_end_nodeIPNS_16__tree_node_baseIPvEEEENS_9allocatorINS_11__tree_nodeINS_12__value_typeI13ComponentTypeNS_10shared_ptrI9ComponentEEEES3_EEEEEC1B7v160006ILb1EvEEv, symObjAddr: 0x41A0, symBinAddr: 0x8E60, symSize: 0x20 }
  - { offsetInCU: 0xDA18, offset: 0x27B12, size: 0x8, addend: 0x0, symName: __ZNSt3__117__compressed_pairImNS_19__map_value_compareI13ComponentTypeNS_12__value_typeIS2_NS_10shared_ptrI9ComponentEEEENS_4lessIS2_EELb1EEEEC1B7v160006IiRKSA_EEOT_OT0_, symObjAddr: 0x41C0, symBinAddr: 0x8E80, symSize: 0x30 }
  - { offsetInCU: 0xDA6E, offset: 0x27B68, size: 0x8, addend: 0x0, symName: __ZNSt3__117__compressed_pairINS_15__tree_end_nodeIPNS_16__tree_node_baseIPvEEEENS_9allocatorINS_11__tree_nodeINS_12__value_typeI13ComponentTypeNS_10shared_ptrI9ComponentEEEES3_EEEEEC2B7v160006ILb1EvEEv, symObjAddr: 0x4230, symBinAddr: 0x8EB0, symSize: 0x30 }
  - { offsetInCU: 0xDAA2, offset: 0x27B9C, size: 0x8, addend: 0x0, symName: __ZNSt3__122__compressed_pair_elemINS_15__tree_end_nodeIPNS_16__tree_node_baseIPvEEEELi0ELb0EEC2B7v160006ENS_16__value_init_tagE, symObjAddr: 0x4260, symBinAddr: 0x8EE0, symSize: 0x20 }
  - { offsetInCU: 0xDAD4, offset: 0x27BCE, size: 0x8, addend: 0x0, symName: __ZNSt3__122__compressed_pair_elemINS_9allocatorINS_11__tree_nodeINS_12__value_typeI13ComponentTypeNS_10shared_ptrI9ComponentEEEEPvEEEELi1ELb1EEC2B7v160006ENS_16__value_init_tagE, symObjAddr: 0x4280, symBinAddr: 0x8F00, symSize: 0x20 }
  - { offsetInCU: 0xDB06, offset: 0x27C00, size: 0x8, addend: 0x0, symName: __ZNSt3__115__tree_end_nodeIPNS_16__tree_node_baseIPvEEEC1B7v160006Ev, symObjAddr: 0x42A0, symBinAddr: 0x8F20, symSize: 0x20 }
  - { offsetInCU: 0xDB2E, offset: 0x27C28, size: 0x8, addend: 0x0, symName: __ZNSt3__115__tree_end_nodeIPNS_16__tree_node_baseIPvEEEC2B7v160006Ev, symObjAddr: 0x42C0, symBinAddr: 0x8F40, symSize: 0x20 }
  - { offsetInCU: 0xDB56, offset: 0x27C50, size: 0x8, addend: 0x0, symName: __ZNSt3__19allocatorINS_11__tree_nodeINS_12__value_typeI13ComponentTypeNS_10shared_ptrI9ComponentEEEEPvEEEC2B7v160006Ev, symObjAddr: 0x42E0, symBinAddr: 0x8F60, symSize: 0x20 }
  - { offsetInCU: 0xDB7E, offset: 0x27C78, size: 0x8, addend: 0x0, symName: __ZNSt3__116__non_trivial_ifILb1ENS_9allocatorINS_11__tree_nodeINS_12__value_typeI13ComponentTypeNS_10shared_ptrI9ComponentEEEEPvEEEEEC2B7v160006Ev, symObjAddr: 0x4300, symBinAddr: 0x8F80, symSize: 0x10 }
  - { offsetInCU: 0xDBA6, offset: 0x27CA0, size: 0x8, addend: 0x0, symName: __ZNSt3__117__compressed_pairImNS_19__map_value_compareI13ComponentTypeNS_12__value_typeIS2_NS_10shared_ptrI9ComponentEEEENS_4lessIS2_EELb1EEEEC2B7v160006IiRKSA_EEOT_OT0_, symObjAddr: 0x4310, symBinAddr: 0x8F90, symSize: 0x40 }
  - { offsetInCU: 0xDBFC, offset: 0x27CF6, size: 0x8, addend: 0x0, symName: __ZNSt3__122__compressed_pair_elemImLi0ELb0EEC2B7v160006IivEEOT_, symObjAddr: 0x4350, symBinAddr: 0x8FD0, symSize: 0x20 }
  - { offsetInCU: 0xDC3D, offset: 0x27D37, size: 0x8, addend: 0x0, symName: __ZNSt3__122__compressed_pair_elemINS_19__map_value_compareI13ComponentTypeNS_12__value_typeIS2_NS_10shared_ptrI9ComponentEEEENS_4lessIS2_EELb1EEELi1ELb1EEC2B7v160006IRKSA_vEEOT_, symObjAddr: 0x4370, symBinAddr: 0x8FF0, symSize: 0x10 }
  - { offsetInCU: 0xDC7E, offset: 0x27D78, size: 0x8, addend: 0x0, symName: __ZNSt3__13mapI13ComponentTypeNS_10shared_ptrI9ComponentEENS_4lessIS1_EENS_9allocatorINS_4pairIKS1_S4_EEEEED2B7v160006Ev, symObjAddr: 0x43C0, symBinAddr: 0x9000, symSize: 0x20 }
  - { offsetInCU: 0xDCA6, offset: 0x27DA0, size: 0x8, addend: 0x0, symName: __ZNSt3__16__treeINS_12__value_typeI13ComponentTypeNS_10shared_ptrI9ComponentEEEENS_19__map_value_compareIS2_S6_NS_4lessIS2_EELb1EEENS_9allocatorIS6_EEED1Ev, symObjAddr: 0x43E0, symBinAddr: 0x9020, symSize: 0x20 }
  - { offsetInCU: 0xDCD1, offset: 0x27DCB, size: 0x8, addend: 0x0, symName: __ZNSt3__16__treeINS_12__value_typeI13ComponentTypeNS_10shared_ptrI9ComponentEEEENS_19__map_value_compareIS2_S6_NS_4lessIS2_EELb1EEENS_9allocatorIS6_EEED2Ev, symObjAddr: 0x4400, symBinAddr: 0x9040, symSize: 0x30 }
  - { offsetInCU: 0xDCFC, offset: 0x27DF6, size: 0x8, addend: 0x0, symName: __ZNSt3__16__treeINS_12__value_typeI13ComponentTypeNS_10shared_ptrI9ComponentEEEENS_19__map_value_compareIS2_S6_NS_4lessIS2_EELb1EEENS_9allocatorIS6_EEE7destroyEPNS_11__tree_nodeIS6_PvEE, symObjAddr: 0x4430, symBinAddr: 0x9070, symSize: 0xB0 }
  - { offsetInCU: 0xDD46, offset: 0x27E40, size: 0x8, addend: 0x0, symName: __ZNSt3__18weak_ptrI10GameEntityED1Ev, symObjAddr: 0x4790, symBinAddr: 0x9120, symSize: 0x20 }
  - { offsetInCU: 0xDD71, offset: 0x27E6B, size: 0x8, addend: 0x0, symName: __ZNSt3__18weak_ptrI10GameEntityED2Ev, symObjAddr: 0x47B0, symBinAddr: 0x9140, symSize: 0x40 }
  - { offsetInCU: 0xDDBF, offset: 0x27EB9, size: 0x8, addend: 0x0, symName: __ZNSt3__19allocatorI18TransformComponentEC1B7v160006Ev, symObjAddr: 0x5E00, symBinAddr: 0x9220, symSize: 0x20 }
  - { offsetInCU: 0xDE05, offset: 0x27EFF, size: 0x8, addend: 0x0, symName: __ZNSt3__118__allocation_guardINS_9allocatorINS_20__shared_ptr_emplaceI18TransformComponentNS1_IS3_EEEEEEEC1B7v160006IS4_EET_m, symObjAddr: 0x5E20, symBinAddr: 0x9240, symSize: 0x30 }
  - { offsetInCU: 0xDE52, offset: 0x27F4C, size: 0x8, addend: 0x0, symName: __ZNKSt3__118__allocation_guardINS_9allocatorINS_20__shared_ptr_emplaceI18TransformComponentNS1_IS3_EEEEEEE5__getB7v160006Ev, symObjAddr: 0x5E50, symBinAddr: 0x9270, symSize: 0x20 }
  - { offsetInCU: 0xDE76, offset: 0x27F70, size: 0x8, addend: 0x0, symName: __ZNSt3__120__shared_ptr_emplaceI18TransformComponentNS_9allocatorIS1_EEEC1B7v160006IJEEES3_DpOT_, symObjAddr: 0x5E70, symBinAddr: 0x9290, symSize: 0x20 }
  - { offsetInCU: 0xDEB3, offset: 0x27FAD, size: 0x8, addend: 0x0, symName: __ZNSt3__118__allocation_guardINS_9allocatorINS_20__shared_ptr_emplaceI18TransformComponentNS1_IS3_EEEEEEE13__release_ptrB7v160006Ev, symObjAddr: 0x5E90, symBinAddr: 0x92B0, symSize: 0x30 }
  - { offsetInCU: 0xDEE5, offset: 0x27FDF, size: 0x8, addend: 0x0, symName: __ZNSt3__110shared_ptrI18TransformComponentE27__create_with_control_blockB7v160006IS1_NS_20__shared_ptr_emplaceIS1_NS_9allocatorIS1_EEEEEES2_PT_PT0_, symObjAddr: 0x5EC0, symBinAddr: 0x92E0, symSize: 0x70 }
  - { offsetInCU: 0xDF39, offset: 0x28033, size: 0x8, addend: 0x0, symName: __ZNSt3__120__shared_ptr_emplaceI18TransformComponentNS_9allocatorIS1_EEE10__get_elemB7v160006Ev, symObjAddr: 0x5F30, symBinAddr: 0x9350, symSize: 0x20 }
  - { offsetInCU: 0xDF5D, offset: 0x28057, size: 0x8, addend: 0x0, symName: __ZNSt3__118__allocation_guardINS_9allocatorINS_20__shared_ptr_emplaceI18TransformComponentNS1_IS3_EEEEEEED1B7v160006Ev, symObjAddr: 0x5F50, symBinAddr: 0x9370, symSize: 0x20 }
  - { offsetInCU: 0xDF85, offset: 0x2807F, size: 0x8, addend: 0x0, symName: __ZNSt3__118__allocation_guardINS_9allocatorINS_20__shared_ptr_emplaceI18TransformComponentNS1_IS3_EEEEEEEC2B7v160006IS4_EET_m, symObjAddr: 0x5F70, symBinAddr: 0x9390, symSize: 0x50 }
  - { offsetInCU: 0xDFD2, offset: 0x280CC, size: 0x8, addend: 0x0, symName: __ZNSt3__19allocatorINS_20__shared_ptr_emplaceI18TransformComponentNS0_IS2_EEEEEC1B7v160006IS2_EERKNS0_IT_EE, symObjAddr: 0x5FC0, symBinAddr: 0x93E0, symSize: 0x30 }
  - { offsetInCU: 0xE00D, offset: 0x28107, size: 0x8, addend: 0x0, symName: __ZNSt3__116allocator_traitsINS_9allocatorINS_20__shared_ptr_emplaceI18TransformComponentNS1_IS3_EEEEEEE8allocateB7v160006ERS6_m, symObjAddr: 0x5FF0, symBinAddr: 0x9410, symSize: 0x30 }
  - { offsetInCU: 0xE03F, offset: 0x28139, size: 0x8, addend: 0x0, symName: __ZNSt3__19allocatorINS_20__shared_ptr_emplaceI18TransformComponentNS0_IS2_EEEEEC2B7v160006IS2_EERKNS0_IT_EE, symObjAddr: 0x6020, symBinAddr: 0x9440, symSize: 0x20 }
  - { offsetInCU: 0xE07A, offset: 0x28174, size: 0x8, addend: 0x0, symName: __ZNSt3__116__non_trivial_ifILb1ENS_9allocatorINS_20__shared_ptr_emplaceI18TransformComponentNS1_IS3_EEEEEEEC2B7v160006Ev, symObjAddr: 0x6040, symBinAddr: 0x9460, symSize: 0x10 }
  - { offsetInCU: 0xE0A2, offset: 0x2819C, size: 0x8, addend: 0x0, symName: __ZNSt3__19allocatorINS_20__shared_ptr_emplaceI18TransformComponentNS0_IS2_EEEEE8allocateB7v160006Em, symObjAddr: 0x6050, symBinAddr: 0x9470, symSize: 0x50 }
  - { offsetInCU: 0xE0DE, offset: 0x281D8, size: 0x8, addend: 0x0, symName: __ZNSt3__116allocator_traitsINS_9allocatorINS_20__shared_ptr_emplaceI18TransformComponentNS1_IS3_EEEEEEE8max_sizeB7v160006IS6_vvEEmRKS6_, symObjAddr: 0x60A0, symBinAddr: 0x94C0, symSize: 0x20 }
  - { offsetInCU: 0xE10A, offset: 0x28204, size: 0x8, addend: 0x0, symName: __ZNSt3__120__shared_ptr_emplaceI18TransformComponentNS_9allocatorIS1_EEEC2B7v160006IJEEES3_DpOT_, symObjAddr: 0x60C0, symBinAddr: 0x94E0, symSize: 0xB0 }
  - { offsetInCU: 0xE168, offset: 0x28262, size: 0x8, addend: 0x0, symName: __ZNSt3__119__shared_weak_countC2B7v160006El, symObjAddr: 0x6170, symBinAddr: 0x9590, symSize: 0x50 }
  - { offsetInCU: 0xE19E, offset: 0x28298, size: 0x8, addend: 0x0, symName: __ZNSt3__120__shared_ptr_emplaceI18TransformComponentNS_9allocatorIS1_EEE8_StorageC1B7v160006EOS3_, symObjAddr: 0x61C0, symBinAddr: 0x95E0, symSize: 0x30 }
  - { offsetInCU: 0xE1D5, offset: 0x282CF, size: 0x8, addend: 0x0, symName: __ZNSt3__120__shared_ptr_emplaceI18TransformComponentNS_9allocatorIS1_EEE11__get_allocB7v160006Ev, symObjAddr: 0x61F0, symBinAddr: 0x9610, symSize: 0x20 }
  - { offsetInCU: 0xE1FE, offset: 0x282F8, size: 0x8, addend: 0x0, symName: __ZNSt3__116allocator_traitsINS_9allocatorI18TransformComponentEEE9constructB7v160006IS2_JEvvEEvRS3_PT_DpOT0_, symObjAddr: 0x6210, symBinAddr: 0x9630, symSize: 0x20 }
  - { offsetInCU: 0xE23F, offset: 0x28339, size: 0x8, addend: 0x0, symName: __ZNSt3__120__shared_ptr_emplaceI18TransformComponentNS_9allocatorIS1_EEE8_StorageD1B7v160006Ev, symObjAddr: 0x6230, symBinAddr: 0x9650, symSize: 0x20 }
  - { offsetInCU: 0xE267, offset: 0x28361, size: 0x8, addend: 0x0, symName: __ZNSt3__120__shared_ptr_emplaceI18TransformComponentNS_9allocatorIS1_EEED1Ev, symObjAddr: 0x6250, symBinAddr: 0x9670, symSize: 0x20 }
  - { offsetInCU: 0xE293, offset: 0x2838D, size: 0x8, addend: 0x0, symName: __ZNSt3__120__shared_ptr_emplaceI18TransformComponentNS_9allocatorIS1_EEED0Ev, symObjAddr: 0x6270, symBinAddr: 0x9690, symSize: 0x30 }
  - { offsetInCU: 0xE2BF, offset: 0x283B9, size: 0x8, addend: 0x0, symName: __ZNSt3__120__shared_ptr_emplaceI18TransformComponentNS_9allocatorIS1_EEE16__on_zero_sharedEv, symObjAddr: 0x62A0, symBinAddr: 0x96C0, symSize: 0x50 }
  - { offsetInCU: 0xE304, offset: 0x283FE, size: 0x8, addend: 0x0, symName: __ZNSt3__120__shared_ptr_emplaceI18TransformComponentNS_9allocatorIS1_EEE21__on_zero_shared_weakEv, symObjAddr: 0x62F0, symBinAddr: 0x9710, symSize: 0x60 }
  - { offsetInCU: 0xE343, offset: 0x2843D, size: 0x8, addend: 0x0, symName: __ZNSt3__114__shared_countC2B7v160006El, symObjAddr: 0x6350, symBinAddr: 0x9770, symSize: 0x30 }
  - { offsetInCU: 0xE379, offset: 0x28473, size: 0x8, addend: 0x0, symName: __ZNSt3__120__shared_ptr_emplaceI18TransformComponentNS_9allocatorIS1_EEE8_StorageC2B7v160006EOS3_, symObjAddr: 0x6380, symBinAddr: 0x97A0, symSize: 0x20 }
  - { offsetInCU: 0xE3B0, offset: 0x284AA, size: 0x8, addend: 0x0, symName: __ZNSt3__120__shared_ptr_emplaceI18TransformComponentNS_9allocatorIS1_EEE8_Storage11__get_allocEv, symObjAddr: 0x63A0, symBinAddr: 0x97C0, symSize: 0x40 }
  - { offsetInCU: 0xE401, offset: 0x284FB, size: 0x8, addend: 0x0, symName: __ZNSt3__117__compressed_pairINS_9allocatorI18TransformComponentEES2_E16__get_first_baseB7v160006EPS4_, symObjAddr: 0x63E0, symBinAddr: 0x9800, symSize: 0x10 }
  - { offsetInCU: 0xE423, offset: 0x2851D, size: 0x8, addend: 0x0, symName: __ZNSt3__120__shared_ptr_emplaceI18TransformComponentNS_9allocatorIS1_EEE8_StorageD2B7v160006Ev, symObjAddr: 0x6420, symBinAddr: 0x9840, symSize: 0x20 }
  - { offsetInCU: 0xE44B, offset: 0x28545, size: 0x8, addend: 0x0, symName: __ZNSt3__120__shared_ptr_emplaceI18TransformComponentNS_9allocatorIS1_EEED2Ev, symObjAddr: 0x6440, symBinAddr: 0x9860, symSize: 0x40 }
  - { offsetInCU: 0xE477, offset: 0x28571, size: 0x8, addend: 0x0, symName: __ZNSt3__116allocator_traitsINS_9allocatorI18TransformComponentEEE7destroyB7v160006IS2_vvEEvRS3_PT_, symObjAddr: 0x6480, symBinAddr: 0x98A0, symSize: 0x20 }
  - { offsetInCU: 0xE4B2, offset: 0x285AC, size: 0x8, addend: 0x0, symName: __ZNSt3__116allocator_traitsINS_9allocatorINS_20__shared_ptr_emplaceI18TransformComponentNS1_IS3_EEEEEEE10deallocateB7v160006ERS6_PS5_m, symObjAddr: 0x64E0, symBinAddr: 0x9900, symSize: 0x30 }
  - { offsetInCU: 0xE4F8, offset: 0x285F2, size: 0x8, addend: 0x0, symName: __ZNSt3__114pointer_traitsIPNS_20__shared_ptr_emplaceI18TransformComponentNS_9allocatorIS2_EEEEE10pointer_toB7v160006ERS5_, symObjAddr: 0x6510, symBinAddr: 0x9930, symSize: 0x10 }
  - { offsetInCU: 0xE51A, offset: 0x28614, size: 0x8, addend: 0x0, symName: __ZNSt3__19allocatorINS_20__shared_ptr_emplaceI18TransformComponentNS0_IS2_EEEEE10deallocateB7v160006EPS4_m, symObjAddr: 0x6520, symBinAddr: 0x9940, symSize: 0x40 }
  - { offsetInCU: 0xE55A, offset: 0x28654, size: 0x8, addend: 0x0, symName: __ZNSt3__110shared_ptrI18TransformComponentEC1B7v160006Ev, symObjAddr: 0x6560, symBinAddr: 0x9980, symSize: 0x20 }
  - { offsetInCU: 0xE582, offset: 0x2867C, size: 0x8, addend: 0x0, symName: __ZNSt3__110shared_ptrI18TransformComponentE18__enable_weak_thisB7v160006Ez, symObjAddr: 0x6580, symBinAddr: 0x99A0, symSize: 0x10 }
  - { offsetInCU: 0xE5A7, offset: 0x286A1, size: 0x8, addend: 0x0, symName: __ZNSt3__110shared_ptrI18TransformComponentEC2B7v160006Ev, symObjAddr: 0x6590, symBinAddr: 0x99B0, symSize: 0x20 }
  - { offsetInCU: 0xE5CF, offset: 0x286C9, size: 0x8, addend: 0x0, symName: __ZNSt3__120__shared_ptr_emplaceI18TransformComponentNS_9allocatorIS1_EEE8_Storage10__get_elemEv, symObjAddr: 0x65B0, symBinAddr: 0x99D0, symSize: 0x40 }
  - { offsetInCU: 0xE620, offset: 0x2871A, size: 0x8, addend: 0x0, symName: __ZNSt3__117__compressed_pairINS_9allocatorI18TransformComponentEES2_E17__get_second_baseB7v160006EPS4_, symObjAddr: 0x65F0, symBinAddr: 0x9A10, symSize: 0x10 }
  - { offsetInCU: 0xE642, offset: 0x2873C, size: 0x8, addend: 0x0, symName: __ZNSt3__118__allocation_guardINS_9allocatorINS_20__shared_ptr_emplaceI18TransformComponentNS1_IS3_EEEEEEED2B7v160006Ev, symObjAddr: 0x6600, symBinAddr: 0x9A20, symSize: 0x40 }
  - { offsetInCU: 0xE66A, offset: 0x28764, size: 0x8, addend: 0x0, symName: __ZNSt3__19allocatorI18TransformComponentEC2B7v160006Ev, symObjAddr: 0x6640, symBinAddr: 0x9A60, symSize: 0x20 }
  - { offsetInCU: 0xE692, offset: 0x2878C, size: 0x8, addend: 0x0, symName: __ZNSt3__116__non_trivial_ifILb1ENS_9allocatorI18TransformComponentEEEC2B7v160006Ev, symObjAddr: 0x6660, symBinAddr: 0x9A80, symSize: 0x10 }
  - { offsetInCU: 0xE6BA, offset: 0x287B4, size: 0x8, addend: 0x0, symName: __ZNSt3__110shared_ptrI18TransformComponentEC2B7v160006ERKS2_, symObjAddr: 0x66B0, symBinAddr: 0x9A90, symSize: 0x50 }
  - { offsetInCU: 0xE6F1, offset: 0x287EB, size: 0x8, addend: 0x0, symName: __ZNSt3__110shared_ptrI20Collision2DComponentED2B7v160006Ev, symObjAddr: 0x6700, symBinAddr: 0x9AE0, symSize: 0x40 }
  - { offsetInCU: 0xE719, offset: 0x28813, size: 0x8, addend: 0x0, symName: __ZNSt3__16__treeINS_12__value_typeI13ComponentTypeNS_10shared_ptrI9ComponentEEEENS_19__map_value_compareIS2_S6_NS_4lessIS2_EELb1EEENS_9allocatorIS6_EEE25__emplace_unique_key_argsIS2_JRKNS_21piecewise_construct_tENS_5tupleIJOS2_EEENSI_IJEEEEEENS_4pairINS_15__tree_iteratorIS6_PNS_11__tree_nodeIS6_PvEElEEbEERKT_DpOT0_, symObjAddr: 0x6740, symBinAddr: 0x9B20, symSize: 0x100 }
  - { offsetInCU: 0xE7F6, offset: 0x288F0, size: 0x8, addend: 0x0, symName: __ZNSt3__16__treeINS_12__value_typeI13ComponentTypeNS_10shared_ptrI9ComponentEEEENS_19__map_value_compareIS2_S6_NS_4lessIS2_EELb1EEENS_9allocatorIS6_EEE16__construct_nodeIJRKNS_21piecewise_construct_tENS_5tupleIJOS2_EEENSI_IJEEEEEENS_10unique_ptrINS_11__tree_nodeIS6_PvEENS_22__tree_node_destructorINSB_ISP_EEEEEEDpOT_, symObjAddr: 0x6870, symBinAddr: 0x9C50, symSize: 0x120 }
  - { offsetInCU: 0xE87D, offset: 0x28977, size: 0x8, addend: 0x0, symName: __ZNSt3__116allocator_traitsINS_9allocatorINS_11__tree_nodeINS_12__value_typeI13ComponentTypeNS_10shared_ptrI9ComponentEEEEPvEEEEE9constructB7v160006INS_4pairIKS4_S7_EEJRKNS_21piecewise_construct_tENS_5tupleIJOS4_EEENSK_IJEEEEvvEEvRSB_PT_DpOT0_, symObjAddr: 0x6990, symBinAddr: 0x9D70, symSize: 0x40 }
  - { offsetInCU: 0xE8FA, offset: 0x289F4, size: 0x8, addend: 0x0, symName: __ZNSt3__14pairIK13ComponentTypeNS_10shared_ptrI9ComponentEEEC1B7v160006IJOS1_EJEEENS_21piecewise_construct_tENS_5tupleIJDpT_EEENSA_IJDpT0_EEE, symObjAddr: 0x6A20, symBinAddr: 0x9E00, symSize: 0x40 }
  - { offsetInCU: 0xE960, offset: 0x28A5A, size: 0x8, addend: 0x0, symName: __ZNSt3__14pairIK13ComponentTypeNS_10shared_ptrI9ComponentEEEC1B7v160006IJOS1_EJEJLm0EEJEEENS_21piecewise_construct_tERNS_5tupleIJDpT_EEERNSA_IJDpT0_EEENS_15__tuple_indicesIJXspT1_EEEENSJ_IJXspT2_EEEE, symObjAddr: 0x6A60, symBinAddr: 0x9E40, symSize: 0x30 }
  - { offsetInCU: 0xE9EF, offset: 0x28AE9, size: 0x8, addend: 0x0, symName: __ZNSt3__14pairIK13ComponentTypeNS_10shared_ptrI9ComponentEEEC2B7v160006IJOS1_EJEJLm0EEJEEENS_21piecewise_construct_tERNS_5tupleIJDpT_EEERNSA_IJDpT0_EEENS_15__tuple_indicesIJXspT1_EEEENSJ_IJXspT2_EEEE, symObjAddr: 0x6A90, symBinAddr: 0x9E70, symSize: 0x40 }
  - { offsetInCU: 0xEA7E, offset: 0x28B78, size: 0x8, addend: 0x0, symName: __ZNSt3__112__tuple_leafILm0EO13ComponentTypeLb0EE3getB7v160006Ev, symObjAddr: 0x6AF0, symBinAddr: 0x9ED0, symSize: 0x20 }
  - { offsetInCU: 0xEAA2, offset: 0x28B9C, size: 0x8, addend: 0x0, symName: __ZNSt3__15tupleIJO13ComponentTypeEEC1B7v160006IJS1_ELi0EEEDpOT_, symObjAddr: 0x6B10, symBinAddr: 0x9EF0, symSize: 0x30 }
  - { offsetInCU: 0xEAEB, offset: 0x28BE5, size: 0x8, addend: 0x0, symName: __ZNSt3__15tupleIJO13ComponentTypeEEC2B7v160006IJS1_ELi0EEEDpOT_, symObjAddr: 0x6B40, symBinAddr: 0x9F20, symSize: 0x30 }
  - { offsetInCU: 0xEB34, offset: 0x28C2E, size: 0x8, addend: 0x0, symName: __ZNSt3__112__tuple_implINS_15__tuple_indicesIJLm0EEEEJO13ComponentTypeEEC1B7v160006IJLm0EEJS4_EJEJEJS3_EEENS1_IJXspT_EEEENS_13__tuple_typesIJDpT0_EEENS1_IJXspT1_EEEENS8_IJDpT2_EEEDpOT3_, symObjAddr: 0x6B70, symBinAddr: 0x9F50, symSize: 0x30 }
  - { offsetInCU: 0xEBC6, offset: 0x28CC0, size: 0x8, addend: 0x0, symName: __ZNSt3__112__tuple_implINS_15__tuple_indicesIJLm0EEEEJO13ComponentTypeEEC2B7v160006IJLm0EEJS4_EJEJEJS3_EEENS1_IJXspT_EEEENS_13__tuple_typesIJDpT0_EEENS1_IJXspT1_EEEENS8_IJDpT2_EEEDpOT3_, symObjAddr: 0x6BA0, symBinAddr: 0x9F80, symSize: 0x30 }
  - { offsetInCU: 0xEC58, offset: 0x28D52, size: 0x8, addend: 0x0, symName: __ZNSt3__112__tuple_leafILm0EO13ComponentTypeLb0EEC2B7v160006IS1_vEEOT_, symObjAddr: 0x6BD0, symBinAddr: 0x9FB0, symSize: 0x20 }
  - { offsetInCU: 0xEC9A, offset: 0x28D94, size: 0x8, addend: 0x0, symName: __ZNSt3__110shared_ptrI9ComponentEC1B7v160006I16TextureComponentvEERKNS0_IT_EE, symObjAddr: 0x6BF0, symBinAddr: 0x9FD0, symSize: 0x30 }
  - { offsetInCU: 0xECDC, offset: 0x28DD6, size: 0x8, addend: 0x0, symName: __ZNSt3__110shared_ptrI9ComponentE4swapB7v160006ERS2_, symObjAddr: 0x6C20, symBinAddr: 0xA000, symSize: 0x40 }
  - { offsetInCU: 0xED0F, offset: 0x28E09, size: 0x8, addend: 0x0, symName: __ZNSt3__110shared_ptrI9ComponentEC2B7v160006I16TextureComponentvEERKNS0_IT_EE, symObjAddr: 0x6C60, symBinAddr: 0xA040, symSize: 0x50 }
  - { offsetInCU: 0xED51, offset: 0x28E4B, size: 0x8, addend: 0x0, symName: __ZNSt3__110shared_ptrI9ComponentEC1B7v160006I18TransformComponentvEERKNS0_IT_EE, symObjAddr: 0x6CF0, symBinAddr: 0xA0D0, symSize: 0x30 }
  - { offsetInCU: 0xED93, offset: 0x28E8D, size: 0x8, addend: 0x0, symName: __ZNSt3__110shared_ptrI9ComponentEC2B7v160006I18TransformComponentvEERKNS0_IT_EE, symObjAddr: 0x6D20, symBinAddr: 0xA100, symSize: 0x50 }
  - { offsetInCU: 0xEDD5, offset: 0x28ECF, size: 0x8, addend: 0x0, symName: __ZNSt3__110shared_ptrI9ComponentEC1B7v160006I20Collision2DComponentvEERKNS0_IT_EE, symObjAddr: 0x6D70, symBinAddr: 0xA150, symSize: 0x30 }
  - { offsetInCU: 0xEE17, offset: 0x28F11, size: 0x8, addend: 0x0, symName: __ZNSt3__110shared_ptrI9ComponentEC2B7v160006I20Collision2DComponentvEERKNS0_IT_EE, symObjAddr: 0x6DA0, symBinAddr: 0xA180, symSize: 0x50 }
  - { offsetInCU: 0xEE59, offset: 0x28F53, size: 0x8, addend: 0x0, symName: __ZNSt3__110shared_ptrI9ComponentEC1B7v160006I14InputComponentvEERKNS0_IT_EE, symObjAddr: 0x6DF0, symBinAddr: 0xA1D0, symSize: 0x30 }
  - { offsetInCU: 0xEE9B, offset: 0x28F95, size: 0x8, addend: 0x0, symName: __ZNSt3__110shared_ptrI9ComponentEC2B7v160006I14InputComponentvEERKNS0_IT_EE, symObjAddr: 0x6E20, symBinAddr: 0xA200, symSize: 0x50 }
  - { offsetInCU: 0xEEDD, offset: 0x28FD7, size: 0x8, addend: 0x0, symName: __ZNSt3__16__treeINS_12__value_typeI13ComponentTypeNS_10shared_ptrI9ComponentEEEENS_19__map_value_compareIS2_S6_NS_4lessIS2_EELb1EEENS_9allocatorIS6_EEE4findIS2_EENS_15__tree_iteratorIS6_PNS_11__tree_nodeIS6_PvEElEERKT_, symObjAddr: 0x6E70, symBinAddr: 0xA250, symSize: 0xE0 }
  - { offsetInCU: 0xEF2A, offset: 0x29024, size: 0x8, addend: 0x0, symName: __ZNSt3__16__treeINS_12__value_typeI13ComponentTypeNS_10shared_ptrI9ComponentEEEENS_19__map_value_compareIS2_S6_NS_4lessIS2_EELb1EEENS_9allocatorIS6_EEE13__lower_boundIS2_EENS_15__tree_iteratorIS6_PNS_11__tree_nodeIS6_PvEElEERKT_SJ_PNS_15__tree_end_nodeIPNS_16__tree_node_baseISH_EEEE, symObjAddr: 0x6F50, symBinAddr: 0xA330, symSize: 0x90 }
  - { offsetInCU: 0xEF86, offset: 0x29080, size: 0x8, addend: 0x0, symName: __ZNKSt3__115__tree_iteratorINS_12__value_typeI13ComponentTypeNS_10shared_ptrI9ComponentEEEEPNS_11__tree_nodeIS6_PvEElEdeB7v160006Ev, symObjAddr: 0x6FE0, symBinAddr: 0xA3C0, symSize: 0x20 }
  - { offsetInCU: 0xEFAA, offset: 0x290A4, size: 0x8, addend: 0x0, symName: __ZNSt3__114pointer_traitsIPNS_4pairIK13ComponentTypeNS_10shared_ptrI9ComponentEEEEE10pointer_toB7v160006ERS7_, symObjAddr: 0x7000, symBinAddr: 0xA3E0, symSize: 0x10 }
  - { offsetInCU: 0xEFCC, offset: 0x290C6, size: 0x8, addend: 0x0, symName: __ZNKSt3__110shared_ptrI9ComponentE3getB7v160006Ev, symObjAddr: 0x7010, symBinAddr: 0xA3F0, symSize: 0x20 }
  - { offsetInCU: 0xEFF0, offset: 0x290EA, size: 0x8, addend: 0x0, symName: __ZNSt3__110shared_ptrI16TextureComponentEC1B7v160006I9ComponentEERKNS0_IT_EEPS1_, symObjAddr: 0x7030, symBinAddr: 0xA410, symSize: 0x30 }
  - { offsetInCU: 0xF03F, offset: 0x29139, size: 0x8, addend: 0x0, symName: __ZNSt3__110shared_ptrI16TextureComponentEC1B7v160006Ev, symObjAddr: 0x7060, symBinAddr: 0xA440, symSize: 0x20 }
  - { offsetInCU: 0xF067, offset: 0x29161, size: 0x8, addend: 0x0, symName: __ZNSt3__110shared_ptrI16TextureComponentEC2B7v160006I9ComponentEERKNS0_IT_EEPS1_, symObjAddr: 0x7080, symBinAddr: 0xA460, symSize: 0x50 }
  - { offsetInCU: 0xF0B6, offset: 0x291B0, size: 0x8, addend: 0x0, symName: __ZNSt3__110shared_ptrI16TextureComponentEC2B7v160006Ev, symObjAddr: 0x70D0, symBinAddr: 0xA4B0, symSize: 0x20 }
  - { offsetInCU: 0xF0DE, offset: 0x291D8, size: 0x8, addend: 0x0, symName: __ZNSt3__110shared_ptrI18TransformComponentEC1B7v160006I9ComponentEERKNS0_IT_EEPS1_, symObjAddr: 0x70F0, symBinAddr: 0xA4D0, symSize: 0x30 }
  - { offsetInCU: 0xF12D, offset: 0x29227, size: 0x8, addend: 0x0, symName: __ZNSt3__110shared_ptrI18TransformComponentEC2B7v160006I9ComponentEERKNS0_IT_EEPS1_, symObjAddr: 0x7120, symBinAddr: 0xA500, symSize: 0x50 }
  - { offsetInCU: 0xF17C, offset: 0x29276, size: 0x8, addend: 0x0, symName: __ZNSt3__110shared_ptrI20Collision2DComponentEC1B7v160006I9ComponentEERKNS0_IT_EEPS1_, symObjAddr: 0x7170, symBinAddr: 0xA550, symSize: 0x30 }
  - { offsetInCU: 0xF1CB, offset: 0x292C5, size: 0x8, addend: 0x0, symName: __ZNSt3__110shared_ptrI20Collision2DComponentEC1B7v160006Ev, symObjAddr: 0x71A0, symBinAddr: 0xA580, symSize: 0x20 }
  - { offsetInCU: 0xF1F3, offset: 0x292ED, size: 0x8, addend: 0x0, symName: __ZNSt3__110shared_ptrI20Collision2DComponentEC2B7v160006I9ComponentEERKNS0_IT_EEPS1_, symObjAddr: 0x71C0, symBinAddr: 0xA5A0, symSize: 0x50 }
  - { offsetInCU: 0xF242, offset: 0x2933C, size: 0x8, addend: 0x0, symName: __ZNSt3__110shared_ptrI20Collision2DComponentEC2B7v160006Ev, symObjAddr: 0x7210, symBinAddr: 0xA5F0, symSize: 0x20 }
  - { offsetInCU: 0xF26A, offset: 0x29364, size: 0x8, addend: 0x0, symName: __ZNSt3__110shared_ptrI14InputComponentEC1B7v160006I9ComponentEERKNS0_IT_EEPS1_, symObjAddr: 0x7230, symBinAddr: 0xA610, symSize: 0x30 }
  - { offsetInCU: 0xF2B9, offset: 0x293B3, size: 0x8, addend: 0x0, symName: __ZNSt3__110shared_ptrI14InputComponentEC1B7v160006Ev, symObjAddr: 0x7260, symBinAddr: 0xA640, symSize: 0x20 }
  - { offsetInCU: 0xF2E1, offset: 0x293DB, size: 0x8, addend: 0x0, symName: __ZNSt3__110shared_ptrI14InputComponentEC2B7v160006I9ComponentEERKNS0_IT_EEPS1_, symObjAddr: 0x7280, symBinAddr: 0xA660, symSize: 0x50 }
  - { offsetInCU: 0xF330, offset: 0x2942A, size: 0x8, addend: 0x0, symName: __ZNSt3__110shared_ptrI14InputComponentEC2B7v160006Ev, symObjAddr: 0x72D0, symBinAddr: 0xA6B0, symSize: 0x1D }
  - { offsetInCU: 0x26, offset: 0x29594, size: 0x8, addend: 0x0, symName: __ZN14InputComponentC2Ev, symObjAddr: 0x0, symBinAddr: 0xA6D0, symSize: 0x40 }
  - { offsetInCU: 0x2916, offset: 0x2BE84, size: 0x8, addend: 0x0, symName: __ZN14InputComponentC2Ev, symObjAddr: 0x0, symBinAddr: 0xA6D0, symSize: 0x40 }
  - { offsetInCU: 0x2940, offset: 0x2BEAE, size: 0x8, addend: 0x0, symName: __ZN14InputComponentC1Ev, symObjAddr: 0x70, symBinAddr: 0xA710, symSize: 0x20 }
  - { offsetInCU: 0x296A, offset: 0x2BED8, size: 0x8, addend: 0x0, symName: __ZN14InputComponentD2Ev, symObjAddr: 0x90, symBinAddr: 0xA730, symSize: 0x20 }
  - { offsetInCU: 0x2994, offset: 0x2BF02, size: 0x8, addend: 0x0, symName: __ZN14InputComponentD1Ev, symObjAddr: 0xE0, symBinAddr: 0xA750, symSize: 0x20 }
  - { offsetInCU: 0x29BE, offset: 0x2BF2C, size: 0x8, addend: 0x0, symName: __ZN14InputComponentD0Ev, symObjAddr: 0x100, symBinAddr: 0xA770, symSize: 0x30 }
  - { offsetInCU: 0x29E8, offset: 0x2BF56, size: 0x8, addend: 0x0, symName: __ZN14InputComponent7GetTypeEv, symObjAddr: 0x130, symBinAddr: 0xA7A0, symSize: 0x10 }
  - { offsetInCU: 0x2A0E, offset: 0x2BF7C, size: 0x8, addend: 0x0, symName: __ZN14InputComponent5InputEf, symObjAddr: 0x140, symBinAddr: 0xA7B0, symSize: 0x2C0 }
  - { offsetInCU: 0x2A81, offset: 0x2BFEF, size: 0x8, addend: 0x0, symName: __ZN14InputComponent6UpdateEf, symObjAddr: 0x590, symBinAddr: 0xAA70, symSize: 0x10 }
  - { offsetInCU: 0x2AB5, offset: 0x2C023, size: 0x8, addend: 0x0, symName: __ZN14InputComponent6RenderEP12SDL_Renderer, symObjAddr: 0x5A0, symBinAddr: 0xAA80, symSize: 0x10 }
  - { offsetInCU: 0x49, offset: 0x2C0AF, size: 0x8, addend: 0x0, symName: __ZNSt3__1L19piecewise_constructE, symObjAddr: 0x260D, symBinAddr: 0x62F9D, symSize: 0x0 }
  - { offsetInCU: 0x5061, offset: 0x310C7, size: 0x8, addend: 0x0, symName: __ZN10ProjectileC2Ev, symObjAddr: 0x0, symBinAddr: 0xAA90, symSize: 0x80 }
  - { offsetInCU: 0x508B, offset: 0x310F1, size: 0x8, addend: 0x0, symName: __ZN10ProjectileC1Ev, symObjAddr: 0x80, symBinAddr: 0xAB10, symSize: 0x20 }
  - { offsetInCU: 0x50B6, offset: 0x3111C, size: 0x8, addend: 0x0, symName: __ZN10Projectile6LaunchEffbi, symObjAddr: 0xA0, symBinAddr: 0xAB30, symSize: 0x130 }
  - { offsetInCU: 0x5136, offset: 0x3119C, size: 0x8, addend: 0x0, symName: __ZN10Projectile5InputEf, symObjAddr: 0x250, symBinAddr: 0xAC60, symSize: 0xC0 }
  - { offsetInCU: 0x51D2, offset: 0x31238, size: 0x8, addend: 0x0, symName: __ZN10Projectile6UpdateEf, symObjAddr: 0x4D0, symBinAddr: 0xAD20, symSize: 0x2B0 }
  - { offsetInCU: 0x5280, offset: 0x312E6, size: 0x8, addend: 0x0, symName: __ZN10Projectile6RenderEP12SDL_Renderer, symObjAddr: 0x780, symBinAddr: 0xAFD0, symSize: 0xD0 }
  - { offsetInCU: 0x531B, offset: 0x31381, size: 0x8, addend: 0x0, symName: __ZN10ProjectileD1Ev, symObjAddr: 0x850, symBinAddr: 0xB0A0, symSize: 0x20 }
  - { offsetInCU: 0x5345, offset: 0x313AB, size: 0x8, addend: 0x0, symName: __ZN10ProjectileD0Ev, symObjAddr: 0x870, symBinAddr: 0xB0C0, symSize: 0x30 }
  - { offsetInCU: 0x536F, offset: 0x313D5, size: 0x8, addend: 0x0, symName: __ZN10ProjectileD2Ev, symObjAddr: 0x8D0, symBinAddr: 0xB0F0, symSize: 0x20 }
  - { offsetInCU: 0x329C, offset: 0x346BE, size: 0x8, addend: 0x0, symName: __Z19make_shared_textureP12SDL_RendererP11SDL_Surface, symObjAddr: 0x0, symBinAddr: 0xB110, symSize: 0x70 }
  - { offsetInCU: 0x335F, offset: 0x34781, size: 0x8, addend: 0x0, symName: __ZNSt3__110shared_ptrI11SDL_TextureEC1B7v160006IS1_21TextureFunctorDeletervEEPT_T0_, symObjAddr: 0x70, symBinAddr: 0xB180, symSize: 0x30 }
  - { offsetInCU: 0x33B9, offset: 0x347DB, size: 0x8, addend: 0x0, symName: __ZNSt3__110shared_ptrI11SDL_TextureEC2B7v160006IS1_21TextureFunctorDeletervEEPT_T0_, symObjAddr: 0xA0, symBinAddr: 0xB1B0, symSize: 0x100 }
  - { offsetInCU: 0x341D, offset: 0x3483F, size: 0x8, addend: 0x0, symName: __ZNSt3__19allocatorI11SDL_TextureEC1B7v160006Ev, symObjAddr: 0x1A0, symBinAddr: 0xB2B0, symSize: 0x20 }
  - { offsetInCU: 0x3503, offset: 0x34925, size: 0x8, addend: 0x0, symName: __ZNSt3__120__shared_ptr_pointerIP11SDL_Texture21TextureFunctorDeleterNS_9allocatorIS1_EEEC1B7v160006ES2_S3_S5_, symObjAddr: 0x1C0, symBinAddr: 0xB2D0, symSize: 0x30 }
  - { offsetInCU: 0x3555, offset: 0x34977, size: 0x8, addend: 0x0, symName: __ZNSt3__110shared_ptrI11SDL_TextureE18__enable_weak_thisB7v160006Ez, symObjAddr: 0x1F0, symBinAddr: 0xB300, symSize: 0x10 }
  - { offsetInCU: 0x357A, offset: 0x3499C, size: 0x8, addend: 0x0, symName: __ZNK21TextureFunctorDeleterclEP11SDL_Texture, symObjAddr: 0x200, symBinAddr: 0xB310, symSize: 0x20 }
  - { offsetInCU: 0x35AC, offset: 0x349CE, size: 0x8, addend: 0x0, symName: __ZNSt3__19allocatorI11SDL_TextureEC2B7v160006Ev, symObjAddr: 0x230, symBinAddr: 0xB330, symSize: 0x20 }
  - { offsetInCU: 0x35D4, offset: 0x349F6, size: 0x8, addend: 0x0, symName: __ZNSt3__116__non_trivial_ifILb1ENS_9allocatorI11SDL_TextureEEEC2B7v160006Ev, symObjAddr: 0x250, symBinAddr: 0xB350, symSize: 0x10 }
  - { offsetInCU: 0x35FC, offset: 0x34A1E, size: 0x8, addend: 0x0, symName: __ZNSt3__120__shared_ptr_pointerIP11SDL_Texture21TextureFunctorDeleterNS_9allocatorIS1_EEEC2B7v160006ES2_S3_S5_, symObjAddr: 0x260, symBinAddr: 0xB360, symSize: 0x90 }
  - { offsetInCU: 0x3653, offset: 0x34A75, size: 0x8, addend: 0x0, symName: __ZNSt3__117__compressed_pairIP11SDL_Texture21TextureFunctorDeleterEC1B7v160006IRS2_S3_EEOT_OT0_, symObjAddr: 0x340, symBinAddr: 0xB3F0, symSize: 0x30 }
  - { offsetInCU: 0x36B3, offset: 0x34AD5, size: 0x8, addend: 0x0, symName: __ZNSt3__117__compressed_pairINS0_IP11SDL_Texture21TextureFunctorDeleterEENS_9allocatorIS1_EEEC1B7v160006IS4_S6_EEOT_OT0_, symObjAddr: 0x370, symBinAddr: 0xB420, symSize: 0x30 }
  - { offsetInCU: 0x3709, offset: 0x34B2B, size: 0x8, addend: 0x0, symName: __ZNSt3__120__shared_ptr_pointerIP11SDL_Texture21TextureFunctorDeleterNS_9allocatorIS1_EEED1Ev, symObjAddr: 0x3A0, symBinAddr: 0xB450, symSize: 0x20 }
  - { offsetInCU: 0x3733, offset: 0x34B55, size: 0x8, addend: 0x0, symName: __ZNSt3__120__shared_ptr_pointerIP11SDL_Texture21TextureFunctorDeleterNS_9allocatorIS1_EEED0Ev, symObjAddr: 0x3C0, symBinAddr: 0xB470, symSize: 0x30 }
  - { offsetInCU: 0x375D, offset: 0x34B7F, size: 0x8, addend: 0x0, symName: __ZNSt3__120__shared_ptr_pointerIP11SDL_Texture21TextureFunctorDeleterNS_9allocatorIS1_EEE16__on_zero_sharedEv, symObjAddr: 0x3F0, symBinAddr: 0xB4A0, symSize: 0x80 }
  - { offsetInCU: 0x3783, offset: 0x34BA5, size: 0x8, addend: 0x0, symName: __ZNKSt3__120__shared_ptr_pointerIP11SDL_Texture21TextureFunctorDeleterNS_9allocatorIS1_EEE13__get_deleterERKSt9type_info, symObjAddr: 0x470, symBinAddr: 0xB520, symSize: 0x70 }
  - { offsetInCU: 0x37B7, offset: 0x34BD9, size: 0x8, addend: 0x0, symName: __ZNSt3__120__shared_ptr_pointerIP11SDL_Texture21TextureFunctorDeleterNS_9allocatorIS1_EEE21__on_zero_shared_weakEv, symObjAddr: 0x4E0, symBinAddr: 0xB590, symSize: 0x60 }
  - { offsetInCU: 0x37F7, offset: 0x34C19, size: 0x8, addend: 0x0, symName: __ZNSt3__117__compressed_pairIP11SDL_Texture21TextureFunctorDeleterEC2B7v160006IRS2_S3_EEOT_OT0_, symObjAddr: 0x570, symBinAddr: 0xB5F0, symSize: 0x40 }
  - { offsetInCU: 0x384D, offset: 0x34C6F, size: 0x8, addend: 0x0, symName: __ZNSt3__122__compressed_pair_elemIP11SDL_TextureLi0ELb0EEC2B7v160006IRS2_vEEOT_, symObjAddr: 0x5B0, symBinAddr: 0xB630, symSize: 0x20 }
  - { offsetInCU: 0x388E, offset: 0x34CB0, size: 0x8, addend: 0x0, symName: __ZNSt3__122__compressed_pair_elemI21TextureFunctorDeleterLi1ELb1EEC2B7v160006IS1_vEEOT_, symObjAddr: 0x5D0, symBinAddr: 0xB650, symSize: 0x10 }
  - { offsetInCU: 0x38CF, offset: 0x34CF1, size: 0x8, addend: 0x0, symName: __ZNSt3__117__compressed_pairINS0_IP11SDL_Texture21TextureFunctorDeleterEENS_9allocatorIS1_EEEC2B7v160006IS4_S6_EEOT_OT0_, symObjAddr: 0x5E0, symBinAddr: 0xB660, symSize: 0x40 }
  - { offsetInCU: 0x3925, offset: 0x34D47, size: 0x8, addend: 0x0, symName: __ZNSt3__122__compressed_pair_elemINS_17__compressed_pairIP11SDL_Texture21TextureFunctorDeleterEELi0ELb0EEC2B7v160006IS5_vEEOT_, symObjAddr: 0x620, symBinAddr: 0xB6A0, symSize: 0x20 }
  - { offsetInCU: 0x3966, offset: 0x34D88, size: 0x8, addend: 0x0, symName: __ZNSt3__122__compressed_pair_elemINS_9allocatorI11SDL_TextureEELi1ELb1EEC2B7v160006IS3_vEEOT_, symObjAddr: 0x640, symBinAddr: 0xB6C0, symSize: 0x10 }
  - { offsetInCU: 0x39A7, offset: 0x34DC9, size: 0x8, addend: 0x0, symName: __ZNSt3__120__shared_ptr_pointerIP11SDL_Texture21TextureFunctorDeleterNS_9allocatorIS1_EEED2Ev, symObjAddr: 0x650, symBinAddr: 0xB6D0, symSize: 0x20 }
  - { offsetInCU: 0x39D1, offset: 0x34DF3, size: 0x8, addend: 0x0, symName: __ZNSt3__117__compressed_pairINS0_IP11SDL_Texture21TextureFunctorDeleterEENS_9allocatorIS1_EEE5firstB7v160006Ev, symObjAddr: 0x670, symBinAddr: 0xB6F0, symSize: 0x20 }
  - { offsetInCU: 0x39F5, offset: 0x34E17, size: 0x8, addend: 0x0, symName: __ZNSt3__117__compressed_pairIP11SDL_Texture21TextureFunctorDeleterE6secondB7v160006Ev, symObjAddr: 0x690, symBinAddr: 0xB710, symSize: 0x20 }
  - { offsetInCU: 0x3A19, offset: 0x34E3B, size: 0x8, addend: 0x0, symName: __ZNSt3__117__compressed_pairIP11SDL_Texture21TextureFunctorDeleterE5firstB7v160006Ev, symObjAddr: 0x6B0, symBinAddr: 0xB730, symSize: 0x20 }
  - { offsetInCU: 0x3A3D, offset: 0x34E5F, size: 0x8, addend: 0x0, symName: __ZNSt3__122__compressed_pair_elemINS_17__compressed_pairIP11SDL_Texture21TextureFunctorDeleterEELi0ELb0EE5__getB7v160006Ev, symObjAddr: 0x6D0, symBinAddr: 0xB750, symSize: 0x10 }
  - { offsetInCU: 0x3A61, offset: 0x34E83, size: 0x8, addend: 0x0, symName: __ZNSt3__122__compressed_pair_elemI21TextureFunctorDeleterLi1ELb1EE5__getB7v160006Ev, symObjAddr: 0x6E0, symBinAddr: 0xB760, symSize: 0x10 }
  - { offsetInCU: 0x3A85, offset: 0x34EA7, size: 0x8, addend: 0x0, symName: __ZNSt3__122__compressed_pair_elemIP11SDL_TextureLi0ELb0EE5__getB7v160006Ev, symObjAddr: 0x6F0, symBinAddr: 0xB770, symSize: 0x10 }
  - { offsetInCU: 0x3AC9, offset: 0x34EEB, size: 0x8, addend: 0x0, symName: __ZNKSt9type_infoeqB7v160006ERKS_, symObjAddr: 0x700, symBinAddr: 0xB780, symSize: 0x40 }
  - { offsetInCU: 0x3B25, offset: 0x34F47, size: 0x8, addend: 0x0, symName: __ZNKSt3__117__compressed_pairINS0_IP11SDL_Texture21TextureFunctorDeleterEENS_9allocatorIS1_EEE5firstB7v160006Ev, symObjAddr: 0x740, symBinAddr: 0xB7C0, symSize: 0x20 }
  - { offsetInCU: 0x3B49, offset: 0x34F6B, size: 0x8, addend: 0x0, symName: __ZNKSt3__117__compressed_pairIP11SDL_Texture21TextureFunctorDeleterE6secondB7v160006Ev, symObjAddr: 0x760, symBinAddr: 0xB7E0, symSize: 0x20 }
  - { offsetInCU: 0x3B6D, offset: 0x34F8F, size: 0x8, addend: 0x0, symName: __ZNKSt3__122__compressed_pair_elemINS_17__compressed_pairIP11SDL_Texture21TextureFunctorDeleterEELi0ELb0EE5__getB7v160006Ev, symObjAddr: 0x780, symBinAddr: 0xB800, symSize: 0x10 }
  - { offsetInCU: 0x3B91, offset: 0x34FB3, size: 0x8, addend: 0x0, symName: __ZNKSt3__122__compressed_pair_elemI21TextureFunctorDeleterLi1ELb1EE5__getB7v160006Ev, symObjAddr: 0x790, symBinAddr: 0xB810, symSize: 0x10 }
  - { offsetInCU: 0x3BB5, offset: 0x34FD7, size: 0x8, addend: 0x0, symName: __ZNSt3__117__compressed_pairINS0_IP11SDL_Texture21TextureFunctorDeleterEENS_9allocatorIS1_EEE6secondB7v160006Ev, symObjAddr: 0x7A0, symBinAddr: 0xB820, symSize: 0x20 }
  - { offsetInCU: 0x3BE8, offset: 0x3500A, size: 0x8, addend: 0x0, symName: __ZNSt3__19allocatorINS_20__shared_ptr_pointerIP11SDL_Texture21TextureFunctorDeleterNS0_IS2_EEEEEC1B7v160006IS2_EERKNS0_IT_EE, symObjAddr: 0x7C0, symBinAddr: 0xB840, symSize: 0x30 }
  - { offsetInCU: 0x3C23, offset: 0x35045, size: 0x8, addend: 0x0, symName: __ZNSt3__19allocatorINS_20__shared_ptr_pointerIP11SDL_Texture21TextureFunctorDeleterNS0_IS2_EEEEE10deallocateB7v160006EPS6_m, symObjAddr: 0x7F0, symBinAddr: 0xB870, symSize: 0x40 }
  - { offsetInCU: 0x3C68, offset: 0x3508A, size: 0x8, addend: 0x0, symName: __ZNSt3__114pointer_traitsIPNS_20__shared_ptr_pointerIP11SDL_Texture21TextureFunctorDeleterNS_9allocatorIS2_EEEEE10pointer_toB7v160006ERS7_, symObjAddr: 0x830, symBinAddr: 0xB8B0, symSize: 0x10 }
  - { offsetInCU: 0x3C8A, offset: 0x350AC, size: 0x8, addend: 0x0, symName: __ZNSt3__122__compressed_pair_elemINS_9allocatorI11SDL_TextureEELi1ELb1EE5__getB7v160006Ev, symObjAddr: 0x840, symBinAddr: 0xB8C0, symSize: 0x10 }
  - { offsetInCU: 0x3CAE, offset: 0x350D0, size: 0x8, addend: 0x0, symName: __ZNSt3__19allocatorINS_20__shared_ptr_pointerIP11SDL_Texture21TextureFunctorDeleterNS0_IS2_EEEEEC2B7v160006IS2_EERKNS0_IT_EE, symObjAddr: 0x850, symBinAddr: 0xB8D0, symSize: 0x20 }
  - { offsetInCU: 0x3CE9, offset: 0x3510B, size: 0x8, addend: 0x0, symName: __ZNSt3__116__non_trivial_ifILb1ENS_9allocatorINS_20__shared_ptr_pointerIP11SDL_Texture21TextureFunctorDeleterNS1_IS3_EEEEEEEC2B7v160006Ev, symObjAddr: 0x870, symBinAddr: 0xB8F0, symSize: 0x10 }
  - { offsetInCU: 0x55DD, offset: 0x3AA29, size: 0x8, addend: 0x0, symName: __ZNSt3__17advanceB7v160006IPNS_10shared_ptrI15EnemyGameEntityEEllvEEvRT_T0_, symObjAddr: 0x36D0, symBinAddr: 0xE7D0, symSize: 0x50 }
  - { offsetInCU: 0x585E, offset: 0x3ACAA, size: 0x8, addend: 0x0, symName: __ZNSt3__17advanceB7v160006INS_16reverse_iteratorIPNS_10shared_ptrI15EnemyGameEntityEEEEllvEEvRT_T0_, symObjAddr: 0x3AD0, symBinAddr: 0xEBC0, symSize: 0x50 }
  - { offsetInCU: 0x7EE3, offset: 0x3D32F, size: 0x8, addend: 0x0, symName: __ZNSt3__111make_sharedB7v160006I15EnemyGameEntityJRP12SDL_RendererEvEENS_10shared_ptrIT_EEDpOT0_, symObjAddr: 0x1040, symBinAddr: 0xC8F0, symSize: 0x40 }
  - { offsetInCU: 0x7F27, offset: 0x3D373, size: 0x8, addend: 0x0, symName: __ZNSt3__1eqB7v160006I15EnemyGameEntityEEbRKNS_10shared_ptrIT_EEDn, symObjAddr: 0x1080, symBinAddr: 0xC930, symSize: 0x30 }
  - { offsetInCU: 0x7F69, offset: 0x3D3B5, size: 0x8, addend: 0x0, symName: __ZNSt3__111make_sharedB7v160006I16TextureComponentJEvEENS_10shared_ptrIT_EEDpOT0_, symObjAddr: 0x10D0, symBinAddr: 0xC980, symSize: 0x40 }
  - { offsetInCU: 0x7F99, offset: 0x3D3E5, size: 0x8, addend: 0x0, symName: __ZNSt3__1eqB7v160006I16TextureComponentEEbRKNS_10shared_ptrIT_EEDn, symObjAddr: 0x1110, symBinAddr: 0xC9C0, symSize: 0x30 }
  - { offsetInCU: 0x81F7, offset: 0x3D643, size: 0x8, addend: 0x0, symName: __ZNSt3__111make_sharedB7v160006I20Collision2DComponentJEvEENS_10shared_ptrIT_EEDpOT0_, symObjAddr: 0x11E0, symBinAddr: 0xCA40, symSize: 0x40 }
  - { offsetInCU: 0x8227, offset: 0x3D673, size: 0x8, addend: 0x0, symName: __ZNSt3__1eqB7v160006I20Collision2DComponentEEbRKNS_10shared_ptrIT_EEDn, symObjAddr: 0x1220, symBinAddr: 0xCA80, symSize: 0x30 }
  - { offsetInCU: 0x846F, offset: 0x3D8BB, size: 0x8, addend: 0x0, symName: __ZNSt3__111make_sharedB7v160006I10ProjectileJEvEENS_10shared_ptrIT_EEDpOT0_, symObjAddr: 0x12E0, symBinAddr: 0xCAE0, symSize: 0x40 }
  - { offsetInCU: 0x849F, offset: 0x3D8EB, size: 0x8, addend: 0x0, symName: __ZNSt3__111make_sharedB7v160006I10GameEntityJEvEENS_10shared_ptrIT_EEDpOT0_, symObjAddr: 0x1430, symBinAddr: 0xCBF0, symSize: 0x40 }
  - { offsetInCU: 0x84CF, offset: 0x3D91B, size: 0x8, addend: 0x0, symName: __ZNSt3__111make_sharedB7v160006I14InputComponentJEvEENS_10shared_ptrIT_EEDpOT0_, symObjAddr: 0x14E0, symBinAddr: 0xCC80, symSize: 0x40 }
  - { offsetInCU: 0x8705, offset: 0x3DB51, size: 0x8, addend: 0x0, symName: __ZNSt3__119__debug_db_insert_cB7v160006INS_6vectorINS_10shared_ptrI15EnemyGameEntityEENS_9allocatorIS4_EEEEEEvPT_, symObjAddr: 0x1CE0, symBinAddr: 0xD3E0, symSize: 0x10 }
  - { offsetInCU: 0x8736, offset: 0x3DB82, size: 0x8, addend: 0x0, symName: __ZNSt3__118__debug_db_erase_cB7v160006INS_6vectorINS_10shared_ptrI15EnemyGameEntityEENS_9allocatorIS4_EEEEEEvPT_, symObjAddr: 0x1F90, symBinAddr: 0xD670, symSize: 0x10 }
  - { offsetInCU: 0x8767, offset: 0x3DBB3, size: 0x8, addend: 0x0, symName: __ZNSt3__112__to_addressB7v160006INS_10shared_ptrI15EnemyGameEntityEEEEPT_S5_, symObjAddr: 0x2080, symBinAddr: 0xD760, symSize: 0x10 }
  - { offsetInCU: 0x879C, offset: 0x3DBE8, size: 0x8, addend: 0x0, symName: __ZNSt3__110destroy_atB7v160006INS_10shared_ptrI15EnemyGameEntityEELi0EEEvPT_, symObjAddr: 0x2130, symBinAddr: 0xD810, symSize: 0x20 }
  - { offsetInCU: 0x87D4, offset: 0x3DC20, size: 0x8, addend: 0x0, symName: __ZNSt3__112__destroy_atB7v160006INS_10shared_ptrI15EnemyGameEntityEELi0EEEvPT_, symObjAddr: 0x2150, symBinAddr: 0xD830, symSize: 0x20 }
  - { offsetInCU: 0x8833, offset: 0x3DC7F, size: 0x8, addend: 0x0, symName: __ZNSt3__112construct_atB7v160006INS_10shared_ptrI15EnemyGameEntityEEJS3_EPS3_EEPT_S6_DpOT0_, symObjAddr: 0x2740, symBinAddr: 0xDB80, symSize: 0x40 }
  - { offsetInCU: 0x88A5, offset: 0x3DCF1, size: 0x8, addend: 0x0, symName: __ZNSt3__119__allocate_at_leastB7v160006INS_9allocatorINS_10shared_ptrI15EnemyGameEntityEEEEEENS_19__allocation_resultINS_16allocator_traitsIT_E7pointerEEERS8_m, symObjAddr: 0x2E80, symBinAddr: 0xE070, symSize: 0x40 }
  - { offsetInCU: 0x88E8, offset: 0x3DD34, size: 0x8, addend: 0x0, symName: __ZNSt3__142__uninitialized_allocator_move_if_noexceptB7v160006INS_9allocatorINS_10shared_ptrI15EnemyGameEntityEEEENS_16reverse_iteratorIPS4_EES8_S8_EET2_RT_T0_T1_S9_, symObjAddr: 0x3100, symBinAddr: 0xE200, symSize: 0x180 }
  - { offsetInCU: 0x8987, offset: 0x3DDD3, size: 0x8, addend: 0x0, symName: __ZNSt3__14swapB7v160006IPNS_10shared_ptrI15EnemyGameEntityEEEENS_9enable_ifIXaasr21is_move_constructibleIT_EE5valuesr18is_move_assignableIS6_EE5valueEvE4typeERS6_S9_, symObjAddr: 0x32D0, symBinAddr: 0xE3D0, symSize: 0x40 }
  - { offsetInCU: 0x89D8, offset: 0x3DE24, size: 0x8, addend: 0x0, symName: __ZNSt3__125__debug_db_invalidate_allB7v160006INS_6vectorINS_10shared_ptrI15EnemyGameEntityEENS_9allocatorIS4_EEEEEEvPT_, symObjAddr: 0x33C0, symBinAddr: 0xE4C0, symSize: 0x10 }
  - { offsetInCU: 0x8A09, offset: 0x3DE55, size: 0x8, addend: 0x0, symName: __ZNSt3__122__make_exception_guardB7v160006INS_29_AllocatorDestroyRangeReverseINS_9allocatorINS_10shared_ptrI15EnemyGameEntityEEEENS_16reverse_iteratorIPS5_EEEEEENS_28__exception_guard_exceptionsIT_EESC_, symObjAddr: 0x33D0, symBinAddr: 0xE4D0, symSize: 0x60 }
  - { offsetInCU: 0x8A3E, offset: 0x3DE8A, size: 0x8, addend: 0x0, symName: __ZNSt3__1neB7v160006IPNS_10shared_ptrI15EnemyGameEntityEES4_EEbRKNS_16reverse_iteratorIT_EERKNS5_IT0_EE, symObjAddr: 0x3470, symBinAddr: 0xE570, symSize: 0x40 }
  - { offsetInCU: 0x8A8A, offset: 0x3DED6, size: 0x8, addend: 0x0, symName: __ZNSt3__112__to_addressB7v160006INS_16reverse_iteratorIPNS_10shared_ptrI15EnemyGameEntityEEEEvEENS_5decayIDTclsr19__to_address_helperIT_EE6__callclsr3stdE7declvalIRKS8_EEEEE4typeESA_, symObjAddr: 0x34B0, symBinAddr: 0xE5B0, symSize: 0x20 }
  - { offsetInCU: 0x8AEB, offset: 0x3DF37, size: 0x8, addend: 0x0, symName: __ZNSt3__14prevB7v160006IPNS_10shared_ptrI15EnemyGameEntityEEEENS_9enable_ifIXsr25__is_cpp17_input_iteratorIT_EE5valueES6_E4typeES6_NS_15iterator_traitsIS6_E15difference_typeE, symObjAddr: 0x3680, symBinAddr: 0xE780, symSize: 0x50 }
  - { offsetInCU: 0x8B2E, offset: 0x3DF7A, size: 0x8, addend: 0x0, symName: __ZNSt3__19__advanceB7v160006IPNS_10shared_ptrI15EnemyGameEntityEEEEvRT_NS_15iterator_traitsIS5_E15difference_typeENS_26random_access_iterator_tagE, symObjAddr: 0x3730, symBinAddr: 0xE820, symSize: 0x20 }
  - { offsetInCU: 0x8B77, offset: 0x3DFC3, size: 0x8, addend: 0x0, symName: __ZNSt3__119__allocator_destroyB7v160006INS_9allocatorINS_10shared_ptrI15EnemyGameEntityEEEENS_16reverse_iteratorINS6_IPS4_EEEES9_EEvRT_T0_T1_, symObjAddr: 0x3880, symBinAddr: 0xE970, symSize: 0x70 }
  - { offsetInCU: 0x8BDB, offset: 0x3E027, size: 0x8, addend: 0x0, symName: __ZNSt3__1neB7v160006INS_16reverse_iteratorIPNS_10shared_ptrI15EnemyGameEntityEEEES6_EEbRKNS1_IT_EERKNS1_IT0_EE, symObjAddr: 0x3920, symBinAddr: 0xEA10, symSize: 0x50 }
  - { offsetInCU: 0x8C27, offset: 0x3E073, size: 0x8, addend: 0x0, symName: __ZNSt3__112__to_addressB7v160006INS_16reverse_iteratorINS1_IPNS_10shared_ptrI15EnemyGameEntityEEEEEEvEENS_5decayIDTclsr19__to_address_helperIT_EE6__callclsr3stdE7declvalIRKS9_EEEEE4typeESB_, symObjAddr: 0x3970, symBinAddr: 0xEA60, symSize: 0x20 }
  - { offsetInCU: 0x8C88, offset: 0x3E0D4, size: 0x8, addend: 0x0, symName: __ZNSt3__14prevB7v160006INS_16reverse_iteratorIPNS_10shared_ptrI15EnemyGameEntityEEEEEENS_9enable_ifIXsr25__is_cpp17_input_iteratorIT_EE5valueES8_E4typeES8_NS_15iterator_traitsIS8_E15difference_typeE, symObjAddr: 0x3A70, symBinAddr: 0xEB60, symSize: 0x60 }
  - { offsetInCU: 0x8CCB, offset: 0x3E117, size: 0x8, addend: 0x0, symName: __ZNSt3__19__advanceB7v160006INS_16reverse_iteratorIPNS_10shared_ptrI15EnemyGameEntityEEEEEEvRT_NS_15iterator_traitsIS7_E15difference_typeENS_26random_access_iterator_tagE, symObjAddr: 0x3B20, symBinAddr: 0xEC10, symSize: 0x30 }
  - { offsetInCU: 0x8D14, offset: 0x3E160, size: 0x8, addend: 0x0, symName: __ZNSt3__115allocate_sharedB7v160006I15EnemyGameEntityNS_9allocatorIS1_EEJRP12SDL_RendererEvEENS_10shared_ptrIT_EERKT0_DpOT1_, symObjAddr: 0x3F00, symBinAddr: 0xEEF0, symSize: 0xB0 }
  - { offsetInCU: 0x905E, offset: 0x3E4AA, size: 0x8, addend: 0x0, symName: __ZNSt3__112construct_atB7v160006I15EnemyGameEntityJRP12SDL_RendererEPS1_EEPT_S7_DpOT0_, symObjAddr: 0x45F0, symBinAddr: 0xF560, symSize: 0x40 }
  - { offsetInCU: 0x90D0, offset: 0x3E51C, size: 0x8, addend: 0x0, symName: __ZNSt3__110destroy_atB7v160006I15EnemyGameEntityLi0EEEvPT_, symObjAddr: 0x46B0, symBinAddr: 0xF620, symSize: 0x20 }
  - { offsetInCU: 0x9108, offset: 0x3E554, size: 0x8, addend: 0x0, symName: __ZNSt3__112__destroy_atB7v160006I15EnemyGameEntityLi0EEEvPT_, symObjAddr: 0x46D0, symBinAddr: 0xF640, symSize: 0x20 }
  - { offsetInCU: 0x9198, offset: 0x3E5E4, size: 0x8, addend: 0x0, symName: __ZNSt3__121__libcpp_relaxed_loadB7v160006IlEET_PKS1_, symObjAddr: 0x4950, symBinAddr: 0xF8C0, symSize: 0x20 }
  - { offsetInCU: 0x91F2, offset: 0x3E63E, size: 0x8, addend: 0x0, symName: __ZNSt3__115allocate_sharedB7v160006I16TextureComponentNS_9allocatorIS1_EEJEvEENS_10shared_ptrIT_EERKT0_DpOT1_, symObjAddr: 0x4D00, symBinAddr: 0xFB20, symSize: 0xA0 }
  - { offsetInCU: 0x951E, offset: 0x3E96A, size: 0x8, addend: 0x0, symName: __ZNSt3__112construct_atB7v160006I16TextureComponentJEPS1_EEPT_S4_DpOT0_, symObjAddr: 0x5310, symBinAddr: 0x10130, symSize: 0x30 }
  - { offsetInCU: 0x957D, offset: 0x3E9C9, size: 0x8, addend: 0x0, symName: __ZNSt3__110destroy_atB7v160006I16TextureComponentLi0EEEvPT_, symObjAddr: 0x53C0, symBinAddr: 0x101E0, symSize: 0x20 }
  - { offsetInCU: 0x95B5, offset: 0x3EA01, size: 0x8, addend: 0x0, symName: __ZNSt3__112__destroy_atB7v160006I16TextureComponentLi0EEEvPT_, symObjAddr: 0x53E0, symBinAddr: 0x10200, symSize: 0x20 }
  - { offsetInCU: 0x9620, offset: 0x3EA6C, size: 0x8, addend: 0x0, symName: __ZNSt3__115allocate_sharedB7v160006I20Collision2DComponentNS_9allocatorIS1_EEJEvEENS_10shared_ptrIT_EERKT0_DpOT1_, symObjAddr: 0x5670, symBinAddr: 0x10450, symSize: 0xA0 }
  - { offsetInCU: 0x994C, offset: 0x3ED98, size: 0x8, addend: 0x0, symName: __ZNSt3__112construct_atB7v160006I20Collision2DComponentJEPS1_EEPT_S4_DpOT0_, symObjAddr: 0x5C80, symBinAddr: 0x10A60, symSize: 0x30 }
  - { offsetInCU: 0x99AB, offset: 0x3EDF7, size: 0x8, addend: 0x0, symName: __ZNSt3__110destroy_atB7v160006I20Collision2DComponentLi0EEEvPT_, symObjAddr: 0x5D30, symBinAddr: 0x10B10, symSize: 0x20 }
  - { offsetInCU: 0x99E3, offset: 0x3EE2F, size: 0x8, addend: 0x0, symName: __ZNSt3__112__destroy_atB7v160006I20Collision2DComponentLi0EEEvPT_, symObjAddr: 0x5D50, symBinAddr: 0x10B30, symSize: 0x20 }
  - { offsetInCU: 0x9A4E, offset: 0x3EE9A, size: 0x8, addend: 0x0, symName: __ZNSt3__115allocate_sharedB7v160006I10ProjectileNS_9allocatorIS1_EEJEvEENS_10shared_ptrIT_EERKT0_DpOT1_, symObjAddr: 0x6020, symBinAddr: 0x10D40, symSize: 0xA0 }
  - { offsetInCU: 0x9D7A, offset: 0x3F1C6, size: 0x8, addend: 0x0, symName: __ZNSt3__112construct_atB7v160006I10ProjectileJEPS1_EEPT_S4_DpOT0_, symObjAddr: 0x6660, symBinAddr: 0x11380, symSize: 0x30 }
  - { offsetInCU: 0x9DD9, offset: 0x3F225, size: 0x8, addend: 0x0, symName: __ZNSt3__110destroy_atB7v160006I10ProjectileLi0EEEvPT_, symObjAddr: 0x6710, symBinAddr: 0x11430, symSize: 0x20 }
  - { offsetInCU: 0x9E11, offset: 0x3F25D, size: 0x8, addend: 0x0, symName: __ZNSt3__112__destroy_atB7v160006I10ProjectileLi0EEEvPT_, symObjAddr: 0x6730, symBinAddr: 0x11450, symSize: 0x20 }
  - { offsetInCU: 0x9E7C, offset: 0x3F2C8, size: 0x8, addend: 0x0, symName: __ZNSt3__115allocate_sharedB7v160006I10GameEntityNS_9allocatorIS1_EEJEvEENS_10shared_ptrIT_EERKT0_DpOT1_, symObjAddr: 0x6A50, symBinAddr: 0x116F0, symSize: 0xA0 }
  - { offsetInCU: 0xA1A8, offset: 0x3F5F4, size: 0x8, addend: 0x0, symName: __ZNSt3__112construct_atB7v160006I10GameEntityJEPS1_EEPT_S4_DpOT0_, symObjAddr: 0x7090, symBinAddr: 0x11D30, symSize: 0x30 }
  - { offsetInCU: 0xA207, offset: 0x3F653, size: 0x8, addend: 0x0, symName: __ZNSt3__110destroy_atB7v160006I10GameEntityLi0EEEvPT_, symObjAddr: 0x7140, symBinAddr: 0x11DE0, symSize: 0x20 }
  - { offsetInCU: 0xA23F, offset: 0x3F68B, size: 0x8, addend: 0x0, symName: __ZNSt3__112__destroy_atB7v160006I10GameEntityLi0EEEvPT_, symObjAddr: 0x7160, symBinAddr: 0x11E00, symSize: 0x20 }
  - { offsetInCU: 0xA2AA, offset: 0x3F6F6, size: 0x8, addend: 0x0, symName: __ZNSt3__115allocate_sharedB7v160006I14InputComponentNS_9allocatorIS1_EEJEvEENS_10shared_ptrIT_EERKT0_DpOT1_, symObjAddr: 0x7460, symBinAddr: 0x12050, symSize: 0xA0 }
  - { offsetInCU: 0xA5D6, offset: 0x3FA22, size: 0x8, addend: 0x0, symName: __ZNSt3__112construct_atB7v160006I14InputComponentJEPS1_EEPT_S4_DpOT0_, symObjAddr: 0x7A80, symBinAddr: 0x12670, symSize: 0x30 }
  - { offsetInCU: 0xA635, offset: 0x3FA81, size: 0x8, addend: 0x0, symName: __ZNSt3__110destroy_atB7v160006I14InputComponentLi0EEEvPT_, symObjAddr: 0x7B30, symBinAddr: 0x12720, symSize: 0x20 }
  - { offsetInCU: 0xA66D, offset: 0x3FAB9, size: 0x8, addend: 0x0, symName: __ZNSt3__112__destroy_atB7v160006I14InputComponentLi0EEEvPT_, symObjAddr: 0x7B50, symBinAddr: 0x12740, symSize: 0x20 }
  - { offsetInCU: 0xAD54, offset: 0x401A0, size: 0x8, addend: 0x0, symName: __ZNSt3__16vectorINS_10shared_ptrI15EnemyGameEntityEENS_9allocatorIS3_EEE26__swap_out_circular_bufferERNS_14__split_bufferIS3_RS5_EE, symObjAddr: 0x28F0, symBinAddr: 0xDD30, symSize: 0x130 }
  - { offsetInCU: 0xAE7D, offset: 0x402C9, size: 0x8, addend: 0x0, symName: __ZNSt3__110shared_ptrI15EnemyGameEntityE18__enable_weak_thisB7v160006I10GameEntityS1_vEEvPKNS_23enable_shared_from_thisIT_EEPT0_, symObjAddr: 0x4790, symBinAddr: 0xF700, symSize: 0x70 }
  - { offsetInCU: 0xB1C0, offset: 0x4060C, size: 0x8, addend: 0x0, symName: __ZNSt3__110shared_ptrI10ProjectileE18__enable_weak_thisB7v160006I10GameEntityS1_vEEvPKNS_23enable_shared_from_thisIT_EEPT0_, symObjAddr: 0x67F0, symBinAddr: 0x114F0, symSize: 0x70 }
  - { offsetInCU: 0xB2B0, offset: 0x406FC, size: 0x8, addend: 0x0, symName: __ZNSt3__110shared_ptrI10GameEntityE18__enable_weak_thisB7v160006IS1_S1_vEEvPKNS_23enable_shared_from_thisIT_EEPT0_, symObjAddr: 0x7200, symBinAddr: 0x11EA0, symSize: 0x70 }
  - { offsetInCU: 0xD21D, offset: 0x42669, size: 0x8, addend: 0x0, symName: __ZN5SceneC2Ev, symObjAddr: 0x0, symBinAddr: 0xB900, symSize: 0x40 }
  - { offsetInCU: 0xD247, offset: 0x42693, size: 0x8, addend: 0x0, symName: __ZNSt3__16vectorINS_10shared_ptrI15EnemyGameEntityEENS_9allocatorIS3_EEEC1B7v160006Ev, symObjAddr: 0x40, symBinAddr: 0xB940, symSize: 0x20 }
  - { offsetInCU: 0xD26F, offset: 0x426BB, size: 0x8, addend: 0x0, symName: __ZN5SceneC1Ev, symObjAddr: 0x80, symBinAddr: 0xB960, symSize: 0x20 }
  - { offsetInCU: 0xD299, offset: 0x426E5, size: 0x8, addend: 0x0, symName: __ZN5SceneD2Ev, symObjAddr: 0xA0, symBinAddr: 0xB980, symSize: 0x50 }
  - { offsetInCU: 0xD2C3, offset: 0x4270F, size: 0x8, addend: 0x0, symName: __ZN5Scene8ShutdownEv, symObjAddr: 0xF0, symBinAddr: 0xB9D0, symSize: 0x10 }
  - { offsetInCU: 0xD2E9, offset: 0x42735, size: 0x8, addend: 0x0, symName: __ZNSt3__16vectorINS_10shared_ptrI15EnemyGameEntityEENS_9allocatorIS3_EEED1B7v160006Ev, symObjAddr: 0x130, symBinAddr: 0xB9E0, symSize: 0x20 }
  - { offsetInCU: 0xD311, offset: 0x4275D, size: 0x8, addend: 0x0, symName: __ZN5SceneD1Ev, symObjAddr: 0x150, symBinAddr: 0xBA00, symSize: 0x20 }
  - { offsetInCU: 0xD33B, offset: 0x42787, size: 0x8, addend: 0x0, symName: __ZN5Scene7StartUpEP12SDL_Renderer, symObjAddr: 0x170, symBinAddr: 0xBA20, symSize: 0xED0 }
  - { offsetInCU: 0xD458, offset: 0x428A4, size: 0x8, addend: 0x0, symName: __ZNKSt3__110shared_ptrI15EnemyGameEntityEptB7v160006Ev, symObjAddr: 0x10B0, symBinAddr: 0xC960, symSize: 0x20 }
  - { offsetInCU: 0xD4A4, offset: 0x428F0, size: 0x8, addend: 0x0, symName: __ZNSt3__110shared_ptrI16TextureComponentEC1B7v160006ERKS2_, symObjAddr: 0x1190, symBinAddr: 0xC9F0, symSize: 0x30 }
  - { offsetInCU: 0xD4DB, offset: 0x42927, size: 0x8, addend: 0x0, symName: __ZNSt3__110shared_ptrI16TextureComponentED1B7v160006Ev, symObjAddr: 0x11C0, symBinAddr: 0xCA20, symSize: 0x20 }
  - { offsetInCU: 0xD526, offset: 0x42972, size: 0x8, addend: 0x0, symName: __ZNSt3__110shared_ptrI20Collision2DComponentEC1B7v160006ERKS2_, symObjAddr: 0x1250, symBinAddr: 0xCAB0, symSize: 0x30 }
  - { offsetInCU: 0xD55D, offset: 0x429A9, size: 0x8, addend: 0x0, symName: __ZN10Projectile8SetSpeedEf, symObjAddr: 0x1340, symBinAddr: 0xCB20, symSize: 0x20 }
  - { offsetInCU: 0xD58F, offset: 0x429DB, size: 0x8, addend: 0x0, symName: __ZNSt3__110shared_ptrI10GameEntityEC1B7v160006I10ProjectilevEERKNS0_IT_EE, symObjAddr: 0x1360, symBinAddr: 0xCB40, symSize: 0x30 }
  - { offsetInCU: 0xD5D1, offset: 0x42A1D, size: 0x8, addend: 0x0, symName: __ZNSt3__16vectorINS_10shared_ptrI15EnemyGameEntityEENS_9allocatorIS3_EEE9push_backB7v160006EOS3_, symObjAddr: 0x1390, symBinAddr: 0xCB70, symSize: 0x60 }
  - { offsetInCU: 0xD606, offset: 0x42A52, size: 0x8, addend: 0x0, symName: __ZNSt3__110shared_ptrI15EnemyGameEntityED1B7v160006Ev, symObjAddr: 0x1410, symBinAddr: 0xCBD0, symSize: 0x20 }
  - { offsetInCU: 0xD62E, offset: 0x42A7A, size: 0x8, addend: 0x0, symName: __ZNSt3__110shared_ptrI10GameEntityEaSB7v160006EOS2_, symObjAddr: 0x1470, symBinAddr: 0xCC30, symSize: 0x50 }
  - { offsetInCU: 0xD684, offset: 0x42AD0, size: 0x8, addend: 0x0, symName: __ZNSt3__110shared_ptrI14InputComponentEC1B7v160006ERKS2_, symObjAddr: 0x1520, symBinAddr: 0xCCC0, symSize: 0x30 }
  - { offsetInCU: 0xD6BB, offset: 0x42B07, size: 0x8, addend: 0x0, symName: __ZNSt3__110shared_ptrI14InputComponentED1B7v160006Ev, symObjAddr: 0x1550, symBinAddr: 0xCCF0, symSize: 0x20 }
  - { offsetInCU: 0xD6E3, offset: 0x42B2F, size: 0x8, addend: 0x0, symName: __ZN5Scene5InputEf, symObjAddr: 0x1570, symBinAddr: 0xCD10, symSize: 0x40 }
  - { offsetInCU: 0xD717, offset: 0x42B63, size: 0x8, addend: 0x0, symName: __ZN5Scene6UpdateEf, symObjAddr: 0x15B0, symBinAddr: 0xCD50, symSize: 0x490 }
  - { offsetInCU: 0xD798, offset: 0x42BE4, size: 0x8, addend: 0x0, symName: __ZNKSt3__16vectorINS_10shared_ptrI15EnemyGameEntityEENS_9allocatorIS3_EEE4sizeB7v160006Ev, symObjAddr: 0x1A40, symBinAddr: 0xD1E0, symSize: 0x20 }
  - { offsetInCU: 0xD7BC, offset: 0x42C08, size: 0x8, addend: 0x0, symName: __ZNSt3__16vectorINS_10shared_ptrI15EnemyGameEntityEENS_9allocatorIS3_EEEixB7v160006Em, symObjAddr: 0x1A60, symBinAddr: 0xD200, symSize: 0x20 }
  - { offsetInCU: 0xD7F1, offset: 0x42C3D, size: 0x8, addend: 0x0, symName: __ZN5Scene6RenderEv, symObjAddr: 0x1B20, symBinAddr: 0xD220, symSize: 0xF0 }
  - { offsetInCU: 0xD833, offset: 0x42C7F, size: 0x8, addend: 0x0, symName: __ZN5Scene20SetSceneActiveStatusEb, symObjAddr: 0x1C10, symBinAddr: 0xD310, symSize: 0x20 }
  - { offsetInCU: 0xD867, offset: 0x42CB3, size: 0x8, addend: 0x0, symName: __ZNK5Scene13IsSceneActiveEv, symObjAddr: 0x1C30, symBinAddr: 0xD330, symSize: 0x20 }
  - { offsetInCU: 0xD88D, offset: 0x42CD9, size: 0x8, addend: 0x0, symName: __ZNSt3__16vectorINS_10shared_ptrI15EnemyGameEntityEENS_9allocatorIS3_EEEC2B7v160006Ev, symObjAddr: 0x1C50, symBinAddr: 0xD350, symSize: 0x60 }
  - { offsetInCU: 0xD8BF, offset: 0x42D0B, size: 0x8, addend: 0x0, symName: __ZNSt3__117__compressed_pairIPNS_10shared_ptrI15EnemyGameEntityEENS_9allocatorIS3_EEEC1B7v160006IDnNS_18__default_init_tagEEEOT_OT0_, symObjAddr: 0x1CB0, symBinAddr: 0xD3B0, symSize: 0x30 }
  - { offsetInCU: 0xD915, offset: 0x42D61, size: 0x8, addend: 0x0, symName: __ZNSt3__117__compressed_pairIPNS_10shared_ptrI15EnemyGameEntityEENS_9allocatorIS3_EEEC2B7v160006IDnNS_18__default_init_tagEEEOT_OT0_, symObjAddr: 0x1CF0, symBinAddr: 0xD3F0, symSize: 0x40 }
  - { offsetInCU: 0xD96B, offset: 0x42DB7, size: 0x8, addend: 0x0, symName: __ZNSt3__122__compressed_pair_elemIPNS_10shared_ptrI15EnemyGameEntityEELi0ELb0EEC2B7v160006IDnvEEOT_, symObjAddr: 0x1D30, symBinAddr: 0xD430, symSize: 0x20 }
  - { offsetInCU: 0xD9AC, offset: 0x42DF8, size: 0x8, addend: 0x0, symName: __ZNSt3__122__compressed_pair_elemINS_9allocatorINS_10shared_ptrI15EnemyGameEntityEEEELi1ELb1EEC2B7v160006ENS_18__default_init_tagE, symObjAddr: 0x1D50, symBinAddr: 0xD450, symSize: 0x20 }
  - { offsetInCU: 0xD9DE, offset: 0x42E2A, size: 0x8, addend: 0x0, symName: __ZNSt3__19allocatorINS_10shared_ptrI15EnemyGameEntityEEEC2B7v160006Ev, symObjAddr: 0x1D70, symBinAddr: 0xD470, symSize: 0x20 }
  - { offsetInCU: 0xDA06, offset: 0x42E52, size: 0x8, addend: 0x0, symName: __ZNSt3__116__non_trivial_ifILb1ENS_9allocatorINS_10shared_ptrI15EnemyGameEntityEEEEEC2B7v160006Ev, symObjAddr: 0x1D90, symBinAddr: 0xD490, symSize: 0x10 }
  - { offsetInCU: 0xDA2E, offset: 0x42E7A, size: 0x8, addend: 0x0, symName: __ZNSt3__16vectorINS_10shared_ptrI15EnemyGameEntityEENS_9allocatorIS3_EEED2B7v160006Ev, symObjAddr: 0x1DC0, symBinAddr: 0xD4A0, symSize: 0x40 }
  - { offsetInCU: 0xDA56, offset: 0x42EA2, size: 0x8, addend: 0x0, symName: __ZNSt3__16vectorINS_10shared_ptrI15EnemyGameEntityEENS_9allocatorIS3_EEE16__destroy_vectorC1ERS6_, symObjAddr: 0x1E00, symBinAddr: 0xD4E0, symSize: 0x30 }
  - { offsetInCU: 0xDA8D, offset: 0x42ED9, size: 0x8, addend: 0x0, symName: __ZNSt3__16vectorINS_10shared_ptrI15EnemyGameEntityEENS_9allocatorIS3_EEE16__destroy_vectorclB7v160006Ev, symObjAddr: 0x1E30, symBinAddr: 0xD510, symSize: 0x90 }
  - { offsetInCU: 0xDAB1, offset: 0x42EFD, size: 0x8, addend: 0x0, symName: __ZNSt3__16vectorINS_10shared_ptrI15EnemyGameEntityEENS_9allocatorIS3_EEE16__destroy_vectorC2ERS6_, symObjAddr: 0x1EC0, symBinAddr: 0xD5A0, symSize: 0x20 }
  - { offsetInCU: 0xDAE8, offset: 0x42F34, size: 0x8, addend: 0x0, symName: __ZNKSt3__16vectorINS_10shared_ptrI15EnemyGameEntityEENS_9allocatorIS3_EEE17__annotate_deleteB7v160006Ev, symObjAddr: 0x1EE0, symBinAddr: 0xD5C0, symSize: 0xB0 }
  - { offsetInCU: 0xDB0C, offset: 0x42F58, size: 0x8, addend: 0x0, symName: __ZNSt3__16vectorINS_10shared_ptrI15EnemyGameEntityEENS_9allocatorIS3_EEE7__clearB7v160006Ev, symObjAddr: 0x1FA0, symBinAddr: 0xD680, symSize: 0x20 }
  - { offsetInCU: 0xDB30, offset: 0x42F7C, size: 0x8, addend: 0x0, symName: __ZNSt3__116allocator_traitsINS_9allocatorINS_10shared_ptrI15EnemyGameEntityEEEEE10deallocateB7v160006ERS5_PS4_m, symObjAddr: 0x1FC0, symBinAddr: 0xD6A0, symSize: 0x30 }
  - { offsetInCU: 0xDB71, offset: 0x42FBD, size: 0x8, addend: 0x0, symName: __ZNSt3__16vectorINS_10shared_ptrI15EnemyGameEntityEENS_9allocatorIS3_EEE7__allocB7v160006Ev, symObjAddr: 0x1FF0, symBinAddr: 0xD6D0, symSize: 0x20 }
  - { offsetInCU: 0xDB95, offset: 0x42FE1, size: 0x8, addend: 0x0, symName: __ZNKSt3__16vectorINS_10shared_ptrI15EnemyGameEntityEENS_9allocatorIS3_EEE8capacityB7v160006Ev, symObjAddr: 0x2010, symBinAddr: 0xD6F0, symSize: 0x30 }
  - { offsetInCU: 0xDBB9, offset: 0x43005, size: 0x8, addend: 0x0, symName: __ZNKSt3__16vectorINS_10shared_ptrI15EnemyGameEntityEENS_9allocatorIS3_EEE31__annotate_contiguous_containerB7v160006EPKvS8_S8_S8_, symObjAddr: 0x2040, symBinAddr: 0xD720, symSize: 0x20 }
  - { offsetInCU: 0xDC09, offset: 0x43055, size: 0x8, addend: 0x0, symName: __ZNKSt3__16vectorINS_10shared_ptrI15EnemyGameEntityEENS_9allocatorIS3_EEE4dataB7v160006Ev, symObjAddr: 0x2060, symBinAddr: 0xD740, symSize: 0x20 }
  - { offsetInCU: 0xDC2D, offset: 0x43079, size: 0x8, addend: 0x0, symName: __ZNSt3__16vectorINS_10shared_ptrI15EnemyGameEntityEENS_9allocatorIS3_EEE22__base_destruct_at_endB7v160006EPS3_, symObjAddr: 0x2090, symBinAddr: 0xD770, symSize: 0x80 }
  - { offsetInCU: 0xDC6F, offset: 0x430BB, size: 0x8, addend: 0x0, symName: __ZNSt3__116allocator_traitsINS_9allocatorINS_10shared_ptrI15EnemyGameEntityEEEEE7destroyB7v160006IS4_vvEEvRS5_PT_, symObjAddr: 0x2110, symBinAddr: 0xD7F0, symSize: 0x20 }
  - { offsetInCU: 0xDCAA, offset: 0x430F6, size: 0x8, addend: 0x0, symName: __ZNSt3__19allocatorINS_10shared_ptrI15EnemyGameEntityEEE10deallocateB7v160006EPS3_m, symObjAddr: 0x2170, symBinAddr: 0xD850, symSize: 0x40 }
  - { offsetInCU: 0xDCEA, offset: 0x43136, size: 0x8, addend: 0x0, symName: __ZNSt3__117__compressed_pairIPNS_10shared_ptrI15EnemyGameEntityEENS_9allocatorIS3_EEE6secondB7v160006Ev, symObjAddr: 0x22D0, symBinAddr: 0xD890, symSize: 0x20 }
  - { offsetInCU: 0xDD0E, offset: 0x4315A, size: 0x8, addend: 0x0, symName: __ZNSt3__122__compressed_pair_elemINS_9allocatorINS_10shared_ptrI15EnemyGameEntityEEEELi1ELb1EE5__getB7v160006Ev, symObjAddr: 0x22F0, symBinAddr: 0xD8B0, symSize: 0x10 }
  - { offsetInCU: 0xDD32, offset: 0x4317E, size: 0x8, addend: 0x0, symName: __ZNKSt3__16vectorINS_10shared_ptrI15EnemyGameEntityEENS_9allocatorIS3_EEE9__end_capB7v160006Ev, symObjAddr: 0x2300, symBinAddr: 0xD8C0, symSize: 0x20 }
  - { offsetInCU: 0xDD56, offset: 0x431A2, size: 0x8, addend: 0x0, symName: __ZNKSt3__117__compressed_pairIPNS_10shared_ptrI15EnemyGameEntityEENS_9allocatorIS3_EEE5firstB7v160006Ev, symObjAddr: 0x2320, symBinAddr: 0xD8E0, symSize: 0x20 }
  - { offsetInCU: 0xDD7A, offset: 0x431C6, size: 0x8, addend: 0x0, symName: __ZNKSt3__122__compressed_pair_elemIPNS_10shared_ptrI15EnemyGameEntityEELi0ELb0EE5__getB7v160006Ev, symObjAddr: 0x2340, symBinAddr: 0xD900, symSize: 0x10 }
  - { offsetInCU: 0xDD9E, offset: 0x431EA, size: 0x8, addend: 0x0, symName: __ZNSt3__16vectorINS_10shared_ptrI15EnemyGameEntityEENS_9allocatorIS3_EEE9__end_capB7v160006Ev, symObjAddr: 0x24D0, symBinAddr: 0xD910, symSize: 0x20 }
  - { offsetInCU: 0xDDC2, offset: 0x4320E, size: 0x8, addend: 0x0, symName: __ZNSt3__16vectorINS_10shared_ptrI15EnemyGameEntityEENS_9allocatorIS3_EEE22__construct_one_at_endB7v160006IJS3_EEEvDpOT_, symObjAddr: 0x24F0, symBinAddr: 0xD930, symSize: 0x90 }
  - { offsetInCU: 0xDE0F, offset: 0x4325B, size: 0x8, addend: 0x0, symName: __ZNSt3__16vectorINS_10shared_ptrI15EnemyGameEntityEENS_9allocatorIS3_EEE21__push_back_slow_pathIS3_EEvOT_, symObjAddr: 0x2580, symBinAddr: 0xD9C0, symSize: 0xD0 }
  - { offsetInCU: 0xDE6B, offset: 0x432B7, size: 0x8, addend: 0x0, symName: __ZNSt3__117__compressed_pairIPNS_10shared_ptrI15EnemyGameEntityEENS_9allocatorIS3_EEE5firstB7v160006Ev, symObjAddr: 0x2650, symBinAddr: 0xDA90, symSize: 0x20 }
  - { offsetInCU: 0xDE8F, offset: 0x432DB, size: 0x8, addend: 0x0, symName: __ZNSt3__122__compressed_pair_elemIPNS_10shared_ptrI15EnemyGameEntityEELi0ELb0EE5__getB7v160006Ev, symObjAddr: 0x2670, symBinAddr: 0xDAB0, symSize: 0x10 }
  - { offsetInCU: 0xDECC, offset: 0x43318, size: 0x8, addend: 0x0, symName: __ZNSt3__16vectorINS_10shared_ptrI15EnemyGameEntityEENS_9allocatorIS3_EEE21_ConstructTransactionC1B7v160006ERS6_m, symObjAddr: 0x2680, symBinAddr: 0xDAC0, symSize: 0x30 }
  - { offsetInCU: 0xDF12, offset: 0x4335E, size: 0x8, addend: 0x0, symName: __ZNSt3__116allocator_traitsINS_9allocatorINS_10shared_ptrI15EnemyGameEntityEEEEE9constructB7v160006IS4_JS4_EvvEEvRS5_PT_DpOT0_, symObjAddr: 0x26B0, symBinAddr: 0xDAF0, symSize: 0x30 }
  - { offsetInCU: 0xDF67, offset: 0x433B3, size: 0x8, addend: 0x0, symName: __ZNSt3__16vectorINS_10shared_ptrI15EnemyGameEntityEENS_9allocatorIS3_EEE21_ConstructTransactionD1B7v160006Ev, symObjAddr: 0x26E0, symBinAddr: 0xDB20, symSize: 0x20 }
  - { offsetInCU: 0xDF8F, offset: 0x433DB, size: 0x8, addend: 0x0, symName: __ZNSt3__16vectorINS_10shared_ptrI15EnemyGameEntityEENS_9allocatorIS3_EEE21_ConstructTransactionC2B7v160006ERS6_m, symObjAddr: 0x2700, symBinAddr: 0xDB40, symSize: 0x40 }
  - { offsetInCU: 0xDFD5, offset: 0x43421, size: 0x8, addend: 0x0, symName: __ZNSt3__110shared_ptrI15EnemyGameEntityEC1B7v160006EOS2_, symObjAddr: 0x2780, symBinAddr: 0xDBC0, symSize: 0x30 }
  - { offsetInCU: 0xE00C, offset: 0x43458, size: 0x8, addend: 0x0, symName: __ZNSt3__110shared_ptrI15EnemyGameEntityEC2B7v160006EOS2_, symObjAddr: 0x27B0, symBinAddr: 0xDBF0, symSize: 0x40 }
  - { offsetInCU: 0xE043, offset: 0x4348F, size: 0x8, addend: 0x0, symName: __ZNSt3__16vectorINS_10shared_ptrI15EnemyGameEntityEENS_9allocatorIS3_EEE21_ConstructTransactionD2B7v160006Ev, symObjAddr: 0x27F0, symBinAddr: 0xDC30, symSize: 0x20 }
  - { offsetInCU: 0xE06B, offset: 0x434B7, size: 0x8, addend: 0x0, symName: __ZNKSt3__16vectorINS_10shared_ptrI15EnemyGameEntityEENS_9allocatorIS3_EEE11__recommendB7v160006Em, symObjAddr: 0x2810, symBinAddr: 0xDC50, symSize: 0xA0 }
  - { offsetInCU: 0xE0BE, offset: 0x4350A, size: 0x8, addend: 0x0, symName: __ZNSt3__114__split_bufferINS_10shared_ptrI15EnemyGameEntityEERNS_9allocatorIS3_EEEC1EmmS6_, symObjAddr: 0x28B0, symBinAddr: 0xDCF0, symSize: 0x40 }
  - { offsetInCU: 0xE113, offset: 0x4355F, size: 0x8, addend: 0x0, symName: __ZNSt3__114__split_bufferINS_10shared_ptrI15EnemyGameEntityEERNS_9allocatorIS3_EEED1Ev, symObjAddr: 0x2A20, symBinAddr: 0xDE60, symSize: 0x20 }
  - { offsetInCU: 0xE13E, offset: 0x4358A, size: 0x8, addend: 0x0, symName: __ZNKSt3__16vectorINS_10shared_ptrI15EnemyGameEntityEENS_9allocatorIS3_EEE8max_sizeEv, symObjAddr: 0x2A40, symBinAddr: 0xDE80, symSize: 0x60 }
  - { offsetInCU: 0xE164, offset: 0x435B0, size: 0x8, addend: 0x0, symName: __ZNKSt3__16vectorINS_10shared_ptrI15EnemyGameEntityEENS_9allocatorIS3_EEE20__throw_length_errorB7v160006Ev, symObjAddr: 0x2AA0, symBinAddr: 0xDEE0, symSize: 0x20 }
  - { offsetInCU: 0xE192, offset: 0x435DE, size: 0x8, addend: 0x0, symName: __ZNSt3__116allocator_traitsINS_9allocatorINS_10shared_ptrI15EnemyGameEntityEEEEE8max_sizeB7v160006IS5_vvEEmRKS5_, symObjAddr: 0x2B20, symBinAddr: 0xDF00, symSize: 0x20 }
  - { offsetInCU: 0xE1BE, offset: 0x4360A, size: 0x8, addend: 0x0, symName: __ZNKSt3__16vectorINS_10shared_ptrI15EnemyGameEntityEENS_9allocatorIS3_EEE7__allocB7v160006Ev, symObjAddr: 0x2B40, symBinAddr: 0xDF20, symSize: 0x20 }
  - { offsetInCU: 0xE1E2, offset: 0x4362E, size: 0x8, addend: 0x0, symName: __ZNKSt3__117__compressed_pairIPNS_10shared_ptrI15EnemyGameEntityEENS_9allocatorIS3_EEE6secondB7v160006Ev, symObjAddr: 0x2C10, symBinAddr: 0xDF40, symSize: 0x20 }
  - { offsetInCU: 0xE206, offset: 0x43652, size: 0x8, addend: 0x0, symName: __ZNKSt3__122__compressed_pair_elemINS_9allocatorINS_10shared_ptrI15EnemyGameEntityEEEELi1ELb1EE5__getB7v160006Ev, symObjAddr: 0x2C30, symBinAddr: 0xDF60, symSize: 0x10 }
  - { offsetInCU: 0xE22A, offset: 0x43676, size: 0x8, addend: 0x0, symName: __ZNSt3__114__split_bufferINS_10shared_ptrI15EnemyGameEntityEERNS_9allocatorIS3_EEEC2EmmS6_, symObjAddr: 0x2D80, symBinAddr: 0xDF70, symSize: 0xD0 }
  - { offsetInCU: 0xE29C, offset: 0x436E8, size: 0x8, addend: 0x0, symName: __ZNSt3__117__compressed_pairIPNS_10shared_ptrI15EnemyGameEntityEERNS_9allocatorIS3_EEEC1B7v160006IDnS7_EEOT_OT0_, symObjAddr: 0x2E50, symBinAddr: 0xE040, symSize: 0x30 }
  - { offsetInCU: 0xE2F2, offset: 0x4373E, size: 0x8, addend: 0x0, symName: __ZNSt3__114__split_bufferINS_10shared_ptrI15EnemyGameEntityEERNS_9allocatorIS3_EEE7__allocB7v160006Ev, symObjAddr: 0x2EC0, symBinAddr: 0xE0B0, symSize: 0x20 }
  - { offsetInCU: 0xE316, offset: 0x43762, size: 0x8, addend: 0x0, symName: __ZNSt3__114__split_bufferINS_10shared_ptrI15EnemyGameEntityEERNS_9allocatorIS3_EEE9__end_capB7v160006Ev, symObjAddr: 0x2EE0, symBinAddr: 0xE0D0, symSize: 0x20 }
  - { offsetInCU: 0xE33A, offset: 0x43786, size: 0x8, addend: 0x0, symName: __ZNSt3__117__compressed_pairIPNS_10shared_ptrI15EnemyGameEntityEERNS_9allocatorIS3_EEEC2B7v160006IDnS7_EEOT_OT0_, symObjAddr: 0x2F00, symBinAddr: 0xE0F0, symSize: 0x40 }
  - { offsetInCU: 0xE390, offset: 0x437DC, size: 0x8, addend: 0x0, symName: __ZNSt3__122__compressed_pair_elemIRNS_9allocatorINS_10shared_ptrI15EnemyGameEntityEEEELi1ELb0EEC2B7v160006IS6_vEEOT_, symObjAddr: 0x2F40, symBinAddr: 0xE130, symSize: 0x20 }
  - { offsetInCU: 0xE3D1, offset: 0x4381D, size: 0x8, addend: 0x0, symName: __ZNSt3__19allocatorINS_10shared_ptrI15EnemyGameEntityEEE8allocateB7v160006Em, symObjAddr: 0x2F60, symBinAddr: 0xE150, symSize: 0x50 }
  - { offsetInCU: 0xE403, offset: 0x4384F, size: 0x8, addend: 0x0, symName: __ZNSt3__117__compressed_pairIPNS_10shared_ptrI15EnemyGameEntityEERNS_9allocatorIS3_EEE6secondB7v160006Ev, symObjAddr: 0x30A0, symBinAddr: 0xE1A0, symSize: 0x20 }
  - { offsetInCU: 0xE427, offset: 0x43873, size: 0x8, addend: 0x0, symName: __ZNSt3__122__compressed_pair_elemIRNS_9allocatorINS_10shared_ptrI15EnemyGameEntityEEEELi1ELb0EE5__getB7v160006Ev, symObjAddr: 0x30C0, symBinAddr: 0xE1C0, symSize: 0x20 }
  - { offsetInCU: 0xE44B, offset: 0x43897, size: 0x8, addend: 0x0, symName: __ZNSt3__117__compressed_pairIPNS_10shared_ptrI15EnemyGameEntityEERNS_9allocatorIS3_EEE5firstB7v160006Ev, symObjAddr: 0x30E0, symBinAddr: 0xE1E0, symSize: 0x20 }
  - { offsetInCU: 0xE46F, offset: 0x438BB, size: 0x8, addend: 0x0, symName: __ZNSt3__116reverse_iteratorIPNS_10shared_ptrI15EnemyGameEntityEEEC1B7v160006ES4_, symObjAddr: 0x3280, symBinAddr: 0xE380, symSize: 0x30 }
  - { offsetInCU: 0xE4A5, offset: 0x438F1, size: 0x8, addend: 0x0, symName: __ZNKSt3__116reverse_iteratorIPNS_10shared_ptrI15EnemyGameEntityEEE4baseB7v160006Ev, symObjAddr: 0x32B0, symBinAddr: 0xE3B0, symSize: 0x20 }
  - { offsetInCU: 0xE4C9, offset: 0x43915, size: 0x8, addend: 0x0, symName: __ZNKSt3__16vectorINS_10shared_ptrI15EnemyGameEntityEENS_9allocatorIS3_EEE14__annotate_newB7v160006Em, symObjAddr: 0x3310, symBinAddr: 0xE410, symSize: 0xB0 }
  - { offsetInCU: 0xE4FC, offset: 0x43948, size: 0x8, addend: 0x0, symName: __ZNSt3__129_AllocatorDestroyRangeReverseINS_9allocatorINS_10shared_ptrI15EnemyGameEntityEEEENS_16reverse_iteratorIPS4_EEEC1B7v160006ERS5_RS8_SB_, symObjAddr: 0x3430, symBinAddr: 0xE530, symSize: 0x40 }
  - { offsetInCU: 0xE551, offset: 0x4399D, size: 0x8, addend: 0x0, symName: __ZNKSt3__116reverse_iteratorIPNS_10shared_ptrI15EnemyGameEntityEEEdeB7v160006Ev, symObjAddr: 0x34D0, symBinAddr: 0xE5D0, symSize: 0x30 }
  - { offsetInCU: 0xE583, offset: 0x439CF, size: 0x8, addend: 0x0, symName: __ZNSt3__116reverse_iteratorIPNS_10shared_ptrI15EnemyGameEntityEEEppB7v160006Ev, symObjAddr: 0x3500, symBinAddr: 0xE600, symSize: 0x20 }
  - { offsetInCU: 0xE5A7, offset: 0x439F3, size: 0x8, addend: 0x0, symName: __ZNSt3__128__exception_guard_exceptionsINS_29_AllocatorDestroyRangeReverseINS_9allocatorINS_10shared_ptrI15EnemyGameEntityEEEENS_16reverse_iteratorIPS5_EEEEE10__completeB7v160006Ev, symObjAddr: 0x3520, symBinAddr: 0xE620, symSize: 0x20 }
  - { offsetInCU: 0xE5CB, offset: 0x43A17, size: 0x8, addend: 0x0, symName: __ZNSt3__128__exception_guard_exceptionsINS_29_AllocatorDestroyRangeReverseINS_9allocatorINS_10shared_ptrI15EnemyGameEntityEEEENS_16reverse_iteratorIPS5_EEEEED1B7v160006Ev, symObjAddr: 0x3540, symBinAddr: 0xE640, symSize: 0x20 }
  - { offsetInCU: 0xE5F3, offset: 0x43A3F, size: 0x8, addend: 0x0, symName: __ZNSt3__128__exception_guard_exceptionsINS_29_AllocatorDestroyRangeReverseINS_9allocatorINS_10shared_ptrI15EnemyGameEntityEEEENS_16reverse_iteratorIPS5_EEEEEC1B7v160006ESA_, symObjAddr: 0x3560, symBinAddr: 0xE660, symSize: 0x40 }
  - { offsetInCU: 0xE629, offset: 0x43A75, size: 0x8, addend: 0x0, symName: __ZNSt3__128__exception_guard_exceptionsINS_29_AllocatorDestroyRangeReverseINS_9allocatorINS_10shared_ptrI15EnemyGameEntityEEEENS_16reverse_iteratorIPS5_EEEEEC2B7v160006ESA_, symObjAddr: 0x35A0, symBinAddr: 0xE6A0, symSize: 0x30 }
  - { offsetInCU: 0xE65F, offset: 0x43AAB, size: 0x8, addend: 0x0, symName: __ZNSt3__129_AllocatorDestroyRangeReverseINS_9allocatorINS_10shared_ptrI15EnemyGameEntityEEEENS_16reverse_iteratorIPS4_EEEC2B7v160006ERS5_RS8_SB_, symObjAddr: 0x35D0, symBinAddr: 0xE6D0, symSize: 0x40 }
  - { offsetInCU: 0xE6B9, offset: 0x43B05, size: 0x8, addend: 0x0, symName: __ZNSt3__119__to_address_helperINS_16reverse_iteratorIPNS_10shared_ptrI15EnemyGameEntityEEEEvE6__callB7v160006ERKS6_, symObjAddr: 0x3610, symBinAddr: 0xE710, symSize: 0x40 }
  - { offsetInCU: 0xE6DB, offset: 0x43B27, size: 0x8, addend: 0x0, symName: __ZNKSt3__116reverse_iteratorIPNS_10shared_ptrI15EnemyGameEntityEEEptB7v160006Ev, symObjAddr: 0x3650, symBinAddr: 0xE750, symSize: 0x30 }
  - { offsetInCU: 0xE6FF, offset: 0x43B4B, size: 0x8, addend: 0x0, symName: __ZNSt3__128__exception_guard_exceptionsINS_29_AllocatorDestroyRangeReverseINS_9allocatorINS_10shared_ptrI15EnemyGameEntityEEEENS_16reverse_iteratorIPS5_EEEEED2B7v160006Ev, symObjAddr: 0x3750, symBinAddr: 0xE840, symSize: 0x40 }
  - { offsetInCU: 0xE727, offset: 0x43B73, size: 0x8, addend: 0x0, symName: __ZNKSt3__129_AllocatorDestroyRangeReverseINS_9allocatorINS_10shared_ptrI15EnemyGameEntityEEEENS_16reverse_iteratorIPS4_EEEclB7v160006Ev, symObjAddr: 0x3790, symBinAddr: 0xE880, symSize: 0xF0 }
  - { offsetInCU: 0xE74C, offset: 0x43B98, size: 0x8, addend: 0x0, symName: __ZNSt3__116reverse_iteratorINS0_IPNS_10shared_ptrI15EnemyGameEntityEEEEEC1B7v160006ES5_, symObjAddr: 0x38F0, symBinAddr: 0xE9E0, symSize: 0x30 }
  - { offsetInCU: 0xE782, offset: 0x43BCE, size: 0x8, addend: 0x0, symName: __ZNSt3__116reverse_iteratorINS0_IPNS_10shared_ptrI15EnemyGameEntityEEEEEppB7v160006Ev, symObjAddr: 0x3990, symBinAddr: 0xEA80, symSize: 0x30 }
  - { offsetInCU: 0xE7A6, offset: 0x43BF2, size: 0x8, addend: 0x0, symName: __ZNKSt3__116reverse_iteratorINS0_IPNS_10shared_ptrI15EnemyGameEntityEEEEE4baseB7v160006Ev, symObjAddr: 0x39C0, symBinAddr: 0xEAB0, symSize: 0x20 }
  - { offsetInCU: 0xE7CF, offset: 0x43C1B, size: 0x8, addend: 0x0, symName: __ZNSt3__119__to_address_helperINS_16reverse_iteratorINS1_IPNS_10shared_ptrI15EnemyGameEntityEEEEEEvE6__callB7v160006ERKS7_, symObjAddr: 0x39E0, symBinAddr: 0xEAD0, symSize: 0x40 }
  - { offsetInCU: 0xE7F1, offset: 0x43C3D, size: 0x8, addend: 0x0, symName: __ZNKSt3__116reverse_iteratorINS0_IPNS_10shared_ptrI15EnemyGameEntityEEEEEptB7v160006Ev, symObjAddr: 0x3A20, symBinAddr: 0xEB10, symSize: 0x50 }
  - { offsetInCU: 0xE815, offset: 0x43C61, size: 0x8, addend: 0x0, symName: __ZNSt3__116reverse_iteratorIPNS_10shared_ptrI15EnemyGameEntityEEEpLB7v160006El, symObjAddr: 0x3B50, symBinAddr: 0xEC40, symSize: 0x30 }
  - { offsetInCU: 0xE847, offset: 0x43C93, size: 0x8, addend: 0x0, symName: __ZNSt3__116reverse_iteratorIPNS_10shared_ptrI15EnemyGameEntityEEEmmB7v160006Ev, symObjAddr: 0x3B80, symBinAddr: 0xEC70, symSize: 0x20 }
  - { offsetInCU: 0xE86B, offset: 0x43CB7, size: 0x8, addend: 0x0, symName: __ZNSt3__116reverse_iteratorINS0_IPNS_10shared_ptrI15EnemyGameEntityEEEEEC2B7v160006ES5_, symObjAddr: 0x3BA0, symBinAddr: 0xEC90, symSize: 0x40 }
  - { offsetInCU: 0xE8A1, offset: 0x43CED, size: 0x8, addend: 0x0, symName: __ZNSt3__116reverse_iteratorIPNS_10shared_ptrI15EnemyGameEntityEEEC2B7v160006ES4_, symObjAddr: 0x3BE0, symBinAddr: 0xECD0, symSize: 0x30 }
  - { offsetInCU: 0xE8D7, offset: 0x43D23, size: 0x8, addend: 0x0, symName: __ZNSt3__114__split_bufferINS_10shared_ptrI15EnemyGameEntityEERNS_9allocatorIS3_EEED2Ev, symObjAddr: 0x3C10, symBinAddr: 0xED00, symSize: 0x70 }
  - { offsetInCU: 0xE902, offset: 0x43D4E, size: 0x8, addend: 0x0, symName: __ZNSt3__114__split_bufferINS_10shared_ptrI15EnemyGameEntityEERNS_9allocatorIS3_EEE5clearB7v160006Ev, symObjAddr: 0x3C80, symBinAddr: 0xED70, symSize: 0x20 }
  - { offsetInCU: 0xE926, offset: 0x43D72, size: 0x8, addend: 0x0, symName: __ZNKSt3__114__split_bufferINS_10shared_ptrI15EnemyGameEntityEERNS_9allocatorIS3_EEE8capacityB7v160006Ev, symObjAddr: 0x3CA0, symBinAddr: 0xED90, symSize: 0x30 }
  - { offsetInCU: 0xE94A, offset: 0x43D96, size: 0x8, addend: 0x0, symName: __ZNSt3__114__split_bufferINS_10shared_ptrI15EnemyGameEntityEERNS_9allocatorIS3_EEE17__destruct_at_endB7v160006EPS3_, symObjAddr: 0x3CD0, symBinAddr: 0xEDC0, symSize: 0x30 }
  - { offsetInCU: 0xE97C, offset: 0x43DC8, size: 0x8, addend: 0x0, symName: __ZNSt3__114__split_bufferINS_10shared_ptrI15EnemyGameEntityEERNS_9allocatorIS3_EEE17__destruct_at_endB7v160006EPS3_NS_17integral_constantIbLb0EEE, symObjAddr: 0x3D00, symBinAddr: 0xEDF0, symSize: 0x80 }
  - { offsetInCU: 0xE9BA, offset: 0x43E06, size: 0x8, addend: 0x0, symName: __ZNKSt3__114__split_bufferINS_10shared_ptrI15EnemyGameEntityEERNS_9allocatorIS3_EEE9__end_capB7v160006Ev, symObjAddr: 0x3D80, symBinAddr: 0xEE70, symSize: 0x20 }
  - { offsetInCU: 0xE9DE, offset: 0x43E2A, size: 0x8, addend: 0x0, symName: __ZNKSt3__117__compressed_pairIPNS_10shared_ptrI15EnemyGameEntityEERNS_9allocatorIS3_EEE5firstB7v160006Ev, symObjAddr: 0x3DA0, symBinAddr: 0xEE90, symSize: 0x20 }
  - { offsetInCU: 0xEA02, offset: 0x43E4E, size: 0x8, addend: 0x0, symName: __ZNSt3__110shared_ptrI15EnemyGameEntityED2B7v160006Ev, symObjAddr: 0x3EC0, symBinAddr: 0xEEB0, symSize: 0x40 }
  - { offsetInCU: 0xEA2A, offset: 0x43E76, size: 0x8, addend: 0x0, symName: __ZNSt3__19allocatorI15EnemyGameEntityEC1B7v160006Ev, symObjAddr: 0x3FB0, symBinAddr: 0xEFA0, symSize: 0x20 }
  - { offsetInCU: 0xEA70, offset: 0x43EBC, size: 0x8, addend: 0x0, symName: __ZNSt3__118__allocation_guardINS_9allocatorINS_20__shared_ptr_emplaceI15EnemyGameEntityNS1_IS3_EEEEEEEC1B7v160006IS4_EET_m, symObjAddr: 0x3FD0, symBinAddr: 0xEFC0, symSize: 0x30 }
  - { offsetInCU: 0xEABD, offset: 0x43F09, size: 0x8, addend: 0x0, symName: __ZNKSt3__118__allocation_guardINS_9allocatorINS_20__shared_ptr_emplaceI15EnemyGameEntityNS1_IS3_EEEEEEE5__getB7v160006Ev, symObjAddr: 0x4000, symBinAddr: 0xEFF0, symSize: 0x20 }
  - { offsetInCU: 0xEAEB, offset: 0x43F37, size: 0x8, addend: 0x0, symName: __ZNSt3__120__shared_ptr_emplaceI15EnemyGameEntityNS_9allocatorIS1_EEEC1B7v160006IJRP12SDL_RendererEEES3_DpOT_, symObjAddr: 0x4020, symBinAddr: 0xF010, symSize: 0x30 }
  - { offsetInCU: 0xEB3C, offset: 0x43F88, size: 0x8, addend: 0x0, symName: __ZNSt3__118__allocation_guardINS_9allocatorINS_20__shared_ptr_emplaceI15EnemyGameEntityNS1_IS3_EEEEEEE13__release_ptrB7v160006Ev, symObjAddr: 0x4050, symBinAddr: 0xF040, symSize: 0x30 }
  - { offsetInCU: 0xEB6E, offset: 0x43FBA, size: 0x8, addend: 0x0, symName: __ZNSt3__110shared_ptrI15EnemyGameEntityE27__create_with_control_blockB7v160006IS1_NS_20__shared_ptr_emplaceIS1_NS_9allocatorIS1_EEEEEES2_PT_PT0_, symObjAddr: 0x4080, symBinAddr: 0xF070, symSize: 0x90 }
  - { offsetInCU: 0xEBC2, offset: 0x4400E, size: 0x8, addend: 0x0, symName: __ZNSt3__120__shared_ptr_emplaceI15EnemyGameEntityNS_9allocatorIS1_EEE10__get_elemB7v160006Ev, symObjAddr: 0x4110, symBinAddr: 0xF100, symSize: 0x20 }
  - { offsetInCU: 0xEBE6, offset: 0x44032, size: 0x8, addend: 0x0, symName: __ZNSt3__118__allocation_guardINS_9allocatorINS_20__shared_ptr_emplaceI15EnemyGameEntityNS1_IS3_EEEEEEED1B7v160006Ev, symObjAddr: 0x4130, symBinAddr: 0xF120, symSize: 0x20 }
  - { offsetInCU: 0xEC0E, offset: 0x4405A, size: 0x8, addend: 0x0, symName: __ZNSt3__118__allocation_guardINS_9allocatorINS_20__shared_ptr_emplaceI15EnemyGameEntityNS1_IS3_EEEEEEEC2B7v160006IS4_EET_m, symObjAddr: 0x4150, symBinAddr: 0xF140, symSize: 0x50 }
  - { offsetInCU: 0xEC5B, offset: 0x440A7, size: 0x8, addend: 0x0, symName: __ZNSt3__19allocatorINS_20__shared_ptr_emplaceI15EnemyGameEntityNS0_IS2_EEEEEC1B7v160006IS2_EERKNS0_IT_EE, symObjAddr: 0x41A0, symBinAddr: 0xF190, symSize: 0x30 }
  - { offsetInCU: 0xEC96, offset: 0x440E2, size: 0x8, addend: 0x0, symName: __ZNSt3__116allocator_traitsINS_9allocatorINS_20__shared_ptr_emplaceI15EnemyGameEntityNS1_IS3_EEEEEEE8allocateB7v160006ERS6_m, symObjAddr: 0x41D0, symBinAddr: 0xF1C0, symSize: 0x30 }
  - { offsetInCU: 0xECC8, offset: 0x44114, size: 0x8, addend: 0x0, symName: __ZNSt3__19allocatorINS_20__shared_ptr_emplaceI15EnemyGameEntityNS0_IS2_EEEEEC2B7v160006IS2_EERKNS0_IT_EE, symObjAddr: 0x4200, symBinAddr: 0xF1F0, symSize: 0x20 }
  - { offsetInCU: 0xED03, offset: 0x4414F, size: 0x8, addend: 0x0, symName: __ZNSt3__116__non_trivial_ifILb1ENS_9allocatorINS_20__shared_ptr_emplaceI15EnemyGameEntityNS1_IS3_EEEEEEEC2B7v160006Ev, symObjAddr: 0x4220, symBinAddr: 0xF210, symSize: 0x10 }
  - { offsetInCU: 0xED2B, offset: 0x44177, size: 0x8, addend: 0x0, symName: __ZNSt3__19allocatorINS_20__shared_ptr_emplaceI15EnemyGameEntityNS0_IS2_EEEEE8allocateB7v160006Em, symObjAddr: 0x4230, symBinAddr: 0xF220, symSize: 0x50 }
  - { offsetInCU: 0xED67, offset: 0x441B3, size: 0x8, addend: 0x0, symName: __ZNSt3__116allocator_traitsINS_9allocatorINS_20__shared_ptr_emplaceI15EnemyGameEntityNS1_IS3_EEEEEEE8max_sizeB7v160006IS6_vvEEmRKS6_, symObjAddr: 0x4280, symBinAddr: 0xF270, symSize: 0x30 }
  - { offsetInCU: 0xED93, offset: 0x441DF, size: 0x8, addend: 0x0, symName: __ZNSt3__120__shared_ptr_emplaceI15EnemyGameEntityNS_9allocatorIS1_EEEC2B7v160006IJRP12SDL_RendererEEES3_DpOT_, symObjAddr: 0x42B0, symBinAddr: 0xF2A0, symSize: 0xB0 }
  - { offsetInCU: 0xEE05, offset: 0x44251, size: 0x8, addend: 0x0, symName: __ZNSt3__120__shared_ptr_emplaceI15EnemyGameEntityNS_9allocatorIS1_EEE8_StorageC1B7v160006EOS3_, symObjAddr: 0x43B0, symBinAddr: 0xF350, symSize: 0x30 }
  - { offsetInCU: 0xEE3C, offset: 0x44288, size: 0x8, addend: 0x0, symName: __ZNSt3__120__shared_ptr_emplaceI15EnemyGameEntityNS_9allocatorIS1_EEE11__get_allocB7v160006Ev, symObjAddr: 0x43E0, symBinAddr: 0xF380, symSize: 0x20 }
  - { offsetInCU: 0xEE65, offset: 0x442B1, size: 0x8, addend: 0x0, symName: __ZNSt3__116allocator_traitsINS_9allocatorI15EnemyGameEntityEEE9constructB7v160006IS2_JRP12SDL_RendererEvvEEvRS3_PT_DpOT0_, symObjAddr: 0x4400, symBinAddr: 0xF3A0, symSize: 0x30 }
  - { offsetInCU: 0xEEBA, offset: 0x44306, size: 0x8, addend: 0x0, symName: __ZNSt3__120__shared_ptr_emplaceI15EnemyGameEntityNS_9allocatorIS1_EEE8_StorageD1B7v160006Ev, symObjAddr: 0x4430, symBinAddr: 0xF3D0, symSize: 0x20 }
  - { offsetInCU: 0xEEE2, offset: 0x4432E, size: 0x8, addend: 0x0, symName: __ZNSt3__120__shared_ptr_emplaceI15EnemyGameEntityNS_9allocatorIS1_EEED1Ev, symObjAddr: 0x4450, symBinAddr: 0xF3F0, symSize: 0x20 }
  - { offsetInCU: 0xEF0E, offset: 0x4435A, size: 0x8, addend: 0x0, symName: __ZNSt3__120__shared_ptr_emplaceI15EnemyGameEntityNS_9allocatorIS1_EEED0Ev, symObjAddr: 0x4470, symBinAddr: 0xF410, symSize: 0x30 }
  - { offsetInCU: 0xEF3A, offset: 0x44386, size: 0x8, addend: 0x0, symName: __ZNSt3__120__shared_ptr_emplaceI15EnemyGameEntityNS_9allocatorIS1_EEE16__on_zero_sharedEv, symObjAddr: 0x44A0, symBinAddr: 0xF440, symSize: 0x50 }
  - { offsetInCU: 0xEF7F, offset: 0x443CB, size: 0x8, addend: 0x0, symName: __ZNSt3__120__shared_ptr_emplaceI15EnemyGameEntityNS_9allocatorIS1_EEE21__on_zero_shared_weakEv, symObjAddr: 0x44F0, symBinAddr: 0xF490, symSize: 0x60 }
  - { offsetInCU: 0xEFBE, offset: 0x4440A, size: 0x8, addend: 0x0, symName: __ZNSt3__120__shared_ptr_emplaceI15EnemyGameEntityNS_9allocatorIS1_EEE8_StorageC2B7v160006EOS3_, symObjAddr: 0x4580, symBinAddr: 0xF4F0, symSize: 0x20 }
  - { offsetInCU: 0xEFF5, offset: 0x44441, size: 0x8, addend: 0x0, symName: __ZNSt3__120__shared_ptr_emplaceI15EnemyGameEntityNS_9allocatorIS1_EEE8_Storage11__get_allocEv, symObjAddr: 0x45A0, symBinAddr: 0xF510, symSize: 0x40 }
  - { offsetInCU: 0xF046, offset: 0x44492, size: 0x8, addend: 0x0, symName: __ZNSt3__117__compressed_pairINS_9allocatorI15EnemyGameEntityEES2_E16__get_first_baseB7v160006EPS4_, symObjAddr: 0x45E0, symBinAddr: 0xF550, symSize: 0x10 }
  - { offsetInCU: 0xF068, offset: 0x444B4, size: 0x8, addend: 0x0, symName: __ZNSt3__120__shared_ptr_emplaceI15EnemyGameEntityNS_9allocatorIS1_EEE8_StorageD2B7v160006Ev, symObjAddr: 0x4630, symBinAddr: 0xF5A0, symSize: 0x20 }
  - { offsetInCU: 0xF090, offset: 0x444DC, size: 0x8, addend: 0x0, symName: __ZNSt3__120__shared_ptr_emplaceI15EnemyGameEntityNS_9allocatorIS1_EEED2Ev, symObjAddr: 0x4650, symBinAddr: 0xF5C0, symSize: 0x40 }
  - { offsetInCU: 0xF0BC, offset: 0x44508, size: 0x8, addend: 0x0, symName: __ZNSt3__116allocator_traitsINS_9allocatorI15EnemyGameEntityEEE7destroyB7v160006IS2_vvEEvRS3_PT_, symObjAddr: 0x4690, symBinAddr: 0xF600, symSize: 0x20 }
  - { offsetInCU: 0xF0F7, offset: 0x44543, size: 0x8, addend: 0x0, symName: __ZNSt3__116allocator_traitsINS_9allocatorINS_20__shared_ptr_emplaceI15EnemyGameEntityNS1_IS3_EEEEEEE10deallocateB7v160006ERS6_PS5_m, symObjAddr: 0x46F0, symBinAddr: 0xF660, symSize: 0x30 }
  - { offsetInCU: 0xF13D, offset: 0x44589, size: 0x8, addend: 0x0, symName: __ZNSt3__114pointer_traitsIPNS_20__shared_ptr_emplaceI15EnemyGameEntityNS_9allocatorIS2_EEEEE10pointer_toB7v160006ERS5_, symObjAddr: 0x4720, symBinAddr: 0xF690, symSize: 0x10 }
  - { offsetInCU: 0xF15F, offset: 0x445AB, size: 0x8, addend: 0x0, symName: __ZNSt3__19allocatorINS_20__shared_ptr_emplaceI15EnemyGameEntityNS0_IS2_EEEEE10deallocateB7v160006EPS4_m, symObjAddr: 0x4730, symBinAddr: 0xF6A0, symSize: 0x40 }
  - { offsetInCU: 0xF19F, offset: 0x445EB, size: 0x8, addend: 0x0, symName: __ZNSt3__110shared_ptrI15EnemyGameEntityEC1B7v160006Ev, symObjAddr: 0x4770, symBinAddr: 0xF6E0, symSize: 0x20 }
  - { offsetInCU: 0xF1C7, offset: 0x44613, size: 0x8, addend: 0x0, symName: __ZNSt3__110shared_ptrI15EnemyGameEntityEC2B7v160006Ev, symObjAddr: 0x4800, symBinAddr: 0xF770, symSize: 0x20 }
  - { offsetInCU: 0xF1EF, offset: 0x4463B, size: 0x8, addend: 0x0, symName: __ZNKSt3__18weak_ptrI10GameEntityE7expiredB7v160006Ev, symObjAddr: 0x4820, symBinAddr: 0xF790, symSize: 0x50 }
  - { offsetInCU: 0xF213, offset: 0x4465F, size: 0x8, addend: 0x0, symName: __ZNSt3__110shared_ptrI10GameEntityEC1B7v160006I15EnemyGameEntityEERKNS0_IT_EEPS1_, symObjAddr: 0x4870, symBinAddr: 0xF7E0, symSize: 0x30 }
  - { offsetInCU: 0xF262, offset: 0x446AE, size: 0x8, addend: 0x0, symName: __ZNSt3__18weak_ptrI10GameEntityEaSIS1_EENS_9enable_ifIXsr17__compatible_withIT_S1_EE5valueERS2_E4typeERKNS_10shared_ptrIS5_EE, symObjAddr: 0x48A0, symBinAddr: 0xF810, symSize: 0x50 }
  - { offsetInCU: 0xF2A0, offset: 0x446EC, size: 0x8, addend: 0x0, symName: __ZNKSt3__119__shared_weak_count9use_countB7v160006Ev, symObjAddr: 0x48F0, symBinAddr: 0xF860, symSize: 0x20 }
  - { offsetInCU: 0xF2C4, offset: 0x44710, size: 0x8, addend: 0x0, symName: __ZNKSt3__114__shared_count9use_countB7v160006Ev, symObjAddr: 0x4910, symBinAddr: 0xF880, symSize: 0x40 }
  - { offsetInCU: 0xF2E8, offset: 0x44734, size: 0x8, addend: 0x0, symName: __ZNSt3__110shared_ptrI10GameEntityEC2B7v160006I15EnemyGameEntityEERKNS0_IT_EEPS1_, symObjAddr: 0x4970, symBinAddr: 0xF8E0, symSize: 0x50 }
  - { offsetInCU: 0xF33C, offset: 0x44788, size: 0x8, addend: 0x0, symName: __ZNSt3__18weak_ptrI10GameEntityEC1IS1_EERKNS_10shared_ptrIT_EENS_9enable_ifIXsr17__compatible_withIS5_S1_EE5valueEPNS_5__natEE4typeE, symObjAddr: 0x4A30, symBinAddr: 0xF930, symSize: 0x30 }
  - { offsetInCU: 0xF38A, offset: 0x447D6, size: 0x8, addend: 0x0, symName: __ZNSt3__18weak_ptrI10GameEntityE4swapERS2_, symObjAddr: 0x4A60, symBinAddr: 0xF960, symSize: 0x40 }
  - { offsetInCU: 0xF3BF, offset: 0x4480B, size: 0x8, addend: 0x0, symName: __ZNSt3__18weak_ptrI10GameEntityEC2IS1_EERKNS_10shared_ptrIT_EENS_9enable_ifIXsr17__compatible_withIS5_S1_EE5valueEPNS_5__natEE4typeE, symObjAddr: 0x4AC0, symBinAddr: 0xF9A0, symSize: 0x50 }
  - { offsetInCU: 0xF40D, offset: 0x44859, size: 0x8, addend: 0x0, symName: __ZNSt3__119__shared_weak_count10__add_weakB7v160006Ev, symObjAddr: 0x4B10, symBinAddr: 0xF9F0, symSize: 0x20 }
  - { offsetInCU: 0xF431, offset: 0x4487D, size: 0x8, addend: 0x0, symName: __ZNSt3__120__shared_ptr_emplaceI15EnemyGameEntityNS_9allocatorIS1_EEE8_Storage10__get_elemEv, symObjAddr: 0x4BF0, symBinAddr: 0xFA10, symSize: 0x40 }
  - { offsetInCU: 0xF482, offset: 0x448CE, size: 0x8, addend: 0x0, symName: __ZNSt3__117__compressed_pairINS_9allocatorI15EnemyGameEntityEES2_E17__get_second_baseB7v160006EPS4_, symObjAddr: 0x4C30, symBinAddr: 0xFA50, symSize: 0x10 }
  - { offsetInCU: 0xF4A4, offset: 0x448F0, size: 0x8, addend: 0x0, symName: __ZNSt3__118__allocation_guardINS_9allocatorINS_20__shared_ptr_emplaceI15EnemyGameEntityNS1_IS3_EEEEEEED2B7v160006Ev, symObjAddr: 0x4C40, symBinAddr: 0xFA60, symSize: 0x40 }
  - { offsetInCU: 0xF4CC, offset: 0x44918, size: 0x8, addend: 0x0, symName: __ZNSt3__19allocatorI15EnemyGameEntityEC2B7v160006Ev, symObjAddr: 0x4C80, symBinAddr: 0xFAA0, symSize: 0x20 }
  - { offsetInCU: 0xF4F4, offset: 0x44940, size: 0x8, addend: 0x0, symName: __ZNSt3__116__non_trivial_ifILb1ENS_9allocatorI15EnemyGameEntityEEEC2B7v160006Ev, symObjAddr: 0x4CA0, symBinAddr: 0xFAC0, symSize: 0x10 }
  - { offsetInCU: 0xF51C, offset: 0x44968, size: 0x8, addend: 0x0, symName: __ZNKSt3__110shared_ptrI15EnemyGameEntityEcvbB7v160006Ev, symObjAddr: 0x4CB0, symBinAddr: 0xFAD0, symSize: 0x30 }
  - { offsetInCU: 0xF540, offset: 0x4498C, size: 0x8, addend: 0x0, symName: __ZNKSt3__110shared_ptrI15EnemyGameEntityE3getB7v160006Ev, symObjAddr: 0x4CE0, symBinAddr: 0xFB00, symSize: 0x20 }
  - { offsetInCU: 0xF564, offset: 0x449B0, size: 0x8, addend: 0x0, symName: __ZNSt3__19allocatorI16TextureComponentEC1B7v160006Ev, symObjAddr: 0x4DA0, symBinAddr: 0xFBC0, symSize: 0x20 }
  - { offsetInCU: 0xF5AA, offset: 0x449F6, size: 0x8, addend: 0x0, symName: __ZNSt3__118__allocation_guardINS_9allocatorINS_20__shared_ptr_emplaceI16TextureComponentNS1_IS3_EEEEEEEC1B7v160006IS4_EET_m, symObjAddr: 0x4DC0, symBinAddr: 0xFBE0, symSize: 0x30 }
  - { offsetInCU: 0xF5F7, offset: 0x44A43, size: 0x8, addend: 0x0, symName: __ZNKSt3__118__allocation_guardINS_9allocatorINS_20__shared_ptr_emplaceI16TextureComponentNS1_IS3_EEEEEEE5__getB7v160006Ev, symObjAddr: 0x4DF0, symBinAddr: 0xFC10, symSize: 0x20 }
  - { offsetInCU: 0xF61B, offset: 0x44A67, size: 0x8, addend: 0x0, symName: __ZNSt3__120__shared_ptr_emplaceI16TextureComponentNS_9allocatorIS1_EEEC1B7v160006IJEEES3_DpOT_, symObjAddr: 0x4E10, symBinAddr: 0xFC30, symSize: 0x20 }
  - { offsetInCU: 0xF658, offset: 0x44AA4, size: 0x8, addend: 0x0, symName: __ZNSt3__118__allocation_guardINS_9allocatorINS_20__shared_ptr_emplaceI16TextureComponentNS1_IS3_EEEEEEE13__release_ptrB7v160006Ev, symObjAddr: 0x4E30, symBinAddr: 0xFC50, symSize: 0x30 }
  - { offsetInCU: 0xF68A, offset: 0x44AD6, size: 0x8, addend: 0x0, symName: __ZNSt3__110shared_ptrI16TextureComponentE27__create_with_control_blockB7v160006IS1_NS_20__shared_ptr_emplaceIS1_NS_9allocatorIS1_EEEEEES2_PT_PT0_, symObjAddr: 0x4E60, symBinAddr: 0xFC80, symSize: 0x70 }
  - { offsetInCU: 0xF6DE, offset: 0x44B2A, size: 0x8, addend: 0x0, symName: __ZNSt3__120__shared_ptr_emplaceI16TextureComponentNS_9allocatorIS1_EEE10__get_elemB7v160006Ev, symObjAddr: 0x4ED0, symBinAddr: 0xFCF0, symSize: 0x20 }
  - { offsetInCU: 0xF702, offset: 0x44B4E, size: 0x8, addend: 0x0, symName: __ZNSt3__118__allocation_guardINS_9allocatorINS_20__shared_ptr_emplaceI16TextureComponentNS1_IS3_EEEEEEED1B7v160006Ev, symObjAddr: 0x4EF0, symBinAddr: 0xFD10, symSize: 0x20 }
  - { offsetInCU: 0xF72A, offset: 0x44B76, size: 0x8, addend: 0x0, symName: __ZNSt3__118__allocation_guardINS_9allocatorINS_20__shared_ptr_emplaceI16TextureComponentNS1_IS3_EEEEEEEC2B7v160006IS4_EET_m, symObjAddr: 0x4F10, symBinAddr: 0xFD30, symSize: 0x50 }
  - { offsetInCU: 0xF777, offset: 0x44BC3, size: 0x8, addend: 0x0, symName: __ZNSt3__19allocatorINS_20__shared_ptr_emplaceI16TextureComponentNS0_IS2_EEEEEC1B7v160006IS2_EERKNS0_IT_EE, symObjAddr: 0x4F60, symBinAddr: 0xFD80, symSize: 0x30 }
  - { offsetInCU: 0xF7B2, offset: 0x44BFE, size: 0x8, addend: 0x0, symName: __ZNSt3__116allocator_traitsINS_9allocatorINS_20__shared_ptr_emplaceI16TextureComponentNS1_IS3_EEEEEEE8allocateB7v160006ERS6_m, symObjAddr: 0x4F90, symBinAddr: 0xFDB0, symSize: 0x30 }
  - { offsetInCU: 0xF7E4, offset: 0x44C30, size: 0x8, addend: 0x0, symName: __ZNSt3__19allocatorINS_20__shared_ptr_emplaceI16TextureComponentNS0_IS2_EEEEEC2B7v160006IS2_EERKNS0_IT_EE, symObjAddr: 0x4FC0, symBinAddr: 0xFDE0, symSize: 0x20 }
  - { offsetInCU: 0xF81F, offset: 0x44C6B, size: 0x8, addend: 0x0, symName: __ZNSt3__116__non_trivial_ifILb1ENS_9allocatorINS_20__shared_ptr_emplaceI16TextureComponentNS1_IS3_EEEEEEEC2B7v160006Ev, symObjAddr: 0x4FE0, symBinAddr: 0xFE00, symSize: 0x10 }
  - { offsetInCU: 0xF847, offset: 0x44C93, size: 0x8, addend: 0x0, symName: __ZNSt3__19allocatorINS_20__shared_ptr_emplaceI16TextureComponentNS0_IS2_EEEEE8allocateB7v160006Em, symObjAddr: 0x4FF0, symBinAddr: 0xFE10, symSize: 0x50 }
  - { offsetInCU: 0xF883, offset: 0x44CCF, size: 0x8, addend: 0x0, symName: __ZNSt3__116allocator_traitsINS_9allocatorINS_20__shared_ptr_emplaceI16TextureComponentNS1_IS3_EEEEEEE8max_sizeB7v160006IS6_vvEEmRKS6_, symObjAddr: 0x5040, symBinAddr: 0xFE60, symSize: 0x20 }
  - { offsetInCU: 0xF8AF, offset: 0x44CFB, size: 0x8, addend: 0x0, symName: __ZNSt3__120__shared_ptr_emplaceI16TextureComponentNS_9allocatorIS1_EEEC2B7v160006IJEEES3_DpOT_, symObjAddr: 0x5060, symBinAddr: 0xFE80, symSize: 0xB0 }
  - { offsetInCU: 0xF90D, offset: 0x44D59, size: 0x8, addend: 0x0, symName: __ZNSt3__120__shared_ptr_emplaceI16TextureComponentNS_9allocatorIS1_EEE8_StorageC1B7v160006EOS3_, symObjAddr: 0x5110, symBinAddr: 0xFF30, symSize: 0x30 }
  - { offsetInCU: 0xF944, offset: 0x44D90, size: 0x8, addend: 0x0, symName: __ZNSt3__120__shared_ptr_emplaceI16TextureComponentNS_9allocatorIS1_EEE11__get_allocB7v160006Ev, symObjAddr: 0x5140, symBinAddr: 0xFF60, symSize: 0x20 }
  - { offsetInCU: 0xF96D, offset: 0x44DB9, size: 0x8, addend: 0x0, symName: __ZNSt3__116allocator_traitsINS_9allocatorI16TextureComponentEEE9constructB7v160006IS2_JEvvEEvRS3_PT_DpOT0_, symObjAddr: 0x5160, symBinAddr: 0xFF80, symSize: 0x20 }
  - { offsetInCU: 0xF9AE, offset: 0x44DFA, size: 0x8, addend: 0x0, symName: __ZNSt3__120__shared_ptr_emplaceI16TextureComponentNS_9allocatorIS1_EEE8_StorageD1B7v160006Ev, symObjAddr: 0x5180, symBinAddr: 0xFFA0, symSize: 0x20 }
  - { offsetInCU: 0xF9D6, offset: 0x44E22, size: 0x8, addend: 0x0, symName: __ZNSt3__120__shared_ptr_emplaceI16TextureComponentNS_9allocatorIS1_EEED1Ev, symObjAddr: 0x51A0, symBinAddr: 0xFFC0, symSize: 0x20 }
  - { offsetInCU: 0xFA02, offset: 0x44E4E, size: 0x8, addend: 0x0, symName: __ZNSt3__120__shared_ptr_emplaceI16TextureComponentNS_9allocatorIS1_EEED0Ev, symObjAddr: 0x51C0, symBinAddr: 0xFFE0, symSize: 0x30 }
  - { offsetInCU: 0xFA2E, offset: 0x44E7A, size: 0x8, addend: 0x0, symName: __ZNSt3__120__shared_ptr_emplaceI16TextureComponentNS_9allocatorIS1_EEE16__on_zero_sharedEv, symObjAddr: 0x51F0, symBinAddr: 0x10010, symSize: 0x50 }
  - { offsetInCU: 0xFA73, offset: 0x44EBF, size: 0x8, addend: 0x0, symName: __ZNSt3__120__shared_ptr_emplaceI16TextureComponentNS_9allocatorIS1_EEE21__on_zero_shared_weakEv, symObjAddr: 0x5240, symBinAddr: 0x10060, symSize: 0x60 }
  - { offsetInCU: 0xFAB2, offset: 0x44EFE, size: 0x8, addend: 0x0, symName: __ZNSt3__120__shared_ptr_emplaceI16TextureComponentNS_9allocatorIS1_EEE8_StorageC2B7v160006EOS3_, symObjAddr: 0x52A0, symBinAddr: 0x100C0, symSize: 0x20 }
  - { offsetInCU: 0xFAE9, offset: 0x44F35, size: 0x8, addend: 0x0, symName: __ZNSt3__120__shared_ptr_emplaceI16TextureComponentNS_9allocatorIS1_EEE8_Storage11__get_allocEv, symObjAddr: 0x52C0, symBinAddr: 0x100E0, symSize: 0x40 }
  - { offsetInCU: 0xFB3A, offset: 0x44F86, size: 0x8, addend: 0x0, symName: __ZNSt3__117__compressed_pairINS_9allocatorI16TextureComponentEES2_E16__get_first_baseB7v160006EPS4_, symObjAddr: 0x5300, symBinAddr: 0x10120, symSize: 0x10 }
  - { offsetInCU: 0xFB5C, offset: 0x44FA8, size: 0x8, addend: 0x0, symName: __ZNSt3__120__shared_ptr_emplaceI16TextureComponentNS_9allocatorIS1_EEE8_StorageD2B7v160006Ev, symObjAddr: 0x5340, symBinAddr: 0x10160, symSize: 0x20 }
  - { offsetInCU: 0xFB84, offset: 0x44FD0, size: 0x8, addend: 0x0, symName: __ZNSt3__120__shared_ptr_emplaceI16TextureComponentNS_9allocatorIS1_EEED2Ev, symObjAddr: 0x5360, symBinAddr: 0x10180, symSize: 0x40 }
  - { offsetInCU: 0xFBB0, offset: 0x44FFC, size: 0x8, addend: 0x0, symName: __ZNSt3__116allocator_traitsINS_9allocatorI16TextureComponentEEE7destroyB7v160006IS2_vvEEvRS3_PT_, symObjAddr: 0x53A0, symBinAddr: 0x101C0, symSize: 0x20 }
  - { offsetInCU: 0xFBEB, offset: 0x45037, size: 0x8, addend: 0x0, symName: __ZNSt3__116allocator_traitsINS_9allocatorINS_20__shared_ptr_emplaceI16TextureComponentNS1_IS3_EEEEEEE10deallocateB7v160006ERS6_PS5_m, symObjAddr: 0x5400, symBinAddr: 0x10220, symSize: 0x30 }
  - { offsetInCU: 0xFC31, offset: 0x4507D, size: 0x8, addend: 0x0, symName: __ZNSt3__114pointer_traitsIPNS_20__shared_ptr_emplaceI16TextureComponentNS_9allocatorIS2_EEEEE10pointer_toB7v160006ERS5_, symObjAddr: 0x5430, symBinAddr: 0x10250, symSize: 0x10 }
  - { offsetInCU: 0xFC53, offset: 0x4509F, size: 0x8, addend: 0x0, symName: __ZNSt3__19allocatorINS_20__shared_ptr_emplaceI16TextureComponentNS0_IS2_EEEEE10deallocateB7v160006EPS4_m, symObjAddr: 0x5440, symBinAddr: 0x10260, symSize: 0x40 }
  - { offsetInCU: 0xFC93, offset: 0x450DF, size: 0x8, addend: 0x0, symName: __ZNSt3__110shared_ptrI16TextureComponentE18__enable_weak_thisB7v160006Ez, symObjAddr: 0x54A0, symBinAddr: 0x102A0, symSize: 0x10 }
  - { offsetInCU: 0xFCB8, offset: 0x45104, size: 0x8, addend: 0x0, symName: __ZNSt3__120__shared_ptr_emplaceI16TextureComponentNS_9allocatorIS1_EEE8_Storage10__get_elemEv, symObjAddr: 0x54D0, symBinAddr: 0x102B0, symSize: 0x40 }
  - { offsetInCU: 0xFD09, offset: 0x45155, size: 0x8, addend: 0x0, symName: __ZNSt3__117__compressed_pairINS_9allocatorI16TextureComponentEES2_E17__get_second_baseB7v160006EPS4_, symObjAddr: 0x5510, symBinAddr: 0x102F0, symSize: 0x10 }
  - { offsetInCU: 0xFD2B, offset: 0x45177, size: 0x8, addend: 0x0, symName: __ZNSt3__118__allocation_guardINS_9allocatorINS_20__shared_ptr_emplaceI16TextureComponentNS1_IS3_EEEEEEED2B7v160006Ev, symObjAddr: 0x5520, symBinAddr: 0x10300, symSize: 0x40 }
  - { offsetInCU: 0xFD53, offset: 0x4519F, size: 0x8, addend: 0x0, symName: __ZNSt3__19allocatorI16TextureComponentEC2B7v160006Ev, symObjAddr: 0x5560, symBinAddr: 0x10340, symSize: 0x20 }
  - { offsetInCU: 0xFD7B, offset: 0x451C7, size: 0x8, addend: 0x0, symName: __ZNSt3__116__non_trivial_ifILb1ENS_9allocatorI16TextureComponentEEEC2B7v160006Ev, symObjAddr: 0x5580, symBinAddr: 0x10360, symSize: 0x10 }
  - { offsetInCU: 0xFDA3, offset: 0x451EF, size: 0x8, addend: 0x0, symName: __ZNSt3__110shared_ptrI16TextureComponentED2B7v160006Ev, symObjAddr: 0x5590, symBinAddr: 0x10370, symSize: 0x40 }
  - { offsetInCU: 0xFDCB, offset: 0x45217, size: 0x8, addend: 0x0, symName: __ZNKSt3__110shared_ptrI16TextureComponentEcvbB7v160006Ev, symObjAddr: 0x55D0, symBinAddr: 0x103B0, symSize: 0x30 }
  - { offsetInCU: 0xFDEF, offset: 0x4523B, size: 0x8, addend: 0x0, symName: __ZNKSt3__110shared_ptrI16TextureComponentE3getB7v160006Ev, symObjAddr: 0x5600, symBinAddr: 0x103E0, symSize: 0x20 }
  - { offsetInCU: 0xFE13, offset: 0x4525F, size: 0x8, addend: 0x0, symName: __ZNSt3__110shared_ptrI16TextureComponentEC2B7v160006ERKS2_, symObjAddr: 0x5620, symBinAddr: 0x10400, symSize: 0x50 }
  - { offsetInCU: 0xFE4A, offset: 0x45296, size: 0x8, addend: 0x0, symName: __ZNSt3__19allocatorI20Collision2DComponentEC1B7v160006Ev, symObjAddr: 0x5710, symBinAddr: 0x104F0, symSize: 0x20 }
  - { offsetInCU: 0xFE90, offset: 0x452DC, size: 0x8, addend: 0x0, symName: __ZNSt3__118__allocation_guardINS_9allocatorINS_20__shared_ptr_emplaceI20Collision2DComponentNS1_IS3_EEEEEEEC1B7v160006IS4_EET_m, symObjAddr: 0x5730, symBinAddr: 0x10510, symSize: 0x30 }
  - { offsetInCU: 0xFEDD, offset: 0x45329, size: 0x8, addend: 0x0, symName: __ZNKSt3__118__allocation_guardINS_9allocatorINS_20__shared_ptr_emplaceI20Collision2DComponentNS1_IS3_EEEEEEE5__getB7v160006Ev, symObjAddr: 0x5760, symBinAddr: 0x10540, symSize: 0x20 }
  - { offsetInCU: 0xFF01, offset: 0x4534D, size: 0x8, addend: 0x0, symName: __ZNSt3__120__shared_ptr_emplaceI20Collision2DComponentNS_9allocatorIS1_EEEC1B7v160006IJEEES3_DpOT_, symObjAddr: 0x5780, symBinAddr: 0x10560, symSize: 0x20 }
  - { offsetInCU: 0xFF3E, offset: 0x4538A, size: 0x8, addend: 0x0, symName: __ZNSt3__118__allocation_guardINS_9allocatorINS_20__shared_ptr_emplaceI20Collision2DComponentNS1_IS3_EEEEEEE13__release_ptrB7v160006Ev, symObjAddr: 0x57A0, symBinAddr: 0x10580, symSize: 0x30 }
  - { offsetInCU: 0xFF70, offset: 0x453BC, size: 0x8, addend: 0x0, symName: __ZNSt3__110shared_ptrI20Collision2DComponentE27__create_with_control_blockB7v160006IS1_NS_20__shared_ptr_emplaceIS1_NS_9allocatorIS1_EEEEEES2_PT_PT0_, symObjAddr: 0x57D0, symBinAddr: 0x105B0, symSize: 0x70 }
  - { offsetInCU: 0xFFC4, offset: 0x45410, size: 0x8, addend: 0x0, symName: __ZNSt3__120__shared_ptr_emplaceI20Collision2DComponentNS_9allocatorIS1_EEE10__get_elemB7v160006Ev, symObjAddr: 0x5840, symBinAddr: 0x10620, symSize: 0x20 }
  - { offsetInCU: 0xFFE8, offset: 0x45434, size: 0x8, addend: 0x0, symName: __ZNSt3__118__allocation_guardINS_9allocatorINS_20__shared_ptr_emplaceI20Collision2DComponentNS1_IS3_EEEEEEED1B7v160006Ev, symObjAddr: 0x5860, symBinAddr: 0x10640, symSize: 0x20 }
  - { offsetInCU: 0x10010, offset: 0x4545C, size: 0x8, addend: 0x0, symName: __ZNSt3__118__allocation_guardINS_9allocatorINS_20__shared_ptr_emplaceI20Collision2DComponentNS1_IS3_EEEEEEEC2B7v160006IS4_EET_m, symObjAddr: 0x5880, symBinAddr: 0x10660, symSize: 0x50 }
  - { offsetInCU: 0x1005D, offset: 0x454A9, size: 0x8, addend: 0x0, symName: __ZNSt3__19allocatorINS_20__shared_ptr_emplaceI20Collision2DComponentNS0_IS2_EEEEEC1B7v160006IS2_EERKNS0_IT_EE, symObjAddr: 0x58D0, symBinAddr: 0x106B0, symSize: 0x30 }
  - { offsetInCU: 0x10098, offset: 0x454E4, size: 0x8, addend: 0x0, symName: __ZNSt3__116allocator_traitsINS_9allocatorINS_20__shared_ptr_emplaceI20Collision2DComponentNS1_IS3_EEEEEEE8allocateB7v160006ERS6_m, symObjAddr: 0x5900, symBinAddr: 0x106E0, symSize: 0x30 }
  - { offsetInCU: 0x100CA, offset: 0x45516, size: 0x8, addend: 0x0, symName: __ZNSt3__19allocatorINS_20__shared_ptr_emplaceI20Collision2DComponentNS0_IS2_EEEEEC2B7v160006IS2_EERKNS0_IT_EE, symObjAddr: 0x5930, symBinAddr: 0x10710, symSize: 0x20 }
  - { offsetInCU: 0x10105, offset: 0x45551, size: 0x8, addend: 0x0, symName: __ZNSt3__116__non_trivial_ifILb1ENS_9allocatorINS_20__shared_ptr_emplaceI20Collision2DComponentNS1_IS3_EEEEEEEC2B7v160006Ev, symObjAddr: 0x5950, symBinAddr: 0x10730, symSize: 0x10 }
  - { offsetInCU: 0x1012D, offset: 0x45579, size: 0x8, addend: 0x0, symName: __ZNSt3__19allocatorINS_20__shared_ptr_emplaceI20Collision2DComponentNS0_IS2_EEEEE8allocateB7v160006Em, symObjAddr: 0x5960, symBinAddr: 0x10740, symSize: 0x50 }
  - { offsetInCU: 0x10169, offset: 0x455B5, size: 0x8, addend: 0x0, symName: __ZNSt3__116allocator_traitsINS_9allocatorINS_20__shared_ptr_emplaceI20Collision2DComponentNS1_IS3_EEEEEEE8max_sizeB7v160006IS6_vvEEmRKS6_, symObjAddr: 0x59B0, symBinAddr: 0x10790, symSize: 0x20 }
  - { offsetInCU: 0x10195, offset: 0x455E1, size: 0x8, addend: 0x0, symName: __ZNSt3__120__shared_ptr_emplaceI20Collision2DComponentNS_9allocatorIS1_EEEC2B7v160006IJEEES3_DpOT_, symObjAddr: 0x59D0, symBinAddr: 0x107B0, symSize: 0xB0 }
  - { offsetInCU: 0x101F3, offset: 0x4563F, size: 0x8, addend: 0x0, symName: __ZNSt3__120__shared_ptr_emplaceI20Collision2DComponentNS_9allocatorIS1_EEE8_StorageC1B7v160006EOS3_, symObjAddr: 0x5A80, symBinAddr: 0x10860, symSize: 0x30 }
  - { offsetInCU: 0x1022A, offset: 0x45676, size: 0x8, addend: 0x0, symName: __ZNSt3__120__shared_ptr_emplaceI20Collision2DComponentNS_9allocatorIS1_EEE11__get_allocB7v160006Ev, symObjAddr: 0x5AB0, symBinAddr: 0x10890, symSize: 0x20 }
  - { offsetInCU: 0x10253, offset: 0x4569F, size: 0x8, addend: 0x0, symName: __ZNSt3__116allocator_traitsINS_9allocatorI20Collision2DComponentEEE9constructB7v160006IS2_JEvvEEvRS3_PT_DpOT0_, symObjAddr: 0x5AD0, symBinAddr: 0x108B0, symSize: 0x20 }
  - { offsetInCU: 0x10294, offset: 0x456E0, size: 0x8, addend: 0x0, symName: __ZNSt3__120__shared_ptr_emplaceI20Collision2DComponentNS_9allocatorIS1_EEE8_StorageD1B7v160006Ev, symObjAddr: 0x5AF0, symBinAddr: 0x108D0, symSize: 0x20 }
  - { offsetInCU: 0x102BC, offset: 0x45708, size: 0x8, addend: 0x0, symName: __ZNSt3__120__shared_ptr_emplaceI20Collision2DComponentNS_9allocatorIS1_EEED1Ev, symObjAddr: 0x5B10, symBinAddr: 0x108F0, symSize: 0x20 }
  - { offsetInCU: 0x102E8, offset: 0x45734, size: 0x8, addend: 0x0, symName: __ZNSt3__120__shared_ptr_emplaceI20Collision2DComponentNS_9allocatorIS1_EEED0Ev, symObjAddr: 0x5B30, symBinAddr: 0x10910, symSize: 0x30 }
  - { offsetInCU: 0x10314, offset: 0x45760, size: 0x8, addend: 0x0, symName: __ZNSt3__120__shared_ptr_emplaceI20Collision2DComponentNS_9allocatorIS1_EEE16__on_zero_sharedEv, symObjAddr: 0x5B60, symBinAddr: 0x10940, symSize: 0x50 }
  - { offsetInCU: 0x10359, offset: 0x457A5, size: 0x8, addend: 0x0, symName: __ZNSt3__120__shared_ptr_emplaceI20Collision2DComponentNS_9allocatorIS1_EEE21__on_zero_shared_weakEv, symObjAddr: 0x5BB0, symBinAddr: 0x10990, symSize: 0x60 }
  - { offsetInCU: 0x10398, offset: 0x457E4, size: 0x8, addend: 0x0, symName: __ZNSt3__120__shared_ptr_emplaceI20Collision2DComponentNS_9allocatorIS1_EEE8_StorageC2B7v160006EOS3_, symObjAddr: 0x5C10, symBinAddr: 0x109F0, symSize: 0x20 }
  - { offsetInCU: 0x103CF, offset: 0x4581B, size: 0x8, addend: 0x0, symName: __ZNSt3__120__shared_ptr_emplaceI20Collision2DComponentNS_9allocatorIS1_EEE8_Storage11__get_allocEv, symObjAddr: 0x5C30, symBinAddr: 0x10A10, symSize: 0x40 }
  - { offsetInCU: 0x10420, offset: 0x4586C, size: 0x8, addend: 0x0, symName: __ZNSt3__117__compressed_pairINS_9allocatorI20Collision2DComponentEES2_E16__get_first_baseB7v160006EPS4_, symObjAddr: 0x5C70, symBinAddr: 0x10A50, symSize: 0x10 }
  - { offsetInCU: 0x10442, offset: 0x4588E, size: 0x8, addend: 0x0, symName: __ZNSt3__120__shared_ptr_emplaceI20Collision2DComponentNS_9allocatorIS1_EEE8_StorageD2B7v160006Ev, symObjAddr: 0x5CB0, symBinAddr: 0x10A90, symSize: 0x20 }
  - { offsetInCU: 0x1046A, offset: 0x458B6, size: 0x8, addend: 0x0, symName: __ZNSt3__120__shared_ptr_emplaceI20Collision2DComponentNS_9allocatorIS1_EEED2Ev, symObjAddr: 0x5CD0, symBinAddr: 0x10AB0, symSize: 0x40 }
  - { offsetInCU: 0x10496, offset: 0x458E2, size: 0x8, addend: 0x0, symName: __ZNSt3__116allocator_traitsINS_9allocatorI20Collision2DComponentEEE7destroyB7v160006IS2_vvEEvRS3_PT_, symObjAddr: 0x5D10, symBinAddr: 0x10AF0, symSize: 0x20 }
  - { offsetInCU: 0x104D1, offset: 0x4591D, size: 0x8, addend: 0x0, symName: __ZNSt3__116allocator_traitsINS_9allocatorINS_20__shared_ptr_emplaceI20Collision2DComponentNS1_IS3_EEEEEEE10deallocateB7v160006ERS6_PS5_m, symObjAddr: 0x5D70, symBinAddr: 0x10B50, symSize: 0x30 }
  - { offsetInCU: 0x10517, offset: 0x45963, size: 0x8, addend: 0x0, symName: __ZNSt3__114pointer_traitsIPNS_20__shared_ptr_emplaceI20Collision2DComponentNS_9allocatorIS2_EEEEE10pointer_toB7v160006ERS5_, symObjAddr: 0x5DA0, symBinAddr: 0x10B80, symSize: 0x10 }
  - { offsetInCU: 0x10539, offset: 0x45985, size: 0x8, addend: 0x0, symName: __ZNSt3__19allocatorINS_20__shared_ptr_emplaceI20Collision2DComponentNS0_IS2_EEEEE10deallocateB7v160006EPS4_m, symObjAddr: 0x5DB0, symBinAddr: 0x10B90, symSize: 0x40 }
  - { offsetInCU: 0x10579, offset: 0x459C5, size: 0x8, addend: 0x0, symName: __ZNSt3__110shared_ptrI20Collision2DComponentE18__enable_weak_thisB7v160006Ez, symObjAddr: 0x5E10, symBinAddr: 0x10BD0, symSize: 0x10 }
  - { offsetInCU: 0x1059E, offset: 0x459EA, size: 0x8, addend: 0x0, symName: __ZNSt3__120__shared_ptr_emplaceI20Collision2DComponentNS_9allocatorIS1_EEE8_Storage10__get_elemEv, symObjAddr: 0x5E40, symBinAddr: 0x10BE0, symSize: 0x40 }
  - { offsetInCU: 0x105EF, offset: 0x45A3B, size: 0x8, addend: 0x0, symName: __ZNSt3__117__compressed_pairINS_9allocatorI20Collision2DComponentEES2_E17__get_second_baseB7v160006EPS4_, symObjAddr: 0x5E80, symBinAddr: 0x10C20, symSize: 0x10 }
  - { offsetInCU: 0x10611, offset: 0x45A5D, size: 0x8, addend: 0x0, symName: __ZNSt3__118__allocation_guardINS_9allocatorINS_20__shared_ptr_emplaceI20Collision2DComponentNS1_IS3_EEEEEEED2B7v160006Ev, symObjAddr: 0x5E90, symBinAddr: 0x10C30, symSize: 0x40 }
  - { offsetInCU: 0x10639, offset: 0x45A85, size: 0x8, addend: 0x0, symName: __ZNSt3__19allocatorI20Collision2DComponentEC2B7v160006Ev, symObjAddr: 0x5ED0, symBinAddr: 0x10C70, symSize: 0x20 }
  - { offsetInCU: 0x10661, offset: 0x45AAD, size: 0x8, addend: 0x0, symName: __ZNSt3__116__non_trivial_ifILb1ENS_9allocatorI20Collision2DComponentEEEC2B7v160006Ev, symObjAddr: 0x5EF0, symBinAddr: 0x10C90, symSize: 0x10 }
  - { offsetInCU: 0x10689, offset: 0x45AD5, size: 0x8, addend: 0x0, symName: __ZNKSt3__110shared_ptrI20Collision2DComponentEcvbB7v160006Ev, symObjAddr: 0x5F40, symBinAddr: 0x10CA0, symSize: 0x30 }
  - { offsetInCU: 0x106AD, offset: 0x45AF9, size: 0x8, addend: 0x0, symName: __ZNKSt3__110shared_ptrI20Collision2DComponentE3getB7v160006Ev, symObjAddr: 0x5F70, symBinAddr: 0x10CD0, symSize: 0x20 }
  - { offsetInCU: 0x106D1, offset: 0x45B1D, size: 0x8, addend: 0x0, symName: __ZNSt3__110shared_ptrI20Collision2DComponentEC2B7v160006ERKS2_, symObjAddr: 0x5F90, symBinAddr: 0x10CF0, symSize: 0x50 }
  - { offsetInCU: 0x10708, offset: 0x45B54, size: 0x8, addend: 0x0, symName: __ZNSt3__19allocatorI10ProjectileEC1B7v160006Ev, symObjAddr: 0x60C0, symBinAddr: 0x10DE0, symSize: 0x20 }
  - { offsetInCU: 0x1074E, offset: 0x45B9A, size: 0x8, addend: 0x0, symName: __ZNSt3__118__allocation_guardINS_9allocatorINS_20__shared_ptr_emplaceI10ProjectileNS1_IS3_EEEEEEEC1B7v160006IS4_EET_m, symObjAddr: 0x60E0, symBinAddr: 0x10E00, symSize: 0x30 }
  - { offsetInCU: 0x1079B, offset: 0x45BE7, size: 0x8, addend: 0x0, symName: __ZNKSt3__118__allocation_guardINS_9allocatorINS_20__shared_ptr_emplaceI10ProjectileNS1_IS3_EEEEEEE5__getB7v160006Ev, symObjAddr: 0x6110, symBinAddr: 0x10E30, symSize: 0x20 }
  - { offsetInCU: 0x107BF, offset: 0x45C0B, size: 0x8, addend: 0x0, symName: __ZNSt3__120__shared_ptr_emplaceI10ProjectileNS_9allocatorIS1_EEEC1B7v160006IJEEES3_DpOT_, symObjAddr: 0x6130, symBinAddr: 0x10E50, symSize: 0x20 }
  - { offsetInCU: 0x107FC, offset: 0x45C48, size: 0x8, addend: 0x0, symName: __ZNSt3__118__allocation_guardINS_9allocatorINS_20__shared_ptr_emplaceI10ProjectileNS1_IS3_EEEEEEE13__release_ptrB7v160006Ev, symObjAddr: 0x6150, symBinAddr: 0x10E70, symSize: 0x30 }
  - { offsetInCU: 0x1082E, offset: 0x45C7A, size: 0x8, addend: 0x0, symName: __ZNSt3__110shared_ptrI10ProjectileE27__create_with_control_blockB7v160006IS1_NS_20__shared_ptr_emplaceIS1_NS_9allocatorIS1_EEEEEES2_PT_PT0_, symObjAddr: 0x6180, symBinAddr: 0x10EA0, symSize: 0x90 }
  - { offsetInCU: 0x10882, offset: 0x45CCE, size: 0x8, addend: 0x0, symName: __ZNSt3__120__shared_ptr_emplaceI10ProjectileNS_9allocatorIS1_EEE10__get_elemB7v160006Ev, symObjAddr: 0x6210, symBinAddr: 0x10F30, symSize: 0x20 }
  - { offsetInCU: 0x108A6, offset: 0x45CF2, size: 0x8, addend: 0x0, symName: __ZNSt3__118__allocation_guardINS_9allocatorINS_20__shared_ptr_emplaceI10ProjectileNS1_IS3_EEEEEEED1B7v160006Ev, symObjAddr: 0x6230, symBinAddr: 0x10F50, symSize: 0x20 }
  - { offsetInCU: 0x108CE, offset: 0x45D1A, size: 0x8, addend: 0x0, symName: __ZNSt3__118__allocation_guardINS_9allocatorINS_20__shared_ptr_emplaceI10ProjectileNS1_IS3_EEEEEEEC2B7v160006IS4_EET_m, symObjAddr: 0x6250, symBinAddr: 0x10F70, symSize: 0x50 }
  - { offsetInCU: 0x1091B, offset: 0x45D67, size: 0x8, addend: 0x0, symName: __ZNSt3__19allocatorINS_20__shared_ptr_emplaceI10ProjectileNS0_IS2_EEEEEC1B7v160006IS2_EERKNS0_IT_EE, symObjAddr: 0x62A0, symBinAddr: 0x10FC0, symSize: 0x30 }
  - { offsetInCU: 0x10956, offset: 0x45DA2, size: 0x8, addend: 0x0, symName: __ZNSt3__116allocator_traitsINS_9allocatorINS_20__shared_ptr_emplaceI10ProjectileNS1_IS3_EEEEEEE8allocateB7v160006ERS6_m, symObjAddr: 0x62D0, symBinAddr: 0x10FF0, symSize: 0x30 }
  - { offsetInCU: 0x10988, offset: 0x45DD4, size: 0x8, addend: 0x0, symName: __ZNSt3__19allocatorINS_20__shared_ptr_emplaceI10ProjectileNS0_IS2_EEEEEC2B7v160006IS2_EERKNS0_IT_EE, symObjAddr: 0x6300, symBinAddr: 0x11020, symSize: 0x20 }
  - { offsetInCU: 0x109C3, offset: 0x45E0F, size: 0x8, addend: 0x0, symName: __ZNSt3__116__non_trivial_ifILb1ENS_9allocatorINS_20__shared_ptr_emplaceI10ProjectileNS1_IS3_EEEEEEEC2B7v160006Ev, symObjAddr: 0x6320, symBinAddr: 0x11040, symSize: 0x10 }
  - { offsetInCU: 0x109EB, offset: 0x45E37, size: 0x8, addend: 0x0, symName: __ZNSt3__19allocatorINS_20__shared_ptr_emplaceI10ProjectileNS0_IS2_EEEEE8allocateB7v160006Em, symObjAddr: 0x6330, symBinAddr: 0x11050, symSize: 0x50 }
  - { offsetInCU: 0x10A27, offset: 0x45E73, size: 0x8, addend: 0x0, symName: __ZNSt3__116allocator_traitsINS_9allocatorINS_20__shared_ptr_emplaceI10ProjectileNS1_IS3_EEEEEEE8max_sizeB7v160006IS6_vvEEmRKS6_, symObjAddr: 0x6380, symBinAddr: 0x110A0, symSize: 0x30 }
  - { offsetInCU: 0x10A53, offset: 0x45E9F, size: 0x8, addend: 0x0, symName: __ZNSt3__120__shared_ptr_emplaceI10ProjectileNS_9allocatorIS1_EEEC2B7v160006IJEEES3_DpOT_, symObjAddr: 0x63B0, symBinAddr: 0x110D0, symSize: 0xB0 }
  - { offsetInCU: 0x10AB1, offset: 0x45EFD, size: 0x8, addend: 0x0, symName: __ZNSt3__120__shared_ptr_emplaceI10ProjectileNS_9allocatorIS1_EEE8_StorageC1B7v160006EOS3_, symObjAddr: 0x6460, symBinAddr: 0x11180, symSize: 0x30 }
  - { offsetInCU: 0x10AE8, offset: 0x45F34, size: 0x8, addend: 0x0, symName: __ZNSt3__120__shared_ptr_emplaceI10ProjectileNS_9allocatorIS1_EEE11__get_allocB7v160006Ev, symObjAddr: 0x6490, symBinAddr: 0x111B0, symSize: 0x20 }
  - { offsetInCU: 0x10B11, offset: 0x45F5D, size: 0x8, addend: 0x0, symName: __ZNSt3__116allocator_traitsINS_9allocatorI10ProjectileEEE9constructB7v160006IS2_JEvvEEvRS3_PT_DpOT0_, symObjAddr: 0x64B0, symBinAddr: 0x111D0, symSize: 0x20 }
  - { offsetInCU: 0x10B52, offset: 0x45F9E, size: 0x8, addend: 0x0, symName: __ZNSt3__120__shared_ptr_emplaceI10ProjectileNS_9allocatorIS1_EEE8_StorageD1B7v160006Ev, symObjAddr: 0x64D0, symBinAddr: 0x111F0, symSize: 0x20 }
  - { offsetInCU: 0x10B7A, offset: 0x45FC6, size: 0x8, addend: 0x0, symName: __ZNSt3__120__shared_ptr_emplaceI10ProjectileNS_9allocatorIS1_EEED1Ev, symObjAddr: 0x64F0, symBinAddr: 0x11210, symSize: 0x20 }
  - { offsetInCU: 0x10BA6, offset: 0x45FF2, size: 0x8, addend: 0x0, symName: __ZNSt3__120__shared_ptr_emplaceI10ProjectileNS_9allocatorIS1_EEED0Ev, symObjAddr: 0x6510, symBinAddr: 0x11230, symSize: 0x30 }
  - { offsetInCU: 0x10BD2, offset: 0x4601E, size: 0x8, addend: 0x0, symName: __ZNSt3__120__shared_ptr_emplaceI10ProjectileNS_9allocatorIS1_EEE16__on_zero_sharedEv, symObjAddr: 0x6540, symBinAddr: 0x11260, symSize: 0x50 }
  - { offsetInCU: 0x10C17, offset: 0x46063, size: 0x8, addend: 0x0, symName: __ZNSt3__120__shared_ptr_emplaceI10ProjectileNS_9allocatorIS1_EEE21__on_zero_shared_weakEv, symObjAddr: 0x6590, symBinAddr: 0x112B0, symSize: 0x60 }
  - { offsetInCU: 0x10C56, offset: 0x460A2, size: 0x8, addend: 0x0, symName: __ZNSt3__120__shared_ptr_emplaceI10ProjectileNS_9allocatorIS1_EEE8_StorageC2B7v160006EOS3_, symObjAddr: 0x65F0, symBinAddr: 0x11310, symSize: 0x20 }
  - { offsetInCU: 0x10C8D, offset: 0x460D9, size: 0x8, addend: 0x0, symName: __ZNSt3__120__shared_ptr_emplaceI10ProjectileNS_9allocatorIS1_EEE8_Storage11__get_allocEv, symObjAddr: 0x6610, symBinAddr: 0x11330, symSize: 0x40 }
  - { offsetInCU: 0x10CDE, offset: 0x4612A, size: 0x8, addend: 0x0, symName: __ZNSt3__117__compressed_pairINS_9allocatorI10ProjectileEES2_E16__get_first_baseB7v160006EPS4_, symObjAddr: 0x6650, symBinAddr: 0x11370, symSize: 0x10 }
  - { offsetInCU: 0x10D00, offset: 0x4614C, size: 0x8, addend: 0x0, symName: __ZNSt3__120__shared_ptr_emplaceI10ProjectileNS_9allocatorIS1_EEE8_StorageD2B7v160006Ev, symObjAddr: 0x6690, symBinAddr: 0x113B0, symSize: 0x20 }
  - { offsetInCU: 0x10D28, offset: 0x46174, size: 0x8, addend: 0x0, symName: __ZNSt3__120__shared_ptr_emplaceI10ProjectileNS_9allocatorIS1_EEED2Ev, symObjAddr: 0x66B0, symBinAddr: 0x113D0, symSize: 0x40 }
  - { offsetInCU: 0x10D54, offset: 0x461A0, size: 0x8, addend: 0x0, symName: __ZNSt3__116allocator_traitsINS_9allocatorI10ProjectileEEE7destroyB7v160006IS2_vvEEvRS3_PT_, symObjAddr: 0x66F0, symBinAddr: 0x11410, symSize: 0x20 }
  - { offsetInCU: 0x10D8F, offset: 0x461DB, size: 0x8, addend: 0x0, symName: __ZNSt3__116allocator_traitsINS_9allocatorINS_20__shared_ptr_emplaceI10ProjectileNS1_IS3_EEEEEEE10deallocateB7v160006ERS6_PS5_m, symObjAddr: 0x6750, symBinAddr: 0x11470, symSize: 0x30 }
  - { offsetInCU: 0x10DD5, offset: 0x46221, size: 0x8, addend: 0x0, symName: __ZNSt3__114pointer_traitsIPNS_20__shared_ptr_emplaceI10ProjectileNS_9allocatorIS2_EEEEE10pointer_toB7v160006ERS5_, symObjAddr: 0x6780, symBinAddr: 0x114A0, symSize: 0x10 }
  - { offsetInCU: 0x10DF7, offset: 0x46243, size: 0x8, addend: 0x0, symName: __ZNSt3__19allocatorINS_20__shared_ptr_emplaceI10ProjectileNS0_IS2_EEEEE10deallocateB7v160006EPS4_m, symObjAddr: 0x6790, symBinAddr: 0x114B0, symSize: 0x40 }
  - { offsetInCU: 0x10E37, offset: 0x46283, size: 0x8, addend: 0x0, symName: __ZNSt3__110shared_ptrI10GameEntityEC1B7v160006I10ProjectileEERKNS0_IT_EEPS1_, symObjAddr: 0x6880, symBinAddr: 0x11560, symSize: 0x30 }
  - { offsetInCU: 0x10E86, offset: 0x462D2, size: 0x8, addend: 0x0, symName: __ZNSt3__110shared_ptrI10GameEntityEC2B7v160006I10ProjectileEERKNS0_IT_EEPS1_, symObjAddr: 0x68B0, symBinAddr: 0x11590, symSize: 0x50 }
  - { offsetInCU: 0x10ED5, offset: 0x46321, size: 0x8, addend: 0x0, symName: __ZNSt3__120__shared_ptr_emplaceI10ProjectileNS_9allocatorIS1_EEE8_Storage10__get_elemEv, symObjAddr: 0x6900, symBinAddr: 0x115E0, symSize: 0x40 }
  - { offsetInCU: 0x10F26, offset: 0x46372, size: 0x8, addend: 0x0, symName: __ZNSt3__117__compressed_pairINS_9allocatorI10ProjectileEES2_E17__get_second_baseB7v160006EPS4_, symObjAddr: 0x6940, symBinAddr: 0x11620, symSize: 0x10 }
  - { offsetInCU: 0x10F48, offset: 0x46394, size: 0x8, addend: 0x0, symName: __ZNSt3__118__allocation_guardINS_9allocatorINS_20__shared_ptr_emplaceI10ProjectileNS1_IS3_EEEEEEED2B7v160006Ev, symObjAddr: 0x6950, symBinAddr: 0x11630, symSize: 0x40 }
  - { offsetInCU: 0x10F70, offset: 0x463BC, size: 0x8, addend: 0x0, symName: __ZNSt3__19allocatorI10ProjectileEC2B7v160006Ev, symObjAddr: 0x6990, symBinAddr: 0x11670, symSize: 0x20 }
  - { offsetInCU: 0x10F98, offset: 0x463E4, size: 0x8, addend: 0x0, symName: __ZNSt3__116__non_trivial_ifILb1ENS_9allocatorI10ProjectileEEEC2B7v160006Ev, symObjAddr: 0x69B0, symBinAddr: 0x11690, symSize: 0x10 }
  - { offsetInCU: 0x10FC0, offset: 0x4640C, size: 0x8, addend: 0x0, symName: __ZNSt3__110shared_ptrI10GameEntityEC2B7v160006I10ProjectilevEERKNS0_IT_EE, symObjAddr: 0x6A00, symBinAddr: 0x116A0, symSize: 0x50 }
  - { offsetInCU: 0x11002, offset: 0x4644E, size: 0x8, addend: 0x0, symName: __ZNSt3__19allocatorI10GameEntityEC1B7v160006Ev, symObjAddr: 0x6AF0, symBinAddr: 0x11790, symSize: 0x20 }
  - { offsetInCU: 0x11048, offset: 0x46494, size: 0x8, addend: 0x0, symName: __ZNSt3__118__allocation_guardINS_9allocatorINS_20__shared_ptr_emplaceI10GameEntityNS1_IS3_EEEEEEEC1B7v160006IS4_EET_m, symObjAddr: 0x6B10, symBinAddr: 0x117B0, symSize: 0x30 }
  - { offsetInCU: 0x11095, offset: 0x464E1, size: 0x8, addend: 0x0, symName: __ZNKSt3__118__allocation_guardINS_9allocatorINS_20__shared_ptr_emplaceI10GameEntityNS1_IS3_EEEEEEE5__getB7v160006Ev, symObjAddr: 0x6B40, symBinAddr: 0x117E0, symSize: 0x20 }
  - { offsetInCU: 0x110B9, offset: 0x46505, size: 0x8, addend: 0x0, symName: __ZNSt3__120__shared_ptr_emplaceI10GameEntityNS_9allocatorIS1_EEEC1B7v160006IJEEES3_DpOT_, symObjAddr: 0x6B60, symBinAddr: 0x11800, symSize: 0x20 }
  - { offsetInCU: 0x110F6, offset: 0x46542, size: 0x8, addend: 0x0, symName: __ZNSt3__118__allocation_guardINS_9allocatorINS_20__shared_ptr_emplaceI10GameEntityNS1_IS3_EEEEEEE13__release_ptrB7v160006Ev, symObjAddr: 0x6B80, symBinAddr: 0x11820, symSize: 0x30 }
  - { offsetInCU: 0x11128, offset: 0x46574, size: 0x8, addend: 0x0, symName: __ZNSt3__110shared_ptrI10GameEntityE27__create_with_control_blockB7v160006IS1_NS_20__shared_ptr_emplaceIS1_NS_9allocatorIS1_EEEEEES2_PT_PT0_, symObjAddr: 0x6BB0, symBinAddr: 0x11850, symSize: 0x90 }
  - { offsetInCU: 0x1117C, offset: 0x465C8, size: 0x8, addend: 0x0, symName: __ZNSt3__120__shared_ptr_emplaceI10GameEntityNS_9allocatorIS1_EEE10__get_elemB7v160006Ev, symObjAddr: 0x6C40, symBinAddr: 0x118E0, symSize: 0x20 }
  - { offsetInCU: 0x111A0, offset: 0x465EC, size: 0x8, addend: 0x0, symName: __ZNSt3__118__allocation_guardINS_9allocatorINS_20__shared_ptr_emplaceI10GameEntityNS1_IS3_EEEEEEED1B7v160006Ev, symObjAddr: 0x6C60, symBinAddr: 0x11900, symSize: 0x20 }
  - { offsetInCU: 0x111C8, offset: 0x46614, size: 0x8, addend: 0x0, symName: __ZNSt3__118__allocation_guardINS_9allocatorINS_20__shared_ptr_emplaceI10GameEntityNS1_IS3_EEEEEEEC2B7v160006IS4_EET_m, symObjAddr: 0x6C80, symBinAddr: 0x11920, symSize: 0x50 }
  - { offsetInCU: 0x11215, offset: 0x46661, size: 0x8, addend: 0x0, symName: __ZNSt3__19allocatorINS_20__shared_ptr_emplaceI10GameEntityNS0_IS2_EEEEEC1B7v160006IS2_EERKNS0_IT_EE, symObjAddr: 0x6CD0, symBinAddr: 0x11970, symSize: 0x30 }
  - { offsetInCU: 0x11250, offset: 0x4669C, size: 0x8, addend: 0x0, symName: __ZNSt3__116allocator_traitsINS_9allocatorINS_20__shared_ptr_emplaceI10GameEntityNS1_IS3_EEEEEEE8allocateB7v160006ERS6_m, symObjAddr: 0x6D00, symBinAddr: 0x119A0, symSize: 0x30 }
  - { offsetInCU: 0x11282, offset: 0x466CE, size: 0x8, addend: 0x0, symName: __ZNSt3__19allocatorINS_20__shared_ptr_emplaceI10GameEntityNS0_IS2_EEEEEC2B7v160006IS2_EERKNS0_IT_EE, symObjAddr: 0x6D30, symBinAddr: 0x119D0, symSize: 0x20 }
  - { offsetInCU: 0x112BD, offset: 0x46709, size: 0x8, addend: 0x0, symName: __ZNSt3__116__non_trivial_ifILb1ENS_9allocatorINS_20__shared_ptr_emplaceI10GameEntityNS1_IS3_EEEEEEEC2B7v160006Ev, symObjAddr: 0x6D50, symBinAddr: 0x119F0, symSize: 0x10 }
  - { offsetInCU: 0x112E5, offset: 0x46731, size: 0x8, addend: 0x0, symName: __ZNSt3__19allocatorINS_20__shared_ptr_emplaceI10GameEntityNS0_IS2_EEEEE8allocateB7v160006Em, symObjAddr: 0x6D60, symBinAddr: 0x11A00, symSize: 0x50 }
  - { offsetInCU: 0x11321, offset: 0x4676D, size: 0x8, addend: 0x0, symName: __ZNSt3__116allocator_traitsINS_9allocatorINS_20__shared_ptr_emplaceI10GameEntityNS1_IS3_EEEEEEE8max_sizeB7v160006IS6_vvEEmRKS6_, symObjAddr: 0x6DB0, symBinAddr: 0x11A50, symSize: 0x30 }
  - { offsetInCU: 0x1134D, offset: 0x46799, size: 0x8, addend: 0x0, symName: __ZNSt3__120__shared_ptr_emplaceI10GameEntityNS_9allocatorIS1_EEEC2B7v160006IJEEES3_DpOT_, symObjAddr: 0x6DE0, symBinAddr: 0x11A80, symSize: 0xB0 }
  - { offsetInCU: 0x113AB, offset: 0x467F7, size: 0x8, addend: 0x0, symName: __ZNSt3__120__shared_ptr_emplaceI10GameEntityNS_9allocatorIS1_EEE8_StorageC1B7v160006EOS3_, symObjAddr: 0x6E90, symBinAddr: 0x11B30, symSize: 0x30 }
  - { offsetInCU: 0x113E2, offset: 0x4682E, size: 0x8, addend: 0x0, symName: __ZNSt3__120__shared_ptr_emplaceI10GameEntityNS_9allocatorIS1_EEE11__get_allocB7v160006Ev, symObjAddr: 0x6EC0, symBinAddr: 0x11B60, symSize: 0x20 }
  - { offsetInCU: 0x1140B, offset: 0x46857, size: 0x8, addend: 0x0, symName: __ZNSt3__116allocator_traitsINS_9allocatorI10GameEntityEEE9constructB7v160006IS2_JEvvEEvRS3_PT_DpOT0_, symObjAddr: 0x6EE0, symBinAddr: 0x11B80, symSize: 0x20 }
  - { offsetInCU: 0x1144C, offset: 0x46898, size: 0x8, addend: 0x0, symName: __ZNSt3__120__shared_ptr_emplaceI10GameEntityNS_9allocatorIS1_EEE8_StorageD1B7v160006Ev, symObjAddr: 0x6F00, symBinAddr: 0x11BA0, symSize: 0x20 }
  - { offsetInCU: 0x11474, offset: 0x468C0, size: 0x8, addend: 0x0, symName: __ZNSt3__120__shared_ptr_emplaceI10GameEntityNS_9allocatorIS1_EEED1Ev, symObjAddr: 0x6F20, symBinAddr: 0x11BC0, symSize: 0x20 }
  - { offsetInCU: 0x114A0, offset: 0x468EC, size: 0x8, addend: 0x0, symName: __ZNSt3__120__shared_ptr_emplaceI10GameEntityNS_9allocatorIS1_EEED0Ev, symObjAddr: 0x6F40, symBinAddr: 0x11BE0, symSize: 0x30 }
  - { offsetInCU: 0x114CC, offset: 0x46918, size: 0x8, addend: 0x0, symName: __ZNSt3__120__shared_ptr_emplaceI10GameEntityNS_9allocatorIS1_EEE16__on_zero_sharedEv, symObjAddr: 0x6F70, symBinAddr: 0x11C10, symSize: 0x50 }
  - { offsetInCU: 0x11511, offset: 0x4695D, size: 0x8, addend: 0x0, symName: __ZNSt3__120__shared_ptr_emplaceI10GameEntityNS_9allocatorIS1_EEE21__on_zero_shared_weakEv, symObjAddr: 0x6FC0, symBinAddr: 0x11C60, symSize: 0x60 }
  - { offsetInCU: 0x11550, offset: 0x4699C, size: 0x8, addend: 0x0, symName: __ZNSt3__120__shared_ptr_emplaceI10GameEntityNS_9allocatorIS1_EEE8_StorageC2B7v160006EOS3_, symObjAddr: 0x7020, symBinAddr: 0x11CC0, symSize: 0x20 }
  - { offsetInCU: 0x11587, offset: 0x469D3, size: 0x8, addend: 0x0, symName: __ZNSt3__120__shared_ptr_emplaceI10GameEntityNS_9allocatorIS1_EEE8_Storage11__get_allocEv, symObjAddr: 0x7040, symBinAddr: 0x11CE0, symSize: 0x40 }
  - { offsetInCU: 0x115D8, offset: 0x46A24, size: 0x8, addend: 0x0, symName: __ZNSt3__117__compressed_pairINS_9allocatorI10GameEntityEES2_E16__get_first_baseB7v160006EPS4_, symObjAddr: 0x7080, symBinAddr: 0x11D20, symSize: 0x10 }
  - { offsetInCU: 0x115FA, offset: 0x46A46, size: 0x8, addend: 0x0, symName: __ZNSt3__120__shared_ptr_emplaceI10GameEntityNS_9allocatorIS1_EEE8_StorageD2B7v160006Ev, symObjAddr: 0x70C0, symBinAddr: 0x11D60, symSize: 0x20 }
  - { offsetInCU: 0x11622, offset: 0x46A6E, size: 0x8, addend: 0x0, symName: __ZNSt3__120__shared_ptr_emplaceI10GameEntityNS_9allocatorIS1_EEED2Ev, symObjAddr: 0x70E0, symBinAddr: 0x11D80, symSize: 0x40 }
  - { offsetInCU: 0x1164E, offset: 0x46A9A, size: 0x8, addend: 0x0, symName: __ZNSt3__116allocator_traitsINS_9allocatorI10GameEntityEEE7destroyB7v160006IS2_vvEEvRS3_PT_, symObjAddr: 0x7120, symBinAddr: 0x11DC0, symSize: 0x20 }
  - { offsetInCU: 0x11689, offset: 0x46AD5, size: 0x8, addend: 0x0, symName: __ZNSt3__116allocator_traitsINS_9allocatorINS_20__shared_ptr_emplaceI10GameEntityNS1_IS3_EEEEEEE10deallocateB7v160006ERS6_PS5_m, symObjAddr: 0x7180, symBinAddr: 0x11E20, symSize: 0x30 }
  - { offsetInCU: 0x116CF, offset: 0x46B1B, size: 0x8, addend: 0x0, symName: __ZNSt3__114pointer_traitsIPNS_20__shared_ptr_emplaceI10GameEntityNS_9allocatorIS2_EEEEE10pointer_toB7v160006ERS5_, symObjAddr: 0x71B0, symBinAddr: 0x11E50, symSize: 0x10 }
  - { offsetInCU: 0x116F1, offset: 0x46B3D, size: 0x8, addend: 0x0, symName: __ZNSt3__19allocatorINS_20__shared_ptr_emplaceI10GameEntityNS0_IS2_EEEEE10deallocateB7v160006EPS4_m, symObjAddr: 0x71C0, symBinAddr: 0x11E60, symSize: 0x40 }
  - { offsetInCU: 0x11731, offset: 0x46B7D, size: 0x8, addend: 0x0, symName: __ZNSt3__110shared_ptrI10GameEntityEC1B7v160006IS1_EERKNS0_IT_EEPS1_, symObjAddr: 0x7270, symBinAddr: 0x11F10, symSize: 0x30 }
  - { offsetInCU: 0x11780, offset: 0x46BCC, size: 0x8, addend: 0x0, symName: __ZNSt3__110shared_ptrI10GameEntityEC2B7v160006IS1_EERKNS0_IT_EEPS1_, symObjAddr: 0x72A0, symBinAddr: 0x11F40, symSize: 0x50 }
  - { offsetInCU: 0x117CF, offset: 0x46C1B, size: 0x8, addend: 0x0, symName: __ZNSt3__120__shared_ptr_emplaceI10GameEntityNS_9allocatorIS1_EEE8_Storage10__get_elemEv, symObjAddr: 0x72F0, symBinAddr: 0x11F90, symSize: 0x40 }
  - { offsetInCU: 0x11820, offset: 0x46C6C, size: 0x8, addend: 0x0, symName: __ZNSt3__117__compressed_pairINS_9allocatorI10GameEntityEES2_E17__get_second_baseB7v160006EPS4_, symObjAddr: 0x7330, symBinAddr: 0x11FD0, symSize: 0x10 }
  - { offsetInCU: 0x11842, offset: 0x46C8E, size: 0x8, addend: 0x0, symName: __ZNSt3__118__allocation_guardINS_9allocatorINS_20__shared_ptr_emplaceI10GameEntityNS1_IS3_EEEEEEED2B7v160006Ev, symObjAddr: 0x7340, symBinAddr: 0x11FE0, symSize: 0x40 }
  - { offsetInCU: 0x1186A, offset: 0x46CB6, size: 0x8, addend: 0x0, symName: __ZNSt3__19allocatorI10GameEntityEC2B7v160006Ev, symObjAddr: 0x7380, symBinAddr: 0x12020, symSize: 0x20 }
  - { offsetInCU: 0x11892, offset: 0x46CDE, size: 0x8, addend: 0x0, symName: __ZNSt3__116__non_trivial_ifILb1ENS_9allocatorI10GameEntityEEEC2B7v160006Ev, symObjAddr: 0x73A0, symBinAddr: 0x12040, symSize: 0x10 }
  - { offsetInCU: 0x118BA, offset: 0x46D06, size: 0x8, addend: 0x0, symName: __ZNSt3__19allocatorI14InputComponentEC1B7v160006Ev, symObjAddr: 0x7500, symBinAddr: 0x120F0, symSize: 0x20 }
  - { offsetInCU: 0x11900, offset: 0x46D4C, size: 0x8, addend: 0x0, symName: __ZNSt3__118__allocation_guardINS_9allocatorINS_20__shared_ptr_emplaceI14InputComponentNS1_IS3_EEEEEEEC1B7v160006IS4_EET_m, symObjAddr: 0x7520, symBinAddr: 0x12110, symSize: 0x30 }
  - { offsetInCU: 0x1194D, offset: 0x46D99, size: 0x8, addend: 0x0, symName: __ZNKSt3__118__allocation_guardINS_9allocatorINS_20__shared_ptr_emplaceI14InputComponentNS1_IS3_EEEEEEE5__getB7v160006Ev, symObjAddr: 0x7550, symBinAddr: 0x12140, symSize: 0x20 }
  - { offsetInCU: 0x11971, offset: 0x46DBD, size: 0x8, addend: 0x0, symName: __ZNSt3__120__shared_ptr_emplaceI14InputComponentNS_9allocatorIS1_EEEC1B7v160006IJEEES3_DpOT_, symObjAddr: 0x7570, symBinAddr: 0x12160, symSize: 0x20 }
  - { offsetInCU: 0x119AE, offset: 0x46DFA, size: 0x8, addend: 0x0, symName: __ZNSt3__118__allocation_guardINS_9allocatorINS_20__shared_ptr_emplaceI14InputComponentNS1_IS3_EEEEEEE13__release_ptrB7v160006Ev, symObjAddr: 0x7590, symBinAddr: 0x12180, symSize: 0x30 }
  - { offsetInCU: 0x119E0, offset: 0x46E2C, size: 0x8, addend: 0x0, symName: __ZNSt3__110shared_ptrI14InputComponentE27__create_with_control_blockB7v160006IS1_NS_20__shared_ptr_emplaceIS1_NS_9allocatorIS1_EEEEEES2_PT_PT0_, symObjAddr: 0x75C0, symBinAddr: 0x121B0, symSize: 0x70 }
  - { offsetInCU: 0x11A34, offset: 0x46E80, size: 0x8, addend: 0x0, symName: __ZNSt3__120__shared_ptr_emplaceI14InputComponentNS_9allocatorIS1_EEE10__get_elemB7v160006Ev, symObjAddr: 0x7630, symBinAddr: 0x12220, symSize: 0x20 }
  - { offsetInCU: 0x11A58, offset: 0x46EA4, size: 0x8, addend: 0x0, symName: __ZNSt3__118__allocation_guardINS_9allocatorINS_20__shared_ptr_emplaceI14InputComponentNS1_IS3_EEEEEEED1B7v160006Ev, symObjAddr: 0x7650, symBinAddr: 0x12240, symSize: 0x20 }
  - { offsetInCU: 0x11A80, offset: 0x46ECC, size: 0x8, addend: 0x0, symName: __ZNSt3__118__allocation_guardINS_9allocatorINS_20__shared_ptr_emplaceI14InputComponentNS1_IS3_EEEEEEEC2B7v160006IS4_EET_m, symObjAddr: 0x7670, symBinAddr: 0x12260, symSize: 0x50 }
  - { offsetInCU: 0x11ACD, offset: 0x46F19, size: 0x8, addend: 0x0, symName: __ZNSt3__19allocatorINS_20__shared_ptr_emplaceI14InputComponentNS0_IS2_EEEEEC1B7v160006IS2_EERKNS0_IT_EE, symObjAddr: 0x76C0, symBinAddr: 0x122B0, symSize: 0x30 }
  - { offsetInCU: 0x11B08, offset: 0x46F54, size: 0x8, addend: 0x0, symName: __ZNSt3__116allocator_traitsINS_9allocatorINS_20__shared_ptr_emplaceI14InputComponentNS1_IS3_EEEEEEE8allocateB7v160006ERS6_m, symObjAddr: 0x76F0, symBinAddr: 0x122E0, symSize: 0x30 }
  - { offsetInCU: 0x11B3A, offset: 0x46F86, size: 0x8, addend: 0x0, symName: __ZNSt3__19allocatorINS_20__shared_ptr_emplaceI14InputComponentNS0_IS2_EEEEEC2B7v160006IS2_EERKNS0_IT_EE, symObjAddr: 0x7720, symBinAddr: 0x12310, symSize: 0x20 }
  - { offsetInCU: 0x11B75, offset: 0x46FC1, size: 0x8, addend: 0x0, symName: __ZNSt3__116__non_trivial_ifILb1ENS_9allocatorINS_20__shared_ptr_emplaceI14InputComponentNS1_IS3_EEEEEEEC2B7v160006Ev, symObjAddr: 0x7740, symBinAddr: 0x12330, symSize: 0x10 }
  - { offsetInCU: 0x11B9D, offset: 0x46FE9, size: 0x8, addend: 0x0, symName: __ZNSt3__19allocatorINS_20__shared_ptr_emplaceI14InputComponentNS0_IS2_EEEEE8allocateB7v160006Em, symObjAddr: 0x7750, symBinAddr: 0x12340, symSize: 0x50 }
  - { offsetInCU: 0x11BD9, offset: 0x47025, size: 0x8, addend: 0x0, symName: __ZNSt3__116allocator_traitsINS_9allocatorINS_20__shared_ptr_emplaceI14InputComponentNS1_IS3_EEEEEEE8max_sizeB7v160006IS6_vvEEmRKS6_, symObjAddr: 0x77A0, symBinAddr: 0x12390, symSize: 0x30 }
  - { offsetInCU: 0x11C05, offset: 0x47051, size: 0x8, addend: 0x0, symName: __ZNSt3__120__shared_ptr_emplaceI14InputComponentNS_9allocatorIS1_EEEC2B7v160006IJEEES3_DpOT_, symObjAddr: 0x77D0, symBinAddr: 0x123C0, symSize: 0xB0 }
  - { offsetInCU: 0x11C63, offset: 0x470AF, size: 0x8, addend: 0x0, symName: __ZNSt3__120__shared_ptr_emplaceI14InputComponentNS_9allocatorIS1_EEE8_StorageC1B7v160006EOS3_, symObjAddr: 0x7880, symBinAddr: 0x12470, symSize: 0x30 }
  - { offsetInCU: 0x11C9A, offset: 0x470E6, size: 0x8, addend: 0x0, symName: __ZNSt3__120__shared_ptr_emplaceI14InputComponentNS_9allocatorIS1_EEE11__get_allocB7v160006Ev, symObjAddr: 0x78B0, symBinAddr: 0x124A0, symSize: 0x20 }
  - { offsetInCU: 0x11CC3, offset: 0x4710F, size: 0x8, addend: 0x0, symName: __ZNSt3__116allocator_traitsINS_9allocatorI14InputComponentEEE9constructB7v160006IS2_JEvvEEvRS3_PT_DpOT0_, symObjAddr: 0x78D0, symBinAddr: 0x124C0, symSize: 0x20 }
  - { offsetInCU: 0x11D04, offset: 0x47150, size: 0x8, addend: 0x0, symName: __ZNSt3__120__shared_ptr_emplaceI14InputComponentNS_9allocatorIS1_EEE8_StorageD1B7v160006Ev, symObjAddr: 0x78F0, symBinAddr: 0x124E0, symSize: 0x20 }
  - { offsetInCU: 0x11D2C, offset: 0x47178, size: 0x8, addend: 0x0, symName: __ZNSt3__120__shared_ptr_emplaceI14InputComponentNS_9allocatorIS1_EEED1Ev, symObjAddr: 0x7910, symBinAddr: 0x12500, symSize: 0x20 }
  - { offsetInCU: 0x11D58, offset: 0x471A4, size: 0x8, addend: 0x0, symName: __ZNSt3__120__shared_ptr_emplaceI14InputComponentNS_9allocatorIS1_EEED0Ev, symObjAddr: 0x7930, symBinAddr: 0x12520, symSize: 0x30 }
  - { offsetInCU: 0x11D84, offset: 0x471D0, size: 0x8, addend: 0x0, symName: __ZNSt3__120__shared_ptr_emplaceI14InputComponentNS_9allocatorIS1_EEE16__on_zero_sharedEv, symObjAddr: 0x7960, symBinAddr: 0x12550, symSize: 0x50 }
  - { offsetInCU: 0x11DC9, offset: 0x47215, size: 0x8, addend: 0x0, symName: __ZNSt3__120__shared_ptr_emplaceI14InputComponentNS_9allocatorIS1_EEE21__on_zero_shared_weakEv, symObjAddr: 0x79B0, symBinAddr: 0x125A0, symSize: 0x60 }
  - { offsetInCU: 0x11E08, offset: 0x47254, size: 0x8, addend: 0x0, symName: __ZNSt3__120__shared_ptr_emplaceI14InputComponentNS_9allocatorIS1_EEE8_StorageC2B7v160006EOS3_, symObjAddr: 0x7A10, symBinAddr: 0x12600, symSize: 0x20 }
  - { offsetInCU: 0x11E3F, offset: 0x4728B, size: 0x8, addend: 0x0, symName: __ZNSt3__120__shared_ptr_emplaceI14InputComponentNS_9allocatorIS1_EEE8_Storage11__get_allocEv, symObjAddr: 0x7A30, symBinAddr: 0x12620, symSize: 0x40 }
  - { offsetInCU: 0x11E90, offset: 0x472DC, size: 0x8, addend: 0x0, symName: __ZNSt3__117__compressed_pairINS_9allocatorI14InputComponentEES2_E16__get_first_baseB7v160006EPS4_, symObjAddr: 0x7A70, symBinAddr: 0x12660, symSize: 0x10 }
  - { offsetInCU: 0x11EB2, offset: 0x472FE, size: 0x8, addend: 0x0, symName: __ZNSt3__120__shared_ptr_emplaceI14InputComponentNS_9allocatorIS1_EEE8_StorageD2B7v160006Ev, symObjAddr: 0x7AB0, symBinAddr: 0x126A0, symSize: 0x20 }
  - { offsetInCU: 0x11EDA, offset: 0x47326, size: 0x8, addend: 0x0, symName: __ZNSt3__120__shared_ptr_emplaceI14InputComponentNS_9allocatorIS1_EEED2Ev, symObjAddr: 0x7AD0, symBinAddr: 0x126C0, symSize: 0x40 }
  - { offsetInCU: 0x11F06, offset: 0x47352, size: 0x8, addend: 0x0, symName: __ZNSt3__116allocator_traitsINS_9allocatorI14InputComponentEEE7destroyB7v160006IS2_vvEEvRS3_PT_, symObjAddr: 0x7B10, symBinAddr: 0x12700, symSize: 0x20 }
  - { offsetInCU: 0x11F41, offset: 0x4738D, size: 0x8, addend: 0x0, symName: __ZNSt3__116allocator_traitsINS_9allocatorINS_20__shared_ptr_emplaceI14InputComponentNS1_IS3_EEEEEEE10deallocateB7v160006ERS6_PS5_m, symObjAddr: 0x7B70, symBinAddr: 0x12760, symSize: 0x30 }
  - { offsetInCU: 0x11F87, offset: 0x473D3, size: 0x8, addend: 0x0, symName: __ZNSt3__114pointer_traitsIPNS_20__shared_ptr_emplaceI14InputComponentNS_9allocatorIS2_EEEEE10pointer_toB7v160006ERS5_, symObjAddr: 0x7BA0, symBinAddr: 0x12790, symSize: 0x10 }
  - { offsetInCU: 0x11FA9, offset: 0x473F5, size: 0x8, addend: 0x0, symName: __ZNSt3__19allocatorINS_20__shared_ptr_emplaceI14InputComponentNS0_IS2_EEEEE10deallocateB7v160006EPS4_m, symObjAddr: 0x7BB0, symBinAddr: 0x127A0, symSize: 0x40 }
  - { offsetInCU: 0x11FE9, offset: 0x47435, size: 0x8, addend: 0x0, symName: __ZNSt3__110shared_ptrI14InputComponentE18__enable_weak_thisB7v160006Ez, symObjAddr: 0x7C10, symBinAddr: 0x127E0, symSize: 0x10 }
  - { offsetInCU: 0x1200E, offset: 0x4745A, size: 0x8, addend: 0x0, symName: __ZNSt3__120__shared_ptr_emplaceI14InputComponentNS_9allocatorIS1_EEE8_Storage10__get_elemEv, symObjAddr: 0x7C40, symBinAddr: 0x127F0, symSize: 0x40 }
  - { offsetInCU: 0x1205F, offset: 0x474AB, size: 0x8, addend: 0x0, symName: __ZNSt3__117__compressed_pairINS_9allocatorI14InputComponentEES2_E17__get_second_baseB7v160006EPS4_, symObjAddr: 0x7C80, symBinAddr: 0x12830, symSize: 0x10 }
  - { offsetInCU: 0x12081, offset: 0x474CD, size: 0x8, addend: 0x0, symName: __ZNSt3__118__allocation_guardINS_9allocatorINS_20__shared_ptr_emplaceI14InputComponentNS1_IS3_EEEEEEED2B7v160006Ev, symObjAddr: 0x7C90, symBinAddr: 0x12840, symSize: 0x40 }
  - { offsetInCU: 0x120A9, offset: 0x474F5, size: 0x8, addend: 0x0, symName: __ZNSt3__19allocatorI14InputComponentEC2B7v160006Ev, symObjAddr: 0x7CD0, symBinAddr: 0x12880, symSize: 0x20 }
  - { offsetInCU: 0x120D1, offset: 0x4751D, size: 0x8, addend: 0x0, symName: __ZNSt3__116__non_trivial_ifILb1ENS_9allocatorI14InputComponentEEEC2B7v160006Ev, symObjAddr: 0x7CF0, symBinAddr: 0x128A0, symSize: 0x10 }
  - { offsetInCU: 0x120F9, offset: 0x47545, size: 0x8, addend: 0x0, symName: __ZNSt3__110shared_ptrI14InputComponentED2B7v160006Ev, symObjAddr: 0x7D00, symBinAddr: 0x128B0, symSize: 0x40 }
  - { offsetInCU: 0x12121, offset: 0x4756D, size: 0x8, addend: 0x0, symName: __ZNSt3__110shared_ptrI14InputComponentEC2B7v160006ERKS2_, symObjAddr: 0x7D40, symBinAddr: 0x128F0, symSize: 0x50 }
  - { offsetInCU: 0x39, offset: 0x4773A, size: 0x8, addend: 0x0, symName: __ZN15ResourceManager9mInstanceE, symObjAddr: 0x55B0, symBinAddr: 0x695A8, symSize: 0x0 }
  - { offsetInCU: 0x5ADE, offset: 0x4D1DF, size: 0x8, addend: 0x0, symName: __ZNSt3__1L19piecewise_constructE, symObjAddr: 0x55AE, symBinAddr: 0x631D0, symSize: 0x0 }
  - { offsetInCU: 0x6B07, offset: 0x4E208, size: 0x8, addend: 0x0, symName: __ZNSt3__1eqB7v160006I11SDL_TextureEEbRKNS_10shared_ptrIT_EEDn, symObjAddr: 0x740, symBinAddr: 0x13020, symSize: 0x30 }
  - { offsetInCU: 0x6B49, offset: 0x4E24A, size: 0x8, addend: 0x0, symName: __ZNSt3__119__debug_db_insert_cB7v160006INS_13unordered_mapINS_12basic_stringIcNS_11char_traitsIcEENS_9allocatorIcEEEENS_10shared_ptrI11SDL_TextureEENS_4hashIS7_EENS_8equal_toIS7_EENS5_INS_4pairIKS7_SA_EEEEEEEEvPT_, symObjAddr: 0x9B0, symBinAddr: 0x13150, symSize: 0x10 }
  - { offsetInCU: 0x6B7A, offset: 0x4E27B, size: 0x8, addend: 0x0, symName: __ZNSt3__1neB7v160006ERKNS_25__hash_map_const_iteratorINS_21__hash_const_iteratorIPNS_11__hash_nodeINS_17__hash_value_typeINS_12basic_stringIcNS_11char_traitsIcEENS_9allocatorIcEEEENS_10shared_ptrI11SDL_TextureEEEEPvEEEEEESK_, symObjAddr: 0x1090, symBinAddr: 0x137E0, symSize: 0x30 }
  - { offsetInCU: 0x6BB7, offset: 0x4E2B8, size: 0x8, addend: 0x0, symName: __ZNSt3__1neB7v160006ERKNS_21__hash_const_iteratorIPNS_11__hash_nodeINS_17__hash_value_typeINS_12basic_stringIcNS_11char_traitsIcEENS_9allocatorIcEEEENS_10shared_ptrI11SDL_TextureEEEEPvEEEESI_, symObjAddr: 0x1130, symBinAddr: 0x13880, symSize: 0x30 }
  - { offsetInCU: 0x6BF4, offset: 0x4E2F5, size: 0x8, addend: 0x0, symName: __ZNSt3__1eqB7v160006ERKNS_21__hash_const_iteratorIPNS_11__hash_nodeINS_17__hash_value_typeINS_12basic_stringIcNS_11char_traitsIcEENS_9allocatorIcEEEENS_10shared_ptrI11SDL_TextureEEEEPvEEEESI_, symObjAddr: 0x1160, symBinAddr: 0x138B0, symSize: 0x30 }
  - { offsetInCU: 0x6C31, offset: 0x4E332, size: 0x8, addend: 0x0, symName: __ZNSt3__116__constrain_hashB7v160006Emm, symObjAddr: 0x13D0, symBinAddr: 0x13B20, symSize: 0x80 }
  - { offsetInCU: 0x6C6B, offset: 0x4E36C, size: 0x8, addend: 0x0, symName: __ZNSt3__116__do_string_hashB7v160006IPKcEEmT_S3_, symObjAddr: 0x1610, symBinAddr: 0x13D60, symSize: 0x40 }
  - { offsetInCU: 0x6CB1, offset: 0x4E3B2, size: 0x8, addend: 0x0, symName: __ZNSt3__110__loadwordB7v160006ImEET_PKv, symObjAddr: 0x1F80, symBinAddr: 0x14650, symSize: 0x20 }
  - { offsetInCU: 0x6CF4, offset: 0x4E3F5, size: 0x8, addend: 0x0, symName: __ZNSt3__14swapB7v160006ImEENS_9enable_ifIXaasr21is_move_constructibleIT_EE5valuesr18is_move_assignableIS2_EE5valueEvE4typeERS2_S5_, symObjAddr: 0x2140, symBinAddr: 0x14810, symSize: 0x40 }
  - { offsetInCU: 0x6D45, offset: 0x4E446, size: 0x8, addend: 0x0, symName: __ZNSt3__110__loadwordB7v160006IjEET_PKv, symObjAddr: 0x21D0, symBinAddr: 0x148A0, symSize: 0x20 }
  - { offsetInCU: 0x6D88, offset: 0x4E489, size: 0x8, addend: 0x0, symName: __ZNSt3__1eqB7v160006INS_9allocatorIcEEEEbRKNS_12basic_stringIcNS_11char_traitsIcEET_EES9_, symObjAddr: 0x25E0, symBinAddr: 0x14B40, symSize: 0x110 }
  - { offsetInCU: 0x6DFB, offset: 0x4E4FC, size: 0x8, addend: 0x0, symName: __ZNSt3__17launderB7v160006IKNS_4pairIKNS_12basic_stringIcNS_11char_traitsIcEENS_9allocatorIcEEEENS_10shared_ptrI11SDL_TextureEEEEEEPT_SF_, symObjAddr: 0x2780, symBinAddr: 0x14C50, symSize: 0x20 }
  - { offsetInCU: 0x6E32, offset: 0x4E533, size: 0x8, addend: 0x0, symName: __ZNSt3__19__launderB7v160006IKNS_4pairIKNS_12basic_stringIcNS_11char_traitsIcEENS_9allocatorIcEEEENS_10shared_ptrI11SDL_TextureEEEEEEPT_SF_, symObjAddr: 0x27A0, symBinAddr: 0x14C70, symSize: 0x10 }
  - { offsetInCU: 0x6E9C, offset: 0x4E59D, size: 0x8, addend: 0x0, symName: __ZNSt3__116__is_hash_power2B7v160006Em, symObjAddr: 0x3060, symBinAddr: 0x15500, symSize: 0x40 }
  - { offsetInCU: 0x6F0D, offset: 0x4E60E, size: 0x8, addend: 0x0, symName: __ZNSt3__112construct_atB7v160006INS_4pairIKNS_12basic_stringIcNS_11char_traitsIcEENS_9allocatorIcEEEENS_10shared_ptrI11SDL_TextureEEEEJSC_EPSC_EEPT_SF_DpOT0_, symObjAddr: 0x36A0, symBinAddr: 0x15A10, symSize: 0x40 }
  - { offsetInCU: 0x6F7F, offset: 0x4E680, size: 0x8, addend: 0x0, symName: __ZNSt3__17launderB7v160006INS_4pairIKNS_12basic_stringIcNS_11char_traitsIcEENS_9allocatorIcEEEENS_10shared_ptrI11SDL_TextureEEEEEEPT_SE_, symObjAddr: 0x37E0, symBinAddr: 0x15B50, symSize: 0x20 }
  - { offsetInCU: 0x6FB6, offset: 0x4E6B7, size: 0x8, addend: 0x0, symName: __ZNSt3__19__launderB7v160006INS_4pairIKNS_12basic_stringIcNS_11char_traitsIcEENS_9allocatorIcEEEENS_10shared_ptrI11SDL_TextureEEEEEEPT_SE_, symObjAddr: 0x3800, symBinAddr: 0x15B70, symSize: 0x10 }
  - { offsetInCU: 0x6FED, offset: 0x4E6EE, size: 0x8, addend: 0x0, symName: __ZNSt3__116__next_hash_pow2B7v160006Em, symObjAddr: 0x3D30, symBinAddr: 0x16090, symSize: 0x60 }
  - { offsetInCU: 0x7019, offset: 0x4E71A, size: 0x8, addend: 0x0, symName: __ZNSt3__125__debug_db_invalidate_allB7v160006INS_12__hash_tableINS_17__hash_value_typeINS_12basic_stringIcNS_11char_traitsIcEENS_9allocatorIcEEEENS_10shared_ptrI11SDL_TextureEEEENS_22__unordered_map_hasherIS8_SC_NS_4hashIS8_EENS_8equal_toIS8_EELb1EEENS_21__unordered_map_equalIS8_SC_SH_SF_Lb1EEENS6_ISC_EEEEEEvPT_, symObjAddr: 0x3D90, symBinAddr: 0x160F0, symSize: 0x10 }
  - { offsetInCU: 0x704A, offset: 0x4E74B, size: 0x8, addend: 0x0, symName: __ZNSt3__112__libcpp_clzB7v160006Em, symObjAddr: 0x4180, symBinAddr: 0x163E0, symSize: 0x20 }
  - { offsetInCU: 0x7076, offset: 0x4E777, size: 0x8, addend: 0x0, symName: __ZNSt3__110destroy_atB7v160006INS_4pairIKNS_12basic_stringIcNS_11char_traitsIcEENS_9allocatorIcEEEENS_10shared_ptrI11SDL_TextureEEEELi0EEEvPT_, symObjAddr: 0x4400, symBinAddr: 0x165E0, symSize: 0x20 }
  - { offsetInCU: 0x70AE, offset: 0x4E7AF, size: 0x8, addend: 0x0, symName: __ZNSt3__112__destroy_atB7v160006INS_4pairIKNS_12basic_stringIcNS_11char_traitsIcEENS_9allocatorIcEEEENS_10shared_ptrI11SDL_TextureEEEELi0EEEvPT_, symObjAddr: 0x4420, symBinAddr: 0x16600, symSize: 0x20 }
  - { offsetInCU: 0x70E6, offset: 0x4E7E7, size: 0x8, addend: 0x0, symName: __ZNSt3__116forward_as_tupleB7v160006IJRKNS_12basic_stringIcNS_11char_traitsIcEENS_9allocatorIcEEEEEEENS_5tupleIJDpOT_EEESC_, symObjAddr: 0x4B90, symBinAddr: 0x16D70, symSize: 0x30 }
  - { offsetInCU: 0x711F, offset: 0x4E820, size: 0x8, addend: 0x0, symName: __ZNSt3__112construct_atB7v160006INS_4pairIKNS_12basic_stringIcNS_11char_traitsIcEENS_9allocatorIcEEEENS_10shared_ptrI11SDL_TextureEEEEJRKNS_21piecewise_construct_tENS_5tupleIJRS8_EEENSG_IJEEEEPSC_EEPT_SM_DpOT0_, symObjAddr: 0x4D90, symBinAddr: 0x16F60, symSize: 0x50 }
  - { offsetInCU: 0x71B7, offset: 0x4E8B8, size: 0x8, addend: 0x0, symName: __ZNSt3__13getB7v160006ILm0EJRKNS_12basic_stringIcNS_11char_traitsIcEENS_9allocatorIcEEEEEEERNS_13tuple_elementIXT_ENS_5tupleIJDpT0_EEEE4typeERSD_, symObjAddr: 0x4E90, symBinAddr: 0x17060, symSize: 0x20 }
  - { offsetInCU: 0x7242, offset: 0x4E943, size: 0x8, addend: 0x0, symName: __ZNSt3__14swapB7v160006IP11SDL_TextureEENS_9enable_ifIXaasr21is_move_constructibleIT_EE5valuesr18is_move_assignableIS4_EE5valueEvE4typeERS4_S7_, symObjAddr: 0x5280, symBinAddr: 0x17260, symSize: 0x40 }
  - { offsetInCU: 0x995F, offset: 0x51060, size: 0x8, addend: 0x0, symName: __ZN16TextureComponentC2Ev, symObjAddr: 0x0, symBinAddr: 0x12940, symSize: 0x40 }
  - { offsetInCU: 0x9989, offset: 0x5108A, size: 0x8, addend: 0x0, symName: __ZNSt3__110shared_ptrI11SDL_TextureEC1B7v160006Ev, symObjAddr: 0x70, symBinAddr: 0x12980, symSize: 0x20 }
  - { offsetInCU: 0x99B1, offset: 0x510B2, size: 0x8, addend: 0x0, symName: __ZN16TextureComponentC1Ev, symObjAddr: 0x90, symBinAddr: 0x129A0, symSize: 0x20 }
  - { offsetInCU: 0x99DB, offset: 0x510DC, size: 0x8, addend: 0x0, symName: __ZN16TextureComponent22CreateTextureComponentEP12SDL_RendererNSt3__112basic_stringIcNS2_11char_traitsIcEENS2_9allocatorIcEEEE, symObjAddr: 0xB0, symBinAddr: 0x129C0, symSize: 0xB0 }
  - { offsetInCU: 0x9A1E, offset: 0x5111F, size: 0x8, addend: 0x0, symName: __ZN15ResourceManager8InstanceEv, symObjAddr: 0x160, symBinAddr: 0x12A70, symSize: 0x80 }
  - { offsetInCU: 0x9A32, offset: 0x51133, size: 0x8, addend: 0x0, symName: __ZN15ResourceManager11LoadTextureEP12SDL_RendererNSt3__112basic_stringIcNS2_11char_traitsIcEENS2_9allocatorIcEEEE, symObjAddr: 0x1E0, symBinAddr: 0x12AF0, symSize: 0x1F0 }
  - { offsetInCU: 0x9A95, offset: 0x51196, size: 0x8, addend: 0x0, symName: __ZNSt3__110shared_ptrI11SDL_TextureEaSB7v160006EOS2_, symObjAddr: 0x3D0, symBinAddr: 0x12CE0, symSize: 0x50 }
  - { offsetInCU: 0x9AC8, offset: 0x511C9, size: 0x8, addend: 0x0, symName: __ZNSt3__110shared_ptrI11SDL_TextureED1B7v160006Ev, symObjAddr: 0x420, symBinAddr: 0x12D30, symSize: 0x20 }
  - { offsetInCU: 0x9AF0, offset: 0x511F1, size: 0x8, addend: 0x0, symName: __ZN16TextureComponentD2Ev, symObjAddr: 0x440, symBinAddr: 0x12D50, symSize: 0x40 }
  - { offsetInCU: 0x9B1A, offset: 0x5121B, size: 0x8, addend: 0x0, symName: __ZN16TextureComponentD1Ev, symObjAddr: 0x4B0, symBinAddr: 0x12D90, symSize: 0x20 }
  - { offsetInCU: 0x9B44, offset: 0x51245, size: 0x8, addend: 0x0, symName: __ZN16TextureComponentD0Ev, symObjAddr: 0x4D0, symBinAddr: 0x12DB0, symSize: 0x30 }
  - { offsetInCU: 0x9B6E, offset: 0x5126F, size: 0x8, addend: 0x0, symName: __ZN16TextureComponent7GetTypeEv, symObjAddr: 0x500, symBinAddr: 0x12DE0, symSize: 0x10 }
  - { offsetInCU: 0x9B94, offset: 0x51295, size: 0x8, addend: 0x0, symName: __ZN16TextureComponent5InputEf, symObjAddr: 0x510, symBinAddr: 0x12DF0, symSize: 0x10 }
  - { offsetInCU: 0x9BC8, offset: 0x512C9, size: 0x8, addend: 0x0, symName: __ZN16TextureComponent6UpdateEf, symObjAddr: 0x520, symBinAddr: 0x12E00, symSize: 0x10 }
  - { offsetInCU: 0x9BFC, offset: 0x512FD, size: 0x8, addend: 0x0, symName: __ZN16TextureComponent6RenderEP12SDL_Renderer, symObjAddr: 0x530, symBinAddr: 0x12E10, symSize: 0x210 }
  - { offsetInCU: 0x9C76, offset: 0x51377, size: 0x8, addend: 0x0, symName: __ZNKSt3__110shared_ptrI11SDL_TextureE3getB7v160006Ev, symObjAddr: 0x820, symBinAddr: 0x13050, symSize: 0x20 }
  - { offsetInCU: 0x9C9A, offset: 0x5139B, size: 0x8, addend: 0x0, symName: __ZNSt3__110shared_ptrI11SDL_TextureEC2B7v160006Ev, symObjAddr: 0x8D0, symBinAddr: 0x13070, symSize: 0x20 }
  - { offsetInCU: 0x9CC2, offset: 0x513C3, size: 0x8, addend: 0x0, symName: __ZN15ResourceManagerC1Ev, symObjAddr: 0x8F0, symBinAddr: 0x13090, symSize: 0x20 }
  - { offsetInCU: 0x9CEA, offset: 0x513EB, size: 0x8, addend: 0x0, symName: __ZN15ResourceManagerC2Ev, symObjAddr: 0x910, symBinAddr: 0x130B0, symSize: 0x20 }
  - { offsetInCU: 0x9D12, offset: 0x51413, size: 0x8, addend: 0x0, symName: __ZNSt3__113unordered_mapINS_12basic_stringIcNS_11char_traitsIcEENS_9allocatorIcEEEENS_10shared_ptrI11SDL_TextureEENS_4hashIS6_EENS_8equal_toIS6_EENS4_INS_4pairIKS6_S9_EEEEEC1B7v160006Ev, symObjAddr: 0x930, symBinAddr: 0x130D0, symSize: 0x20 }
  - { offsetInCU: 0x9D3A, offset: 0x5143B, size: 0x8, addend: 0x0, symName: __ZNSt3__113unordered_mapINS_12basic_stringIcNS_11char_traitsIcEENS_9allocatorIcEEEENS_10shared_ptrI11SDL_TextureEENS_4hashIS6_EENS_8equal_toIS6_EENS4_INS_4pairIKS6_S9_EEEEEC2B7v160006Ev, symObjAddr: 0x950, symBinAddr: 0x130F0, symSize: 0x40 }
  - { offsetInCU: 0x9D62, offset: 0x51463, size: 0x8, addend: 0x0, symName: __ZNSt3__112__hash_tableINS_17__hash_value_typeINS_12basic_stringIcNS_11char_traitsIcEENS_9allocatorIcEEEENS_10shared_ptrI11SDL_TextureEEEENS_22__unordered_map_hasherIS7_SB_NS_4hashIS7_EENS_8equal_toIS7_EELb1EEENS_21__unordered_map_equalIS7_SB_SG_SE_Lb1EEENS5_ISB_EEEC1Ev, symObjAddr: 0x990, symBinAddr: 0x13130, symSize: 0x20 }
  - { offsetInCU: 0x9D8D, offset: 0x5148E, size: 0x8, addend: 0x0, symName: __ZNSt3__112__hash_tableINS_17__hash_value_typeINS_12basic_stringIcNS_11char_traitsIcEENS_9allocatorIcEEEENS_10shared_ptrI11SDL_TextureEEEENS_22__unordered_map_hasherIS7_SB_NS_4hashIS7_EENS_8equal_toIS7_EELb1EEENS_21__unordered_map_equalIS7_SB_SG_SE_Lb1EEENS5_ISB_EEEC2Ev, symObjAddr: 0x9D0, symBinAddr: 0x13160, symSize: 0x80 }
  - { offsetInCU: 0x9DB8, offset: 0x514B9, size: 0x8, addend: 0x0, symName: __ZNSt3__110unique_ptrIA_PNS_16__hash_node_baseIPNS_11__hash_nodeINS_17__hash_value_typeINS_12basic_stringIcNS_11char_traitsIcEENS_9allocatorIcEEEENS_10shared_ptrI11SDL_TextureEEEEPvEEEENS_25__bucket_list_deallocatorINS7_ISI_EEEEEC1B7v160006ILb1EvEEv, symObjAddr: 0xA50, symBinAddr: 0x131E0, symSize: 0x20 }
  - { offsetInCU: 0x9DEC, offset: 0x514ED, size: 0x8, addend: 0x0, symName: __ZNSt3__117__compressed_pairINS_16__hash_node_baseIPNS_11__hash_nodeINS_17__hash_value_typeINS_12basic_stringIcNS_11char_traitsIcEENS_9allocatorIcEEEENS_10shared_ptrI11SDL_TextureEEEEPvEEEENS7_ISF_EEEC1B7v160006ILb1EvEEv, symObjAddr: 0xA70, symBinAddr: 0x13200, symSize: 0x20 }
  - { offsetInCU: 0x9E2A, offset: 0x5152B, size: 0x8, addend: 0x0, symName: __ZNSt3__117__compressed_pairImNS_22__unordered_map_hasherINS_12basic_stringIcNS_11char_traitsIcEENS_9allocatorIcEEEENS_17__hash_value_typeIS7_NS_10shared_ptrI11SDL_TextureEEEENS_4hashIS7_EENS_8equal_toIS7_EELb1EEEEC1B7v160006IiNS_18__default_init_tagEEEOT_OT0_, symObjAddr: 0xA90, symBinAddr: 0x13220, symSize: 0x30 }
  - { offsetInCU: 0x9E85, offset: 0x51586, size: 0x8, addend: 0x0, symName: __ZNSt3__117__compressed_pairIfNS_21__unordered_map_equalINS_12basic_stringIcNS_11char_traitsIcEENS_9allocatorIcEEEENS_17__hash_value_typeIS7_NS_10shared_ptrI11SDL_TextureEEEENS_8equal_toIS7_EENS_4hashIS7_EELb1EEEEC1B7v160006IfNS_18__default_init_tagEEEOT_OT0_, symObjAddr: 0xAC0, symBinAddr: 0x13250, symSize: 0x30 }
  - { offsetInCU: 0x9EDB, offset: 0x515DC, size: 0x8, addend: 0x0, symName: __ZNSt3__110unique_ptrIA_PNS_16__hash_node_baseIPNS_11__hash_nodeINS_17__hash_value_typeINS_12basic_stringIcNS_11char_traitsIcEENS_9allocatorIcEEEENS_10shared_ptrI11SDL_TextureEEEEPvEEEENS_25__bucket_list_deallocatorINS7_ISI_EEEEEC2B7v160006ILb1EvEEv, symObjAddr: 0xAF0, symBinAddr: 0x13280, symSize: 0x30 }
  - { offsetInCU: 0x9F14, offset: 0x51615, size: 0x8, addend: 0x0, symName: __ZNSt3__117__compressed_pairIPPNS_16__hash_node_baseIPNS_11__hash_nodeINS_17__hash_value_typeINS_12basic_stringIcNS_11char_traitsIcEENS_9allocatorIcEEEENS_10shared_ptrI11SDL_TextureEEEEPvEEEENS_25__bucket_list_deallocatorINS7_ISI_EEEEEC1B7v160006INS_16__value_init_tagESP_EEOT_OT0_, symObjAddr: 0xB20, symBinAddr: 0x132B0, symSize: 0x30 }
  - { offsetInCU: 0x9F6A, offset: 0x5166B, size: 0x8, addend: 0x0, symName: __ZNSt3__117__compressed_pairIPPNS_16__hash_node_baseIPNS_11__hash_nodeINS_17__hash_value_typeINS_12basic_stringIcNS_11char_traitsIcEENS_9allocatorIcEEEENS_10shared_ptrI11SDL_TextureEEEEPvEEEENS_25__bucket_list_deallocatorINS7_ISI_EEEEEC2B7v160006INS_16__value_init_tagESP_EEOT_OT0_, symObjAddr: 0xB50, symBinAddr: 0x132E0, symSize: 0x40 }
  - { offsetInCU: 0x9FC0, offset: 0x516C1, size: 0x8, addend: 0x0, symName: __ZNSt3__122__compressed_pair_elemIPPNS_16__hash_node_baseIPNS_11__hash_nodeINS_17__hash_value_typeINS_12basic_stringIcNS_11char_traitsIcEENS_9allocatorIcEEEENS_10shared_ptrI11SDL_TextureEEEEPvEEEELi0ELb0EEC2B7v160006ENS_16__value_init_tagE, symObjAddr: 0xB90, symBinAddr: 0x13320, symSize: 0x20 }
  - { offsetInCU: 0x9FF2, offset: 0x516F3, size: 0x8, addend: 0x0, symName: __ZNSt3__122__compressed_pair_elemINS_25__bucket_list_deallocatorINS_9allocatorIPNS_16__hash_node_baseIPNS_11__hash_nodeINS_17__hash_value_typeINS_12basic_stringIcNS_11char_traitsIcEENS2_IcEEEENS_10shared_ptrI11SDL_TextureEEEEPvEEEEEEEELi1ELb0EEC2B7v160006ENS_16__value_init_tagE, symObjAddr: 0xBB0, symBinAddr: 0x13340, symSize: 0x20 }
  - { offsetInCU: 0xA024, offset: 0x51725, size: 0x8, addend: 0x0, symName: __ZNSt3__125__bucket_list_deallocatorINS_9allocatorIPNS_16__hash_node_baseIPNS_11__hash_nodeINS_17__hash_value_typeINS_12basic_stringIcNS_11char_traitsIcEENS1_IcEEEENS_10shared_ptrI11SDL_TextureEEEEPvEEEEEEEC1B7v160006Ev, symObjAddr: 0xBD0, symBinAddr: 0x13360, symSize: 0x20 }
  - { offsetInCU: 0xA04C, offset: 0x5174D, size: 0x8, addend: 0x0, symName: __ZNSt3__125__bucket_list_deallocatorINS_9allocatorIPNS_16__hash_node_baseIPNS_11__hash_nodeINS_17__hash_value_typeINS_12basic_stringIcNS_11char_traitsIcEENS1_IcEEEENS_10shared_ptrI11SDL_TextureEEEEPvEEEEEEEC2B7v160006Ev, symObjAddr: 0xBF0, symBinAddr: 0x13380, symSize: 0x40 }
  - { offsetInCU: 0xA074, offset: 0x51775, size: 0x8, addend: 0x0, symName: __ZNSt3__117__compressed_pairImNS_9allocatorIPNS_16__hash_node_baseIPNS_11__hash_nodeINS_17__hash_value_typeINS_12basic_stringIcNS_11char_traitsIcEENS1_IcEEEENS_10shared_ptrI11SDL_TextureEEEEPvEEEEEEEC1B7v160006IiNS_18__default_init_tagEEEOT_OT0_, symObjAddr: 0xC30, symBinAddr: 0x133C0, symSize: 0x30 }
  - { offsetInCU: 0xA0CA, offset: 0x517CB, size: 0x8, addend: 0x0, symName: __ZNSt3__117__compressed_pairImNS_9allocatorIPNS_16__hash_node_baseIPNS_11__hash_nodeINS_17__hash_value_typeINS_12basic_stringIcNS_11char_traitsIcEENS1_IcEEEENS_10shared_ptrI11SDL_TextureEEEEPvEEEEEEEC2B7v160006IiNS_18__default_init_tagEEEOT_OT0_, symObjAddr: 0xC60, symBinAddr: 0x133F0, symSize: 0x40 }
  - { offsetInCU: 0xA120, offset: 0x51821, size: 0x8, addend: 0x0, symName: __ZNSt3__122__compressed_pair_elemINS_9allocatorIPNS_16__hash_node_baseIPNS_11__hash_nodeINS_17__hash_value_typeINS_12basic_stringIcNS_11char_traitsIcEENS1_IcEEEENS_10shared_ptrI11SDL_TextureEEEEPvEEEEEELi1ELb1EEC2B7v160006ENS_18__default_init_tagE, symObjAddr: 0xCC0, symBinAddr: 0x13430, symSize: 0x20 }
  - { offsetInCU: 0xA152, offset: 0x51853, size: 0x8, addend: 0x0, symName: __ZNSt3__19allocatorIPNS_16__hash_node_baseIPNS_11__hash_nodeINS_17__hash_value_typeINS_12basic_stringIcNS_11char_traitsIcEENS0_IcEEEENS_10shared_ptrI11SDL_TextureEEEEPvEEEEEC2B7v160006Ev, symObjAddr: 0xCE0, symBinAddr: 0x13450, symSize: 0x20 }
  - { offsetInCU: 0xA17A, offset: 0x5187B, size: 0x8, addend: 0x0, symName: __ZNSt3__116__non_trivial_ifILb1ENS_9allocatorIPNS_16__hash_node_baseIPNS_11__hash_nodeINS_17__hash_value_typeINS_12basic_stringIcNS_11char_traitsIcEENS1_IcEEEENS_10shared_ptrI11SDL_TextureEEEEPvEEEEEEEC2B7v160006Ev, symObjAddr: 0xD00, symBinAddr: 0x13470, symSize: 0x10 }
  - { offsetInCU: 0xA1A2, offset: 0x518A3, size: 0x8, addend: 0x0, symName: __ZNSt3__117__compressed_pairINS_16__hash_node_baseIPNS_11__hash_nodeINS_17__hash_value_typeINS_12basic_stringIcNS_11char_traitsIcEENS_9allocatorIcEEEENS_10shared_ptrI11SDL_TextureEEEEPvEEEENS7_ISF_EEEC2B7v160006ILb1EvEEv, symObjAddr: 0xD10, symBinAddr: 0x13480, symSize: 0x30 }
  - { offsetInCU: 0xA1D6, offset: 0x518D7, size: 0x8, addend: 0x0, symName: __ZNSt3__122__compressed_pair_elemINS_16__hash_node_baseIPNS_11__hash_nodeINS_17__hash_value_typeINS_12basic_stringIcNS_11char_traitsIcEENS_9allocatorIcEEEENS_10shared_ptrI11SDL_TextureEEEEPvEEEELi0ELb0EEC2B7v160006ENS_16__value_init_tagE, symObjAddr: 0xD40, symBinAddr: 0x134B0, symSize: 0x20 }
  - { offsetInCU: 0xA208, offset: 0x51909, size: 0x8, addend: 0x0, symName: __ZNSt3__122__compressed_pair_elemINS_9allocatorINS_11__hash_nodeINS_17__hash_value_typeINS_12basic_stringIcNS_11char_traitsIcEENS1_IcEEEENS_10shared_ptrI11SDL_TextureEEEEPvEEEELi1ELb1EEC2B7v160006ENS_16__value_init_tagE, symObjAddr: 0xD60, symBinAddr: 0x134D0, symSize: 0x20 }
  - { offsetInCU: 0xA23A, offset: 0x5193B, size: 0x8, addend: 0x0, symName: __ZNSt3__116__hash_node_baseIPNS_11__hash_nodeINS_17__hash_value_typeINS_12basic_stringIcNS_11char_traitsIcEENS_9allocatorIcEEEENS_10shared_ptrI11SDL_TextureEEEEPvEEEC1B7v160006Ev, symObjAddr: 0xD80, symBinAddr: 0x134F0, symSize: 0x20 }
  - { offsetInCU: 0xA262, offset: 0x51963, size: 0x8, addend: 0x0, symName: __ZNSt3__116__hash_node_baseIPNS_11__hash_nodeINS_17__hash_value_typeINS_12basic_stringIcNS_11char_traitsIcEENS_9allocatorIcEEEENS_10shared_ptrI11SDL_TextureEEEEPvEEEC2B7v160006Ev, symObjAddr: 0xDA0, symBinAddr: 0x13510, symSize: 0x20 }
  - { offsetInCU: 0xA28A, offset: 0x5198B, size: 0x8, addend: 0x0, symName: __ZNSt3__19allocatorINS_11__hash_nodeINS_17__hash_value_typeINS_12basic_stringIcNS_11char_traitsIcEENS0_IcEEEENS_10shared_ptrI11SDL_TextureEEEEPvEEEC2B7v160006Ev, symObjAddr: 0xDC0, symBinAddr: 0x13530, symSize: 0x20 }
  - { offsetInCU: 0xA2B2, offset: 0x519B3, size: 0x8, addend: 0x0, symName: __ZNSt3__116__non_trivial_ifILb1ENS_9allocatorINS_11__hash_nodeINS_17__hash_value_typeINS_12basic_stringIcNS_11char_traitsIcEENS1_IcEEEENS_10shared_ptrI11SDL_TextureEEEEPvEEEEEC2B7v160006Ev, symObjAddr: 0xDE0, symBinAddr: 0x13550, symSize: 0x10 }
  - { offsetInCU: 0xA2DA, offset: 0x519DB, size: 0x8, addend: 0x0, symName: __ZNSt3__117__compressed_pairImNS_22__unordered_map_hasherINS_12basic_stringIcNS_11char_traitsIcEENS_9allocatorIcEEEENS_17__hash_value_typeIS7_NS_10shared_ptrI11SDL_TextureEEEENS_4hashIS7_EENS_8equal_toIS7_EELb1EEEEC2B7v160006IiNS_18__default_init_tagEEEOT_OT0_, symObjAddr: 0xDF0, symBinAddr: 0x13560, symSize: 0x40 }
  - { offsetInCU: 0xA330, offset: 0x51A31, size: 0x8, addend: 0x0, symName: __ZNSt3__122__compressed_pair_elemINS_22__unordered_map_hasherINS_12basic_stringIcNS_11char_traitsIcEENS_9allocatorIcEEEENS_17__hash_value_typeIS7_NS_10shared_ptrI11SDL_TextureEEEENS_4hashIS7_EENS_8equal_toIS7_EELb1EEELi1ELb1EEC2B7v160006ENS_18__default_init_tagE, symObjAddr: 0xE30, symBinAddr: 0x135A0, symSize: 0x20 }
  - { offsetInCU: 0xA362, offset: 0x51A63, size: 0x8, addend: 0x0, symName: __ZNSt3__122__unordered_map_hasherINS_12basic_stringIcNS_11char_traitsIcEENS_9allocatorIcEEEENS_17__hash_value_typeIS6_NS_10shared_ptrI11SDL_TextureEEEENS_4hashIS6_EENS_8equal_toIS6_EELb1EEC2B7v160006Ev, symObjAddr: 0xE50, symBinAddr: 0x135C0, symSize: 0x10 }
  - { offsetInCU: 0xA38A, offset: 0x51A8B, size: 0x8, addend: 0x0, symName: __ZNSt3__117__compressed_pairIfNS_21__unordered_map_equalINS_12basic_stringIcNS_11char_traitsIcEENS_9allocatorIcEEEENS_17__hash_value_typeIS7_NS_10shared_ptrI11SDL_TextureEEEENS_8equal_toIS7_EENS_4hashIS7_EELb1EEEEC2B7v160006IfNS_18__default_init_tagEEEOT_OT0_, symObjAddr: 0xE60, symBinAddr: 0x135D0, symSize: 0x40 }
  - { offsetInCU: 0xA3E0, offset: 0x51AE1, size: 0x8, addend: 0x0, symName: __ZNSt3__122__compressed_pair_elemIfLi0ELb0EEC2B7v160006IfvEEOT_, symObjAddr: 0xEA0, symBinAddr: 0x13610, symSize: 0x20 }
  - { offsetInCU: 0xA421, offset: 0x51B22, size: 0x8, addend: 0x0, symName: __ZNSt3__122__compressed_pair_elemINS_21__unordered_map_equalINS_12basic_stringIcNS_11char_traitsIcEENS_9allocatorIcEEEENS_17__hash_value_typeIS7_NS_10shared_ptrI11SDL_TextureEEEENS_8equal_toIS7_EENS_4hashIS7_EELb1EEELi1ELb1EEC2B7v160006ENS_18__default_init_tagE, symObjAddr: 0xEC0, symBinAddr: 0x13630, symSize: 0x20 }
  - { offsetInCU: 0xA453, offset: 0x51B54, size: 0x8, addend: 0x0, symName: __ZNSt3__121__unordered_map_equalINS_12basic_stringIcNS_11char_traitsIcEENS_9allocatorIcEEEENS_17__hash_value_typeIS6_NS_10shared_ptrI11SDL_TextureEEEENS_8equal_toIS6_EENS_4hashIS6_EELb1EEC2B7v160006Ev, symObjAddr: 0xEE0, symBinAddr: 0x13650, symSize: 0x10 }
  - { offsetInCU: 0xA47B, offset: 0x51B7C, size: 0x8, addend: 0x0, symName: __ZNKSt3__113unordered_mapINS_12basic_stringIcNS_11char_traitsIcEENS_9allocatorIcEEEENS_10shared_ptrI11SDL_TextureEENS_4hashIS6_EENS_8equal_toIS6_EENS4_INS_4pairIKS6_S9_EEEEE8containsB7v160006ERSF_, symObjAddr: 0xEF0, symBinAddr: 0x13660, symSize: 0x50 }
  - { offsetInCU: 0xA4AE, offset: 0x51BAF, size: 0x8, addend: 0x0, symName: __ZNSt3__113unordered_mapINS_12basic_stringIcNS_11char_traitsIcEENS_9allocatorIcEEEENS_10shared_ptrI11SDL_TextureEENS_4hashIS6_EENS_8equal_toIS6_EENS4_INS_4pairIKS6_S9_EEEEE6insertB7v160006EOSG_, symObjAddr: 0xF60, symBinAddr: 0x136B0, symSize: 0x40 }
  - { offsetInCU: 0xA4E6, offset: 0x51BE7, size: 0x8, addend: 0x0, symName: __ZNSt3__14pairIKNS_12basic_stringIcNS_11char_traitsIcEENS_9allocatorIcEEEENS_10shared_ptrI11SDL_TextureEEEC1B7v160006IRS6_RSA_LPv0EEEOT_OT0_, symObjAddr: 0xFA0, symBinAddr: 0x136F0, symSize: 0x30 }
  - { offsetInCU: 0xA543, offset: 0x51C44, size: 0x8, addend: 0x0, symName: __ZNSt3__14pairIKNS_12basic_stringIcNS_11char_traitsIcEENS_9allocatorIcEEEENS_10shared_ptrI11SDL_TextureEEED1Ev, symObjAddr: 0xFD0, symBinAddr: 0x13720, symSize: 0x20 }
  - { offsetInCU: 0xA56D, offset: 0x51C6E, size: 0x8, addend: 0x0, symName: __ZNSt3__113unordered_mapINS_12basic_stringIcNS_11char_traitsIcEENS_9allocatorIcEEEENS_10shared_ptrI11SDL_TextureEENS_4hashIS6_EENS_8equal_toIS6_EENS4_INS_4pairIKS6_S9_EEEEEixERSF_, symObjAddr: 0xFF0, symBinAddr: 0x13740, symSize: 0x70 }
  - { offsetInCU: 0xA5A2, offset: 0x51CA3, size: 0x8, addend: 0x0, symName: __ZNSt3__110shared_ptrI11SDL_TextureEC1B7v160006ERKS2_, symObjAddr: 0x1060, symBinAddr: 0x137B0, symSize: 0x30 }
  - { offsetInCU: 0xA5D9, offset: 0x51CDA, size: 0x8, addend: 0x0, symName: __ZNKSt3__113unordered_mapINS_12basic_stringIcNS_11char_traitsIcEENS_9allocatorIcEEEENS_10shared_ptrI11SDL_TextureEENS_4hashIS6_EENS_8equal_toIS6_EENS4_INS_4pairIKS6_S9_EEEEE4findB7v160006ERSF_, symObjAddr: 0x10C0, symBinAddr: 0x13810, symSize: 0x40 }
  - { offsetInCU: 0xA60C, offset: 0x51D0D, size: 0x8, addend: 0x0, symName: __ZNKSt3__113unordered_mapINS_12basic_stringIcNS_11char_traitsIcEENS_9allocatorIcEEEENS_10shared_ptrI11SDL_TextureEENS_4hashIS6_EENS_8equal_toIS6_EENS4_INS_4pairIKS6_S9_EEEEE3endB7v160006Ev, symObjAddr: 0x1100, symBinAddr: 0x13850, symSize: 0x30 }
  - { offsetInCU: 0xA630, offset: 0x51D31, size: 0x8, addend: 0x0, symName: __ZNKSt3__112__hash_tableINS_17__hash_value_typeINS_12basic_stringIcNS_11char_traitsIcEENS_9allocatorIcEEEENS_10shared_ptrI11SDL_TextureEEEENS_22__unordered_map_hasherIS7_SB_NS_4hashIS7_EENS_8equal_toIS7_EELb1EEENS_21__unordered_map_equalIS7_SB_SG_SE_Lb1EEENS5_ISB_EEE4findIS7_EENS_21__hash_const_iteratorIPNS_11__hash_nodeISB_PvEEEERKT_, symObjAddr: 0x1190, symBinAddr: 0x138E0, symSize: 0x190 }
  - { offsetInCU: 0xA6B8, offset: 0x51DB9, size: 0x8, addend: 0x0, symName: __ZNSt3__125__hash_map_const_iteratorINS_21__hash_const_iteratorIPNS_11__hash_nodeINS_17__hash_value_typeINS_12basic_stringIcNS_11char_traitsIcEENS_9allocatorIcEEEENS_10shared_ptrI11SDL_TextureEEEEPvEEEEEC1B7v160006ESH_, symObjAddr: 0x1320, symBinAddr: 0x13A70, symSize: 0x30 }
  - { offsetInCU: 0xA6EF, offset: 0x51DF0, size: 0x8, addend: 0x0, symName: __ZNKSt3__112__hash_tableINS_17__hash_value_typeINS_12basic_stringIcNS_11char_traitsIcEENS_9allocatorIcEEEENS_10shared_ptrI11SDL_TextureEEEENS_22__unordered_map_hasherIS7_SB_NS_4hashIS7_EENS_8equal_toIS7_EELb1EEENS_21__unordered_map_equalIS7_SB_SG_SE_Lb1EEENS5_ISB_EEE13hash_functionB7v160006Ev, symObjAddr: 0x1350, symBinAddr: 0x13AA0, symSize: 0x20 }
  - { offsetInCU: 0xA713, offset: 0x51E14, size: 0x8, addend: 0x0, symName: __ZNKSt3__122__unordered_map_hasherINS_12basic_stringIcNS_11char_traitsIcEENS_9allocatorIcEEEENS_17__hash_value_typeIS6_NS_10shared_ptrI11SDL_TextureEEEENS_4hashIS6_EENS_8equal_toIS6_EELb1EEclB7v160006ERKS6_, symObjAddr: 0x1370, symBinAddr: 0x13AC0, symSize: 0x30 }
  - { offsetInCU: 0xA746, offset: 0x51E47, size: 0x8, addend: 0x0, symName: __ZNKSt3__112__hash_tableINS_17__hash_value_typeINS_12basic_stringIcNS_11char_traitsIcEENS_9allocatorIcEEEENS_10shared_ptrI11SDL_TextureEEEENS_22__unordered_map_hasherIS7_SB_NS_4hashIS7_EENS_8equal_toIS7_EELb1EEENS_21__unordered_map_equalIS7_SB_SG_SE_Lb1EEENS5_ISB_EEE12bucket_countB7v160006Ev, symObjAddr: 0x13A0, symBinAddr: 0x13AF0, symSize: 0x30 }
  - { offsetInCU: 0xA76A, offset: 0x51E6B, size: 0x8, addend: 0x0, symName: __ZNKSt3__110unique_ptrIA_PNS_16__hash_node_baseIPNS_11__hash_nodeINS_17__hash_value_typeINS_12basic_stringIcNS_11char_traitsIcEENS_9allocatorIcEEEENS_10shared_ptrI11SDL_TextureEEEEPvEEEENS_25__bucket_list_deallocatorINS7_ISI_EEEEEixB7v160006Em, symObjAddr: 0x1450, symBinAddr: 0x13BA0, symSize: 0x30 }
  - { offsetInCU: 0xA79D, offset: 0x51E9E, size: 0x8, addend: 0x0, symName: __ZNKSt3__116__hash_node_baseIPNS_11__hash_nodeINS_17__hash_value_typeINS_12basic_stringIcNS_11char_traitsIcEENS_9allocatorIcEEEENS_10shared_ptrI11SDL_TextureEEEEPvEEE6__hashB7v160006Ev, symObjAddr: 0x1480, symBinAddr: 0x13BD0, symSize: 0x20 }
  - { offsetInCU: 0xA7C1, offset: 0x51EC2, size: 0x8, addend: 0x0, symName: __ZNKSt3__112__hash_tableINS_17__hash_value_typeINS_12basic_stringIcNS_11char_traitsIcEENS_9allocatorIcEEEENS_10shared_ptrI11SDL_TextureEEEENS_22__unordered_map_hasherIS7_SB_NS_4hashIS7_EENS_8equal_toIS7_EELb1EEENS_21__unordered_map_equalIS7_SB_SG_SE_Lb1EEENS5_ISB_EEE6key_eqB7v160006Ev, symObjAddr: 0x14A0, symBinAddr: 0x13BF0, symSize: 0x20 }
  - { offsetInCU: 0xA7E5, offset: 0x51EE6, size: 0x8, addend: 0x0, symName: __ZNKSt3__121__unordered_map_equalINS_12basic_stringIcNS_11char_traitsIcEENS_9allocatorIcEEEENS_17__hash_value_typeIS6_NS_10shared_ptrI11SDL_TextureEEEENS_8equal_toIS6_EENS_4hashIS6_EELb1EEclB7v160006ERKSB_RKS6_, symObjAddr: 0x14C0, symBinAddr: 0x13C10, symSize: 0x40 }
  - { offsetInCU: 0xA827, offset: 0x51F28, size: 0x8, addend: 0x0, symName: __ZNSt3__116__hash_node_baseIPNS_11__hash_nodeINS_17__hash_value_typeINS_12basic_stringIcNS_11char_traitsIcEENS_9allocatorIcEEEENS_10shared_ptrI11SDL_TextureEEEEPvEEE8__upcastB7v160006Ev, symObjAddr: 0x1500, symBinAddr: 0x13C50, symSize: 0x20 }
  - { offsetInCU: 0xA84B, offset: 0x51F4C, size: 0x8, addend: 0x0, symName: __ZNSt3__121__hash_const_iteratorIPNS_11__hash_nodeINS_17__hash_value_typeINS_12basic_stringIcNS_11char_traitsIcEENS_9allocatorIcEEEENS_10shared_ptrI11SDL_TextureEEEEPvEEEC1B7v160006EPNS_16__hash_node_baseISF_EEPKv, symObjAddr: 0x1520, symBinAddr: 0x13C70, symSize: 0x30 }
  - { offsetInCU: 0xA891, offset: 0x51F92, size: 0x8, addend: 0x0, symName: __ZNKSt3__112__hash_tableINS_17__hash_value_typeINS_12basic_stringIcNS_11char_traitsIcEENS_9allocatorIcEEEENS_10shared_ptrI11SDL_TextureEEEENS_22__unordered_map_hasherIS7_SB_NS_4hashIS7_EENS_8equal_toIS7_EELb1EEENS_21__unordered_map_equalIS7_SB_SG_SE_Lb1EEENS5_ISB_EEE3endEv, symObjAddr: 0x1550, symBinAddr: 0x13CA0, symSize: 0x30 }
  - { offsetInCU: 0xA8B7, offset: 0x51FB8, size: 0x8, addend: 0x0, symName: __ZNKSt3__117__compressed_pairImNS_22__unordered_map_hasherINS_12basic_stringIcNS_11char_traitsIcEENS_9allocatorIcEEEENS_17__hash_value_typeIS7_NS_10shared_ptrI11SDL_TextureEEEENS_4hashIS7_EENS_8equal_toIS7_EELb1EEEE6secondB7v160006Ev, symObjAddr: 0x1580, symBinAddr: 0x13CD0, symSize: 0x20 }
  - { offsetInCU: 0xA8DB, offset: 0x51FDC, size: 0x8, addend: 0x0, symName: __ZNKSt3__122__compressed_pair_elemINS_22__unordered_map_hasherINS_12basic_stringIcNS_11char_traitsIcEENS_9allocatorIcEEEENS_17__hash_value_typeIS7_NS_10shared_ptrI11SDL_TextureEEEENS_4hashIS7_EENS_8equal_toIS7_EELb1EEELi1ELb1EE5__getB7v160006Ev, symObjAddr: 0x15A0, symBinAddr: 0x13CF0, symSize: 0x10 }
  - { offsetInCU: 0xA8FF, offset: 0x52000, size: 0x8, addend: 0x0, symName: __ZNKSt3__113__string_hashIcNS_9allocatorIcEEEclERKNS_12basic_stringIcNS_11char_traitsIcEES2_EE, symObjAddr: 0x15B0, symBinAddr: 0x13D00, symSize: 0x60 }
  - { offsetInCU: 0xA932, offset: 0x52033, size: 0x8, addend: 0x0, symName: __ZNSt3__121__murmur2_or_cityhashImLm64EEclEPKvm, symObjAddr: 0x16D0, symBinAddr: 0x13DA0, symSize: 0x3D0 }
  - { offsetInCU: 0xA9CA, offset: 0x520CB, size: 0x8, addend: 0x0, symName: __ZNSt3__121__murmur2_or_cityhashImLm64EE18__hash_len_0_to_16EPKcm, symObjAddr: 0x1AA0, symBinAddr: 0x14170, symSize: 0x180 }
  - { offsetInCU: 0xAAA2, offset: 0x521A3, size: 0x8, addend: 0x0, symName: __ZNSt3__121__murmur2_or_cityhashImLm64EE19__hash_len_17_to_32EPKcm, symObjAddr: 0x1C20, symBinAddr: 0x142F0, symSize: 0x100 }
  - { offsetInCU: 0xAB0A, offset: 0x5220B, size: 0x8, addend: 0x0, symName: __ZNSt3__121__murmur2_or_cityhashImLm64EE19__hash_len_33_to_64EPKcm, symObjAddr: 0x1D20, symBinAddr: 0x143F0, symSize: 0x260 }
  - { offsetInCU: 0xABBB, offset: 0x522BC, size: 0x8, addend: 0x0, symName: __ZNSt3__121__murmur2_or_cityhashImLm64EE13__hash_len_16Emm, symObjAddr: 0x1FA0, symBinAddr: 0x14670, symSize: 0x90 }
  - { offsetInCU: 0xAC15, offset: 0x52316, size: 0x8, addend: 0x0, symName: __ZNSt3__121__murmur2_or_cityhashImLm64EE29__weak_hash_len_32_with_seedsEPKcmm, symObjAddr: 0x2030, symBinAddr: 0x14700, symSize: 0x90 }
  - { offsetInCU: 0xAC53, offset: 0x52354, size: 0x8, addend: 0x0, symName: __ZNSt3__121__murmur2_or_cityhashImLm64EE8__rotateEmi, symObjAddr: 0x20C0, symBinAddr: 0x14790, symSize: 0x50 }
  - { offsetInCU: 0xAC83, offset: 0x52384, size: 0x8, addend: 0x0, symName: __ZNSt3__14pairImmEaSB7v160006EOS1_, symObjAddr: 0x2110, symBinAddr: 0x147E0, symSize: 0x30 }
  - { offsetInCU: 0xACB6, offset: 0x523B7, size: 0x8, addend: 0x0, symName: __ZNSt3__121__murmur2_or_cityhashImLm64EE11__shift_mixEm, symObjAddr: 0x2180, symBinAddr: 0x14850, symSize: 0x20 }
  - { offsetInCU: 0xACD8, offset: 0x523D9, size: 0x8, addend: 0x0, symName: __ZNSt3__121__murmur2_or_cityhashImLm64EE22__rotate_by_at_least_1Emi, symObjAddr: 0x21A0, symBinAddr: 0x14870, symSize: 0x30 }
  - { offsetInCU: 0xAD08, offset: 0x52409, size: 0x8, addend: 0x0, symName: __ZNSt3__121__murmur2_or_cityhashImLm64EE29__weak_hash_len_32_with_seedsEmmmmmm, symObjAddr: 0x21F0, symBinAddr: 0x148C0, symSize: 0xD0 }
  - { offsetInCU: 0xAD84, offset: 0x52485, size: 0x8, addend: 0x0, symName: __ZNSt3__14pairImmEC1B7v160006ImmLPv0EEEOT_OT0_, symObjAddr: 0x22C0, symBinAddr: 0x14990, symSize: 0x30 }
  - { offsetInCU: 0xADE1, offset: 0x524E2, size: 0x8, addend: 0x0, symName: __ZNSt3__14pairImmEC2B7v160006ImmLPv0EEEOT_OT0_, symObjAddr: 0x22F0, symBinAddr: 0x149C0, symSize: 0x30 }
  - { offsetInCU: 0xAE3E, offset: 0x5253F, size: 0x8, addend: 0x0, symName: __ZNKSt3__110unique_ptrIA_PNS_16__hash_node_baseIPNS_11__hash_nodeINS_17__hash_value_typeINS_12basic_stringIcNS_11char_traitsIcEENS_9allocatorIcEEEENS_10shared_ptrI11SDL_TextureEEEEPvEEEENS_25__bucket_list_deallocatorINS7_ISI_EEEEE11get_deleterB7v160006Ev, symObjAddr: 0x2490, symBinAddr: 0x149F0, symSize: 0x20 }
  - { offsetInCU: 0xAE62, offset: 0x52563, size: 0x8, addend: 0x0, symName: __ZNKSt3__125__bucket_list_deallocatorINS_9allocatorIPNS_16__hash_node_baseIPNS_11__hash_nodeINS_17__hash_value_typeINS_12basic_stringIcNS_11char_traitsIcEENS1_IcEEEENS_10shared_ptrI11SDL_TextureEEEEPvEEEEEEE4sizeB7v160006Ev, symObjAddr: 0x24B0, symBinAddr: 0x14A10, symSize: 0x20 }
  - { offsetInCU: 0xAE86, offset: 0x52587, size: 0x8, addend: 0x0, symName: __ZNKSt3__117__compressed_pairIPPNS_16__hash_node_baseIPNS_11__hash_nodeINS_17__hash_value_typeINS_12basic_stringIcNS_11char_traitsIcEENS_9allocatorIcEEEENS_10shared_ptrI11SDL_TextureEEEEPvEEEENS_25__bucket_list_deallocatorINS7_ISI_EEEEE6secondB7v160006Ev, symObjAddr: 0x24D0, symBinAddr: 0x14A30, symSize: 0x20 }
  - { offsetInCU: 0xAEAA, offset: 0x525AB, size: 0x8, addend: 0x0, symName: __ZNKSt3__122__compressed_pair_elemINS_25__bucket_list_deallocatorINS_9allocatorIPNS_16__hash_node_baseIPNS_11__hash_nodeINS_17__hash_value_typeINS_12basic_stringIcNS_11char_traitsIcEENS2_IcEEEENS_10shared_ptrI11SDL_TextureEEEEPvEEEEEEEELi1ELb0EE5__getB7v160006Ev, symObjAddr: 0x24F0, symBinAddr: 0x14A50, symSize: 0x10 }
  - { offsetInCU: 0xAECE, offset: 0x525CF, size: 0x8, addend: 0x0, symName: __ZNKSt3__117__compressed_pairImNS_9allocatorIPNS_16__hash_node_baseIPNS_11__hash_nodeINS_17__hash_value_typeINS_12basic_stringIcNS_11char_traitsIcEENS1_IcEEEENS_10shared_ptrI11SDL_TextureEEEEPvEEEEEEE5firstB7v160006Ev, symObjAddr: 0x2500, symBinAddr: 0x14A60, symSize: 0x20 }
  - { offsetInCU: 0xAEF2, offset: 0x525F3, size: 0x8, addend: 0x0, symName: __ZNKSt3__122__compressed_pair_elemImLi0ELb0EE5__getB7v160006Ev, symObjAddr: 0x2520, symBinAddr: 0x14A80, symSize: 0x10 }
  - { offsetInCU: 0xAF16, offset: 0x52617, size: 0x8, addend: 0x0, symName: __ZNKSt3__117__compressed_pairIPPNS_16__hash_node_baseIPNS_11__hash_nodeINS_17__hash_value_typeINS_12basic_stringIcNS_11char_traitsIcEENS_9allocatorIcEEEENS_10shared_ptrI11SDL_TextureEEEEPvEEEENS_25__bucket_list_deallocatorINS7_ISI_EEEEE5firstB7v160006Ev, symObjAddr: 0x2530, symBinAddr: 0x14A90, symSize: 0x20 }
  - { offsetInCU: 0xAF3A, offset: 0x5263B, size: 0x8, addend: 0x0, symName: __ZNKSt3__122__compressed_pair_elemIPPNS_16__hash_node_baseIPNS_11__hash_nodeINS_17__hash_value_typeINS_12basic_stringIcNS_11char_traitsIcEENS_9allocatorIcEEEENS_10shared_ptrI11SDL_TextureEEEEPvEEEELi0ELb0EE5__getB7v160006Ev, symObjAddr: 0x2550, symBinAddr: 0x14AB0, symSize: 0x10 }
  - { offsetInCU: 0xAF5E, offset: 0x5265F, size: 0x8, addend: 0x0, symName: __ZNKSt3__117__compressed_pairIfNS_21__unordered_map_equalINS_12basic_stringIcNS_11char_traitsIcEENS_9allocatorIcEEEENS_17__hash_value_typeIS7_NS_10shared_ptrI11SDL_TextureEEEENS_8equal_toIS7_EENS_4hashIS7_EELb1EEEE6secondB7v160006Ev, symObjAddr: 0x2560, symBinAddr: 0x14AC0, symSize: 0x20 }
  - { offsetInCU: 0xAF82, offset: 0x52683, size: 0x8, addend: 0x0, symName: __ZNKSt3__122__compressed_pair_elemINS_21__unordered_map_equalINS_12basic_stringIcNS_11char_traitsIcEENS_9allocatorIcEEEENS_17__hash_value_typeIS7_NS_10shared_ptrI11SDL_TextureEEEENS_8equal_toIS7_EENS_4hashIS7_EELb1EEELi1ELb1EE5__getB7v160006Ev, symObjAddr: 0x2580, symBinAddr: 0x14AE0, symSize: 0x10 }
  - { offsetInCU: 0xAFA6, offset: 0x526A7, size: 0x8, addend: 0x0, symName: __ZNKSt3__18equal_toINS_12basic_stringIcNS_11char_traitsIcEENS_9allocatorIcEEEEEclB7v160006ERKS6_S9_, symObjAddr: 0x2590, symBinAddr: 0x14AF0, symSize: 0x30 }
  - { offsetInCU: 0xAFE8, offset: 0x526E9, size: 0x8, addend: 0x0, symName: __ZNKSt3__117__hash_value_typeINS_12basic_stringIcNS_11char_traitsIcEENS_9allocatorIcEEEENS_10shared_ptrI11SDL_TextureEEE11__get_valueB7v160006Ev, symObjAddr: 0x25C0, symBinAddr: 0x14B20, symSize: 0x20 }
  - { offsetInCU: 0xB00C, offset: 0x5270D, size: 0x8, addend: 0x0, symName: __ZNSt3__114pointer_traitsIPNS_16__hash_node_baseIPNS_11__hash_nodeINS_17__hash_value_typeINS_12basic_stringIcNS_11char_traitsIcEENS_9allocatorIcEEEENS_10shared_ptrI11SDL_TextureEEEEPvEEEEE10pointer_toB7v160006ERSH_, symObjAddr: 0x27B0, symBinAddr: 0x14C80, symSize: 0x10 }
  - { offsetInCU: 0xB02E, offset: 0x5272F, size: 0x8, addend: 0x0, symName: __ZNSt3__121__hash_const_iteratorIPNS_11__hash_nodeINS_17__hash_value_typeINS_12basic_stringIcNS_11char_traitsIcEENS_9allocatorIcEEEENS_10shared_ptrI11SDL_TextureEEEEPvEEEC2B7v160006EPNS_16__hash_node_baseISF_EEPKv, symObjAddr: 0x27C0, symBinAddr: 0x14C90, symSize: 0x20 }
  - { offsetInCU: 0xB074, offset: 0x52775, size: 0x8, addend: 0x0, symName: __ZNSt3__125__hash_map_const_iteratorINS_21__hash_const_iteratorIPNS_11__hash_nodeINS_17__hash_value_typeINS_12basic_stringIcNS_11char_traitsIcEENS_9allocatorIcEEEENS_10shared_ptrI11SDL_TextureEEEEPvEEEEEC2B7v160006ESH_, symObjAddr: 0x27E0, symBinAddr: 0x14CB0, symSize: 0x20 }
  - { offsetInCU: 0xB0AB, offset: 0x527AC, size: 0x8, addend: 0x0, symName: __ZNSt3__112__hash_tableINS_17__hash_value_typeINS_12basic_stringIcNS_11char_traitsIcEENS_9allocatorIcEEEENS_10shared_ptrI11SDL_TextureEEEENS_22__unordered_map_hasherIS7_SB_NS_4hashIS7_EENS_8equal_toIS7_EELb1EEENS_21__unordered_map_equalIS7_SB_SG_SE_Lb1EEENS5_ISB_EEE15__insert_uniqueB7v160006EONS_4pairIKS7_SA_EE, symObjAddr: 0x2800, symBinAddr: 0x14CD0, symSize: 0x50 }
  - { offsetInCU: 0xB0DE, offset: 0x527DF, size: 0x8, addend: 0x0, symName: __ZNSt3__14pairINS_19__hash_map_iteratorINS_15__hash_iteratorIPNS_11__hash_nodeINS_17__hash_value_typeINS_12basic_stringIcNS_11char_traitsIcEENS_9allocatorIcEEEENS_10shared_ptrI11SDL_TextureEEEEPvEEEEEEbEC1B7v160006ISI_bLSF_0EEEONS0_IT_T0_EE, symObjAddr: 0x2850, symBinAddr: 0x14D20, symSize: 0x30 }
  - { offsetInCU: 0xB12E, offset: 0x5282F, size: 0x8, addend: 0x0, symName: __ZNSt3__112__hash_tableINS_17__hash_value_typeINS_12basic_stringIcNS_11char_traitsIcEENS_9allocatorIcEEEENS_10shared_ptrI11SDL_TextureEEEENS_22__unordered_map_hasherIS7_SB_NS_4hashIS7_EENS_8equal_toIS7_EELb1EEENS_21__unordered_map_equalIS7_SB_SG_SE_Lb1EEENS5_ISB_EEE25__emplace_unique_key_argsIS7_JNS_4pairIKS7_SA_EEEEENSN_INS_15__hash_iteratorIPNS_11__hash_nodeISB_PvEEEEbEERKT_DpOT0_, symObjAddr: 0x2880, symBinAddr: 0x14D50, symSize: 0x5B0 }
  - { offsetInCU: 0xB20A, offset: 0x5290B, size: 0x8, addend: 0x0, symName: __ZNSt3__122__hash_key_value_typesINS_17__hash_value_typeINS_12basic_stringIcNS_11char_traitsIcEENS_9allocatorIcEEEENS_10shared_ptrI11SDL_TextureEEEEE9__get_keyB7v160006ERKNS_4pairIKS7_SA_EE, symObjAddr: 0x2E30, symBinAddr: 0x15300, symSize: 0x10 }
  - { offsetInCU: 0xB22C, offset: 0x5292D, size: 0x8, addend: 0x0, symName: __ZNSt3__112__hash_tableINS_17__hash_value_typeINS_12basic_stringIcNS_11char_traitsIcEENS_9allocatorIcEEEENS_10shared_ptrI11SDL_TextureEEEENS_22__unordered_map_hasherIS7_SB_NS_4hashIS7_EENS_8equal_toIS7_EELb1EEENS_21__unordered_map_equalIS7_SB_SG_SE_Lb1EEENS5_ISB_EEE13hash_functionB7v160006Ev, symObjAddr: 0x2E40, symBinAddr: 0x15310, symSize: 0x20 }
  - { offsetInCU: 0xB250, offset: 0x52951, size: 0x8, addend: 0x0, symName: __ZNSt3__112__hash_tableINS_17__hash_value_typeINS_12basic_stringIcNS_11char_traitsIcEENS_9allocatorIcEEEENS_10shared_ptrI11SDL_TextureEEEENS_22__unordered_map_hasherIS7_SB_NS_4hashIS7_EENS_8equal_toIS7_EELb1EEENS_21__unordered_map_equalIS7_SB_SG_SE_Lb1EEENS5_ISB_EEE6key_eqB7v160006Ev, symObjAddr: 0x2E60, symBinAddr: 0x15330, symSize: 0x20 }
  - { offsetInCU: 0xB274, offset: 0x52975, size: 0x8, addend: 0x0, symName: __ZNSt3__112__hash_tableINS_17__hash_value_typeINS_12basic_stringIcNS_11char_traitsIcEENS_9allocatorIcEEEENS_10shared_ptrI11SDL_TextureEEEENS_22__unordered_map_hasherIS7_SB_NS_4hashIS7_EENS_8equal_toIS7_EELb1EEENS_21__unordered_map_equalIS7_SB_SG_SE_Lb1EEENS5_ISB_EEE21__construct_node_hashINS_4pairIKS7_SA_EEJEEENS_10unique_ptrINS_11__hash_nodeISB_PvEENS_22__hash_node_destructorINS5_IST_EEEEEEmOT_DpOT0_, symObjAddr: 0x2E80, symBinAddr: 0x15350, symSize: 0x140 }
  - { offsetInCU: 0xB2E6, offset: 0x529E7, size: 0x8, addend: 0x0, symName: __ZNSt3__112__hash_tableINS_17__hash_value_typeINS_12basic_stringIcNS_11char_traitsIcEENS_9allocatorIcEEEENS_10shared_ptrI11SDL_TextureEEEENS_22__unordered_map_hasherIS7_SB_NS_4hashIS7_EENS_8equal_toIS7_EELb1EEENS_21__unordered_map_equalIS7_SB_SG_SE_Lb1EEENS5_ISB_EEE4sizeB7v160006Ev, symObjAddr: 0x2FC0, symBinAddr: 0x15490, symSize: 0x20 }
  - { offsetInCU: 0xB30A, offset: 0x52A0B, size: 0x8, addend: 0x0, symName: __ZNSt3__112__hash_tableINS_17__hash_value_typeINS_12basic_stringIcNS_11char_traitsIcEENS_9allocatorIcEEEENS_10shared_ptrI11SDL_TextureEEEENS_22__unordered_map_hasherIS7_SB_NS_4hashIS7_EENS_8equal_toIS7_EELb1EEENS_21__unordered_map_equalIS7_SB_SG_SE_Lb1EEENS5_ISB_EEE15max_load_factorB7v160006Ev, symObjAddr: 0x2FE0, symBinAddr: 0x154B0, symSize: 0x20 }
  - { offsetInCU: 0xB32E, offset: 0x52A2F, size: 0x8, addend: 0x0, symName: __ZNSt3__112__hash_tableINS_17__hash_value_typeINS_12basic_stringIcNS_11char_traitsIcEENS_9allocatorIcEEEENS_10shared_ptrI11SDL_TextureEEEENS_22__unordered_map_hasherIS7_SB_NS_4hashIS7_EENS_8equal_toIS7_EELb1EEENS_21__unordered_map_equalIS7_SB_SG_SE_Lb1EEENS5_ISB_EEE15__rehash_uniqueB7v160006Em, symObjAddr: 0x3000, symBinAddr: 0x154D0, symSize: 0x30 }
  - { offsetInCU: 0xB360, offset: 0x52A61, size: 0x8, addend: 0x0, symName: __Z4ceilB7v160006f, symObjAddr: 0x30A0, symBinAddr: 0x15540, symSize: 0x20 }
  - { offsetInCU: 0xB38F, offset: 0x52A90, size: 0x8, addend: 0x0, symName: __ZNSt3__117__compressed_pairINS_16__hash_node_baseIPNS_11__hash_nodeINS_17__hash_value_typeINS_12basic_stringIcNS_11char_traitsIcEENS_9allocatorIcEEEENS_10shared_ptrI11SDL_TextureEEEEPvEEEENS7_ISF_EEE5firstB7v160006Ev, symObjAddr: 0x30C0, symBinAddr: 0x15560, symSize: 0x20 }
  - { offsetInCU: 0xB3B3, offset: 0x52AB4, size: 0x8, addend: 0x0, symName: __ZNSt3__116__hash_node_baseIPNS_11__hash_nodeINS_17__hash_value_typeINS_12basic_stringIcNS_11char_traitsIcEENS_9allocatorIcEEEENS_10shared_ptrI11SDL_TextureEEEEPvEEE5__ptrB7v160006Ev, symObjAddr: 0x30E0, symBinAddr: 0x15580, symSize: 0x20 }
  - { offsetInCU: 0xB3D7, offset: 0x52AD8, size: 0x8, addend: 0x0, symName: __ZNKSt3__110unique_ptrINS_11__hash_nodeINS_17__hash_value_typeINS_12basic_stringIcNS_11char_traitsIcEENS_9allocatorIcEEEENS_10shared_ptrI11SDL_TextureEEEEPvEENS_22__hash_node_destructorINS6_ISE_EEEEEptB7v160006Ev, symObjAddr: 0x3100, symBinAddr: 0x155A0, symSize: 0x20 }
  - { offsetInCU: 0xB3FB, offset: 0x52AFC, size: 0x8, addend: 0x0, symName: __ZNKSt3__110unique_ptrINS_11__hash_nodeINS_17__hash_value_typeINS_12basic_stringIcNS_11char_traitsIcEENS_9allocatorIcEEEENS_10shared_ptrI11SDL_TextureEEEEPvEENS_22__hash_node_destructorINS6_ISE_EEEEE3getB7v160006Ev, symObjAddr: 0x3120, symBinAddr: 0x155C0, symSize: 0x20 }
  - { offsetInCU: 0xB41F, offset: 0x52B20, size: 0x8, addend: 0x0, symName: __ZNSt3__110unique_ptrINS_11__hash_nodeINS_17__hash_value_typeINS_12basic_stringIcNS_11char_traitsIcEENS_9allocatorIcEEEENS_10shared_ptrI11SDL_TextureEEEEPvEENS_22__hash_node_destructorINS6_ISE_EEEEE7releaseB7v160006Ev, symObjAddr: 0x3140, symBinAddr: 0x155E0, symSize: 0x40 }
  - { offsetInCU: 0xB452, offset: 0x52B53, size: 0x8, addend: 0x0, symName: __ZNSt3__110unique_ptrINS_11__hash_nodeINS_17__hash_value_typeINS_12basic_stringIcNS_11char_traitsIcEENS_9allocatorIcEEEENS_10shared_ptrI11SDL_TextureEEEEPvEENS_22__hash_node_destructorINS6_ISE_EEEEED1B7v160006Ev, symObjAddr: 0x3180, symBinAddr: 0x15620, symSize: 0x20 }
  - { offsetInCU: 0xB47A, offset: 0x52B7B, size: 0x8, addend: 0x0, symName: __ZNSt3__115__hash_iteratorIPNS_11__hash_nodeINS_17__hash_value_typeINS_12basic_stringIcNS_11char_traitsIcEENS_9allocatorIcEEEENS_10shared_ptrI11SDL_TextureEEEEPvEEEC1B7v160006EPNS_16__hash_node_baseISF_EEPKv, symObjAddr: 0x31A0, symBinAddr: 0x15640, symSize: 0x30 }
  - { offsetInCU: 0xB4CA, offset: 0x52BCB, size: 0x8, addend: 0x0, symName: __ZNSt3__14pairINS_15__hash_iteratorIPNS_11__hash_nodeINS_17__hash_value_typeINS_12basic_stringIcNS_11char_traitsIcEENS_9allocatorIcEEEENS_10shared_ptrI11SDL_TextureEEEEPvEEEEbEC1B7v160006ISH_RbLSE_0EEEOT_OT0_, symObjAddr: 0x31D0, symBinAddr: 0x15670, symSize: 0x30 }
  - { offsetInCU: 0xB527, offset: 0x52C28, size: 0x8, addend: 0x0, symName: __ZNSt3__117__compressed_pairImNS_22__unordered_map_hasherINS_12basic_stringIcNS_11char_traitsIcEENS_9allocatorIcEEEENS_17__hash_value_typeIS7_NS_10shared_ptrI11SDL_TextureEEEENS_4hashIS7_EENS_8equal_toIS7_EELb1EEEE6secondB7v160006Ev, symObjAddr: 0x3200, symBinAddr: 0x156A0, symSize: 0x20 }
  - { offsetInCU: 0xB54B, offset: 0x52C4C, size: 0x8, addend: 0x0, symName: __ZNSt3__122__compressed_pair_elemINS_22__unordered_map_hasherINS_12basic_stringIcNS_11char_traitsIcEENS_9allocatorIcEEEENS_17__hash_value_typeIS7_NS_10shared_ptrI11SDL_TextureEEEENS_4hashIS7_EENS_8equal_toIS7_EELb1EEELi1ELb1EE5__getB7v160006Ev, symObjAddr: 0x3220, symBinAddr: 0x156C0, symSize: 0x10 }
  - { offsetInCU: 0xB56F, offset: 0x52C70, size: 0x8, addend: 0x0, symName: __ZNSt3__117__compressed_pairIfNS_21__unordered_map_equalINS_12basic_stringIcNS_11char_traitsIcEENS_9allocatorIcEEEENS_17__hash_value_typeIS7_NS_10shared_ptrI11SDL_TextureEEEENS_8equal_toIS7_EENS_4hashIS7_EELb1EEEE6secondB7v160006Ev, symObjAddr: 0x3230, symBinAddr: 0x156D0, symSize: 0x20 }
  - { offsetInCU: 0xB593, offset: 0x52C94, size: 0x8, addend: 0x0, symName: __ZNSt3__122__compressed_pair_elemINS_21__unordered_map_equalINS_12basic_stringIcNS_11char_traitsIcEENS_9allocatorIcEEEENS_17__hash_value_typeIS7_NS_10shared_ptrI11SDL_TextureEEEENS_8equal_toIS7_EENS_4hashIS7_EELb1EEELi1ELb1EE5__getB7v160006Ev, symObjAddr: 0x3250, symBinAddr: 0x156F0, symSize: 0x10 }
  - { offsetInCU: 0xB5B7, offset: 0x52CB8, size: 0x8, addend: 0x0, symName: __ZNSt3__112__hash_tableINS_17__hash_value_typeINS_12basic_stringIcNS_11char_traitsIcEENS_9allocatorIcEEEENS_10shared_ptrI11SDL_TextureEEEENS_22__unordered_map_hasherIS7_SB_NS_4hashIS7_EENS_8equal_toIS7_EELb1EEENS_21__unordered_map_equalIS7_SB_SG_SE_Lb1EEENS5_ISB_EEE12__node_allocB7v160006Ev, symObjAddr: 0x3260, symBinAddr: 0x15700, symSize: 0x20 }
  - { offsetInCU: 0xB5DB, offset: 0x52CDC, size: 0x8, addend: 0x0, symName: __ZNSt3__116allocator_traitsINS_9allocatorINS_11__hash_nodeINS_17__hash_value_typeINS_12basic_stringIcNS_11char_traitsIcEENS1_IcEEEENS_10shared_ptrI11SDL_TextureEEEEPvEEEEE8allocateB7v160006ERSF_m, symObjAddr: 0x3280, symBinAddr: 0x15720, symSize: 0x30 }
  - { offsetInCU: 0xB60D, offset: 0x52D0E, size: 0x8, addend: 0x0, symName: __ZNSt3__122__hash_node_destructorINS_9allocatorINS_11__hash_nodeINS_17__hash_value_typeINS_12basic_stringIcNS_11char_traitsIcEENS1_IcEEEENS_10shared_ptrI11SDL_TextureEEEEPvEEEEEC1B7v160006ERSF_b, symObjAddr: 0x32B0, symBinAddr: 0x15750, symSize: 0x40 }
  - { offsetInCU: 0xB658, offset: 0x52D59, size: 0x8, addend: 0x0, symName: __ZNSt3__110unique_ptrINS_11__hash_nodeINS_17__hash_value_typeINS_12basic_stringIcNS_11char_traitsIcEENS_9allocatorIcEEEENS_10shared_ptrI11SDL_TextureEEEEPvEENS_22__hash_node_destructorINS6_ISE_EEEEEC1B7v160006ILb1EvEEPSE_NS_16__dependent_typeINS_27__unique_ptr_deleter_sfinaeISH_EEXT_EE20__good_rval_ref_typeE, symObjAddr: 0x32F0, symBinAddr: 0x15790, symSize: 0x30 }
  - { offsetInCU: 0xB6A8, offset: 0x52DA9, size: 0x8, addend: 0x0, symName: __ZNSt3__116allocator_traitsINS_9allocatorINS_11__hash_nodeINS_17__hash_value_typeINS_12basic_stringIcNS_11char_traitsIcEENS1_IcEEEENS_10shared_ptrI11SDL_TextureEEEEPvEEEEE9constructB7v160006INS_4pairIKS8_SB_EEJSK_EvvEEvRSF_PT_DpOT0_, symObjAddr: 0x3320, symBinAddr: 0x157C0, symSize: 0x30 }
  - { offsetInCU: 0xB6FD, offset: 0x52DFE, size: 0x8, addend: 0x0, symName: __ZNSt3__122__hash_key_value_typesINS_17__hash_value_typeINS_12basic_stringIcNS_11char_traitsIcEENS_9allocatorIcEEEENS_10shared_ptrI11SDL_TextureEEEEE9__get_ptrB7v160006ERSB_, symObjAddr: 0x3350, symBinAddr: 0x157F0, symSize: 0x20 }
  - { offsetInCU: 0xB71F, offset: 0x52E20, size: 0x8, addend: 0x0, symName: __ZNSt3__110unique_ptrINS_11__hash_nodeINS_17__hash_value_typeINS_12basic_stringIcNS_11char_traitsIcEENS_9allocatorIcEEEENS_10shared_ptrI11SDL_TextureEEEEPvEENS_22__hash_node_destructorINS6_ISE_EEEEE11get_deleterB7v160006Ev, symObjAddr: 0x3370, symBinAddr: 0x15810, symSize: 0x20 }
  - { offsetInCU: 0xB743, offset: 0x52E44, size: 0x8, addend: 0x0, symName: __ZNSt3__117__compressed_pairINS_16__hash_node_baseIPNS_11__hash_nodeINS_17__hash_value_typeINS_12basic_stringIcNS_11char_traitsIcEENS_9allocatorIcEEEENS_10shared_ptrI11SDL_TextureEEEEPvEEEENS7_ISF_EEE6secondB7v160006Ev, symObjAddr: 0x3390, symBinAddr: 0x15830, symSize: 0x20 }
  - { offsetInCU: 0xB767, offset: 0x52E68, size: 0x8, addend: 0x0, symName: __ZNSt3__122__compressed_pair_elemINS_9allocatorINS_11__hash_nodeINS_17__hash_value_typeINS_12basic_stringIcNS_11char_traitsIcEENS1_IcEEEENS_10shared_ptrI11SDL_TextureEEEEPvEEEELi1ELb1EE5__getB7v160006Ev, symObjAddr: 0x33B0, symBinAddr: 0x15850, symSize: 0x10 }
  - { offsetInCU: 0xB78B, offset: 0x52E8C, size: 0x8, addend: 0x0, symName: __ZNSt3__19allocatorINS_11__hash_nodeINS_17__hash_value_typeINS_12basic_stringIcNS_11char_traitsIcEENS0_IcEEEENS_10shared_ptrI11SDL_TextureEEEEPvEEE8allocateB7v160006Em, symObjAddr: 0x33C0, symBinAddr: 0x15860, symSize: 0x50 }
  - { offsetInCU: 0xB7C7, offset: 0x52EC8, size: 0x8, addend: 0x0, symName: __ZNSt3__116allocator_traitsINS_9allocatorINS_11__hash_nodeINS_17__hash_value_typeINS_12basic_stringIcNS_11char_traitsIcEENS1_IcEEEENS_10shared_ptrI11SDL_TextureEEEEPvEEEEE8max_sizeB7v160006ISF_vvEEmRKSF_, symObjAddr: 0x3410, symBinAddr: 0x158B0, symSize: 0x30 }
  - { offsetInCU: 0xB7F3, offset: 0x52EF4, size: 0x8, addend: 0x0, symName: __ZNSt3__122__hash_node_destructorINS_9allocatorINS_11__hash_nodeINS_17__hash_value_typeINS_12basic_stringIcNS_11char_traitsIcEENS1_IcEEEENS_10shared_ptrI11SDL_TextureEEEEPvEEEEEC2B7v160006ERSF_b, symObjAddr: 0x3570, symBinAddr: 0x158E0, symSize: 0x30 }
  - { offsetInCU: 0xB839, offset: 0x52F3A, size: 0x8, addend: 0x0, symName: __ZNSt3__110unique_ptrINS_11__hash_nodeINS_17__hash_value_typeINS_12basic_stringIcNS_11char_traitsIcEENS_9allocatorIcEEEENS_10shared_ptrI11SDL_TextureEEEEPvEENS_22__hash_node_destructorINS6_ISE_EEEEEC2B7v160006ILb1EvEEPSE_NS_16__dependent_typeINS_27__unique_ptr_deleter_sfinaeISH_EEXT_EE20__good_rval_ref_typeE, symObjAddr: 0x35A0, symBinAddr: 0x15910, symSize: 0x40 }
  - { offsetInCU: 0xB889, offset: 0x52F8A, size: 0x8, addend: 0x0, symName: __ZNSt3__117__compressed_pairIPNS_11__hash_nodeINS_17__hash_value_typeINS_12basic_stringIcNS_11char_traitsIcEENS_9allocatorIcEEEENS_10shared_ptrI11SDL_TextureEEEEPvEENS_22__hash_node_destructorINS6_ISE_EEEEEC1B7v160006IRSF_SI_EEOT_OT0_, symObjAddr: 0x35E0, symBinAddr: 0x15950, symSize: 0x30 }
  - { offsetInCU: 0xB8DF, offset: 0x52FE0, size: 0x8, addend: 0x0, symName: __ZNSt3__117__compressed_pairIPNS_11__hash_nodeINS_17__hash_value_typeINS_12basic_stringIcNS_11char_traitsIcEENS_9allocatorIcEEEENS_10shared_ptrI11SDL_TextureEEEEPvEENS_22__hash_node_destructorINS6_ISE_EEEEEC2B7v160006IRSF_SI_EEOT_OT0_, symObjAddr: 0x3610, symBinAddr: 0x15980, symSize: 0x40 }
  - { offsetInCU: 0xB935, offset: 0x53036, size: 0x8, addend: 0x0, symName: __ZNSt3__122__compressed_pair_elemIPNS_11__hash_nodeINS_17__hash_value_typeINS_12basic_stringIcNS_11char_traitsIcEENS_9allocatorIcEEEENS_10shared_ptrI11SDL_TextureEEEEPvEELi0ELb0EEC2B7v160006IRSF_vEEOT_, symObjAddr: 0x3650, symBinAddr: 0x159C0, symSize: 0x20 }
  - { offsetInCU: 0xB976, offset: 0x53077, size: 0x8, addend: 0x0, symName: __ZNSt3__122__compressed_pair_elemINS_22__hash_node_destructorINS_9allocatorINS_11__hash_nodeINS_17__hash_value_typeINS_12basic_stringIcNS_11char_traitsIcEENS2_IcEEEENS_10shared_ptrI11SDL_TextureEEEEPvEEEEEELi1ELb0EEC2B7v160006ISH_vEEOT_, symObjAddr: 0x3670, symBinAddr: 0x159E0, symSize: 0x30 }
  - { offsetInCU: 0xB9B7, offset: 0x530B8, size: 0x8, addend: 0x0, symName: __ZNSt3__14pairIKNS_12basic_stringIcNS_11char_traitsIcEENS_9allocatorIcEEEENS_10shared_ptrI11SDL_TextureEEEC1EOSB_, symObjAddr: 0x36E0, symBinAddr: 0x15A50, symSize: 0x30 }
  - { offsetInCU: 0xB9E9, offset: 0x530EA, size: 0x8, addend: 0x0, symName: __ZNSt3__14pairIKNS_12basic_stringIcNS_11char_traitsIcEENS_9allocatorIcEEEENS_10shared_ptrI11SDL_TextureEEEC2EOSB_, symObjAddr: 0x3710, symBinAddr: 0x15A80, symSize: 0x40 }
  - { offsetInCU: 0xBA1B, offset: 0x5311C, size: 0x8, addend: 0x0, symName: __ZNSt3__110shared_ptrI11SDL_TextureEC1B7v160006EOS2_, symObjAddr: 0x3750, symBinAddr: 0x15AC0, symSize: 0x30 }
  - { offsetInCU: 0xBA52, offset: 0x53153, size: 0x8, addend: 0x0, symName: __ZNSt3__110shared_ptrI11SDL_TextureEC2B7v160006EOS2_, symObjAddr: 0x3780, symBinAddr: 0x15AF0, symSize: 0x40 }
  - { offsetInCU: 0xBA89, offset: 0x5318A, size: 0x8, addend: 0x0, symName: __ZNSt3__117__hash_value_typeINS_12basic_stringIcNS_11char_traitsIcEENS_9allocatorIcEEEENS_10shared_ptrI11SDL_TextureEEE11__get_valueB7v160006Ev, symObjAddr: 0x37C0, symBinAddr: 0x15B30, symSize: 0x20 }
  - { offsetInCU: 0xBAAD, offset: 0x531AE, size: 0x8, addend: 0x0, symName: __ZNSt3__117__compressed_pairIPNS_11__hash_nodeINS_17__hash_value_typeINS_12basic_stringIcNS_11char_traitsIcEENS_9allocatorIcEEEENS_10shared_ptrI11SDL_TextureEEEEPvEENS_22__hash_node_destructorINS6_ISE_EEEEE6secondB7v160006Ev, symObjAddr: 0x3810, symBinAddr: 0x15B80, symSize: 0x20 }
  - { offsetInCU: 0xBAD1, offset: 0x531D2, size: 0x8, addend: 0x0, symName: __ZNSt3__122__compressed_pair_elemINS_22__hash_node_destructorINS_9allocatorINS_11__hash_nodeINS_17__hash_value_typeINS_12basic_stringIcNS_11char_traitsIcEENS2_IcEEEENS_10shared_ptrI11SDL_TextureEEEEPvEEEEEELi1ELb0EE5__getB7v160006Ev, symObjAddr: 0x3830, symBinAddr: 0x15BA0, symSize: 0x10 }
  - { offsetInCU: 0xBAF5, offset: 0x531F6, size: 0x8, addend: 0x0, symName: __ZNSt3__117__compressed_pairImNS_22__unordered_map_hasherINS_12basic_stringIcNS_11char_traitsIcEENS_9allocatorIcEEEENS_17__hash_value_typeIS7_NS_10shared_ptrI11SDL_TextureEEEENS_4hashIS7_EENS_8equal_toIS7_EELb1EEEE5firstB7v160006Ev, symObjAddr: 0x3840, symBinAddr: 0x15BB0, symSize: 0x20 }
  - { offsetInCU: 0xBB19, offset: 0x5321A, size: 0x8, addend: 0x0, symName: __ZNSt3__117__compressed_pairIfNS_21__unordered_map_equalINS_12basic_stringIcNS_11char_traitsIcEENS_9allocatorIcEEEENS_17__hash_value_typeIS7_NS_10shared_ptrI11SDL_TextureEEEENS_8equal_toIS7_EENS_4hashIS7_EELb1EEEE5firstB7v160006Ev, symObjAddr: 0x3870, symBinAddr: 0x15BD0, symSize: 0x20 }
  - { offsetInCU: 0xBB3D, offset: 0x5323E, size: 0x8, addend: 0x0, symName: __ZNSt3__122__compressed_pair_elemIfLi0ELb0EE5__getB7v160006Ev, symObjAddr: 0x3890, symBinAddr: 0x15BF0, symSize: 0x10 }
  - { offsetInCU: 0xBB61, offset: 0x53262, size: 0x8, addend: 0x0, symName: __ZNSt3__112__hash_tableINS_17__hash_value_typeINS_12basic_stringIcNS_11char_traitsIcEENS_9allocatorIcEEEENS_10shared_ptrI11SDL_TextureEEEENS_22__unordered_map_hasherIS7_SB_NS_4hashIS7_EENS_8equal_toIS7_EELb1EEENS_21__unordered_map_equalIS7_SB_SG_SE_Lb1EEENS5_ISB_EEE8__rehashILb1EEEvm, symObjAddr: 0x38A0, symBinAddr: 0x15C00, symSize: 0x230 }
  - { offsetInCU: 0xBBAF, offset: 0x532B0, size: 0x8, addend: 0x0, symName: __ZNSt3__112__hash_tableINS_17__hash_value_typeINS_12basic_stringIcNS_11char_traitsIcEENS_9allocatorIcEEEENS_10shared_ptrI11SDL_TextureEEEENS_22__unordered_map_hasherIS7_SB_NS_4hashIS7_EENS_8equal_toIS7_EELb1EEENS_21__unordered_map_equalIS7_SB_SG_SE_Lb1EEENS5_ISB_EEE11__do_rehashILb1EEEvm, symObjAddr: 0x3AD0, symBinAddr: 0x15E30, symSize: 0x260 }
  - { offsetInCU: 0xBC90, offset: 0x53391, size: 0x8, addend: 0x0, symName: __ZNSt3__110unique_ptrIA_PNS_16__hash_node_baseIPNS_11__hash_nodeINS_17__hash_value_typeINS_12basic_stringIcNS_11char_traitsIcEENS_9allocatorIcEEEENS_10shared_ptrI11SDL_TextureEEEEPvEEEENS_25__bucket_list_deallocatorINS7_ISI_EEEEE11get_deleterB7v160006Ev, symObjAddr: 0x3DA0, symBinAddr: 0x16100, symSize: 0x20 }
  - { offsetInCU: 0xBCB4, offset: 0x533B5, size: 0x8, addend: 0x0, symName: __ZNSt3__125__bucket_list_deallocatorINS_9allocatorIPNS_16__hash_node_baseIPNS_11__hash_nodeINS_17__hash_value_typeINS_12basic_stringIcNS_11char_traitsIcEENS1_IcEEEENS_10shared_ptrI11SDL_TextureEEEEPvEEEEEEE7__allocB7v160006Ev, symObjAddr: 0x3DC0, symBinAddr: 0x16120, symSize: 0x20 }
  - { offsetInCU: 0xBCD8, offset: 0x533D9, size: 0x8, addend: 0x0, symName: __ZNSt3__110unique_ptrIA_PNS_16__hash_node_baseIPNS_11__hash_nodeINS_17__hash_value_typeINS_12basic_stringIcNS_11char_traitsIcEENS_9allocatorIcEEEENS_10shared_ptrI11SDL_TextureEEEEPvEEEENS_25__bucket_list_deallocatorINS7_ISI_EEEEE5resetB7v160006IPSI_EENS_9enable_ifIXsr28_CheckArrayPointerConversionIT_EE5valueEvE4typeESR_, symObjAddr: 0x3DE0, symBinAddr: 0x16140, symSize: 0x70 }
  - { offsetInCU: 0xBD23, offset: 0x53424, size: 0x8, addend: 0x0, symName: __ZNSt3__116allocator_traitsINS_9allocatorIPNS_16__hash_node_baseIPNS_11__hash_nodeINS_17__hash_value_typeINS_12basic_stringIcNS_11char_traitsIcEENS1_IcEEEENS_10shared_ptrI11SDL_TextureEEEEPvEEEEEEE8allocateB7v160006ERSJ_m, symObjAddr: 0x3E50, symBinAddr: 0x161B0, symSize: 0x30 }
  - { offsetInCU: 0xBD55, offset: 0x53456, size: 0x8, addend: 0x0, symName: __ZNSt3__125__bucket_list_deallocatorINS_9allocatorIPNS_16__hash_node_baseIPNS_11__hash_nodeINS_17__hash_value_typeINS_12basic_stringIcNS_11char_traitsIcEENS1_IcEEEENS_10shared_ptrI11SDL_TextureEEEEPvEEEEEEE4sizeB7v160006Ev, symObjAddr: 0x3E80, symBinAddr: 0x161E0, symSize: 0x20 }
  - { offsetInCU: 0xBD79, offset: 0x5347A, size: 0x8, addend: 0x0, symName: __ZNSt3__117__compressed_pairIPPNS_16__hash_node_baseIPNS_11__hash_nodeINS_17__hash_value_typeINS_12basic_stringIcNS_11char_traitsIcEENS_9allocatorIcEEEENS_10shared_ptrI11SDL_TextureEEEEPvEEEENS_25__bucket_list_deallocatorINS7_ISI_EEEEE6secondB7v160006Ev, symObjAddr: 0x3EA0, symBinAddr: 0x16200, symSize: 0x20 }
  - { offsetInCU: 0xBD9D, offset: 0x5349E, size: 0x8, addend: 0x0, symName: __ZNSt3__122__compressed_pair_elemINS_25__bucket_list_deallocatorINS_9allocatorIPNS_16__hash_node_baseIPNS_11__hash_nodeINS_17__hash_value_typeINS_12basic_stringIcNS_11char_traitsIcEENS2_IcEEEENS_10shared_ptrI11SDL_TextureEEEEPvEEEEEEEELi1ELb0EE5__getB7v160006Ev, symObjAddr: 0x3EC0, symBinAddr: 0x16220, symSize: 0x10 }
  - { offsetInCU: 0xBDC1, offset: 0x534C2, size: 0x8, addend: 0x0, symName: __ZNSt3__117__compressed_pairImNS_9allocatorIPNS_16__hash_node_baseIPNS_11__hash_nodeINS_17__hash_value_typeINS_12basic_stringIcNS_11char_traitsIcEENS1_IcEEEENS_10shared_ptrI11SDL_TextureEEEEPvEEEEEEE6secondB7v160006Ev, symObjAddr: 0x3ED0, symBinAddr: 0x16230, symSize: 0x20 }
  - { offsetInCU: 0xBDE5, offset: 0x534E6, size: 0x8, addend: 0x0, symName: __ZNSt3__122__compressed_pair_elemINS_9allocatorIPNS_16__hash_node_baseIPNS_11__hash_nodeINS_17__hash_value_typeINS_12basic_stringIcNS_11char_traitsIcEENS1_IcEEEENS_10shared_ptrI11SDL_TextureEEEEPvEEEEEELi1ELb1EE5__getB7v160006Ev, symObjAddr: 0x3EF0, symBinAddr: 0x16250, symSize: 0x10 }
  - { offsetInCU: 0xBE09, offset: 0x5350A, size: 0x8, addend: 0x0, symName: __ZNSt3__117__compressed_pairIPPNS_16__hash_node_baseIPNS_11__hash_nodeINS_17__hash_value_typeINS_12basic_stringIcNS_11char_traitsIcEENS_9allocatorIcEEEENS_10shared_ptrI11SDL_TextureEEEEPvEEEENS_25__bucket_list_deallocatorINS7_ISI_EEEEE5firstB7v160006Ev, symObjAddr: 0x3F00, symBinAddr: 0x16260, symSize: 0x20 }
  - { offsetInCU: 0xBE2D, offset: 0x5352E, size: 0x8, addend: 0x0, symName: __ZNSt3__125__bucket_list_deallocatorINS_9allocatorIPNS_16__hash_node_baseIPNS_11__hash_nodeINS_17__hash_value_typeINS_12basic_stringIcNS_11char_traitsIcEENS1_IcEEEENS_10shared_ptrI11SDL_TextureEEEEPvEEEEEEEclB7v160006EPSI_, symObjAddr: 0x3F20, symBinAddr: 0x16280, symSize: 0x50 }
  - { offsetInCU: 0xBE60, offset: 0x53561, size: 0x8, addend: 0x0, symName: __ZNSt3__122__compressed_pair_elemIPPNS_16__hash_node_baseIPNS_11__hash_nodeINS_17__hash_value_typeINS_12basic_stringIcNS_11char_traitsIcEENS_9allocatorIcEEEENS_10shared_ptrI11SDL_TextureEEEEPvEEEELi0ELb0EE5__getB7v160006Ev, symObjAddr: 0x3F70, symBinAddr: 0x162D0, symSize: 0x10 }
  - { offsetInCU: 0xBE84, offset: 0x53585, size: 0x8, addend: 0x0, symName: __ZNSt3__116allocator_traitsINS_9allocatorIPNS_16__hash_node_baseIPNS_11__hash_nodeINS_17__hash_value_typeINS_12basic_stringIcNS_11char_traitsIcEENS1_IcEEEENS_10shared_ptrI11SDL_TextureEEEEPvEEEEEEE10deallocateB7v160006ERSJ_PSI_m, symObjAddr: 0x3F80, symBinAddr: 0x162E0, symSize: 0x30 }
  - { offsetInCU: 0xBEC5, offset: 0x535C6, size: 0x8, addend: 0x0, symName: __ZNSt3__19allocatorIPNS_16__hash_node_baseIPNS_11__hash_nodeINS_17__hash_value_typeINS_12basic_stringIcNS_11char_traitsIcEENS0_IcEEEENS_10shared_ptrI11SDL_TextureEEEEPvEEEEE10deallocateB7v160006EPSH_m, symObjAddr: 0x3FB0, symBinAddr: 0x16310, symSize: 0x40 }
  - { offsetInCU: 0xBF05, offset: 0x53606, size: 0x8, addend: 0x0, symName: __ZNSt3__19allocatorIPNS_16__hash_node_baseIPNS_11__hash_nodeINS_17__hash_value_typeINS_12basic_stringIcNS_11char_traitsIcEENS0_IcEEEENS_10shared_ptrI11SDL_TextureEEEEPvEEEEE8allocateB7v160006Em, symObjAddr: 0x40F0, symBinAddr: 0x16350, symSize: 0x50 }
  - { offsetInCU: 0xBF41, offset: 0x53642, size: 0x8, addend: 0x0, symName: __ZNSt3__116allocator_traitsINS_9allocatorIPNS_16__hash_node_baseIPNS_11__hash_nodeINS_17__hash_value_typeINS_12basic_stringIcNS_11char_traitsIcEENS1_IcEEEENS_10shared_ptrI11SDL_TextureEEEEPvEEEEEEE8max_sizeB7v160006ISJ_vvEEmRKSJ_, symObjAddr: 0x4140, symBinAddr: 0x163A0, symSize: 0x20 }
  - { offsetInCU: 0xBF6D, offset: 0x5366E, size: 0x8, addend: 0x0, symName: __ZNSt3__117__compressed_pairImNS_9allocatorIPNS_16__hash_node_baseIPNS_11__hash_nodeINS_17__hash_value_typeINS_12basic_stringIcNS_11char_traitsIcEENS1_IcEEEENS_10shared_ptrI11SDL_TextureEEEEPvEEEEEEE5firstB7v160006Ev, symObjAddr: 0x4160, symBinAddr: 0x163C0, symSize: 0x20 }
  - { offsetInCU: 0xBF91, offset: 0x53692, size: 0x8, addend: 0x0, symName: __ZNSt3__122__compressed_pair_elemINS_16__hash_node_baseIPNS_11__hash_nodeINS_17__hash_value_typeINS_12basic_stringIcNS_11char_traitsIcEENS_9allocatorIcEEEENS_10shared_ptrI11SDL_TextureEEEEPvEEEELi0ELb0EE5__getB7v160006Ev, symObjAddr: 0x4220, symBinAddr: 0x16400, symSize: 0x10 }
  - { offsetInCU: 0xBFB5, offset: 0x536B6, size: 0x8, addend: 0x0, symName: __ZNKSt3__117__compressed_pairIPNS_11__hash_nodeINS_17__hash_value_typeINS_12basic_stringIcNS_11char_traitsIcEENS_9allocatorIcEEEENS_10shared_ptrI11SDL_TextureEEEEPvEENS_22__hash_node_destructorINS6_ISE_EEEEE5firstB7v160006Ev, symObjAddr: 0x4230, symBinAddr: 0x16410, symSize: 0x20 }
  - { offsetInCU: 0xBFD9, offset: 0x536DA, size: 0x8, addend: 0x0, symName: __ZNKSt3__122__compressed_pair_elemIPNS_11__hash_nodeINS_17__hash_value_typeINS_12basic_stringIcNS_11char_traitsIcEENS_9allocatorIcEEEENS_10shared_ptrI11SDL_TextureEEEEPvEELi0ELb0EE5__getB7v160006Ev, symObjAddr: 0x4250, symBinAddr: 0x16430, symSize: 0x10 }
  - { offsetInCU: 0xBFFD, offset: 0x536FE, size: 0x8, addend: 0x0, symName: __ZNSt3__117__compressed_pairIPNS_11__hash_nodeINS_17__hash_value_typeINS_12basic_stringIcNS_11char_traitsIcEENS_9allocatorIcEEEENS_10shared_ptrI11SDL_TextureEEEEPvEENS_22__hash_node_destructorINS6_ISE_EEEEE5firstB7v160006Ev, symObjAddr: 0x4260, symBinAddr: 0x16440, symSize: 0x20 }
  - { offsetInCU: 0xC021, offset: 0x53722, size: 0x8, addend: 0x0, symName: __ZNSt3__122__compressed_pair_elemIPNS_11__hash_nodeINS_17__hash_value_typeINS_12basic_stringIcNS_11char_traitsIcEENS_9allocatorIcEEEENS_10shared_ptrI11SDL_TextureEEEEPvEELi0ELb0EE5__getB7v160006Ev, symObjAddr: 0x4280, symBinAddr: 0x16460, symSize: 0x10 }
  - { offsetInCU: 0xC045, offset: 0x53746, size: 0x8, addend: 0x0, symName: __ZNSt3__110unique_ptrINS_11__hash_nodeINS_17__hash_value_typeINS_12basic_stringIcNS_11char_traitsIcEENS_9allocatorIcEEEENS_10shared_ptrI11SDL_TextureEEEEPvEENS_22__hash_node_destructorINS6_ISE_EEEEED2B7v160006Ev, symObjAddr: 0x4290, symBinAddr: 0x16470, symSize: 0x20 }
  - { offsetInCU: 0xC06D, offset: 0x5376E, size: 0x8, addend: 0x0, symName: __ZNSt3__110unique_ptrINS_11__hash_nodeINS_17__hash_value_typeINS_12basic_stringIcNS_11char_traitsIcEENS_9allocatorIcEEEENS_10shared_ptrI11SDL_TextureEEEEPvEENS_22__hash_node_destructorINS6_ISE_EEEEE5resetB7v160006EPSE_, symObjAddr: 0x42B0, symBinAddr: 0x16490, symSize: 0x70 }
  - { offsetInCU: 0xC0AF, offset: 0x537B0, size: 0x8, addend: 0x0, symName: __ZNSt3__122__hash_node_destructorINS_9allocatorINS_11__hash_nodeINS_17__hash_value_typeINS_12basic_stringIcNS_11char_traitsIcEENS1_IcEEEENS_10shared_ptrI11SDL_TextureEEEEPvEEEEEclB7v160006EPSE_, symObjAddr: 0x4320, symBinAddr: 0x16500, symSize: 0x90 }
  - { offsetInCU: 0xC0E2, offset: 0x537E3, size: 0x8, addend: 0x0, symName: __ZNSt3__116allocator_traitsINS_9allocatorINS_11__hash_nodeINS_17__hash_value_typeINS_12basic_stringIcNS_11char_traitsIcEENS1_IcEEEENS_10shared_ptrI11SDL_TextureEEEEPvEEEEE7destroyB7v160006INS_4pairIKS8_SB_EEvvEEvRSF_PT_, symObjAddr: 0x43B0, symBinAddr: 0x16590, symSize: 0x20 }
  - { offsetInCU: 0xC11D, offset: 0x5381E, size: 0x8, addend: 0x0, symName: __ZNSt3__116allocator_traitsINS_9allocatorINS_11__hash_nodeINS_17__hash_value_typeINS_12basic_stringIcNS_11char_traitsIcEENS1_IcEEEENS_10shared_ptrI11SDL_TextureEEEEPvEEEEE10deallocateB7v160006ERSF_PSE_m, symObjAddr: 0x43D0, symBinAddr: 0x165B0, symSize: 0x30 }
  - { offsetInCU: 0xC15E, offset: 0x5385F, size: 0x8, addend: 0x0, symName: __ZNSt3__19allocatorINS_11__hash_nodeINS_17__hash_value_typeINS_12basic_stringIcNS_11char_traitsIcEENS0_IcEEEENS_10shared_ptrI11SDL_TextureEEEEPvEEE10deallocateB7v160006EPSD_m, symObjAddr: 0x4440, symBinAddr: 0x16620, symSize: 0x40 }
  - { offsetInCU: 0xC19E, offset: 0x5389F, size: 0x8, addend: 0x0, symName: __ZNSt3__115__hash_iteratorIPNS_11__hash_nodeINS_17__hash_value_typeINS_12basic_stringIcNS_11char_traitsIcEENS_9allocatorIcEEEENS_10shared_ptrI11SDL_TextureEEEEPvEEEC2B7v160006EPNS_16__hash_node_baseISF_EEPKv, symObjAddr: 0x4480, symBinAddr: 0x16660, symSize: 0x20 }
  - { offsetInCU: 0xC1E4, offset: 0x538E5, size: 0x8, addend: 0x0, symName: __ZNSt3__14pairINS_15__hash_iteratorIPNS_11__hash_nodeINS_17__hash_value_typeINS_12basic_stringIcNS_11char_traitsIcEENS_9allocatorIcEEEENS_10shared_ptrI11SDL_TextureEEEEPvEEEEbEC2B7v160006ISH_RbLSE_0EEEOT_OT0_, symObjAddr: 0x44A0, symBinAddr: 0x16680, symSize: 0x30 }
  - { offsetInCU: 0xC241, offset: 0x53942, size: 0x8, addend: 0x0, symName: __ZNSt3__14pairINS_19__hash_map_iteratorINS_15__hash_iteratorIPNS_11__hash_nodeINS_17__hash_value_typeINS_12basic_stringIcNS_11char_traitsIcEENS_9allocatorIcEEEENS_10shared_ptrI11SDL_TextureEEEEPvEEEEEEbEC2B7v160006ISI_bLSF_0EEEONS0_IT_T0_EE, symObjAddr: 0x44D0, symBinAddr: 0x166B0, symSize: 0x50 }
  - { offsetInCU: 0xC291, offset: 0x53992, size: 0x8, addend: 0x0, symName: __ZNSt3__119__hash_map_iteratorINS_15__hash_iteratorIPNS_11__hash_nodeINS_17__hash_value_typeINS_12basic_stringIcNS_11char_traitsIcEENS_9allocatorIcEEEENS_10shared_ptrI11SDL_TextureEEEEPvEEEEEC1B7v160006ESH_, symObjAddr: 0x4520, symBinAddr: 0x16700, symSize: 0x30 }
  - { offsetInCU: 0xC2C8, offset: 0x539C9, size: 0x8, addend: 0x0, symName: __ZNSt3__119__hash_map_iteratorINS_15__hash_iteratorIPNS_11__hash_nodeINS_17__hash_value_typeINS_12basic_stringIcNS_11char_traitsIcEENS_9allocatorIcEEEENS_10shared_ptrI11SDL_TextureEEEEPvEEEEEC2B7v160006ESH_, symObjAddr: 0x4550, symBinAddr: 0x16730, symSize: 0x20 }
  - { offsetInCU: 0xC2FF, offset: 0x53A00, size: 0x8, addend: 0x0, symName: __ZNSt3__14pairIKNS_12basic_stringIcNS_11char_traitsIcEENS_9allocatorIcEEEENS_10shared_ptrI11SDL_TextureEEEC2B7v160006IRS6_RSA_LPv0EEEOT_OT0_, symObjAddr: 0x4570, symBinAddr: 0x16750, symSize: 0x40 }
  - { offsetInCU: 0xC35C, offset: 0x53A5D, size: 0x8, addend: 0x0, symName: __ZNSt3__14pairIKNS_12basic_stringIcNS_11char_traitsIcEENS_9allocatorIcEEEENS_10shared_ptrI11SDL_TextureEEED2Ev, symObjAddr: 0x45B0, symBinAddr: 0x16790, symSize: 0x30 }
  - { offsetInCU: 0xC395, offset: 0x53A96, size: 0x8, addend: 0x0, symName: __ZNSt3__112__hash_tableINS_17__hash_value_typeINS_12basic_stringIcNS_11char_traitsIcEENS_9allocatorIcEEEENS_10shared_ptrI11SDL_TextureEEEENS_22__unordered_map_hasherIS7_SB_NS_4hashIS7_EENS_8equal_toIS7_EELb1EEENS_21__unordered_map_equalIS7_SB_SG_SE_Lb1EEENS5_ISB_EEE25__emplace_unique_key_argsIS7_JRKNS_21piecewise_construct_tENS_5tupleIJRKS7_EEENSQ_IJEEEEEENS_4pairINS_15__hash_iteratorIPNS_11__hash_nodeISB_PvEEEEbEERKT_DpOT0_, symObjAddr: 0x45E0, symBinAddr: 0x167C0, symSize: 0x5B0 }
  - { offsetInCU: 0xC49B, offset: 0x53B9C, size: 0x8, addend: 0x0, symName: __ZNKSt3__115__hash_iteratorIPNS_11__hash_nodeINS_17__hash_value_typeINS_12basic_stringIcNS_11char_traitsIcEENS_9allocatorIcEEEENS_10shared_ptrI11SDL_TextureEEEEPvEEEptB7v160006Ev, symObjAddr: 0x4BD0, symBinAddr: 0x16DA0, symSize: 0x30 }
  - { offsetInCU: 0xC4BF, offset: 0x53BC0, size: 0x8, addend: 0x0, symName: __ZNSt3__112__hash_tableINS_17__hash_value_typeINS_12basic_stringIcNS_11char_traitsIcEENS_9allocatorIcEEEENS_10shared_ptrI11SDL_TextureEEEENS_22__unordered_map_hasherIS7_SB_NS_4hashIS7_EENS_8equal_toIS7_EELb1EEENS_21__unordered_map_equalIS7_SB_SG_SE_Lb1EEENS5_ISB_EEE21__construct_node_hashIRKNS_21piecewise_construct_tEJNS_5tupleIJRKS7_EEENSQ_IJEEEEEENS_10unique_ptrINS_11__hash_nodeISB_PvEENS_22__hash_node_destructorINS5_ISY_EEEEEEmOT_DpOT0_, symObjAddr: 0x4C00, symBinAddr: 0x16DD0, symSize: 0x150 }
  - { offsetInCU: 0xC559, offset: 0x53C5A, size: 0x8, addend: 0x0, symName: __ZNSt3__116allocator_traitsINS_9allocatorINS_11__hash_nodeINS_17__hash_value_typeINS_12basic_stringIcNS_11char_traitsIcEENS1_IcEEEENS_10shared_ptrI11SDL_TextureEEEEPvEEEEE9constructB7v160006INS_4pairIKS8_SB_EEJRKNS_21piecewise_construct_tENS_5tupleIJRSJ_EEENSO_IJEEEEvvEEvRSF_PT_DpOT0_, symObjAddr: 0x4D50, symBinAddr: 0x16F20, symSize: 0x40 }
  - { offsetInCU: 0xC5D6, offset: 0x53CD7, size: 0x8, addend: 0x0, symName: __ZNSt3__14pairIKNS_12basic_stringIcNS_11char_traitsIcEENS_9allocatorIcEEEENS_10shared_ptrI11SDL_TextureEEEC1B7v160006IJRS7_EJEEENS_21piecewise_construct_tENS_5tupleIJDpT_EEENSF_IJDpT0_EEE, symObjAddr: 0x4DE0, symBinAddr: 0x16FB0, symSize: 0x30 }
  - { offsetInCU: 0xC63C, offset: 0x53D3D, size: 0x8, addend: 0x0, symName: __ZNSt3__14pairIKNS_12basic_stringIcNS_11char_traitsIcEENS_9allocatorIcEEEENS_10shared_ptrI11SDL_TextureEEEC1B7v160006IJRS7_EJEJLm0EEJEEENS_21piecewise_construct_tERNS_5tupleIJDpT_EEERNSF_IJDpT0_EEENS_15__tuple_indicesIJXspT1_EEEENSO_IJXspT2_EEEE, symObjAddr: 0x4E10, symBinAddr: 0x16FE0, symSize: 0x30 }
  - { offsetInCU: 0xC6CB, offset: 0x53DCC, size: 0x8, addend: 0x0, symName: __ZNSt3__14pairIKNS_12basic_stringIcNS_11char_traitsIcEENS_9allocatorIcEEEENS_10shared_ptrI11SDL_TextureEEEC2B7v160006IJRS7_EJEJLm0EEJEEENS_21piecewise_construct_tERNS_5tupleIJDpT_EEERNSF_IJDpT0_EEENS_15__tuple_indicesIJXspT1_EEEENSO_IJXspT2_EEEE, symObjAddr: 0x4E40, symBinAddr: 0x17010, symSize: 0x50 }
  - { offsetInCU: 0xC75A, offset: 0x53E5B, size: 0x8, addend: 0x0, symName: __ZNSt3__112__tuple_leafILm0ERKNS_12basic_stringIcNS_11char_traitsIcEENS_9allocatorIcEEEELb0EE3getB7v160006Ev, symObjAddr: 0x4EB0, symBinAddr: 0x17080, symSize: 0x20 }
  - { offsetInCU: 0xC77E, offset: 0x53E7F, size: 0x8, addend: 0x0, symName: __ZNSt3__15tupleIJRKNS_12basic_stringIcNS_11char_traitsIcEENS_9allocatorIcEEEEEEC1B7v160006INS_4_AndELi0EEES8_, symObjAddr: 0x4ED0, symBinAddr: 0x170A0, symSize: 0x30 }
  - { offsetInCU: 0xC7C6, offset: 0x53EC7, size: 0x8, addend: 0x0, symName: __ZNSt3__15tupleIJRKNS_12basic_stringIcNS_11char_traitsIcEENS_9allocatorIcEEEEEEC2B7v160006INS_4_AndELi0EEES8_, symObjAddr: 0x4F00, symBinAddr: 0x170D0, symSize: 0x30 }
  - { offsetInCU: 0xC80E, offset: 0x53F0F, size: 0x8, addend: 0x0, symName: __ZNSt3__112__tuple_implINS_15__tuple_indicesIJLm0EEEEJRKNS_12basic_stringIcNS_11char_traitsIcEENS_9allocatorIcEEEEEEC1B7v160006IJLm0EEJSA_EJEJEJSA_EEENS1_IJXspT_EEEENS_13__tuple_typesIJDpT0_EEENS1_IJXspT1_EEEENSE_IJDpT2_EEEDpOT3_, symObjAddr: 0x4F30, symBinAddr: 0x17100, symSize: 0x30 }
  - { offsetInCU: 0xC8A0, offset: 0x53FA1, size: 0x8, addend: 0x0, symName: __ZNSt3__112__tuple_implINS_15__tuple_indicesIJLm0EEEEJRKNS_12basic_stringIcNS_11char_traitsIcEENS_9allocatorIcEEEEEEC2B7v160006IJLm0EEJSA_EJEJEJSA_EEENS1_IJXspT_EEEENS_13__tuple_typesIJDpT0_EEENS1_IJXspT1_EEEENSE_IJDpT2_EEEDpOT3_, symObjAddr: 0x4F60, symBinAddr: 0x17130, symSize: 0x30 }
  - { offsetInCU: 0xC932, offset: 0x54033, size: 0x8, addend: 0x0, symName: __ZNSt3__112__tuple_leafILm0ERKNS_12basic_stringIcNS_11char_traitsIcEENS_9allocatorIcEEEELb0EEC2B7v160006IS8_vEEOT_, symObjAddr: 0x4F90, symBinAddr: 0x17160, symSize: 0x20 }
  - { offsetInCU: 0xC974, offset: 0x54075, size: 0x8, addend: 0x0, symName: __ZNSt3__114pointer_traitsIPNS_17__hash_value_typeINS_12basic_stringIcNS_11char_traitsIcEENS_9allocatorIcEEEENS_10shared_ptrI11SDL_TextureEEEEE10pointer_toB7v160006ERSB_, symObjAddr: 0x4FB0, symBinAddr: 0x17180, symSize: 0x10 }
  - { offsetInCU: 0xC996, offset: 0x54097, size: 0x8, addend: 0x0, symName: __ZNSt3__110shared_ptrI11SDL_TextureEC2B7v160006ERKS2_, symObjAddr: 0x4FC0, symBinAddr: 0x17190, symSize: 0x50 }
  - { offsetInCU: 0xC9CD, offset: 0x540CE, size: 0x8, addend: 0x0, symName: __ZNSt3__110shared_ptrI11SDL_TextureED2B7v160006Ev, symObjAddr: 0x5200, symBinAddr: 0x171E0, symSize: 0x40 }
  - { offsetInCU: 0xC9F5, offset: 0x540F6, size: 0x8, addend: 0x0, symName: __ZNSt3__110shared_ptrI11SDL_TextureE4swapB7v160006ERS2_, symObjAddr: 0x5240, symBinAddr: 0x17220, symSize: 0x40 }
  - { offsetInCU: 0xCA28, offset: 0x54129, size: 0x8, addend: 0x0, symName: __ZNKSt3__110shared_ptrI11SDL_TextureEcvbB7v160006Ev, symObjAddr: 0x5300, symBinAddr: 0x172A0, symSize: 0x30 }
  - { offsetInCU: 0x26, offset: 0x54349, size: 0x8, addend: 0x0, symName: __ZN18TransformComponentC2Ev, symObjAddr: 0x0, symBinAddr: 0x172D0, symSize: 0x70 }
  - { offsetInCU: 0x291B, offset: 0x56C3E, size: 0x8, addend: 0x0, symName: __ZN18TransformComponentC2Ev, symObjAddr: 0x0, symBinAddr: 0x172D0, symSize: 0x70 }
  - { offsetInCU: 0x2945, offset: 0x56C68, size: 0x8, addend: 0x0, symName: __ZN18TransformComponentC1Ev, symObjAddr: 0xA0, symBinAddr: 0x17340, symSize: 0x20 }
  - { offsetInCU: 0x296F, offset: 0x56C92, size: 0x8, addend: 0x0, symName: __ZN18TransformComponentD2Ev, symObjAddr: 0xC0, symBinAddr: 0x17360, symSize: 0x20 }
  - { offsetInCU: 0x2999, offset: 0x56CBC, size: 0x8, addend: 0x0, symName: __ZN18TransformComponentD1Ev, symObjAddr: 0x110, symBinAddr: 0x17380, symSize: 0x20 }
  - { offsetInCU: 0x29C3, offset: 0x56CE6, size: 0x8, addend: 0x0, symName: __ZN18TransformComponentD0Ev, symObjAddr: 0x130, symBinAddr: 0x173A0, symSize: 0x30 }
  - { offsetInCU: 0x29ED, offset: 0x56D10, size: 0x8, addend: 0x0, symName: __ZN18TransformComponent5InputEf, symObjAddr: 0x160, symBinAddr: 0x173D0, symSize: 0x10 }
  - { offsetInCU: 0x2A21, offset: 0x56D44, size: 0x8, addend: 0x0, symName: __ZN18TransformComponent6UpdateEf, symObjAddr: 0x170, symBinAddr: 0x173E0, symSize: 0x10 }
  - { offsetInCU: 0x2A55, offset: 0x56D78, size: 0x8, addend: 0x0, symName: __ZN18TransformComponent6RenderEP12SDL_Renderer, symObjAddr: 0x180, symBinAddr: 0x173F0, symSize: 0x10 }
  - { offsetInCU: 0x2A89, offset: 0x56DAC, size: 0x8, addend: 0x0, symName: __ZN18TransformComponent7GetTypeEv, symObjAddr: 0x190, symBinAddr: 0x17400, symSize: 0x10 }
  - { offsetInCU: 0x2AAF, offset: 0x56DD2, size: 0x8, addend: 0x0, symName: __ZN18TransformComponent4SetWEf, symObjAddr: 0x1A0, symBinAddr: 0x17410, symSize: 0x20 }
  - { offsetInCU: 0x2AE3, offset: 0x56E06, size: 0x8, addend: 0x0, symName: __ZN18TransformComponent4SetHEf, symObjAddr: 0x1C0, symBinAddr: 0x17430, symSize: 0x20 }
  - { offsetInCU: 0x2B17, offset: 0x56E3A, size: 0x8, addend: 0x0, symName: __ZN18TransformComponent5SetWHEff, symObjAddr: 0x1E0, symBinAddr: 0x17450, symSize: 0x30 }
  - { offsetInCU: 0x2B59, offset: 0x56E7C, size: 0x8, addend: 0x0, symName: __ZNK18TransformComponent4GetWEv, symObjAddr: 0x210, symBinAddr: 0x17480, symSize: 0x20 }
  - { offsetInCU: 0x2B7F, offset: 0x56EA2, size: 0x8, addend: 0x0, symName: __ZNK18TransformComponent4GetHEv, symObjAddr: 0x230, symBinAddr: 0x174A0, symSize: 0x20 }
  - { offsetInCU: 0x2BA5, offset: 0x56EC8, size: 0x8, addend: 0x0, symName: __ZN18TransformComponent4SetXEf, symObjAddr: 0x250, symBinAddr: 0x174C0, symSize: 0x20 }
  - { offsetInCU: 0x2BD9, offset: 0x56EFC, size: 0x8, addend: 0x0, symName: __ZN18TransformComponent4SetYEf, symObjAddr: 0x270, symBinAddr: 0x174E0, symSize: 0x20 }
  - { offsetInCU: 0x2C0D, offset: 0x56F30, size: 0x8, addend: 0x0, symName: __ZN18TransformComponent5SetXYEff, symObjAddr: 0x290, symBinAddr: 0x17500, symSize: 0x30 }
  - { offsetInCU: 0x2C4F, offset: 0x56F72, size: 0x8, addend: 0x0, symName: __ZNK18TransformComponent4GetXEv, symObjAddr: 0x2C0, symBinAddr: 0x17530, symSize: 0x20 }
  - { offsetInCU: 0x2C75, offset: 0x56F98, size: 0x8, addend: 0x0, symName: __ZNK18TransformComponent4GetYEv, symObjAddr: 0x2E0, symBinAddr: 0x17550, symSize: 0x20 }
  - { offsetInCU: 0x2C9B, offset: 0x56FBE, size: 0x8, addend: 0x0, symName: __ZNK18TransformComponent12GetRectangleEv, symObjAddr: 0x300, symBinAddr: 0x17570, symSize: 0x20 }
  - { offsetInCU: 0xD4, offset: 0x570C2, size: 0x8, addend: 0x0, symName: __ZN8pybind116detail16get_internals_ppEv, symObjAddr: 0x71E0, symBinAddr: 0x1DC60, symSize: 0x10 }
  - { offsetInCU: 0xFF, offset: 0x570ED, size: 0x8, addend: 0x0, symName: __ZZN8pybind116detail16get_internals_ppEvE12internals_pp, symObjAddr: 0x4E560, symBinAddr: 0x695B0, symSize: 0x0 }
  - { offsetInCU: 0x2264, offset: 0x59252, size: 0x8, addend: 0x0, symName: __ZN8pybind116detail23all_type_info_get_cacheEP11_typeobject, symObjAddr: 0xD690, symBinAddr: 0x240D0, symSize: 0xF0 }
  - { offsetInCU: 0x231E, offset: 0x5930C, size: 0x8, addend: 0x0, symName: __ZN8pybind116detail19get_local_internalsEv, symObjAddr: 0x1ADC0, symBinAddr: 0x30970, symSize: 0xB0 }
  - { offsetInCU: 0x2349, offset: 0x59337, size: 0x8, addend: 0x0, symName: __ZZN8pybind116detail19get_local_internalsEvE6locals, symObjAddr: 0x4E568, symBinAddr: 0x695B8, symSize: 0x0 }
  - { offsetInCU: 0x23BA, offset: 0x593A8, size: 0x8, addend: 0x0, symName: __ZN8pybind116detail25enable_dynamic_attributesEP15_heaptypeobject, symObjAddr: 0x3BAA0, symBinAddr: 0x51460, symSize: 0x80 }
  - { offsetInCU: 0x23E2, offset: 0x593D0, size: 0x8, addend: 0x0, symName: __ZZN8pybind116detail25enable_dynamic_attributesEP15_heaptypeobjectE6getset, symObjAddr: 0x4E580, symBinAddr: 0x695D0, symSize: 0x0 }
  - { offsetInCU: 0x244C, offset: 0x5943A, size: 0x8, addend: 0x0, symName: __ZN8pybind116detail8initimpl23construct_or_initializeI11ApplicationJRKNSt3__13mapINS4_12basic_stringIcNS4_11char_traitsIcEENS4_9allocatorIcEEEESB_NS4_4lessISB_EENS9_INS4_4pairIKSB_SB_EEEEEEELi0EEEPT_DpOT0_, symObjAddr: 0x46E90, symBinAddr: 0x5BD20, symSize: 0x60 }
  - { offsetInCU: 0x4EEE, offset: 0x5BEDC, size: 0x8, addend: 0x0, symName: __ZN8pybind116detail13get_internalsEv, symObjAddr: 0x470, symBinAddr: 0x179D0, symSize: 0x510 }
  - { offsetInCU: 0x4FED, offset: 0x5BFDB, size: 0x8, addend: 0x0, symName: __ZN8pybind116detail26get_thread_state_uncheckedEv, symObjAddr: 0xF80, symBinAddr: 0x184E0, symSize: 0x10 }
  - { offsetInCU: 0x500C, offset: 0x5BFFA, size: 0x8, addend: 0x0, symName: __ZN8pybind116detail12error_stringEv, symObjAddr: 0x22D0, symBinAddr: 0x197C0, symSize: 0x80 }
  - { offsetInCU: 0x502B, offset: 0x5C019, size: 0x8, addend: 0x0, symName: __ZN8pybind116detail14obj_class_nameEP7_object, symObjAddr: 0x3010, symBinAddr: 0x1A410, symSize: 0x50 }
  - { offsetInCU: 0x5059, offset: 0x5C047, size: 0x8, addend: 0x0, symName: __ZN8pybind116detail7cast_opINSt3__112basic_stringIcNS2_11char_traitsIcEENS2_9allocatorIcEEEEEENS0_11type_casterINS0_14intrinsic_typeIT_E4typeEvE12cast_op_typeINS2_20add_rvalue_referenceISB_E4typeEEEOSE_, symObjAddr: 0x5050, symBinAddr: 0x1BBB0, symSize: 0x20 }
  - { offsetInCU: 0x508E, offset: 0x5C07C, size: 0x8, addend: 0x0, symName: __ZN8pybind116detail9load_typeINSt3__112basic_stringIcNS2_11char_traitsIcEENS2_9allocatorIcEEEEEENS0_11type_casterINS0_14intrinsic_typeIT_E4typeEvEERKNS_6handleE, symObjAddr: 0x5070, symBinAddr: 0x1BBD0, symSize: 0x80 }
  - { offsetInCU: 0x50D5, offset: 0x5C0C3, size: 0x8, addend: 0x0, symName: __ZN8pybind116detail9load_typeINSt3__112basic_stringIcNS2_11char_traitsIcEENS2_9allocatorIcEEEEvEERNS0_11type_casterIT_T0_EESD_RKNS_6handleE, symObjAddr: 0x5140, symBinAddr: 0x1BCA0, symSize: 0x2A0 }
  - { offsetInCU: 0x5121, offset: 0x5C10F, size: 0x8, addend: 0x0, symName: __ZN8pybind116detail13clean_type_idEPKc, symObjAddr: 0x6710, symBinAddr: 0x1D190, symSize: 0x80 }
  - { offsetInCU: 0x515C, offset: 0x5C14A, size: 0x8, addend: 0x0, symName: __ZN8pybind116detail13clean_type_idERNSt3__112basic_stringIcNS1_11char_traitsIcEENS1_9allocatorIcEEEE, symObjAddr: 0x67B0, symBinAddr: 0x1D230, symSize: 0x100 }
  - { offsetInCU: 0x51A0, offset: 0x5C18E, size: 0x8, addend: 0x0, symName: __ZN8pybind116detail9erase_allERNSt3__112basic_stringIcNS1_11char_traitsIcEENS1_9allocatorIcEEEERKS7_, symObjAddr: 0x6900, symBinAddr: 0x1D380, symSize: 0x80 }
  - { offsetInCU: 0x51F2, offset: 0x5C1E0, size: 0x8, addend: 0x0, symName: __ZN8pybind116detail21get_python_state_dictEv, symObjAddr: 0x7210, symBinAddr: 0x1DC90, symSize: 0x130 }
  - { offsetInCU: 0x5221, offset: 0x5C20F, size: 0x8, addend: 0x0, symName: __ZN8pybind116detail33get_internals_obj_from_state_dictENS_6handleE, symObjAddr: 0x7370, symBinAddr: 0x1DDF0, symSize: 0x60 }
  - { offsetInCU: 0x524F, offset: 0x5C23D, size: 0x8, addend: 0x0, symName: __ZN8pybind116detail29get_internals_pp_from_capsuleENS_6handleE, symObjAddr: 0x73D0, symBinAddr: 0x1DE50, symSize: 0xB0 }
  - { offsetInCU: 0x528C, offset: 0x5C27A, size: 0x8, addend: 0x0, symName: __ZN8pybind116detail25translate_local_exceptionESt13exception_ptr, symObjAddr: 0x7590, symBinAddr: 0x1E010, symSize: 0x120 }
  - { offsetInCU: 0x52D6, offset: 0x5C2C4, size: 0x8, addend: 0x0, symName: __ZN8pybind116detail19translate_exceptionESt13exception_ptr, symObjAddr: 0x7850, symBinAddr: 0x1E2D0, symSize: 0x6F0 }
  - { offsetInCU: 0x53C4, offset: 0x5C3B2, size: 0x8, addend: 0x0, symName: __ZN8pybind116detail25make_static_property_typeEv, symObjAddr: 0x7F40, symBinAddr: 0x1E9C0, symSize: 0x210 }
  - { offsetInCU: 0x541A, offset: 0x5C408, size: 0x8, addend: 0x0, symName: __ZN8pybind116detail22make_default_metaclassEv, symObjAddr: 0x8150, symBinAddr: 0x1EBD0, symSize: 0x230 }
  - { offsetInCU: 0x5472, offset: 0x5C460, size: 0x8, addend: 0x0, symName: __ZN8pybind116detail21make_object_base_typeEP11_typeobject, symObjAddr: 0x8380, symBinAddr: 0x1EE00, symSize: 0x310 }
  - { offsetInCU: 0x54DC, offset: 0x5C4CA, size: 0x8, addend: 0x0, symName: __ZN8pybind116detail18dict_getitemstringEP7_objectPKc, symObjAddr: 0x8CC0, symBinAddr: 0x1F740, symSize: 0x120 }
  - { offsetInCU: 0x5537, offset: 0x5C525, size: 0x8, addend: 0x0, symName: __ZN8pybind116detail14object_or_castINS_7capsuleELi0EEEDTclsr3stdE7forwardIT_Efp_EEOS3_, symObjAddr: 0xC3F0, symBinAddr: 0x22E30, symSize: 0x10 }
  - { offsetInCU: 0x5575, offset: 0x5C563, size: 0x8, addend: 0x0, symName: __ZN8pybind116detail9raise_errEP7_objectPKc, symObjAddr: 0xC450, symBinAddr: 0x22E90, symSize: 0x70 }
  - { offsetInCU: 0x55B2, offset: 0x5C5A0, size: 0x8, addend: 0x0, symName: __ZN8pybind116detail23handle_nested_exceptionISt16nested_exceptionLi0EEEbRKT_RKSt13exception_ptr, symObjAddr: 0xC4C0, symBinAddr: 0x22F00, symSize: 0x110 }
  - { offsetInCU: 0x560E, offset: 0x5C5FC, size: 0x8, addend: 0x0, symName: __ZN8pybind116detail23handle_nested_exceptionISt9exceptionLi0EEEbRKT_RKSt13exception_ptr, symObjAddr: 0xC5D0, symBinAddr: 0x23010, symSize: 0x90 }
  - { offsetInCU: 0x5670, offset: 0x5C65E, size: 0x8, addend: 0x0, symName: __ZN8pybind116detail23handle_nested_exceptionISt14overflow_errorLi0EEEbRKT_RKSt13exception_ptr, symObjAddr: 0xC660, symBinAddr: 0x230A0, symSize: 0x90 }
  - { offsetInCU: 0x56D2, offset: 0x5C6C0, size: 0x8, addend: 0x0, symName: __ZN8pybind116detail23handle_nested_exceptionISt11range_errorLi0EEEbRKT_RKSt13exception_ptr, symObjAddr: 0xC6F0, symBinAddr: 0x23130, symSize: 0x90 }
  - { offsetInCU: 0x5734, offset: 0x5C722, size: 0x8, addend: 0x0, symName: __ZN8pybind116detail23handle_nested_exceptionISt12out_of_rangeLi0EEEbRKT_RKSt13exception_ptr, symObjAddr: 0xC780, symBinAddr: 0x231C0, symSize: 0x90 }
  - { offsetInCU: 0x5796, offset: 0x5C784, size: 0x8, addend: 0x0, symName: __ZN8pybind116detail23handle_nested_exceptionISt12length_errorLi0EEEbRKT_RKSt13exception_ptr, symObjAddr: 0xC810, symBinAddr: 0x23250, symSize: 0x90 }
  - { offsetInCU: 0x57F8, offset: 0x5C7E6, size: 0x8, addend: 0x0, symName: __ZN8pybind116detail23handle_nested_exceptionISt16invalid_argumentLi0EEEbRKT_RKSt13exception_ptr, symObjAddr: 0xC8A0, symBinAddr: 0x232E0, symSize: 0x90 }
  - { offsetInCU: 0x585A, offset: 0x5C848, size: 0x8, addend: 0x0, symName: __ZN8pybind116detail23handle_nested_exceptionISt12domain_errorLi0EEEbRKT_RKSt13exception_ptr, symObjAddr: 0xC930, symBinAddr: 0x23370, symSize: 0x90 }
  - { offsetInCU: 0x58BC, offset: 0x5C8AA, size: 0x8, addend: 0x0, symName: __ZN8pybind116detail23handle_nested_exceptionISt9bad_allocLi0EEEbRKT_RKSt13exception_ptr, symObjAddr: 0xC9C0, symBinAddr: 0x23400, symSize: 0x90 }
  - { offsetInCU: 0x591E, offset: 0x5C90C, size: 0x8, addend: 0x0, symName: __ZN8pybind116detail23handle_nested_exceptionINS_17error_already_setELi0EEEbRKT_RKSt13exception_ptr, symObjAddr: 0xCA50, symBinAddr: 0x23490, symSize: 0x90 }
  - { offsetInCU: 0x5980, offset: 0x5C96E, size: 0x8, addend: 0x0, symName: __ZN8pybind116detail11type_increfEP11_typeobject, symObjAddr: 0xCBC0, symBinAddr: 0x23600, symSize: 0x20 }
  - { offsetInCU: 0x59AC, offset: 0x5C99A, size: 0x8, addend: 0x0, symName: __ZN8pybind116detail27get_fully_qualified_tp_nameEP11_typeobject, symObjAddr: 0xD4B0, symBinAddr: 0x23EF0, symSize: 0x30 }
  - { offsetInCU: 0x59D8, offset: 0x5C9C6, size: 0x8, addend: 0x0, symName: __ZN8pybind116detail13all_type_infoEP11_typeobject, symObjAddr: 0xD610, symBinAddr: 0x24050, symSize: 0x60 }
  - { offsetInCU: 0x5A12, offset: 0x5CA00, size: 0x8, addend: 0x0, symName: __ZN8pybind116detail22all_type_info_populateEP11_typeobjectRNSt3__16vectorIPNS0_9type_infoENS3_9allocatorIS6_EEEE, symObjAddr: 0xD780, symBinAddr: 0x241C0, symSize: 0x620 }
  - { offsetInCU: 0x5DB7, offset: 0x5CDA5, size: 0x8, addend: 0x0, symName: __ZN8pybind116detail7cast_opINS_6handleEEENS0_11type_casterINS0_14intrinsic_typeIT_E4typeEvE12cast_op_typeINSt3__120add_rvalue_referenceIS5_E4typeEEEOS8_, symObjAddr: 0x142C0, symBinAddr: 0x29E90, symSize: 0x20 }
  - { offsetInCU: 0x5DEC, offset: 0x5CDDA, size: 0x8, addend: 0x0, symName: __ZN8pybind116detail27replace_newlines_and_squashEPKc, symObjAddr: 0x156D0, symBinAddr: 0x2B2A0, symSize: 0x220 }
  - { offsetInCU: 0x5E99, offset: 0x5CE87, size: 0x8, addend: 0x0, symName: __ZN8pybind116detail13get_type_infoERKNSt3__110type_indexEb, symObjAddr: 0x158F0, symBinAddr: 0x2B4C0, symSize: 0x150 }
  - { offsetInCU: 0x5F17, offset: 0x5CF05, size: 0x8, addend: 0x0, symName: __ZN8pybind116detail19quote_cpp_type_nameERKNSt3__112basic_stringIcNS1_11char_traitsIcEENS1_9allocatorIcEEEE, symObjAddr: 0x15B20, symBinAddr: 0x2B6F0, symSize: 0x30 }
  - { offsetInCU: 0x5F45, offset: 0x5CF33, size: 0x8, addend: 0x0, symName: __ZN8pybind116detail26is_function_record_capsuleERKNS_7capsuleE, symObjAddr: 0x15D50, symBinAddr: 0x2B920, symSize: 0x40 }
  - { offsetInCU: 0x5F73, offset: 0x5CF61, size: 0x8, addend: 0x0, symName: __ZN8pybind116detail32get_function_record_capsule_nameEv, symObjAddr: 0x18940, symBinAddr: 0x2E510, symSize: 0x10 }
  - { offsetInCU: 0x5F92, offset: 0x5CF80, size: 0x8, addend: 0x0, symName: __ZN8pybind116detail19get_local_type_infoERKNSt3__110type_indexE, symObjAddr: 0x1AC50, symBinAddr: 0x30800, symSize: 0x80 }
  - { offsetInCU: 0x5FDA, offset: 0x5CFC8, size: 0x8, addend: 0x0, symName: __ZN8pybind116detail20get_global_type_infoERKNSt3__110type_indexE, symObjAddr: 0x1ACD0, symBinAddr: 0x30880, symSize: 0x80 }
  - { offsetInCU: 0x6022, offset: 0x5D010, size: 0x8, addend: 0x0, symName: __ZN8pybind116detail13get_type_infoEP11_typeobject, symObjAddr: 0x1F550, symBinAddr: 0x34F20, symSize: 0x80 }
  - { offsetInCU: 0x605C, offset: 0x5D04A, size: 0x8, addend: 0x0, symName: __ZN8pybind116detail27apply_exception_translatorsERNSt3__112forward_listIPFvSt13exception_ptrENS1_9allocatorIS5_EEEE, symObjAddr: 0x20380, symBinAddr: 0x35D50, symSize: 0x180 }
  - { offsetInCU: 0x60D8, offset: 0x5D0C6, size: 0x8, addend: 0x0, symName: __ZN8pybind116detailneERKNS0_16generic_iteratorINS0_17iterator_policies13dict_readonlyEEES6_, symObjAddr: 0x206C0, symBinAddr: 0x36090, symSize: 0x30 }
  - { offsetInCU: 0x6115, offset: 0x5D103, size: 0x8, addend: 0x0, symName: __ZN8pybind116detail14object_or_castEP7_object, symObjAddr: 0x24B10, symBinAddr: 0x3A4E0, symSize: 0x30 }
  - { offsetInCU: 0x6143, offset: 0x5D131, size: 0x8, addend: 0x0, symName: __ZN8pybind116detaileqERKNS0_16generic_iteratorINS0_17iterator_policies13dict_readonlyEEES6_, symObjAddr: 0x298B0, symBinAddr: 0x3F270, symSize: 0x30 }
  - { offsetInCU: 0x6180, offset: 0x5D16E, size: 0x8, addend: 0x0, symName: __ZN8pybind116detail17collect_argumentsILNS_19return_value_policyE1EJRKNS_6handleEEvEENS0_16simple_collectorIXT_EEEDpOT0_, symObjAddr: 0x29AC0, symBinAddr: 0x3F480, symSize: 0x30 }
  - { offsetInCU: 0x61C5, offset: 0x5D1B3, size: 0x8, addend: 0x0, symName: __ZN8pybind116detailneERKNS0_16generic_iteratorINS0_17iterator_policies22sequence_fast_readonlyEEES6_, symObjAddr: 0x2B760, symBinAddr: 0x41120, symSize: 0x30 }
  - { offsetInCU: 0x6202, offset: 0x5D1F0, size: 0x8, addend: 0x0, symName: __ZN8pybind116detail41all_type_info_add_base_most_derived_firstERNSt3__16vectorIPNS0_9type_infoENS1_9allocatorIS4_EEEES4_, symObjAddr: 0x2BAE0, symBinAddr: 0x414A0, symSize: 0xD0 }
  - { offsetInCU: 0x6270, offset: 0x5D25E, size: 0x8, addend: 0x0, symName: __ZN8pybind116detaileqERKNS0_16generic_iteratorINS0_17iterator_policies22sequence_fast_readonlyEEES6_, symObjAddr: 0x2BE70, symBinAddr: 0x41830, symSize: 0x30 }
  - { offsetInCU: 0x62AD, offset: 0x5D29B, size: 0x8, addend: 0x0, symName: __ZN8pybind116detail17make_new_instanceEP11_typeobject, symObjAddr: 0x32F50, symBinAddr: 0x48910, symSize: 0x40 }
  - { offsetInCU: 0x62F9, offset: 0x5D2E7, size: 0x8, addend: 0x0, symName: __ZN8pybind116detail30instance_simple_holder_in_ptrsEv, symObjAddr: 0x33180, symBinAddr: 0x48B40, symSize: 0x10 }
  - { offsetInCU: 0x6318, offset: 0x5D306, size: 0x8, addend: 0x0, symName: __ZN8pybind116detailL12size_in_ptrsEm, symObjAddr: 0x33190, symBinAddr: 0x48B50, symSize: 0x40 }
  - { offsetInCU: 0x6347, offset: 0x5D335, size: 0x8, addend: 0x0, symName: __ZN8pybind116detailL4log2Emi, symObjAddr: 0x331D0, symBinAddr: 0x48B90, symSize: 0x50 }
  - { offsetInCU: 0x6385, offset: 0x5D373, size: 0x8, addend: 0x0, symName: __ZN8pybind116detail14clear_instanceEP7_object, symObjAddr: 0x33220, symBinAddr: 0x48BE0, symSize: 0x200 }
  - { offsetInCU: 0x6442, offset: 0x5D430, size: 0x8, addend: 0x0, symName: __ZN8pybind116detail19deregister_instanceEPNS0_8instanceEPvPKNS0_9type_infoE, symObjAddr: 0x33420, symBinAddr: 0x48DE0, symSize: 0x70 }
  - { offsetInCU: 0x649D, offset: 0x5D48B, size: 0x8, addend: 0x0, symName: __ZN8pybind116detail14clear_patientsEP7_object, symObjAddr: 0x334D0, symBinAddr: 0x48E90, symSize: 0x1C0 }
  - { offsetInCU: 0x6560, offset: 0x5D54E, size: 0x8, addend: 0x0, symName: __ZN8pybind116detail24deregister_instance_implEPvPNS0_8instanceE, symObjAddr: 0x33690, symBinAddr: 0x49050, symSize: 0xD0 }
  - { offsetInCU: 0x65D8, offset: 0x5D5C6, size: 0x8, addend: 0x0, symName: __ZN8pybind116detail21traverse_offset_basesEPvPKNS0_9type_infoEPNS0_8instanceEPFbS1_S6_E, symObjAddr: 0x33760, symBinAddr: 0x49120, symSize: 0x270 }
  - { offsetInCU: 0x6706, offset: 0x5D6F4, size: 0x8, addend: 0x0, symName: __ZN8pybind116detail14object_or_castIRA29_KcLi0EEENS_6objectEOT_, symObjAddr: 0x36B40, symBinAddr: 0x4C500, symSize: 0x60 }
  - { offsetInCU: 0x6744, offset: 0x5D732, size: 0x8, addend: 0x0, symName: __ZN8pybind116detail16set_operator_newI11ApplicationEEvz, symObjAddr: 0x37150, symBinAddr: 0x4CB10, symSize: 0x10 }
  - { offsetInCU: 0x6766, offset: 0x5D754, size: 0x8, addend: 0x0, symName: __ZN8pybind116detail17register_instanceEPNS0_8instanceEPvPKNS0_9type_infoE, symObjAddr: 0x37C90, symBinAddr: 0x4D650, symSize: 0x60 }
  - { offsetInCU: 0x67AF, offset: 0x5D79D, size: 0x8, addend: 0x0, symName: __ZN8pybind116detail22register_instance_implEPvPNS0_8instanceE, symObjAddr: 0x37E40, symBinAddr: 0x4D800, symSize: 0x40 }
  - { offsetInCU: 0x67EC, offset: 0x5D7DA, size: 0x8, addend: 0x0, symName: __ZN8pybind116detail20call_operator_deleteEPvmm, symObjAddr: 0x39530, symBinAddr: 0x4EEF0, symSize: 0x40 }
  - { offsetInCU: 0x6835, offset: 0x5D823, size: 0x8, addend: 0x0, symName: __ZN8pybind116detail20make_new_python_typeERKNS0_11type_recordE, symObjAddr: 0x39720, symBinAddr: 0x4F0E0, symSize: 0xF20 }
  - { offsetInCU: 0x6932, offset: 0x5D920, size: 0x8, addend: 0x0, symName: __ZN8pybind116detail17collect_argumentsILNS_19return_value_policyE1EJRKPKcEvEENS0_16simple_collectorIXT_EEEDpOT0_, symObjAddr: 0x3AC00, symBinAddr: 0x505C0, symSize: 0x30 }
  - { offsetInCU: 0x6977, offset: 0x5D965, size: 0x8, addend: 0x0, symName: __ZN8pybind116detail7cast_opIbEENS0_11type_casterINS0_14intrinsic_typeIT_E4typeEvE12cast_op_typeINSt3__120add_rvalue_referenceIS4_E4typeEEEOS7_, symObjAddr: 0x3B450, symBinAddr: 0x50E10, symSize: 0x20 }
  - { offsetInCU: 0x69AC, offset: 0x5D99A, size: 0x8, addend: 0x0, symName: __ZN8pybind116detail9load_typeIbEENS0_11type_casterINS0_14intrinsic_typeIT_E4typeEvEERKNS_6handleE, symObjAddr: 0x3B470, symBinAddr: 0x50E30, symSize: 0x30 }
  - { offsetInCU: 0x6AD1, offset: 0x5DABF, size: 0x8, addend: 0x0, symName: __ZN8pybind116detail9load_typeIbvEERNS0_11type_casterIT_T0_EES6_RKNS_6handleE, symObjAddr: 0x3B4B0, symBinAddr: 0x50E70, symSize: 0x2A0 }
  - { offsetInCU: 0x6B1D, offset: 0x5DB0B, size: 0x8, addend: 0x0, symName: __ZN8pybind116detail5c_strIJNSt3__112basic_stringIcNS2_11char_traitsIcEENS2_9allocatorIcEEEEEEEPKcDpOT_, symObjAddr: 0x3B9A0, symBinAddr: 0x51360, symSize: 0x40 }
  - { offsetInCU: 0x6B65, offset: 0x5DB53, size: 0x8, addend: 0x0, symName: __ZN8pybind116detail22enable_buffer_protocolEP15_heaptypeobject, symObjAddr: 0x3BB20, symBinAddr: 0x514E0, symSize: 0x50 }
  - { offsetInCU: 0x6B90, offset: 0x5DB7E, size: 0x8, addend: 0x0, symName: __ZN8pybind116detail9same_typeERKSt9type_infoS3_, symObjAddr: 0x42000, symBinAddr: 0x579C0, symSize: 0x80 }
  - { offsetInCU: 0x6BCA, offset: 0x5DBB8, size: 0x8, addend: 0x0, symName: __ZN8pybind116detail16add_class_methodERNS_6objectEPKcRKNS_12cpp_functionE, symObjAddr: 0x44170, symBinAddr: 0x59B30, symSize: 0x290 }
  - { offsetInCU: 0x6CB0, offset: 0x5DC9E, size: 0x8, addend: 0x0, symName: __ZN8pybind116detail7cast_opIONSt3__112basic_stringIcNS2_11char_traitsIcEENS2_9allocatorIcEEEEEENS0_11type_casterINS0_14intrinsic_typeIT_E4typeEvE12cast_op_typeINS2_20add_rvalue_referenceISC_E4typeEEEOSF_, symObjAddr: 0x455D0, symBinAddr: 0x5AEC0, symSize: 0x20 }
  - { offsetInCU: 0x6E91, offset: 0x5DE7F, size: 0x8, addend: 0x0, symName: __ZN8pybind116detail7cast_opIRNS0_16value_and_holderEEENS0_11type_casterINS0_14intrinsic_typeIT_E4typeEvE12cast_op_typeINSt3__120add_rvalue_referenceIS6_E4typeEEEOS9_, symObjAddr: 0x46E50, symBinAddr: 0x5BCE0, symSize: 0x20 }
  - { offsetInCU: 0x6EC6, offset: 0x5DEB4, size: 0x8, addend: 0x0, symName: __ZN8pybind116detail7cast_opIRKNSt3__13mapINS2_12basic_stringIcNS2_11char_traitsIcEENS2_9allocatorIcEEEES9_NS2_4lessIS9_EENS7_INS2_4pairIKS9_S9_EEEEEEEENS0_11type_casterINS0_14intrinsic_typeIT_E4typeEvE12cast_op_typeINS2_20add_rvalue_referenceISL_E4typeEEEOSO_, symObjAddr: 0x46E70, symBinAddr: 0x5BD00, symSize: 0x20 }
  - { offsetInCU: 0x6FD7, offset: 0x5DFC5, size: 0x8, addend: 0x0, symName: __ZN8pybind116detail14object_or_castIRKNS_12cpp_functionELi0EEEDTclsr3stdE7forwardIT_Efp_EEOS5_, symObjAddr: 0x47570, symBinAddr: 0x5C400, symSize: 0x10 }
  - { offsetInCU: 0x7015, offset: 0x5E003, size: 0x8, addend: 0x0, symName: __ZN8pybind116detail17collect_argumentsILNS_19return_value_policyE1EJRA9_KcEvEENS0_16simple_collectorIXT_EEEDpOT0_, symObjAddr: 0x47720, symBinAddr: 0x5C5B0, symSize: 0x30 }
  - { offsetInCU: 0x705A, offset: 0x5E048, size: 0x8, addend: 0x0, symName: __ZN8pybind116detail14object_or_castINS_4noneELi0EEEDTclsr3stdE7forwardIT_Efp_EEOS3_, symObjAddr: 0x47C40, symBinAddr: 0x5CAD0, symSize: 0x10 }
  - { offsetInCU: 0x719D, offset: 0x5E18B, size: 0x8, addend: 0x0, symName: __ZN8pybind116detail7cast_opIP11ApplicationEENS0_11type_casterINS0_14intrinsic_typeIT_E4typeEvE12cast_op_typeINSt3__120add_rvalue_referenceIS6_E4typeEEEOS9_, symObjAddr: 0x48900, symBinAddr: 0x5D790, symSize: 0x20 }
  - { offsetInCU: 0x71D2, offset: 0x5E1C0, size: 0x8, addend: 0x0, symName: __ZN8pybind116detail7cast_opIfEENS0_11type_casterINS0_14intrinsic_typeIT_E4typeEvE12cast_op_typeINSt3__120add_rvalue_referenceIS4_E4typeEEEOS7_, symObjAddr: 0x48920, symBinAddr: 0x5D7B0, symSize: 0x20 }
  - { offsetInCU: 0x723E, offset: 0x5E22C, size: 0x8, addend: 0x0, symName: __ZN8pybind116detail25append_self_arg_if_neededEPNS0_15function_recordE, symObjAddr: 0x48A20, symBinAddr: 0x5D8B0, symSize: 0xA0 }
  - { offsetInCU: 0x7269, offset: 0x5E257, size: 0x8, addend: 0x0, symName: __ZN8pybind116detail17check_kw_only_argERKNS_3argEPNS0_15function_recordE, symObjAddr: 0x48B60, symBinAddr: 0x5D9F0, symSize: 0x70 }
  - { offsetInCU: 0x72A3, offset: 0x5E291, size: 0x8, addend: 0x0, symName: __ZN8pybind116detail7cast_opIPKcEENS0_11type_casterINS0_14intrinsic_typeIT_E4typeEvE12cast_op_typeINSt3__120add_rvalue_referenceIS6_E4typeEEEOS9_, symObjAddr: 0x49E90, symBinAddr: 0x5ED20, symSize: 0x20 }
  - { offsetInCU: 0x93BC, offset: 0x603AA, size: 0x8, addend: 0x0, symName: __ZN8pybind119set_errorERKNS_6handleEPKc, symObjAddr: 0xCC0, symBinAddr: 0x18220, symSize: 0x30 }
  - { offsetInCU: 0x93F6, offset: 0x603E4, size: 0x8, addend: 0x0, symName: __ZN8pybind1110raise_fromERNS_17error_already_setEP7_objectPKc, symObjAddr: 0xD20, symBinAddr: 0x18280, symSize: 0x30 }
  - { offsetInCU: 0x943F, offset: 0x6042D, size: 0x8, addend: 0x0, symName: __ZN8pybind1113pybind11_failEPKc, symObjAddr: 0xED0, symBinAddr: 0x18430, symSize: 0xB0 }
  - { offsetInCU: 0x9469, offset: 0x60457, size: 0x8, addend: 0x0, symName: __ZN8pybind1117reinterpret_stealINS_6objectEEET_NS_6handleE, symObjAddr: 0x2270, symBinAddr: 0x19760, symSize: 0x40 }
  - { offsetInCU: 0x94A0, offset: 0x6048E, size: 0x8, addend: 0x0, symName: __ZN8pybind1113pybind11_failERKNSt3__112basic_stringIcNS0_11char_traitsIcEENS0_9allocatorIcEEEE, symObjAddr: 0x2F30, symBinAddr: 0x1A360, symSize: 0xB0 }
  - { offsetInCU: 0x94CA, offset: 0x604B8, size: 0x8, addend: 0x0, symName: __ZN8pybind114castINSt3__112basic_stringIcNS1_11char_traitsIcEENS1_9allocatorIcEEEELi0EEET_RKNS_6handleE, symObjAddr: 0x4FD0, symBinAddr: 0x1BB30, symSize: 0x80 }
  - { offsetInCU: 0x95F1, offset: 0x605DF, size: 0x8, addend: 0x0, symName: __ZN8pybind11L7type_idINSt3__112basic_stringIcNS1_11char_traitsIcEENS1_9allocatorIcEEEEEES7_v, symObjAddr: 0x55C0, symBinAddr: 0x1C120, symSize: 0x40 }
  - { offsetInCU: 0x9619, offset: 0x60607, size: 0x8, addend: 0x0, symName: __ZN8pybind114castINSt3__112basic_stringIcNS1_11char_traitsIcEENS1_9allocatorIcEEEEEENS1_9enable_ifIXaantsr6detail11is_pyobjectIT_EE5valuesr6detail20move_if_unreferencedIS9_EE5valueES9_E4typeEONS_6objectE, symObjAddr: 0x6300, symBinAddr: 0x1CD80, symSize: 0x60 }
  - { offsetInCU: 0x9650, offset: 0x6063E, size: 0x8, addend: 0x0, symName: __ZN8pybind114moveINSt3__112basic_stringIcNS1_11char_traitsIcEENS1_9allocatorIcEEEEEENS1_9enable_ifIXntsr6detail10move_neverIT_EE5valueES9_E4typeEONS_6objectE, symObjAddr: 0x6390, symBinAddr: 0x1CE10, symSize: 0x340 }
  - { offsetInCU: 0x9697, offset: 0x60685, size: 0x8, addend: 0x0, symName: __ZN8pybind1118reinterpret_borrowINS_6objectEEET_NS_6handleE, symObjAddr: 0x8700, symBinAddr: 0x1F180, symSize: 0x40 }
  - { offsetInCU: 0x96CE, offset: 0x606BC, size: 0x8, addend: 0x0, symName: __ZN8pybind1110raise_fromEP7_objectPKc, symObjAddr: 0x87C0, symBinAddr: 0x1F240, symSize: 0x170 }
  - { offsetInCU: 0x9744, offset: 0x60732, size: 0x8, addend: 0x0, symName: __ZN8pybind117setattrENS_6handleEPKcS0_, symObjAddr: 0xCC90, symBinAddr: 0x236D0, symSize: 0xB0 }
  - { offsetInCU: 0x995A, offset: 0x60948, size: 0x8, addend: 0x0, symName: __ZN8pybind114reprENS_6handleE, symObjAddr: 0x15560, symBinAddr: 0x2B130, symSize: 0xC0 }
  - { offsetInCU: 0x9997, offset: 0x60985, size: 0x8, addend: 0x0, symName: __ZN8pybind1110isinstanceINS_7capsuleELi0EEEbNS_6handleE, symObjAddr: 0x15CE0, symBinAddr: 0x2B8B0, symSize: 0x30 }
  - { offsetInCU: 0x99D5, offset: 0x609C3, size: 0x8, addend: 0x0, symName: __ZN8pybind1118reinterpret_borrowINS_7capsuleEEET_NS_6handleE, symObjAddr: 0x15D10, symBinAddr: 0x2B8E0, symSize: 0x40 }
  - { offsetInCU: 0x9A0C, offset: 0x609FA, size: 0x8, addend: 0x0, symName: __ZN8pybind117hasattrENS_6handleEPKc, symObjAddr: 0x189D0, symBinAddr: 0x2E5A0, symSize: 0x40 }
  - { offsetInCU: 0x9A49, offset: 0x60A37, size: 0x8, addend: 0x0, symName: __ZN8pybind1117reinterpret_stealINS_3strEEET_NS_6handleE, symObjAddr: 0x1A7D0, symBinAddr: 0x30380, symSize: 0x40 }
  - { offsetInCU: 0x9A80, offset: 0x60A6E, size: 0x8, addend: 0x0, symName: __ZN8pybind117getattrENS_6handleEPKc, symObjAddr: 0x1DF40, symBinAddr: 0x33910, symSize: 0xC0 }
  - { offsetInCU: 0x9ACC, offset: 0x60ABA, size: 0x8, addend: 0x0, symName: __ZN8pybind1118reinterpret_borrowINS_4dictEEET_NS_6handleE, symObjAddr: 0x1FB40, symBinAddr: 0x35510, symSize: 0x40 }
  - { offsetInCU: 0x9B03, offset: 0x60AF1, size: 0x8, addend: 0x0, symName: __ZN8pybind1117reinterpret_stealINS_4dictEEET_NS_6handleE, symObjAddr: 0x1FB80, symBinAddr: 0x35550, symSize: 0x40 }
  - { offsetInCU: 0x9B3A, offset: 0x60B28, size: 0x8, addend: 0x0, symName: __ZN8pybind1118reinterpret_borrowINS_5tupleEEET_NS_6handleE, symObjAddr: 0x1FCD0, symBinAddr: 0x356A0, symSize: 0x40 }
  - { offsetInCU: 0x9B71, offset: 0x60B5F, size: 0x8, addend: 0x0, symName: __ZN8pybind1112ssize_t_castIlEElRKT_, symObjAddr: 0x247E0, symBinAddr: 0x3A1B0, symSize: 0x20 }
  - { offsetInCU: 0x9BA8, offset: 0x60B96, size: 0x8, addend: 0x0, symName: __ZN8pybind1112ssize_t_castIiEElRKT_, symObjAddr: 0x24910, symBinAddr: 0x3A2E0, symSize: 0x20 }
  - { offsetInCU: 0x9BDF, offset: 0x60BCD, size: 0x8, addend: 0x0, symName: __ZN8pybind1112ssize_t_castImEElRKT_, symObjAddr: 0x249C0, symBinAddr: 0x3A390, symSize: 0x20 }
  - { offsetInCU: 0x9C16, offset: 0x60C04, size: 0x8, addend: 0x0, symName: __ZN8pybind1110make_tupleILNS_19return_value_policyE1EJRKNS_6handleEEEENS_5tupleEDpOT0_, symObjAddr: 0x29C80, symBinAddr: 0x3F640, symSize: 0x470 }
  - { offsetInCU: 0x9D09, offset: 0x60CF7, size: 0x8, addend: 0x0, symName: __ZN8pybind11L7type_idIRKNS_6handleEEENSt3__112basic_stringIcNS4_11char_traitsIcEENS4_9allocatorIcEEEEv, symObjAddr: 0x2A180, symBinAddr: 0x3FB40, symSize: 0x40 }
  - { offsetInCU: 0x9D31, offset: 0x60D1F, size: 0x8, addend: 0x0, symName: __ZN8pybind1137cast_error_unable_to_convert_call_argERKNSt3__112basic_stringIcNS0_11char_traitsIcEENS0_9allocatorIcEEEES8_, symObjAddr: 0x2A1C0, symBinAddr: 0x3FB80, symSize: 0x150 }
  - { offsetInCU: 0x9D6E, offset: 0x60D5C, size: 0x8, addend: 0x0, symName: __ZN8pybind1118reinterpret_borrowINS_7module_EEET_NS_6handleE, symObjAddr: 0x36560, symBinAddr: 0x4BF20, symSize: 0x40 }
  - { offsetInCU: 0x9DA5, offset: 0x60D93, size: 0x8, addend: 0x0, symName: __ZN8pybind114initIJRKNSt3__13mapINS1_12basic_stringIcNS1_11char_traitsIcEENS1_9allocatorIcEEEES8_NS1_4lessIS8_EENS6_INS1_4pairIKS8_S8_EEEEEEEEENS_6detail8initimpl11constructorIJDpT_EEEv, symObjAddr: 0x36740, symBinAddr: 0x4C100, symSize: 0x10 }
  - { offsetInCU: 0x9DCF, offset: 0x60DBD, size: 0x8, addend: 0x0, symName: __ZN8pybind114castIRA29_KcLi0EEENS_6objectEOT_NS_19return_value_policyENS_6handleE, symObjAddr: 0x36BA0, symBinAddr: 0x4C560, symSize: 0x80 }
  - { offsetInCU: 0x9E2B, offset: 0x60E19, size: 0x8, addend: 0x0, symName: __ZN8pybind1110make_tupleILNS_19return_value_policyE1EJRKPKcEEENS_5tupleEDpOT0_, symObjAddr: 0x3AC90, symBinAddr: 0x50650, symSize: 0x450 }
  - { offsetInCU: 0x9F1E, offset: 0x60F0C, size: 0x8, addend: 0x0, symName: __ZN8pybind11L7type_idIRKPKcEENSt3__112basic_stringIcNS5_11char_traitsIcEENS5_9allocatorIcEEEEv, symObjAddr: 0x3B0E0, symBinAddr: 0x50AA0, symSize: 0x40 }
  - { offsetInCU: 0x9F46, offset: 0x60F34, size: 0x8, addend: 0x0, symName: __ZN8pybind114castIbEENSt3__19enable_ifIXaantsr6detail11is_pyobjectIT_EE5valuesr6detail20move_if_unreferencedIS3_EE5valueES3_E4typeEONS_6objectE, symObjAddr: 0x3B120, symBinAddr: 0x50AE0, symSize: 0x50 }
  - { offsetInCU: 0x9F7D, offset: 0x60F6B, size: 0x8, addend: 0x0, symName: __ZN8pybind114castIbLi0EEET_RKNS_6handleE, symObjAddr: 0x3B170, symBinAddr: 0x50B30, symSize: 0x30 }
  - { offsetInCU: 0x9FC3, offset: 0x60FB1, size: 0x8, addend: 0x0, symName: __ZN8pybind114moveIbEENSt3__19enable_ifIXntsr6detail10move_neverIT_EE5valueES3_E4typeEONS_6objectE, symObjAddr: 0x3B1A0, symBinAddr: 0x50B60, symSize: 0x2B0 }
  - { offsetInCU: 0xA00A, offset: 0x60FF8, size: 0x8, addend: 0x0, symName: __ZN8pybind11L7type_idIbEENSt3__112basic_stringIcNS1_11char_traitsIcEENS1_9allocatorIcEEEEv, symObjAddr: 0x3B8E0, symBinAddr: 0x512A0, symSize: 0x40 }
  - { offsetInCU: 0xA032, offset: 0x61020, size: 0x8, addend: 0x0, symName: __ZN8pybind1114method_adaptorI11ApplicationZNS_6detail8initimpl11constructorIJRKNSt3__13mapINS5_12basic_stringIcNS5_11char_traitsIcEENS5_9allocatorIcEEEESC_NS5_4lessISC_EENSA_INS5_4pairIKSC_SC_EEEEEEEE7executeINS_6class_IS1_JEEEJELi0EEEvRT_DpRKT0_EUlRNS2_16value_and_holderESL_E_EEDTclsr3stdE7forwardIT0_Efp_EEOSZ_, symObjAddr: 0x43FF0, symBinAddr: 0x599B0, symSize: 0x10 }
  - { offsetInCU: 0xA06E, offset: 0x6105C, size: 0x8, addend: 0x0, symName: __ZN8pybind117getattrENS_6handleEPKcS0_, symObjAddr: 0x44060, symBinAddr: 0x59A20, symSize: 0x90 }
  - { offsetInCU: 0xA0CF, offset: 0x610BD, size: 0x8, addend: 0x0, symName: __ZN8pybind1110isinstanceINS_4dictELi0EEEbNS_6handleE, symObjAddr: 0x45510, symBinAddr: 0x5AE00, symSize: 0x30 }
  - { offsetInCU: 0xA10D, offset: 0x610FB, size: 0x8, addend: 0x0, symName: __ZN8pybind117setattrENS_6handleES0_S0_, symObjAddr: 0x47580, symBinAddr: 0x5C410, symSize: 0xC0 }
  - { offsetInCU: 0xA156, offset: 0x61144, size: 0x8, addend: 0x0, symName: __ZN8pybind1110make_tupleILNS_19return_value_policyE1EJRA9_KcEEENS_5tupleEDpOT0_, symObjAddr: 0x477B0, symBinAddr: 0x5C640, symSize: 0x450 }
  - { offsetInCU: 0xA249, offset: 0x61237, size: 0x8, addend: 0x0, symName: __ZN8pybind11L7type_idIRA9_KcEENSt3__112basic_stringIcNS4_11char_traitsIcEENS4_9allocatorIcEEEEv, symObjAddr: 0x47C00, symBinAddr: 0x5CA90, symSize: 0x40 }
  - { offsetInCU: 0xA271, offset: 0x6125F, size: 0x8, addend: 0x0, symName: __ZN8pybind1114method_adaptorI11ApplicationvS1_JfEEEMT_FT0_DpT2_EMT1_FS3_S5_E, symObjAddr: 0x47C50, symBinAddr: 0x5CAE0, symSize: 0x30 }
  - { offsetInCU: 0xA2C2, offset: 0x612B0, size: 0x8, addend: 0x0, symName: __ZN8pybind1114method_adaptorI11ApplicationvS1_JPKcEEEMT_FT0_DpT2_EMT1_FS5_S7_E, symObjAddr: 0x494F0, symBinAddr: 0x5E380, symSize: 0x30 }
  - { offsetInCU: 0x2BA12, offset: 0x82A00, size: 0x8, addend: 0x0, symName: __ZNSt3__1L19piecewise_constructE, symObjAddr: 0x4E1BB, symBinAddr: 0x63353, symSize: 0x0 }
  - { offsetInCU: 0x303F5, offset: 0x873E3, size: 0x8, addend: 0x0, symName: __ZNSt3__16ranges5__cpo9iter_moveE, symObjAddr: 0x4E25C, symBinAddr: 0x633F4, symSize: 0x0 }
  - { offsetInCU: 0x338D4, offset: 0x8A8C2, size: 0x8, addend: 0x0, symName: __ZNSt3__16copy_nB7v160006IPKcmPcEENS_9enable_ifIXsr33__is_cpp17_random_access_iteratorIT_EE5valueET1_E4typeES5_T0_S6_, symObjAddr: 0x4870, symBinAddr: 0x1B3D0, symSize: 0x40 }
  - { offsetInCU: 0x35EDF, offset: 0x8CECD, size: 0x8, addend: 0x0, symName: __ZNSt3__114__copy_alignedB7v160006INS_6vectorIbNS_9allocatorIbEEEELb0EEENS_14__bit_iteratorIT_Lb0EXLi0EEEENS5_IS6_XT0_EXLi0EEEES8_S7_, symObjAddr: 0x22E80, symBinAddr: 0x38850, symSize: 0x280 }
  - { offsetInCU: 0x3600F, offset: 0x8CFFD, size: 0x8, addend: 0x0, symName: __ZNSt3__16copy_nB7v160006IPmmS1_EENS_9enable_ifIXsr33__is_cpp17_random_access_iteratorIT_EE5valueET1_E4typeES3_T0_S4_, symObjAddr: 0x23630, symBinAddr: 0x39000, symSize: 0x40 }
  - { offsetInCU: 0x360B6, offset: 0x8D0A4, size: 0x8, addend: 0x0, symName: __ZNSt3__116__copy_unalignedB7v160006INS_6vectorIbNS_9allocatorIbEEEELb0EEENS_14__bit_iteratorIT_Lb0EXLi0EEEENS5_IS6_XT0_EXLi0EEEES8_S7_, symObjAddr: 0x23100, symBinAddr: 0x38AD0, symSize: 0x500 }
  - { offsetInCU: 0x36234, offset: 0x8D222, size: 0x8, addend: 0x0, symName: __ZNSt3__114__copy_alignedB7v160006INS_6vectorIbNS_9allocatorIbEEEELb1EEENS_14__bit_iteratorIT_Lb0EXLi0EEEENS5_IS6_XT0_EXLi0EEEES8_S7_, symObjAddr: 0x24F30, symBinAddr: 0x3A900, symSize: 0x260 }
  - { offsetInCU: 0x36364, offset: 0x8D352, size: 0x8, addend: 0x0, symName: __ZNSt3__16copy_nB7v160006IPKmmPmEENS_9enable_ifIXsr33__is_cpp17_random_access_iteratorIT_EE5valueET1_E4typeES5_T0_S6_, symObjAddr: 0x256A0, symBinAddr: 0x3B070, symSize: 0x40 }
  - { offsetInCU: 0x3640B, offset: 0x8D3F9, size: 0x8, addend: 0x0, symName: __ZNSt3__116__copy_unalignedB7v160006INS_6vectorIbNS_9allocatorIbEEEELb1EEENS_14__bit_iteratorIT_Lb0EXLi0EEEENS5_IS6_XT0_EXLi0EEEES8_S7_, symObjAddr: 0x25190, symBinAddr: 0x3AB60, symSize: 0x4D0 }
  - { offsetInCU: 0x36589, offset: 0x8D577, size: 0x8, addend: 0x0, symName: __ZNSt3__113__fill_n_trueB7v160006INS_6vectorIbNS_9allocatorIbEEEEEEvNS_14__bit_iteratorIT_Lb0EXLi0EEEENS6_9size_typeE, symObjAddr: 0x25D00, symBinAddr: 0x3B6D0, symSize: 0x140 }
  - { offsetInCU: 0x36650, offset: 0x8D63E, size: 0x8, addend: 0x0, symName: __ZNSt3__114__fill_n_falseB7v160006INS_6vectorIbNS_9allocatorIbEEEEEEvNS_14__bit_iteratorIT_Lb0EXLi0EEEENS6_9size_typeE, symObjAddr: 0x25E40, symBinAddr: 0x3B810, symSize: 0x140 }
  - { offsetInCU: 0x3AFF2, offset: 0x91FE0, size: 0x8, addend: 0x0, symName: __ZNSt3__17advanceB7v160006IPN8pybind116detail13function_callEllvEEvRT_T0_, symObjAddr: 0x28290, symBinAddr: 0x3DC60, symSize: 0x50 }
  - { offsetInCU: 0x3B273, offset: 0x92261, size: 0x8, addend: 0x0, symName: __ZNSt3__17advanceB7v160006INS_16reverse_iteratorIPN8pybind116detail13function_callEEEllvEEvRT_T0_, symObjAddr: 0x286F0, symBinAddr: 0x3E0B0, symSize: 0x50 }
  - { offsetInCU: 0x3D76A, offset: 0x94758, size: 0x8, addend: 0x0, symName: __ZNSt3__17advanceB7v160006IPKPN8pybind116detail9type_infoEmmvEEvRT_T0_, symObjAddr: 0x40770, symBinAddr: 0x56130, symSize: 0x50 }
  - { offsetInCU: 0x3EF49, offset: 0x95F37, size: 0x8, addend: 0x0, symName: __ZNSt3__1plB7v160006IcNS_11char_traitsIcEENS_9allocatorIcEEEENS_12basic_stringIT_T0_T1_EEPKS6_OS9_, symObjAddr: 0xFE0, symBinAddr: 0x18540, symSize: 0x50 }
  - { offsetInCU: 0x3EFA1, offset: 0x95F8F, size: 0x8, addend: 0x0, symName: __ZNSt3__115__debug_db_swapB7v160006INS_12basic_stringIcNS_11char_traitsIcEENS_9allocatorIcEEEEEEvPT_S8_, symObjAddr: 0x21C0, symBinAddr: 0x196E0, symSize: 0x10 }
  - { offsetInCU: 0x3EFE0, offset: 0x95FCE, size: 0x8, addend: 0x0, symName: __ZNSt3__1plB7v160006IcNS_11char_traitsIcEENS_9allocatorIcEEEENS_12basic_stringIT_T0_T1_EEOS9_PKS6_, symObjAddr: 0x2400, symBinAddr: 0x198F0, symSize: 0x50 }
  - { offsetInCU: 0x3F038, offset: 0x96026, size: 0x8, addend: 0x0, symName: __ZNSt3__1plB7v160006IcNS_11char_traitsIcEENS_9allocatorIcEEEENS_12basic_stringIT_T0_T1_EEOS9_SA_, symObjAddr: 0x24B0, symBinAddr: 0x199A0, symSize: 0x50 }
  - { offsetInCU: 0x3F090, offset: 0x9607E, size: 0x8, addend: 0x0, symName: __ZNSt3__1eqB7v160006IcNS_11char_traitsIcEENS_9allocatorIcEEEEbRKNS_12basic_stringIT_T0_T1_EEPKS6_, symObjAddr: 0x3060, symBinAddr: 0x1A460, symSize: 0x60 }
  - { offsetInCU: 0x3F0E8, offset: 0x960D6, size: 0x8, addend: 0x0, symName: __ZNSt3__1eqB7v160006IcNS_11char_traitsIcEEEEbNS_17basic_string_viewIT_T0_EES6_, symObjAddr: 0x31E0, symBinAddr: 0x1A530, symSize: 0x90 }
  - { offsetInCU: 0x3F137, offset: 0x96125, size: 0x8, addend: 0x0, symName: __ZNSt3__128__char_traits_length_checkedB7v160006INS_11char_traitsIcEEEEmPKNT_9char_typeE, symObjAddr: 0x37C0, symBinAddr: 0x1A630, symSize: 0x20 }
  - { offsetInCU: 0x3F16C, offset: 0x9615A, size: 0x8, addend: 0x0, symName: __ZNSt3__1plB7v160006IcNS_11char_traitsIcEENS_9allocatorIcEEEENS_12basic_stringIT_T0_T1_EERKS9_PKS6_, symObjAddr: 0x3F30, symBinAddr: 0x1AC80, symSize: 0x100 }
  - { offsetInCU: 0x3F20E, offset: 0x961FC, size: 0x8, addend: 0x0, symName: __ZNSt3__112__to_addressB7v160006IcEEPT_S2_, symObjAddr: 0x4090, symBinAddr: 0x1ADE0, symSize: 0x10 }
  - { offsetInCU: 0x3F243, offset: 0x96231, size: 0x8, addend: 0x0, symName: __ZNSt3__14copyB7v160006IPKcPcEET0_T_S5_S4_, symObjAddr: 0x48B0, symBinAddr: 0x1B410, symSize: 0x40 }
  - { offsetInCU: 0x3F29D, offset: 0x9628B, size: 0x8, addend: 0x0, symName: __ZNSt3__16__copyB7v160006INS_17_ClassicAlgPolicyEPKcS3_PcEENS_4pairIT0_T2_EES6_T1_S7_, symObjAddr: 0x48F0, symBinAddr: 0x1B450, symSize: 0x40 }
  - { offsetInCU: 0x3F309, offset: 0x962F7, size: 0x8, addend: 0x0, symName: __ZNSt3__123__dispatch_copy_or_moveB7v160006INS_17_ClassicAlgPolicyENS_11__copy_loopIS1_EENS_14__copy_trivialEPKcS6_PcEENS_4pairIT2_T4_EES9_T3_SA_, symObjAddr: 0x4930, symBinAddr: 0x1B490, symSize: 0x40 }
  - { offsetInCU: 0x3F387, offset: 0x96375, size: 0x8, addend: 0x0, symName: __ZNSt3__121__unwrap_and_dispatchB7v160006INS_10__overloadINS_11__copy_loopINS_17_ClassicAlgPolicyEEENS_14__copy_trivialEEEPKcS8_PcLi0EEENS_4pairIT0_T2_EESB_T1_SC_, symObjAddr: 0x4970, symBinAddr: 0x1B4D0, symSize: 0xB0 }
  - { offsetInCU: 0x3F417, offset: 0x96405, size: 0x8, addend: 0x0, symName: __ZNSt3__114__unwrap_rangeB7v160006IPKcS2_EEDaT_T0_, symObjAddr: 0x4A20, symBinAddr: 0x1B580, symSize: 0x40 }
  - { offsetInCU: 0x3F666, offset: 0x96654, size: 0x8, addend: 0x0, symName: __ZNSt3__113__unwrap_iterB7v160006IPcNS_18__unwrap_iter_implIS1_Lb1EEELi0EEEDTclsrT0_8__unwrapclsr3stdE7declvalIT_EEEES5_, symObjAddr: 0x4AA0, symBinAddr: 0x1B600, symSize: 0x20 }
  - { offsetInCU: 0x3F6AB, offset: 0x96699, size: 0x8, addend: 0x0, symName: __ZNSt3__19make_pairB7v160006IPKcPcEENS_4pairINS_18__unwrap_ref_decayIT_E4typeENS5_IT0_E4typeEEEOS6_OS9_, symObjAddr: 0x4AC0, symBinAddr: 0x1B620, symSize: 0x30 }
  - { offsetInCU: 0x3F6FA, offset: 0x966E8, size: 0x8, addend: 0x0, symName: __ZNSt3__114__rewrap_rangeB7v160006IPKcS2_S2_EET0_S3_T1_, symObjAddr: 0x4AF0, symBinAddr: 0x1B650, symSize: 0x30 }
  - { offsetInCU: 0x3F74F, offset: 0x9673D, size: 0x8, addend: 0x0, symName: __ZNSt3__113__rewrap_iterB7v160006IPcS1_NS_18__unwrap_iter_implIS1_Lb1EEEEET_S4_T0_, symObjAddr: 0x4B20, symBinAddr: 0x1B680, symSize: 0x40 }
  - { offsetInCU: 0x3F8F1, offset: 0x968DF, size: 0x8, addend: 0x0, symName: __ZNSt3__113__unwrap_iterB7v160006IPKcNS_18__unwrap_iter_implIS2_Lb1EEELi0EEEDTclsrT0_8__unwrapclsr3stdE7declvalIT_EEEES6_, symObjAddr: 0x4BB0, symBinAddr: 0x1B710, symSize: 0x20 }
  - { offsetInCU: 0x3F989, offset: 0x96977, size: 0x8, addend: 0x0, symName: __ZNSt3__119__copy_trivial_implB7v160006IKccEENS_4pairIPT_PT0_EES4_S4_S6_, symObjAddr: 0x4C50, symBinAddr: 0x1B7B0, symSize: 0x70 }
  - { offsetInCU: 0x3F9F1, offset: 0x969DF, size: 0x8, addend: 0x0, symName: __ZNSt3__19make_pairB7v160006IRPKcPcEENS_4pairINS_18__unwrap_ref_decayIT_E4typeENS6_IT0_E4typeEEEOS7_OSA_, symObjAddr: 0x4CC0, symBinAddr: 0x1B820, symSize: 0x30 }
  - { offsetInCU: 0x3FA93, offset: 0x96A81, size: 0x8, addend: 0x0, symName: __ZNSt3__113__rewrap_iterB7v160006IPKcS2_NS_18__unwrap_iter_implIS2_Lb1EEEEET_S5_T0_, symObjAddr: 0x4E00, symBinAddr: 0x1B960, symSize: 0x40 }
  - { offsetInCU: 0x3FAE8, offset: 0x96AD6, size: 0x8, addend: 0x0, symName: __ZNSt3__16fill_nB7v160006IPcmcEET_S2_T0_RKT1_, symObjAddr: 0x4EC0, symBinAddr: 0x1BA20, symSize: 0x40 }
  - { offsetInCU: 0x3FB4B, offset: 0x96B39, size: 0x8, addend: 0x0, symName: __ZNSt3__18__fill_nB7v160006IPcmcEET_S2_T0_RKT1_, symObjAddr: 0x4F00, symBinAddr: 0x1BA60, symSize: 0x50 }
  - { offsetInCU: 0x3FBAE, offset: 0x96B9C, size: 0x8, addend: 0x0, symName: __ZNSt3__121__convert_to_integralB7v160006Em, symObjAddr: 0x4F50, symBinAddr: 0x1BAB0, symSize: 0x10 }
  - { offsetInCU: 0x406E3, offset: 0x976D1, size: 0x8, addend: 0x0, symName: __ZNSt3__110__str_findB7v160006IcmNS_11char_traitsIcEELm18446744073709551615EEET0_PKT_S3_S6_S3_S3_, symObjAddr: 0x6B50, symBinAddr: 0x1D5D0, symSize: 0xB0 }
  - { offsetInCU: 0x4078A, offset: 0x97778, size: 0x8, addend: 0x0, symName: __ZNSt3__118__search_substringB7v160006IcNS_11char_traitsIcEEEEPKT_S5_S5_S5_S5_, symObjAddr: 0x6C00, symBinAddr: 0x1D680, symSize: 0x120 }
  - { offsetInCU: 0x40824, offset: 0x97812, size: 0x8, addend: 0x0, symName: __ZNSt3__123__constexpr_char_memchrB7v160006EPKcim, symObjAddr: 0x6D90, symBinAddr: 0x1D810, symSize: 0x30 }
  - { offsetInCU: 0x40DD5, offset: 0x97DC3, size: 0x8, addend: 0x0, symName: __ZNSt3__112construct_atB7v160006IPFvSt13exception_ptrEJS3_EPS3_EEPT_S6_DpOT0_, symObjAddr: 0x9140, symBinAddr: 0x1FBC0, symSize: 0x30 }
  - { offsetInCU: 0x40E7A, offset: 0x97E68, size: 0x8, addend: 0x0, symName: __ZNSt3__119__debug_db_insert_cB7v160006INS_13unordered_mapINS_10type_indexEPN8pybind116detail9type_infoENS4_9type_hashENS4_13type_equal_toENS_9allocatorINS_4pairIKS2_S6_EEEEEEEEvPT_, symObjAddr: 0x9700, symBinAddr: 0x20180, symSize: 0x10 }
  - { offsetInCU: 0x40EAB, offset: 0x97E99, size: 0x8, addend: 0x0, symName: __ZNSt3__119__debug_db_insert_cB7v160006INS_13unordered_mapIP11_typeobjectNS_6vectorIPN8pybind116detail9type_infoENS_9allocatorIS8_EEEENS_4hashIS3_EENS_8equal_toIS3_EENS9_INS_4pairIKS3_SB_EEEEEEEEvPT_, symObjAddr: 0x9C90, symBinAddr: 0x206D0, symSize: 0x10 }
  - { offsetInCU: 0x40EDC, offset: 0x97ECA, size: 0x8, addend: 0x0, symName: __ZNSt3__119__debug_db_insert_cB7v160006INS_18unordered_multimapIPKvPN8pybind116detail8instanceENS_4hashIS3_EENS_8equal_toIS3_EENS_9allocatorINS_4pairIKS3_S7_EEEEEEEEvPT_, symObjAddr: 0xA1E0, symBinAddr: 0x20C20, symSize: 0x10 }
  - { offsetInCU: 0x40F0D, offset: 0x97EFB, size: 0x8, addend: 0x0, symName: __ZNSt3__119__debug_db_insert_cB7v160006INS_13unordered_setINS_4pairIPK7_objectPKcEEN8pybind116detail13override_hashENS_8equal_toIS8_EENS_9allocatorIS8_EEEEEEvPT_, symObjAddr: 0xA730, symBinAddr: 0x21170, symSize: 0x10 }
  - { offsetInCU: 0x40F3E, offset: 0x97F2C, size: 0x8, addend: 0x0, symName: __ZNSt3__119__debug_db_insert_cB7v160006INS_13unordered_mapINS_10type_indexENS_6vectorIPFbP7_objectRPvENS_9allocatorIS9_EEEEN8pybind116detail9type_hashENSE_13type_equal_toENSA_INS_4pairIKS2_SC_EEEEEEEEvPT_, symObjAddr: 0xAC40, symBinAddr: 0x21680, symSize: 0x10 }
  - { offsetInCU: 0x40F6F, offset: 0x97F5D, size: 0x8, addend: 0x0, symName: __ZNSt3__119__debug_db_insert_cB7v160006INS_13unordered_mapIPK7_objectNS_6vectorIPS2_NS_9allocatorIS6_EEEENS_4hashIS4_EENS_8equal_toIS4_EENS7_INS_4pairIKS4_S9_EEEEEEEEvPT_, symObjAddr: 0xB190, symBinAddr: 0x21BD0, symSize: 0x10 }
  - { offsetInCU: 0x40FA0, offset: 0x97F8E, size: 0x8, addend: 0x0, symName: __ZNSt3__119__debug_db_insert_cB7v160006INS_13unordered_mapINS_12basic_stringIcNS_11char_traitsIcEENS_9allocatorIcEEEEPvNS_4hashIS7_EENS_8equal_toIS7_EENS5_INS_4pairIKS7_S8_EEEEEEEEvPT_, symObjAddr: 0xB870, symBinAddr: 0x222B0, symSize: 0x10 }
  - { offsetInCU: 0x40FD1, offset: 0x97FBF, size: 0x8, addend: 0x0, symName: __ZNSt3__119__debug_db_insert_cB7v160006INS_6vectorIP7_objectNS_9allocatorIS3_EEEEEEvPT_, symObjAddr: 0xBDF0, symBinAddr: 0x22830, symSize: 0x10 }
  - { offsetInCU: 0x41002, offset: 0x97FF0, size: 0x8, addend: 0x0, symName: __ZNSt3__116forward_as_tupleB7v160006IJRKP11_typeobjectEEENS_5tupleIJDpOT_EEES8_, symObjAddr: 0xE530, symBinAddr: 0x24F70, symSize: 0x30 }
  - { offsetInCU: 0x4103B, offset: 0x98029, size: 0x8, addend: 0x0, symName: __ZNSt3__17launderB7v160006IKNS_4pairIKP11_typeobjectNS_6vectorIPN8pybind116detail9type_infoENS_9allocatorIS9_EEEEEEEEPT_SG_, symObjAddr: 0xF920, symBinAddr: 0x255E0, symSize: 0x20 }
  - { offsetInCU: 0x41072, offset: 0x98060, size: 0x8, addend: 0x0, symName: __ZNSt3__19__launderB7v160006IKNS_4pairIKP11_typeobjectNS_6vectorIPN8pybind116detail9type_infoENS_9allocatorIS9_EEEEEEEEPT_SG_, symObjAddr: 0xF940, symBinAddr: 0x25600, symSize: 0x10 }
  - { offsetInCU: 0x41121, offset: 0x9810F, size: 0x8, addend: 0x0, symName: __ZNSt3__112construct_atB7v160006INS_4pairIKP11_typeobjectNS_6vectorIPN8pybind116detail9type_infoENS_9allocatorIS9_EEEEEEJRKNS_21piecewise_construct_tENS_5tupleIJRS4_EEENSH_IJEEEEPSD_EEPT_SN_DpOT0_, symObjAddr: 0xFC80, symBinAddr: 0x25940, symSize: 0x50 }
  - { offsetInCU: 0x411B9, offset: 0x981A7, size: 0x8, addend: 0x0, symName: __ZNSt3__13getB7v160006ILm0EJRKP11_typeobjectEEERNS_13tuple_elementIXT_ENS_5tupleIJDpT0_EEEE4typeERS9_, symObjAddr: 0xFD80, symBinAddr: 0x25A40, symSize: 0x20 }
  - { offsetInCU: 0x411FC, offset: 0x981EA, size: 0x8, addend: 0x0, symName: __ZNSt3__119__debug_db_insert_cB7v160006INS_6vectorIPN8pybind116detail9type_infoENS_9allocatorIS5_EEEEEEvPT_, symObjAddr: 0xFE70, symBinAddr: 0x25B30, symSize: 0x10 }
  - { offsetInCU: 0x4122D, offset: 0x9821B, size: 0x8, addend: 0x0, symName: __ZNSt3__17launderB7v160006INS_4pairIKP11_typeobjectNS_6vectorIPN8pybind116detail9type_infoENS_9allocatorIS9_EEEEEEEEPT_SF_, symObjAddr: 0xFF50, symBinAddr: 0x25C10, symSize: 0x20 }
  - { offsetInCU: 0x41264, offset: 0x98252, size: 0x8, addend: 0x0, symName: __ZNSt3__19__launderB7v160006INS_4pairIKP11_typeobjectNS_6vectorIPN8pybind116detail9type_infoENS_9allocatorIS9_EEEEEEEEPT_SF_, symObjAddr: 0xFF70, symBinAddr: 0x25C30, symSize: 0x10 }
  - { offsetInCU: 0x4129B, offset: 0x98289, size: 0x8, addend: 0x0, symName: __ZNSt3__125__debug_db_invalidate_allB7v160006INS_12__hash_tableINS_17__hash_value_typeIP11_typeobjectNS_6vectorIPN8pybind116detail9type_infoENS_9allocatorIS9_EEEEEENS_22__unordered_map_hasherIS4_SD_NS_4hashIS4_EENS_8equal_toIS4_EELb1EEENS_21__unordered_map_equalIS4_SD_SI_SG_Lb1EEENSA_ISD_EEEEEEvPT_, symObjAddr: 0x10500, symBinAddr: 0x26140, symSize: 0x10 }
  - { offsetInCU: 0x412CC, offset: 0x982BA, size: 0x8, addend: 0x0, symName: __ZNSt3__110destroy_atB7v160006INS_4pairIKP11_typeobjectNS_6vectorIPN8pybind116detail9type_infoENS_9allocatorIS9_EEEEEELi0EEEvPT_, symObjAddr: 0x10A40, symBinAddr: 0x26610, symSize: 0x20 }
  - { offsetInCU: 0x41304, offset: 0x982F2, size: 0x8, addend: 0x0, symName: __ZNSt3__112__destroy_atB7v160006INS_4pairIKP11_typeobjectNS_6vectorIPN8pybind116detail9type_infoENS_9allocatorIS9_EEEEEELi0EEEvPT_, symObjAddr: 0x10A60, symBinAddr: 0x26630, symSize: 0x20 }
  - { offsetInCU: 0x4133C, offset: 0x9832A, size: 0x8, addend: 0x0, symName: __ZNSt3__118__debug_db_erase_cB7v160006INS_6vectorIPN8pybind116detail9type_infoENS_9allocatorIS5_EEEEEEvPT_, symObjAddr: 0x10CB0, symBinAddr: 0x26880, symSize: 0x10 }
  - { offsetInCU: 0x4136D, offset: 0x9835B, size: 0x8, addend: 0x0, symName: __ZNSt3__112__to_addressB7v160006IPN8pybind116detail9type_infoEEEPT_S6_, symObjAddr: 0x10DC0, symBinAddr: 0x26990, symSize: 0x10 }
  - { offsetInCU: 0x413A2, offset: 0x98390, size: 0x8, addend: 0x0, symName: __ZNSt3__110destroy_atB7v160006IPN8pybind116detail9type_infoELi0EEEvPT_, symObjAddr: 0x10E70, symBinAddr: 0x26A40, symSize: 0x20 }
  - { offsetInCU: 0x413DA, offset: 0x983C8, size: 0x8, addend: 0x0, symName: __ZNSt3__112__destroy_atB7v160006IPN8pybind116detail9type_infoELi0EEEvPT_, symObjAddr: 0x10E90, symBinAddr: 0x26A60, symSize: 0x10 }
  - { offsetInCU: 0x41427, offset: 0x98415, size: 0x8, addend: 0x0, symName: __ZNSt3__119__debug_db_insert_cB7v160006INS_6vectorIN8pybind116detail15argument_recordENS_9allocatorIS4_EEEEEEvPT_, symObjAddr: 0x13920, symBinAddr: 0x294F0, symSize: 0x10 }
  - { offsetInCU: 0x41493, offset: 0x98481, size: 0x8, addend: 0x0, symName: __ZNSt3__13getB7v160006ILm0EJN8pybind116detail11type_casterINS1_6handleEvEEEEERNS_13tuple_elementIXT_ENS_5tupleIJDpT0_EEEE4typeERSA_, symObjAddr: 0x13FF0, symBinAddr: 0x29BC0, symSize: 0x20 }
  - { offsetInCU: 0x414D6, offset: 0x984C4, size: 0x8, addend: 0x0, symName: __ZNSt3__1neB7v160006ERKNS_21__hash_const_iteratorIPNS_11__hash_nodeINS_4pairIPK7_objectPKcEEPvEEEESE_, symObjAddr: 0x14370, symBinAddr: 0x29F40, symSize: 0x30 }
  - { offsetInCU: 0x41513, offset: 0x98501, size: 0x8, addend: 0x0, symName: __ZNSt3__1eqB7v160006ERKNS_15__hash_iteratorIPNS_11__hash_nodeINS_17__hash_value_typeIP11_typeobjectNS_6vectorIPN8pybind116detail9type_infoENS_9allocatorIS9_EEEEEEPvEEEESJ_, symObjAddr: 0x14640, symBinAddr: 0x2A210, symSize: 0x30 }
  - { offsetInCU: 0x41550, offset: 0x9853E, size: 0x8, addend: 0x0, symName: __ZNSt3__1eqB7v160006ERKNS_21__hash_const_iteratorIPNS_11__hash_nodeINS_4pairIPK7_objectPKcEEPvEEEESE_, symObjAddr: 0x14AB0, symBinAddr: 0x2A680, symSize: 0x30 }
  - { offsetInCU: 0x41611, offset: 0x985FF, size: 0x8, addend: 0x0, symName: __ZNSt3__110destroy_atB7v160006INS_4pairIPK7_objectPKcEELi0EEEvPT_, symObjAddr: 0x15370, symBinAddr: 0x2AF40, symSize: 0x20 }
  - { offsetInCU: 0x41649, offset: 0x98637, size: 0x8, addend: 0x0, symName: __ZNSt3__112__destroy_atB7v160006INS_4pairIPK7_objectPKcEELi0EEEvPT_, symObjAddr: 0x15390, symBinAddr: 0x2AF60, symSize: 0x10 }
  - { offsetInCU: 0x41681, offset: 0x9866F, size: 0x8, addend: 0x0, symName: __ZNSt3__1neB7v160006IPN8pybind116detail15argument_recordEEEbRKNS_11__wrap_iterIT_EES9_, symObjAddr: 0x15510, symBinAddr: 0x2B0E0, symSize: 0x30 }
  - { offsetInCU: 0x416C4, offset: 0x986B2, size: 0x8, addend: 0x0, symName: __ZNSt3__1plB7v160006IcNS_11char_traitsIcEENS_9allocatorIcEEEENS_12basic_stringIT_T0_T1_EEOS9_RKS9_, symObjAddr: 0x15640, symBinAddr: 0x2B210, symSize: 0x50 }
  - { offsetInCU: 0x4171C, offset: 0x9870A, size: 0x8, addend: 0x0, symName: __ZNSt3__119__debug_db_insert_cB7v160006INS_6vectorIPcNS_9allocatorIS2_EEEEEEvPT_, symObjAddr: 0x18E90, symBinAddr: 0x2EA60, symSize: 0x10 }
  - { offsetInCU: 0x4174D, offset: 0x9873B, size: 0x8, addend: 0x0, symName: __ZNSt3__112__to_addressB7v160006IPcEEPT_S3_, symObjAddr: 0x191E0, symBinAddr: 0x2EDB0, symSize: 0x10 }
  - { offsetInCU: 0x417A9, offset: 0x98797, size: 0x8, addend: 0x0, symName: __ZNSt3__112construct_atB7v160006IPcJRKS1_EPS1_EEPT_S6_DpOT0_, symObjAddr: 0x19250, symBinAddr: 0x2EE20, symSize: 0x30 }
  - { offsetInCU: 0x4181B, offset: 0x98809, size: 0x8, addend: 0x0, symName: __ZNSt3__119__allocate_at_leastB7v160006INS_9allocatorIPcEEEENS_19__allocation_resultINS_16allocator_traitsIT_E7pointerEEERS6_m, symObjAddr: 0x197B0, symBinAddr: 0x2F360, symSize: 0x40 }
  - { offsetInCU: 0x4185E, offset: 0x9884C, size: 0x8, addend: 0x0, symName: __ZNSt3__142__uninitialized_allocator_move_if_noexceptB7v160006INS_9allocatorIPcEENS_16reverse_iteratorIPS2_EES6_S2_vEET1_RT_T0_SA_S7_, symObjAddr: 0x199F0, symBinAddr: 0x2F5A0, symSize: 0x70 }
  - { offsetInCU: 0x418DB, offset: 0x988C9, size: 0x8, addend: 0x0, symName: __ZNSt3__14swapB7v160006IPPcEENS_9enable_ifIXaasr21is_move_constructibleIT_EE5valuesr18is_move_assignableIS4_EE5valueEvE4typeERS4_S7_, symObjAddr: 0x19AB0, symBinAddr: 0x2F660, symSize: 0x40 }
  - { offsetInCU: 0x4192C, offset: 0x9891A, size: 0x8, addend: 0x0, symName: __ZNSt3__125__debug_db_invalidate_allB7v160006INS_6vectorIPcNS_9allocatorIS2_EEEEEEvPT_, symObjAddr: 0x19BA0, symBinAddr: 0x2F750, symSize: 0x10 }
  - { offsetInCU: 0x4195D, offset: 0x9894B, size: 0x8, addend: 0x0, symName: __ZNSt3__14moveB7v160006INS_16reverse_iteratorIPPcEES4_EET0_T_S6_S5_, symObjAddr: 0x19BF0, symBinAddr: 0x2F7A0, symSize: 0x80 }
  - { offsetInCU: 0x419B7, offset: 0x989A5, size: 0x8, addend: 0x0, symName: __ZNSt3__16__moveB7v160006INS_17_ClassicAlgPolicyENS_16reverse_iteratorIPPcEES5_S5_EENS_4pairIT0_T2_EES7_T1_S8_, symObjAddr: 0x19C70, symBinAddr: 0x2F820, symSize: 0x90 }
  - { offsetInCU: 0x41A23, offset: 0x98A11, size: 0x8, addend: 0x0, symName: __ZNSt3__123__dispatch_copy_or_moveB7v160006INS_17_ClassicAlgPolicyENS_11__move_loopIS1_EENS_14__move_trivialENS_16reverse_iteratorIPPcEES8_S8_EENS_4pairIT2_T4_EESA_T3_SB_, symObjAddr: 0x19D00, symBinAddr: 0x2F8B0, symSize: 0x90 }
  - { offsetInCU: 0x41AA1, offset: 0x98A8F, size: 0x8, addend: 0x0, symName: __ZNSt3__121__unwrap_and_dispatchB7v160006INS_10__overloadINS_11__move_loopINS_17_ClassicAlgPolicyEEENS_14__move_trivialEEENS_16reverse_iteratorIPPcEESA_SA_Li0EEENS_4pairIT0_T2_EESC_T1_SD_, symObjAddr: 0x19D90, symBinAddr: 0x2F940, symSize: 0x210 }
  - { offsetInCU: 0x41B31, offset: 0x98B1F, size: 0x8, addend: 0x0, symName: __ZNSt3__114__unwrap_rangeB7v160006INS_16reverse_iteratorIPPcEES4_EEDaT_T0_, symObjAddr: 0x19FA0, symBinAddr: 0x2FB50, symSize: 0x60 }
  - { offsetInCU: 0x41DA9, offset: 0x98D97, size: 0x8, addend: 0x0, symName: __ZNSt3__113__unwrap_iterB7v160006INS_16reverse_iteratorIPPcEENS_18__unwrap_iter_implIS4_Lb0EEELi0EEEDTclsrT0_8__unwrapclsr3stdE7declvalIT_EEEES8_, symObjAddr: 0x1A0A0, symBinAddr: 0x2FC50, symSize: 0x40 }
  - { offsetInCU: 0x41DEE, offset: 0x98DDC, size: 0x8, addend: 0x0, symName: __ZNSt3__19make_pairB7v160006INS_16reverse_iteratorIPPcEES4_EENS_4pairINS_18__unwrap_ref_decayIT_E4typeENS6_IT0_E4typeEEEOS7_OSA_, symObjAddr: 0x1A0E0, symBinAddr: 0x2FC90, symSize: 0x30 }
  - { offsetInCU: 0x41E3D, offset: 0x98E2B, size: 0x8, addend: 0x0, symName: __ZNSt3__114__rewrap_rangeB7v160006INS_16reverse_iteratorIPPcEES4_S4_EET0_S5_T1_, symObjAddr: 0x1A110, symBinAddr: 0x2FCC0, symSize: 0x60 }
  - { offsetInCU: 0x41E92, offset: 0x98E80, size: 0x8, addend: 0x0, symName: __ZNSt3__113__rewrap_iterB7v160006INS_16reverse_iteratorIPPcEES4_NS_18__unwrap_iter_implIS4_Lb0EEEEET_S7_T0_, symObjAddr: 0x1A170, symBinAddr: 0x2FD20, symSize: 0x70 }
  - { offsetInCU: 0x41F37, offset: 0x98F25, size: 0x8, addend: 0x0, symName: __ZNSt3__1neB7v160006IPPcS2_EEbRKNS_16reverse_iteratorIT_EERKNS3_IT0_EE, symObjAddr: 0x1A2E0, symBinAddr: 0x2FE90, symSize: 0x40 }
  - { offsetInCU: 0x42125, offset: 0x99113, size: 0x8, addend: 0x0, symName: __ZNSt3__110destroy_atB7v160006IPcLi0EEEvPT_, symObjAddr: 0x1A640, symBinAddr: 0x301F0, symSize: 0x20 }
  - { offsetInCU: 0x4215D, offset: 0x9914B, size: 0x8, addend: 0x0, symName: __ZNSt3__112__destroy_atB7v160006IPcLi0EEEvPT_, symObjAddr: 0x1A660, symBinAddr: 0x30210, symSize: 0x10 }
  - { offsetInCU: 0x42195, offset: 0x99183, size: 0x8, addend: 0x0, symName: __ZNSt3__1eqB7v160006IPN8pybind116detail15argument_recordEEEbRKNS_11__wrap_iterIT_EES9_, symObjAddr: 0x1A770, symBinAddr: 0x30320, symSize: 0x40 }
  - { offsetInCU: 0x421D8, offset: 0x991C6, size: 0x8, addend: 0x0, symName: __ZNSt3__125__debug_db_invalidate_allB7v160006INS_12basic_stringIcNS_11char_traitsIcEENS_9allocatorIcEEEEEEvPT_, symObjAddr: 0x1AAC0, symBinAddr: 0x30670, symSize: 0x10 }
  - { offsetInCU: 0x42209, offset: 0x991F7, size: 0x8, addend: 0x0, symName: __ZNSt3__123__str_find_first_not_ofB7v160006IcmNS_11char_traitsIcEELm18446744073709551615EEET0_PKT_S3_S6_S3_S3_, symObjAddr: 0x1AAD0, symBinAddr: 0x30680, symSize: 0xB0 }
  - { offsetInCU: 0x422DB, offset: 0x992C9, size: 0x8, addend: 0x0, symName: __ZNSt3__122__str_find_last_not_ofB7v160006IcmNS_11char_traitsIcEELm18446744073709551615EEET0_PKT_S3_S6_S3_S3_, symObjAddr: 0x1AB80, symBinAddr: 0x30730, symSize: 0xB0 }
  - { offsetInCU: 0x42390, offset: 0x9937E, size: 0x8, addend: 0x0, symName: __ZNSt3__1plB7v160006IcNS_11char_traitsIcEENS_9allocatorIcEEEENS_12basic_stringIT_T0_T1_EEOS9_S6_, symObjAddr: 0x1AD70, symBinAddr: 0x30920, symSize: 0x50 }
  - { offsetInCU: 0x423E8, offset: 0x993D6, size: 0x8, addend: 0x0, symName: __ZNSt3__1neB7v160006ERKNS_19__hash_map_iteratorINS_15__hash_iteratorIPNS_11__hash_nodeINS_17__hash_value_typeINS_10type_indexEPN8pybind116detail9type_infoEEEPvEEEEEESG_, symObjAddr: 0x1AEB0, symBinAddr: 0x30A60, symSize: 0x30 }
  - { offsetInCU: 0x42425, offset: 0x99413, size: 0x8, addend: 0x0, symName: __ZNSt3__116forward_as_tupleB7v160006IJNS_12basic_stringIcNS_11char_traitsIcEENS_9allocatorIcEEEEEEENS_5tupleIJDpOT_EEESA_, symObjAddr: 0x1B790, symBinAddr: 0x31340, symSize: 0x30 }
  - { offsetInCU: 0x4245E, offset: 0x9944C, size: 0x8, addend: 0x0, symName: __ZNSt3__17launderB7v160006IKNS_4pairIKNS_12basic_stringIcNS_11char_traitsIcEENS_9allocatorIcEEEEPvEEEEPT_SD_, symObjAddr: 0x1BF80, symBinAddr: 0x31950, symSize: 0x20 }
  - { offsetInCU: 0x42495, offset: 0x99483, size: 0x8, addend: 0x0, symName: __ZNSt3__19__launderB7v160006IKNS_4pairIKNS_12basic_stringIcNS_11char_traitsIcEENS_9allocatorIcEEEEPvEEEEPT_SD_, symObjAddr: 0x1BFA0, symBinAddr: 0x31970, symSize: 0x10 }
  - { offsetInCU: 0x42544, offset: 0x99532, size: 0x8, addend: 0x0, symName: __ZNSt3__112construct_atB7v160006INS_4pairIKNS_12basic_stringIcNS_11char_traitsIcEENS_9allocatorIcEEEEPvEEJRKNS_21piecewise_construct_tENS_5tupleIJOS7_EEENSE_IJEEEEPSA_EEPT_SK_DpOT0_, symObjAddr: 0x1C2E0, symBinAddr: 0x31CB0, symSize: 0x50 }
  - { offsetInCU: 0x425DC, offset: 0x995CA, size: 0x8, addend: 0x0, symName: __ZNSt3__13getB7v160006ILm0EJONS_12basic_stringIcNS_11char_traitsIcEENS_9allocatorIcEEEEEEERNS_13tuple_elementIXT_ENS_5tupleIJDpT0_EEEE4typeERSC_, symObjAddr: 0x1C3F0, symBinAddr: 0x31DC0, symSize: 0x20 }
  - { offsetInCU: 0x4261F, offset: 0x9960D, size: 0x8, addend: 0x0, symName: __ZNSt3__125__debug_db_invalidate_allB7v160006INS_12__hash_tableINS_17__hash_value_typeINS_12basic_stringIcNS_11char_traitsIcEENS_9allocatorIcEEEEPvEENS_22__unordered_map_hasherIS8_SA_NS_4hashIS8_EENS_8equal_toIS8_EELb1EEENS_21__unordered_map_equalIS8_SA_SF_SD_Lb1EEENS6_ISA_EEEEEEvPT_, symObjAddr: 0x1C930, symBinAddr: 0x32300, symSize: 0x10 }
  - { offsetInCU: 0x42650, offset: 0x9963E, size: 0x8, addend: 0x0, symName: __ZNSt3__110destroy_atB7v160006INS_4pairIKNS_12basic_stringIcNS_11char_traitsIcEENS_9allocatorIcEEEEPvEELi0EEEvPT_, symObjAddr: 0x1CE00, symBinAddr: 0x327D0, symSize: 0x20 }
  - { offsetInCU: 0x42688, offset: 0x99676, size: 0x8, addend: 0x0, symName: __ZNSt3__112__destroy_atB7v160006INS_4pairIKNS_12basic_stringIcNS_11char_traitsIcEENS_9allocatorIcEEEEPvEELi0EEEvPT_, symObjAddr: 0x1CE20, symBinAddr: 0x327F0, symSize: 0x20 }
  - { offsetInCU: 0x42708, offset: 0x996F6, size: 0x8, addend: 0x0, symName: __ZNSt3__17launderB7v160006INS_4pairIKNS_12basic_stringIcNS_11char_traitsIcEENS_9allocatorIcEEEEPvEEEEPT_SC_, symObjAddr: 0x1D010, symBinAddr: 0x329E0, symSize: 0x20 }
  - { offsetInCU: 0x4273F, offset: 0x9972D, size: 0x8, addend: 0x0, symName: __ZNSt3__19__launderB7v160006INS_4pairIKNS_12basic_stringIcNS_11char_traitsIcEENS_9allocatorIcEEEEPvEEEEPT_SC_, symObjAddr: 0x1D030, symBinAddr: 0x32A00, symSize: 0x10 }
  - { offsetInCU: 0x42776, offset: 0x99764, size: 0x8, addend: 0x0, symName: __ZNSt3__110destroy_atB7v160006IPFvSt13exception_ptrELi0EEEvPT_, symObjAddr: 0x1D1A0, symBinAddr: 0x32B70, symSize: 0x20 }
  - { offsetInCU: 0x427AE, offset: 0x9979C, size: 0x8, addend: 0x0, symName: __ZNSt3__112__destroy_atB7v160006IPFvSt13exception_ptrELi0EEEvPT_, symObjAddr: 0x1D1C0, symBinAddr: 0x32B90, symSize: 0x10 }
  - { offsetInCU: 0x427E6, offset: 0x997D4, size: 0x8, addend: 0x0, symName: __ZNSt3__118__debug_db_erase_cB7v160006INS_12__hash_tableINS_17__hash_value_typeINS_10type_indexEPN8pybind116detail9type_infoEEENS_22__unordered_map_hasherIS3_S8_NS5_9type_hashENS5_13type_equal_toELb1EEENS_21__unordered_map_equalIS3_S8_SB_SA_Lb1EEENS_9allocatorIS8_EEEEEEvPT_, symObjAddr: 0x1D320, symBinAddr: 0x32CF0, symSize: 0x10 }
  - { offsetInCU: 0x4284A, offset: 0x99838, size: 0x8, addend: 0x0, symName: __ZNSt3__110destroy_atB7v160006INS_4pairIKNS_10type_indexEPN8pybind116detail9type_infoEEELi0EEEvPT_, symObjAddr: 0x1D440, symBinAddr: 0x32E10, symSize: 0x20 }
  - { offsetInCU: 0x42882, offset: 0x99870, size: 0x8, addend: 0x0, symName: __ZNSt3__112__destroy_atB7v160006INS_4pairIKNS_10type_indexEPN8pybind116detail9type_infoEEELi0EEEvPT_, symObjAddr: 0x1D460, symBinAddr: 0x32E30, symSize: 0x10 }
  - { offsetInCU: 0x428BA, offset: 0x998A8, size: 0x8, addend: 0x0, symName: __ZNSt3__17launderB7v160006INS_4pairIKNS_10type_indexEPN8pybind116detail9type_infoEEEEEPT_SA_, symObjAddr: 0x1D490, symBinAddr: 0x32E60, symSize: 0x20 }
  - { offsetInCU: 0x428F1, offset: 0x998DF, size: 0x8, addend: 0x0, symName: __ZNSt3__19__launderB7v160006INS_4pairIKNS_10type_indexEPN8pybind116detail9type_infoEEEEEPT_SA_, symObjAddr: 0x1D4B0, symBinAddr: 0x32E80, symSize: 0x10 }
  - { offsetInCU: 0x42928, offset: 0x99916, size: 0x8, addend: 0x0, symName: __ZNSt3__17launderB7v160006IKNS_4pairIKNS_10type_indexEPN8pybind116detail9type_infoEEEEEPT_SB_, symObjAddr: 0x1DCB0, symBinAddr: 0x33680, symSize: 0x20 }
  - { offsetInCU: 0x4295F, offset: 0x9994D, size: 0x8, addend: 0x0, symName: __ZNSt3__19__launderB7v160006IKNS_4pairIKNS_10type_indexEPN8pybind116detail9type_infoEEEEEPT_SB_, symObjAddr: 0x1DCD0, symBinAddr: 0x336A0, symSize: 0x10 }
  - { offsetInCU: 0x42996, offset: 0x99984, size: 0x8, addend: 0x0, symName: __ZNSt3__1neB7v160006ERKNS_15__hash_iteratorIPNS_11__hash_nodeINS_17__hash_value_typeINS_10type_indexEPN8pybind116detail9type_infoEEEPvEEEESE_, symObjAddr: 0x1DD20, symBinAddr: 0x336F0, symSize: 0x30 }
  - { offsetInCU: 0x429D3, offset: 0x999C1, size: 0x8, addend: 0x0, symName: __ZNSt3__1eqB7v160006ERKNS_15__hash_iteratorIPNS_11__hash_nodeINS_17__hash_value_typeINS_10type_indexEPN8pybind116detail9type_infoEEEPvEEEESE_, symObjAddr: 0x1DD50, symBinAddr: 0x33720, symSize: 0x30 }
  - { offsetInCU: 0x42A76, offset: 0x99A64, size: 0x8, addend: 0x0, symName: __ZNSt3__119__allocate_at_leastB7v160006INS_9allocatorIN8pybind116detail15argument_recordEEEEENS_19__allocation_resultINS_16allocator_traitsIT_E7pointerEEERS8_m, symObjAddr: 0x1E380, symBinAddr: 0x33D50, symSize: 0x40 }
  - { offsetInCU: 0x42AB9, offset: 0x99AA7, size: 0x8, addend: 0x0, symName: __ZNSt3__142__uninitialized_allocator_move_if_noexceptB7v160006INS_9allocatorIN8pybind116detail15argument_recordEEENS_16reverse_iteratorIPS4_EES8_S4_vEET1_RT_T0_SC_S9_, symObjAddr: 0x1E5F0, symBinAddr: 0x33FC0, symSize: 0x70 }
  - { offsetInCU: 0x42B36, offset: 0x99B24, size: 0x8, addend: 0x0, symName: __ZNSt3__14swapB7v160006IPN8pybind116detail15argument_recordEEENS_9enable_ifIXaasr21is_move_constructibleIT_EE5valuesr18is_move_assignableIS6_EE5valueEvE4typeERS6_S9_, symObjAddr: 0x1E6B0, symBinAddr: 0x34080, symSize: 0x40 }
  - { offsetInCU: 0x42B87, offset: 0x99B75, size: 0x8, addend: 0x0, symName: __ZNSt3__125__debug_db_invalidate_allB7v160006INS_6vectorIN8pybind116detail15argument_recordENS_9allocatorIS4_EEEEEEvPT_, symObjAddr: 0x1E7C0, symBinAddr: 0x34190, symSize: 0x10 }
  - { offsetInCU: 0x42BB8, offset: 0x99BA6, size: 0x8, addend: 0x0, symName: __ZNSt3__112__to_addressB7v160006IN8pybind116detail15argument_recordEEEPT_S5_, symObjAddr: 0x1E810, symBinAddr: 0x341E0, symSize: 0x10 }
  - { offsetInCU: 0x42BED, offset: 0x99BDB, size: 0x8, addend: 0x0, symName: __ZNSt3__14moveB7v160006INS_16reverse_iteratorIPN8pybind116detail15argument_recordEEES6_EET0_T_S8_S7_, symObjAddr: 0x1E820, symBinAddr: 0x341F0, symSize: 0x80 }
  - { offsetInCU: 0x42C47, offset: 0x99C35, size: 0x8, addend: 0x0, symName: __ZNSt3__16__moveB7v160006INS_17_ClassicAlgPolicyENS_16reverse_iteratorIPN8pybind116detail15argument_recordEEES7_S7_EENS_4pairIT0_T2_EES9_T1_SA_, symObjAddr: 0x1E8A0, symBinAddr: 0x34270, symSize: 0x90 }
  - { offsetInCU: 0x42CB3, offset: 0x99CA1, size: 0x8, addend: 0x0, symName: __ZNSt3__123__dispatch_copy_or_moveB7v160006INS_17_ClassicAlgPolicyENS_11__move_loopIS1_EENS_14__move_trivialENS_16reverse_iteratorIPN8pybind116detail15argument_recordEEESA_SA_EENS_4pairIT2_T4_EESC_T3_SD_, symObjAddr: 0x1E930, symBinAddr: 0x34300, symSize: 0x90 }
  - { offsetInCU: 0x42D31, offset: 0x99D1F, size: 0x8, addend: 0x0, symName: __ZNSt3__121__unwrap_and_dispatchB7v160006INS_10__overloadINS_11__move_loopINS_17_ClassicAlgPolicyEEENS_14__move_trivialEEENS_16reverse_iteratorIPN8pybind116detail15argument_recordEEESC_SC_Li0EEENS_4pairIT0_T2_EESE_T1_SF_, symObjAddr: 0x1E9C0, symBinAddr: 0x34390, symSize: 0x210 }
  - { offsetInCU: 0x42DC1, offset: 0x99DAF, size: 0x8, addend: 0x0, symName: __ZNSt3__114__unwrap_rangeB7v160006INS_16reverse_iteratorIPN8pybind116detail15argument_recordEEES6_EEDaT_T0_, symObjAddr: 0x1EBD0, symBinAddr: 0x345A0, symSize: 0x60 }
  - { offsetInCU: 0x42EE2, offset: 0x99ED0, size: 0x8, addend: 0x0, symName: __ZNSt3__113__unwrap_iterB7v160006INS_16reverse_iteratorIPN8pybind116detail15argument_recordEEENS_18__unwrap_iter_implIS6_Lb0EEELi0EEEDTclsrT0_8__unwrapclsr3stdE7declvalIT_EEEESA_, symObjAddr: 0x1ECE0, symBinAddr: 0x346B0, symSize: 0x40 }
  - { offsetInCU: 0x42F27, offset: 0x99F15, size: 0x8, addend: 0x0, symName: __ZNSt3__19make_pairB7v160006INS_16reverse_iteratorIPN8pybind116detail15argument_recordEEES6_EENS_4pairINS_18__unwrap_ref_decayIT_E4typeENS8_IT0_E4typeEEEOS9_OSC_, symObjAddr: 0x1ED20, symBinAddr: 0x346F0, symSize: 0x30 }
  - { offsetInCU: 0x42F76, offset: 0x99F64, size: 0x8, addend: 0x0, symName: __ZNSt3__114__rewrap_rangeB7v160006INS_16reverse_iteratorIPN8pybind116detail15argument_recordEEES6_S6_EET0_S7_T1_, symObjAddr: 0x1ED50, symBinAddr: 0x34720, symSize: 0x60 }
  - { offsetInCU: 0x42FCB, offset: 0x99FB9, size: 0x8, addend: 0x0, symName: __ZNSt3__113__rewrap_iterB7v160006INS_16reverse_iteratorIPN8pybind116detail15argument_recordEEES6_NS_18__unwrap_iter_implIS6_Lb0EEEEET_S9_T0_, symObjAddr: 0x1EDB0, symBinAddr: 0x34780, symSize: 0x70 }
  - { offsetInCU: 0x43070, offset: 0x9A05E, size: 0x8, addend: 0x0, symName: __ZNSt3__1neB7v160006IPN8pybind116detail15argument_recordES4_EEbRKNS_16reverse_iteratorIT_EERKNS5_IT0_EE, symObjAddr: 0x1EF20, symBinAddr: 0x348F0, symSize: 0x40 }
  - { offsetInCU: 0x43129, offset: 0x9A117, size: 0x8, addend: 0x0, symName: __ZNSt3__110destroy_atB7v160006IN8pybind116detail15argument_recordELi0EEEvPT_, symObjAddr: 0x1F2A0, symBinAddr: 0x34C70, symSize: 0x20 }
  - { offsetInCU: 0x43161, offset: 0x9A14F, size: 0x8, addend: 0x0, symName: __ZNSt3__112__destroy_atB7v160006IN8pybind116detail15argument_recordELi0EEEvPT_, symObjAddr: 0x1F2C0, symBinAddr: 0x34C90, symSize: 0x10 }
  - { offsetInCU: 0x43199, offset: 0x9A187, size: 0x8, addend: 0x0, symName: __ZNSt3__1neB7v160006IPN8pybind116detail13function_callEEEbRKNS_11__wrap_iterIT_EES9_, symObjAddr: 0x202F0, symBinAddr: 0x35CC0, symSize: 0x30 }
  - { offsetInCU: 0x431DC, offset: 0x9A1CA, size: 0x8, addend: 0x0, symName: __ZNSt3__119__debug_db_insert_cB7v160006INS_6vectorIN8pybind116detail13function_callENS_9allocatorIS4_EEEEEEvPT_, symObjAddr: 0x20B90, symBinAddr: 0x36560, symSize: 0x10 }
  - { offsetInCU: 0x4320D, offset: 0x9A1FB, size: 0x8, addend: 0x0, symName: __ZNSt3__119__debug_db_insert_cB7v160006INS_6vectorIN8pybind116handleENS_9allocatorIS3_EEEEEEvPT_, symObjAddr: 0x21030, symBinAddr: 0x36A00, symSize: 0x10 }
  - { offsetInCU: 0x4323E, offset: 0x9A22C, size: 0x8, addend: 0x0, symName: __ZNSt3__119__allocate_at_leastB7v160006INS_9allocatorIN8pybind116handleEEEEENS_19__allocation_resultINS_16allocator_traitsIT_E7pointerEEERS7_m, symObjAddr: 0x21540, symBinAddr: 0x36F10, symSize: 0x40 }
  - { offsetInCU: 0x43281, offset: 0x9A26F, size: 0x8, addend: 0x0, symName: __ZNSt3__142__uninitialized_allocator_move_if_noexceptB7v160006INS_9allocatorIN8pybind116handleEEENS_16reverse_iteratorIPS3_EES7_S3_vEET1_RT_T0_SB_S8_, symObjAddr: 0x21790, symBinAddr: 0x37160, symSize: 0x70 }
  - { offsetInCU: 0x432FE, offset: 0x9A2EC, size: 0x8, addend: 0x0, symName: __ZNSt3__14swapB7v160006IPN8pybind116handleEEENS_9enable_ifIXaasr21is_move_constructibleIT_EE5valuesr18is_move_assignableIS5_EE5valueEvE4typeERS5_S8_, symObjAddr: 0x21850, symBinAddr: 0x37220, symSize: 0x40 }
  - { offsetInCU: 0x4334F, offset: 0x9A33D, size: 0x8, addend: 0x0, symName: __ZNSt3__125__debug_db_invalidate_allB7v160006INS_6vectorIN8pybind116handleENS_9allocatorIS3_EEEEEEvPT_, symObjAddr: 0x21960, symBinAddr: 0x37330, symSize: 0x10 }
  - { offsetInCU: 0x43380, offset: 0x9A36E, size: 0x8, addend: 0x0, symName: __ZNSt3__112__to_addressB7v160006IN8pybind116handleEEEPT_S4_, symObjAddr: 0x219B0, symBinAddr: 0x37380, symSize: 0x10 }
  - { offsetInCU: 0x433B5, offset: 0x9A3A3, size: 0x8, addend: 0x0, symName: __ZNSt3__14moveB7v160006INS_16reverse_iteratorIPN8pybind116handleEEES5_EET0_T_S7_S6_, symObjAddr: 0x219C0, symBinAddr: 0x37390, symSize: 0x80 }
  - { offsetInCU: 0x4340F, offset: 0x9A3FD, size: 0x8, addend: 0x0, symName: __ZNSt3__16__moveB7v160006INS_17_ClassicAlgPolicyENS_16reverse_iteratorIPN8pybind116handleEEES6_S6_EENS_4pairIT0_T2_EES8_T1_S9_, symObjAddr: 0x21A40, symBinAddr: 0x37410, symSize: 0x90 }
  - { offsetInCU: 0x4347B, offset: 0x9A469, size: 0x8, addend: 0x0, symName: __ZNSt3__123__dispatch_copy_or_moveB7v160006INS_17_ClassicAlgPolicyENS_11__move_loopIS1_EENS_14__move_trivialENS_16reverse_iteratorIPN8pybind116handleEEES9_S9_EENS_4pairIT2_T4_EESB_T3_SC_, symObjAddr: 0x21AD0, symBinAddr: 0x374A0, symSize: 0x90 }
  - { offsetInCU: 0x434F9, offset: 0x9A4E7, size: 0x8, addend: 0x0, symName: __ZNSt3__121__unwrap_and_dispatchB7v160006INS_10__overloadINS_11__move_loopINS_17_ClassicAlgPolicyEEENS_14__move_trivialEEENS_16reverse_iteratorIPN8pybind116handleEEESB_SB_Li0EEENS_4pairIT0_T2_EESD_T1_SE_, symObjAddr: 0x21B60, symBinAddr: 0x37530, symSize: 0x210 }
  - { offsetInCU: 0x43589, offset: 0x9A577, size: 0x8, addend: 0x0, symName: __ZNSt3__114__unwrap_rangeB7v160006INS_16reverse_iteratorIPN8pybind116handleEEES5_EEDaT_T0_, symObjAddr: 0x21D70, symBinAddr: 0x37740, symSize: 0x60 }
  - { offsetInCU: 0x436AA, offset: 0x9A698, size: 0x8, addend: 0x0, symName: __ZNSt3__113__unwrap_iterB7v160006INS_16reverse_iteratorIPN8pybind116handleEEENS_18__unwrap_iter_implIS5_Lb0EEELi0EEEDTclsrT0_8__unwrapclsr3stdE7declvalIT_EEEES9_, symObjAddr: 0x21E70, symBinAddr: 0x37840, symSize: 0x40 }
  - { offsetInCU: 0x436EF, offset: 0x9A6DD, size: 0x8, addend: 0x0, symName: __ZNSt3__19make_pairB7v160006INS_16reverse_iteratorIPN8pybind116handleEEES5_EENS_4pairINS_18__unwrap_ref_decayIT_E4typeENS7_IT0_E4typeEEEOS8_OSB_, symObjAddr: 0x21EB0, symBinAddr: 0x37880, symSize: 0x30 }
  - { offsetInCU: 0x4373E, offset: 0x9A72C, size: 0x8, addend: 0x0, symName: __ZNSt3__114__rewrap_rangeB7v160006INS_16reverse_iteratorIPN8pybind116handleEEES5_S5_EET0_S6_T1_, symObjAddr: 0x21EE0, symBinAddr: 0x378B0, symSize: 0x60 }
  - { offsetInCU: 0x43793, offset: 0x9A781, size: 0x8, addend: 0x0, symName: __ZNSt3__113__rewrap_iterB7v160006INS_16reverse_iteratorIPN8pybind116handleEEES5_NS_18__unwrap_iter_implIS5_Lb0EEEEET_S8_T0_, symObjAddr: 0x21F40, symBinAddr: 0x37910, symSize: 0x70 }
  - { offsetInCU: 0x43838, offset: 0x9A826, size: 0x8, addend: 0x0, symName: __ZNSt3__1neB7v160006IPN8pybind116handleES3_EEbRKNS_16reverse_iteratorIT_EERKNS4_IT0_EE, symObjAddr: 0x220B0, symBinAddr: 0x37A80, symSize: 0x40 }
  - { offsetInCU: 0x438F1, offset: 0x9A8DF, size: 0x8, addend: 0x0, symName: __ZNSt3__110destroy_atB7v160006IN8pybind116handleELi0EEEvPT_, symObjAddr: 0x22430, symBinAddr: 0x37E00, symSize: 0x20 }
  - { offsetInCU: 0x43929, offset: 0x9A917, size: 0x8, addend: 0x0, symName: __ZNSt3__112__destroy_atB7v160006IN8pybind116handleELi0EEEvPT_, symObjAddr: 0x22450, symBinAddr: 0x37E20, symSize: 0x10 }
  - { offsetInCU: 0x43961, offset: 0x9A94F, size: 0x8, addend: 0x0, symName: __ZNSt3__125__debug_db_invalidate_allB7v160006INS_6vectorIbNS_9allocatorIbEEEEEEvPT_, symObjAddr: 0x22840, symBinAddr: 0x38210, symSize: 0x10 }
  - { offsetInCU: 0x43992, offset: 0x9A980, size: 0x8, addend: 0x0, symName: __ZNSt3__119__allocate_at_leastB7v160006INS_9allocatorImEEEENS_19__allocation_resultINS_16allocator_traitsIT_E7pointerEEERS5_m, symObjAddr: 0x22AD0, symBinAddr: 0x384A0, symSize: 0x40 }
  - { offsetInCU: 0x439D5, offset: 0x9A9C3, size: 0x8, addend: 0x0, symName: __ZNSt3__18distanceB7v160006INS_14__bit_iteratorINS_6vectorIbNS_9allocatorIbEEEELb0ELm0EEEEENS_15iterator_traitsIT_E15difference_typeES8_S8_, symObjAddr: 0x22C10, symBinAddr: 0x385E0, symSize: 0x50 }
  - { offsetInCU: 0x43A1A, offset: 0x9AA08, size: 0x8, addend: 0x0, symName: __ZNSt3__14copyB7v160006INS_6vectorIbNS_9allocatorIbEEEELb0EEENS_14__bit_iteratorIT_Lb0EXLi0EEEENS5_IS6_XT0_EXLi0EEEES8_S7_, symObjAddr: 0x22C90, symBinAddr: 0x38660, symSize: 0x100 }
  - { offsetInCU: 0x43A7C, offset: 0x9AA6A, size: 0x8, addend: 0x0, symName: __ZNSt3__110__distanceB7v160006INS_14__bit_iteratorINS_6vectorIbNS_9allocatorIbEEEELb0ELm0EEEEENS_15iterator_traitsIT_E15difference_typeES8_S8_NS_26random_access_iterator_tagE, symObjAddr: 0x22DE0, symBinAddr: 0x387B0, symSize: 0x30 }
  - { offsetInCU: 0x43ACB, offset: 0x9AAB9, size: 0x8, addend: 0x0, symName: __ZNSt3__1miB7v160006ERKNS_14__bit_iteratorINS_6vectorIbNS_9allocatorIbEEEELb0ELm0EEES7_, symObjAddr: 0x22E10, symBinAddr: 0x387E0, symSize: 0x40 }
  - { offsetInCU: 0x43B08, offset: 0x9AAF6, size: 0x8, addend: 0x0, symName: __ZNSt3__13minB7v160006IlEERKT_S3_S3_, symObjAddr: 0x23600, symBinAddr: 0x38FD0, symSize: 0x30 }
  - { offsetInCU: 0x43B4B, offset: 0x9AB39, size: 0x8, addend: 0x0, symName: __ZNSt3__112__to_addressB7v160006ImEEPT_S2_, symObjAddr: 0x23670, symBinAddr: 0x39040, symSize: 0x10 }
  - { offsetInCU: 0x43B80, offset: 0x9AB6E, size: 0x8, addend: 0x0, symName: __ZNSt3__13minB7v160006IlNS_6__lessIllEEEERKT_S5_S5_T0_, symObjAddr: 0x23680, symBinAddr: 0x39050, symSize: 0x50 }
  - { offsetInCU: 0x43C15, offset: 0x9AC03, size: 0x8, addend: 0x0, symName: __ZNSt3__14copyB7v160006IPmS1_EET0_T_S3_S2_, symObjAddr: 0x23700, symBinAddr: 0x390D0, symSize: 0x40 }
  - { offsetInCU: 0x43C6F, offset: 0x9AC5D, size: 0x8, addend: 0x0, symName: __ZNSt3__16__copyB7v160006INS_17_ClassicAlgPolicyEPmS2_S2_EENS_4pairIT0_T2_EES4_T1_S5_, symObjAddr: 0x23740, symBinAddr: 0x39110, symSize: 0x40 }
  - { offsetInCU: 0x43CDB, offset: 0x9ACC9, size: 0x8, addend: 0x0, symName: __ZNSt3__123__dispatch_copy_or_moveB7v160006INS_17_ClassicAlgPolicyENS_11__copy_loopIS1_EENS_14__copy_trivialEPmS5_S5_EENS_4pairIT2_T4_EES7_T3_S8_, symObjAddr: 0x23780, symBinAddr: 0x39150, symSize: 0x40 }
  - { offsetInCU: 0x43D59, offset: 0x9AD47, size: 0x8, addend: 0x0, symName: __ZNSt3__121__unwrap_and_dispatchB7v160006INS_10__overloadINS_11__copy_loopINS_17_ClassicAlgPolicyEEENS_14__copy_trivialEEEPmS7_S7_Li0EEENS_4pairIT0_T2_EES9_T1_SA_, symObjAddr: 0x237C0, symBinAddr: 0x39190, symSize: 0xB0 }
  - { offsetInCU: 0x43DE9, offset: 0x9ADD7, size: 0x8, addend: 0x0, symName: __ZNSt3__114__unwrap_rangeB7v160006IPmS1_EEDaT_T0_, symObjAddr: 0x23870, symBinAddr: 0x39240, symSize: 0x40 }
  - { offsetInCU: 0x43F3A, offset: 0x9AF28, size: 0x8, addend: 0x0, symName: __ZNSt3__113__unwrap_iterB7v160006IPmNS_18__unwrap_iter_implIS1_Lb1EEELi0EEEDTclsrT0_8__unwrapclsr3stdE7declvalIT_EEEES5_, symObjAddr: 0x238F0, symBinAddr: 0x392C0, symSize: 0x20 }
  - { offsetInCU: 0x43F7F, offset: 0x9AF6D, size: 0x8, addend: 0x0, symName: __ZNSt3__19make_pairB7v160006IPmS1_EENS_4pairINS_18__unwrap_ref_decayIT_E4typeENS3_IT0_E4typeEEEOS4_OS7_, symObjAddr: 0x23910, symBinAddr: 0x392E0, symSize: 0x30 }
  - { offsetInCU: 0x43FCE, offset: 0x9AFBC, size: 0x8, addend: 0x0, symName: __ZNSt3__114__rewrap_rangeB7v160006IPmS1_S1_EET0_S2_T1_, symObjAddr: 0x23940, symBinAddr: 0x39310, symSize: 0x30 }
  - { offsetInCU: 0x44023, offset: 0x9B011, size: 0x8, addend: 0x0, symName: __ZNSt3__113__rewrap_iterB7v160006IPmS1_NS_18__unwrap_iter_implIS1_Lb1EEEEET_S4_T0_, symObjAddr: 0x23970, symBinAddr: 0x39340, symSize: 0x40 }
  - { offsetInCU: 0x440C8, offset: 0x9B0B6, size: 0x8, addend: 0x0, symName: __ZNSt3__119__copy_trivial_implB7v160006ImmEENS_4pairIPT_PT0_EES3_S3_S5_, symObjAddr: 0x23A60, symBinAddr: 0x39430, symSize: 0x70 }
  - { offsetInCU: 0x44130, offset: 0x9B11E, size: 0x8, addend: 0x0, symName: __ZNSt3__19make_pairB7v160006IRPmS1_EENS_4pairINS_18__unwrap_ref_decayIT_E4typeENS4_IT0_E4typeEEEOS5_OS8_, symObjAddr: 0x23AD0, symBinAddr: 0x394A0, symSize: 0x30 }
  - { offsetInCU: 0x441D2, offset: 0x9B1C0, size: 0x8, addend: 0x0, symName: __ZNSt3__118__debug_db_erase_cB7v160006INS_6vectorIN8pybind116handleENS_9allocatorIS3_EEEEEEvPT_, symObjAddr: 0x23D80, symBinAddr: 0x39750, symSize: 0x10 }
  - { offsetInCU: 0x4422A, offset: 0x9B218, size: 0x8, addend: 0x0, symName: __ZNSt3__112construct_atB7v160006IN8pybind116handleEJP7_objectEPS2_EEPT_S7_DpOT0_, symObjAddr: 0x24090, symBinAddr: 0x39A60, symSize: 0x40 }
  - { offsetInCU: 0x4429C, offset: 0x9B28A, size: 0x8, addend: 0x0, symName: __ZNSt3__112construct_atB7v160006IN8pybind116handleEJRKS2_EPS2_EEPT_S7_DpOT0_, symObjAddr: 0x24480, symBinAddr: 0x39E50, symSize: 0x30 }
  - { offsetInCU: 0x4430E, offset: 0x9B2FC, size: 0x8, addend: 0x0, symName: __ZNSt3__112construct_atB7v160006IN8pybind116handleEJS2_EPS2_EEPT_S5_DpOT0_, symObjAddr: 0x24700, symBinAddr: 0x3A0D0, symSize: 0x30 }
  - { offsetInCU: 0x44380, offset: 0x9B36E, size: 0x8, addend: 0x0, symName: __ZNSt3__14copyB7v160006INS_6vectorIbNS_9allocatorIbEEEELb1EEENS_14__bit_iteratorIT_Lb0EXLi0EEEENS5_IS6_XT0_EXLi0EEEES8_S7_, symObjAddr: 0x24D30, symBinAddr: 0x3A700, symSize: 0x100 }
  - { offsetInCU: 0x443E0, offset: 0x9B3CE, size: 0x8, addend: 0x0, symName: __ZNSt3__16fill_nB7v160006INS_6vectorIbNS_9allocatorIbEEEEEEvNS_14__bit_iteratorIT_Lb0EXLi0EEEENS6_9size_typeEb, symObjAddr: 0x24E90, symBinAddr: 0x3A860, symSize: 0x80 }
  - { offsetInCU: 0x44433, offset: 0x9B421, size: 0x8, addend: 0x0, symName: __ZNSt3__1miB7v160006ERKNS_14__bit_iteratorINS_6vectorIbNS_9allocatorIbEEEELb1ELm0EEES7_, symObjAddr: 0x25660, symBinAddr: 0x3B030, symSize: 0x40 }
  - { offsetInCU: 0x44470, offset: 0x9B45E, size: 0x8, addend: 0x0, symName: __ZNSt3__112__to_addressB7v160006IKmEEPT_S3_, symObjAddr: 0x256E0, symBinAddr: 0x3B0B0, symSize: 0x10 }
  - { offsetInCU: 0x444A5, offset: 0x9B493, size: 0x8, addend: 0x0, symName: __ZNSt3__14copyB7v160006IPKmPmEET0_T_S5_S4_, symObjAddr: 0x256F0, symBinAddr: 0x3B0C0, symSize: 0x40 }
  - { offsetInCU: 0x444FF, offset: 0x9B4ED, size: 0x8, addend: 0x0, symName: __ZNSt3__16__copyB7v160006INS_17_ClassicAlgPolicyEPKmS3_PmEENS_4pairIT0_T2_EES6_T1_S7_, symObjAddr: 0x25730, symBinAddr: 0x3B100, symSize: 0x40 }
  - { offsetInCU: 0x4456B, offset: 0x9B559, size: 0x8, addend: 0x0, symName: __ZNSt3__123__dispatch_copy_or_moveB7v160006INS_17_ClassicAlgPolicyENS_11__copy_loopIS1_EENS_14__copy_trivialEPKmS6_PmEENS_4pairIT2_T4_EES9_T3_SA_, symObjAddr: 0x25770, symBinAddr: 0x3B140, symSize: 0x40 }
  - { offsetInCU: 0x445E9, offset: 0x9B5D7, size: 0x8, addend: 0x0, symName: __ZNSt3__121__unwrap_and_dispatchB7v160006INS_10__overloadINS_11__copy_loopINS_17_ClassicAlgPolicyEEENS_14__copy_trivialEEEPKmS8_PmLi0EEENS_4pairIT0_T2_EESB_T1_SC_, symObjAddr: 0x257B0, symBinAddr: 0x3B180, symSize: 0xB0 }
  - { offsetInCU: 0x44679, offset: 0x9B667, size: 0x8, addend: 0x0, symName: __ZNSt3__114__unwrap_rangeB7v160006IPKmS2_EEDaT_T0_, symObjAddr: 0x25860, symBinAddr: 0x3B230, symSize: 0x40 }
  - { offsetInCU: 0x447CA, offset: 0x9B7B8, size: 0x8, addend: 0x0, symName: __ZNSt3__19make_pairB7v160006IPKmPmEENS_4pairINS_18__unwrap_ref_decayIT_E4typeENS5_IT0_E4typeEEEOS6_OS9_, symObjAddr: 0x258E0, symBinAddr: 0x3B2B0, symSize: 0x30 }
  - { offsetInCU: 0x44819, offset: 0x9B807, size: 0x8, addend: 0x0, symName: __ZNSt3__114__rewrap_rangeB7v160006IPKmS2_S2_EET0_S3_T1_, symObjAddr: 0x25910, symBinAddr: 0x3B2E0, symSize: 0x30 }
  - { offsetInCU: 0x4498B, offset: 0x9B979, size: 0x8, addend: 0x0, symName: __ZNSt3__113__unwrap_iterB7v160006IPKmNS_18__unwrap_iter_implIS2_Lb1EEELi0EEEDTclsrT0_8__unwrapclsr3stdE7declvalIT_EEEES6_, symObjAddr: 0x25990, symBinAddr: 0x3B360, symSize: 0x20 }
  - { offsetInCU: 0x44A23, offset: 0x9BA11, size: 0x8, addend: 0x0, symName: __ZNSt3__119__copy_trivial_implB7v160006IKmmEENS_4pairIPT_PT0_EES4_S4_S6_, symObjAddr: 0x25A30, symBinAddr: 0x3B400, symSize: 0x70 }
  - { offsetInCU: 0x44A8B, offset: 0x9BA79, size: 0x8, addend: 0x0, symName: __ZNSt3__19make_pairB7v160006IRPKmPmEENS_4pairINS_18__unwrap_ref_decayIT_E4typeENS6_IT0_E4typeEEEOS7_OSA_, symObjAddr: 0x25AA0, symBinAddr: 0x3B470, symSize: 0x30 }
  - { offsetInCU: 0x44ADA, offset: 0x9BAC8, size: 0x8, addend: 0x0, symName: __ZNSt3__113__rewrap_iterB7v160006IPKmS2_NS_18__unwrap_iter_implIS2_Lb1EEEEET_S5_T0_, symObjAddr: 0x25BC0, symBinAddr: 0x3B590, symSize: 0x40 }
  - { offsetInCU: 0x44B2F, offset: 0x9BB1D, size: 0x8, addend: 0x0, symName: __ZNSt3__16fill_nB7v160006IPmmmEET_S2_T0_RKT1_, symObjAddr: 0x25F80, symBinAddr: 0x3B950, symSize: 0x40 }
  - { offsetInCU: 0x44B92, offset: 0x9BB80, size: 0x8, addend: 0x0, symName: __ZNSt3__18__fill_nB7v160006IPmmmEET_S2_T0_RKT1_, symObjAddr: 0x25FC0, symBinAddr: 0x3B990, symSize: 0x50 }
  - { offsetInCU: 0x44BF5, offset: 0x9BBE3, size: 0x8, addend: 0x0, symName: __ZNSt3__16fill_nB7v160006IPmmiEET_S2_T0_RKT1_, symObjAddr: 0x26010, symBinAddr: 0x3B9E0, symSize: 0x40 }
  - { offsetInCU: 0x44C58, offset: 0x9BC46, size: 0x8, addend: 0x0, symName: __ZNSt3__18__fill_nB7v160006IPmmiEET_S2_T0_RKT1_, symObjAddr: 0x26050, symBinAddr: 0x3BA20, symSize: 0x50 }
  - { offsetInCU: 0x44CBB, offset: 0x9BCA9, size: 0x8, addend: 0x0, symName: __ZNSt3__14swapB7v160006IPmEENS_9enable_ifIXaasr21is_move_constructibleIT_EE5valuesr18is_move_assignableIS3_EE5valueEvE4typeERS3_S6_, symObjAddr: 0x260A0, symBinAddr: 0x3BA70, symSize: 0x40 }
  - { offsetInCU: 0x44D0C, offset: 0x9BCFA, size: 0x8, addend: 0x0, symName: __ZNSt3__116__swap_allocatorB7v160006INS_9allocatorImEEEEvRT_S4_NS_17integral_constantIbLb0EEE, symObjAddr: 0x260E0, symBinAddr: 0x3BAB0, symSize: 0x10 }
  - { offsetInCU: 0x44D4D, offset: 0x9BD3B, size: 0x8, addend: 0x0, symName: __ZNSt3__119__debug_db_insert_cB7v160006INS_13unordered_setIP7_objectNS_4hashIS3_EENS_8equal_toIS3_EENS_9allocatorIS3_EEEEEEvPT_, symObjAddr: 0x26250, symBinAddr: 0x3BC20, symSize: 0x10 }
  - { offsetInCU: 0x44D7E, offset: 0x9BD6C, size: 0x8, addend: 0x0, symName: __ZNSt3__118__debug_db_erase_cB7v160006INS_12__hash_tableIP7_objectNS_4hashIS3_EENS_8equal_toIS3_EENS_9allocatorIS3_EEEEEEvPT_, symObjAddr: 0x26850, symBinAddr: 0x3C220, symSize: 0x10 }
  - { offsetInCU: 0x44DE2, offset: 0x9BDD0, size: 0x8, addend: 0x0, symName: __ZNSt3__110destroy_atB7v160006IP7_objectLi0EEEvPT_, symObjAddr: 0x26960, symBinAddr: 0x3C330, symSize: 0x20 }
  - { offsetInCU: 0x44E1A, offset: 0x9BE08, size: 0x8, addend: 0x0, symName: __ZNSt3__112__destroy_atB7v160006IP7_objectLi0EEEvPT_, symObjAddr: 0x26980, symBinAddr: 0x3C350, symSize: 0x10 }
  - { offsetInCU: 0x44E52, offset: 0x9BE40, size: 0x8, addend: 0x0, symName: __ZNSt3__1neB7v160006ERKNS_21__hash_const_iteratorIPNS_11__hash_nodeIP7_objectPvEEEES9_, symObjAddr: 0x26D80, symBinAddr: 0x3C750, symSize: 0x30 }
  - { offsetInCU: 0x44E8F, offset: 0x9BE7D, size: 0x8, addend: 0x0, symName: __ZNSt3__1eqB7v160006ERKNS_21__hash_const_iteratorIPNS_11__hash_nodeIP7_objectPvEEEES9_, symObjAddr: 0x26F10, symBinAddr: 0x3C8E0, symSize: 0x30 }
  - { offsetInCU: 0x44ECC, offset: 0x9BEBA, size: 0x8, addend: 0x0, symName: __ZNSt3__112__to_addressB7v160006IN8pybind116detail13function_callEEEPT_S5_, symObjAddr: 0x27170, symBinAddr: 0x3CB40, symSize: 0x10 }
  - { offsetInCU: 0x44F28, offset: 0x9BF16, size: 0x8, addend: 0x0, symName: __ZNSt3__112construct_atB7v160006IN8pybind116detail13function_callEJS3_EPS3_EEPT_S6_DpOT0_, symObjAddr: 0x271E0, symBinAddr: 0x3CBB0, symSize: 0x40 }
  - { offsetInCU: 0x44F9A, offset: 0x9BF88, size: 0x8, addend: 0x0, symName: __ZNSt3__115__debug_db_swapB7v160006INS_6vectorIN8pybind116handleENS_9allocatorIS3_EEEEEEvPT_S8_, symObjAddr: 0x27450, symBinAddr: 0x3CE20, symSize: 0x10 }
  - { offsetInCU: 0x44FD9, offset: 0x9BFC7, size: 0x8, addend: 0x0, symName: __ZNSt3__119__allocate_at_leastB7v160006INS_9allocatorIN8pybind116detail13function_callEEEEENS_19__allocation_resultINS_16allocator_traitsIT_E7pointerEEERS8_m, symObjAddr: 0x27A50, symBinAddr: 0x3D420, symSize: 0x40 }
  - { offsetInCU: 0x4501C, offset: 0x9C00A, size: 0x8, addend: 0x0, symName: __ZNSt3__142__uninitialized_allocator_move_if_noexceptB7v160006INS_9allocatorIN8pybind116detail13function_callEEENS_16reverse_iteratorIPS4_EES8_S8_EET2_RT_T0_T1_S9_, symObjAddr: 0x27C90, symBinAddr: 0x3D660, symSize: 0x180 }
  - { offsetInCU: 0x450BB, offset: 0x9C0A9, size: 0x8, addend: 0x0, symName: __ZNSt3__14swapB7v160006IPN8pybind116detail13function_callEEENS_9enable_ifIXaasr21is_move_constructibleIT_EE5valuesr18is_move_assignableIS6_EE5valueEvE4typeERS6_S9_, symObjAddr: 0x27E60, symBinAddr: 0x3D830, symSize: 0x40 }
  - { offsetInCU: 0x4510C, offset: 0x9C0FA, size: 0x8, addend: 0x0, symName: __ZNSt3__125__debug_db_invalidate_allB7v160006INS_6vectorIN8pybind116detail13function_callENS_9allocatorIS4_EEEEEEvPT_, symObjAddr: 0x27F40, symBinAddr: 0x3D910, symSize: 0x10 }
  - { offsetInCU: 0x4513D, offset: 0x9C12B, size: 0x8, addend: 0x0, symName: __ZNSt3__122__make_exception_guardB7v160006INS_29_AllocatorDestroyRangeReverseINS_9allocatorIN8pybind116detail13function_callEEENS_16reverse_iteratorIPS5_EEEEEENS_28__exception_guard_exceptionsIT_EESC_, symObjAddr: 0x27F90, symBinAddr: 0x3D960, symSize: 0x60 }
  - { offsetInCU: 0x45172, offset: 0x9C160, size: 0x8, addend: 0x0, symName: __ZNSt3__1neB7v160006IPN8pybind116detail13function_callES4_EEbRKNS_16reverse_iteratorIT_EERKNS5_IT0_EE, symObjAddr: 0x28030, symBinAddr: 0x3DA00, symSize: 0x40 }
  - { offsetInCU: 0x451BE, offset: 0x9C1AC, size: 0x8, addend: 0x0, symName: __ZNSt3__112__to_addressB7v160006INS_16reverse_iteratorIPN8pybind116detail13function_callEEEvEENS_5decayIDTclsr19__to_address_helperIT_EE6__callclsr3stdE7declvalIRKS8_EEEEE4typeESA_, symObjAddr: 0x28070, symBinAddr: 0x3DA40, symSize: 0x20 }
  - { offsetInCU: 0x4521F, offset: 0x9C20D, size: 0x8, addend: 0x0, symName: __ZNSt3__14prevB7v160006IPN8pybind116detail13function_callEEENS_9enable_ifIXsr25__is_cpp17_input_iteratorIT_EE5valueES6_E4typeES6_NS_15iterator_traitsIS6_E15difference_typeE, symObjAddr: 0x28240, symBinAddr: 0x3DC10, symSize: 0x50 }
  - { offsetInCU: 0x45262, offset: 0x9C250, size: 0x8, addend: 0x0, symName: __ZNSt3__19__advanceB7v160006IPN8pybind116detail13function_callEEEvRT_NS_15iterator_traitsIS5_E15difference_typeENS_26random_access_iterator_tagE, symObjAddr: 0x282F0, symBinAddr: 0x3DCB0, symSize: 0x20 }
  - { offsetInCU: 0x452AB, offset: 0x9C299, size: 0x8, addend: 0x0, symName: __ZNSt3__119__allocator_destroyB7v160006INS_9allocatorIN8pybind116detail13function_callEEENS_16reverse_iteratorINS6_IPS4_EEEES9_EEvRT_T0_T1_, symObjAddr: 0x28440, symBinAddr: 0x3DE00, symSize: 0x70 }
  - { offsetInCU: 0x4530F, offset: 0x9C2FD, size: 0x8, addend: 0x0, symName: __ZNSt3__1neB7v160006INS_16reverse_iteratorIPN8pybind116detail13function_callEEES6_EEbRKNS1_IT_EERKNS1_IT0_EE, symObjAddr: 0x284E0, symBinAddr: 0x3DEA0, symSize: 0x50 }
  - { offsetInCU: 0x4535B, offset: 0x9C349, size: 0x8, addend: 0x0, symName: __ZNSt3__112__to_addressB7v160006INS_16reverse_iteratorINS1_IPN8pybind116detail13function_callEEEEEvEENS_5decayIDTclsr19__to_address_helperIT_EE6__callclsr3stdE7declvalIRKS9_EEEEE4typeESB_, symObjAddr: 0x28550, symBinAddr: 0x3DF10, symSize: 0x20 }
  - { offsetInCU: 0x45392, offset: 0x9C380, size: 0x8, addend: 0x0, symName: __ZNSt3__110destroy_atB7v160006IN8pybind116detail13function_callELi0EEEvPT_, symObjAddr: 0x285C0, symBinAddr: 0x3DF80, symSize: 0x20 }
  - { offsetInCU: 0x453CA, offset: 0x9C3B8, size: 0x8, addend: 0x0, symName: __ZNSt3__112__destroy_atB7v160006IN8pybind116detail13function_callELi0EEEvPT_, symObjAddr: 0x285E0, symBinAddr: 0x3DFA0, symSize: 0x20 }
  - { offsetInCU: 0x4542C, offset: 0x9C41A, size: 0x8, addend: 0x0, symName: __ZNSt3__14prevB7v160006INS_16reverse_iteratorIPN8pybind116detail13function_callEEEEENS_9enable_ifIXsr25__is_cpp17_input_iteratorIT_EE5valueES8_E4typeES8_NS_15iterator_traitsIS8_E15difference_typeE, symObjAddr: 0x28690, symBinAddr: 0x3E050, symSize: 0x60 }
  - { offsetInCU: 0x4546F, offset: 0x9C45D, size: 0x8, addend: 0x0, symName: __ZNSt3__19__advanceB7v160006INS_16reverse_iteratorIPN8pybind116detail13function_callEEEEEvRT_NS_15iterator_traitsIS7_E15difference_typeENS_26random_access_iterator_tagE, symObjAddr: 0x28740, symBinAddr: 0x3E100, symSize: 0x30 }
  - { offsetInCU: 0x454B8, offset: 0x9C4A6, size: 0x8, addend: 0x0, symName: __ZNSt3__125__debug_db_invalidate_allB7v160006INS_6vectorIbNS_9allocatorIbEEE16__destroy_vectorEEEvPT_, symObjAddr: 0x28B90, symBinAddr: 0x3E550, symSize: 0x10 }
  - { offsetInCU: 0x454E9, offset: 0x9C4D7, size: 0x8, addend: 0x0, symName: __ZNSt3__1eqB7v160006IPN8pybind116detail13function_callEEEbRKNS_11__wrap_iterIT_EES9_, symObjAddr: 0x28CB0, symBinAddr: 0x3E670, symSize: 0x40 }
  - { offsetInCU: 0x4552C, offset: 0x9C51A, size: 0x8, addend: 0x0, symName: __ZNSt3__118__debug_db_erase_cB7v160006INS_6vectorIN8pybind116detail13function_callENS_9allocatorIS4_EEEEEEvPT_, symObjAddr: 0x28E30, symBinAddr: 0x3E7F0, symSize: 0x10 }
  - { offsetInCU: 0x4555D, offset: 0x9C54B, size: 0x8, addend: 0x0, symName: __ZNSt3__1neB7v160006ERKNS_23__forward_list_iteratorIPNS_19__forward_list_nodeIPFvSt13exception_ptrEPvEEEESA_, symObjAddr: 0x28F40, symBinAddr: 0x3E900, symSize: 0x30 }
  - { offsetInCU: 0x4559A, offset: 0x9C588, size: 0x8, addend: 0x0, symName: __ZNSt3__1eqB7v160006ERKNS_23__forward_list_iteratorIPNS_19__forward_list_nodeIPFvSt13exception_ptrEPvEEEESA_, symObjAddr: 0x290A0, symBinAddr: 0x3EA60, symSize: 0x30 }
  - { offsetInCU: 0x455D7, offset: 0x9C5C5, size: 0x8, addend: 0x0, symName: __ZNSt3__111__str_rfindB7v160006IcmNS_11char_traitsIcEELm18446744073709551615EEET0_PKT_S3_S6_S3_S3_, symObjAddr: 0x290F0, symBinAddr: 0x3EAB0, symSize: 0x100 }
  - { offsetInCU: 0x4567E, offset: 0x9C66C, size: 0x8, addend: 0x0, symName: __ZNSt3__118__find_end_classicB7v160006IPKcS2_DoFbccEEET_S4_S4_T0_S5_RT1_, symObjAddr: 0x291F0, symBinAddr: 0x3EBB0, symSize: 0x60 }
  - { offsetInCU: 0x4570B, offset: 0x9C6F9, size: 0x8, addend: 0x0, symName: __ZNSt3__115__find_end_implB7v160006INS_17_ClassicAlgPolicyEPKcS3_S3_S3_DoFbccENS_10__identityES5_EENS_4pairIT0_S7_EES7_T1_T2_T3_RT4_RT5_RT6_NS_20forward_iterator_tagESI_, symObjAddr: 0x29280, symBinAddr: 0x3EC40, symSize: 0x1E0 }
  - { offsetInCU: 0x45833, offset: 0x9C821, size: 0x8, addend: 0x0, symName: __ZNSt3__18__invokeB7v160006IRDoFbccEJRKcS4_EEEDTclclsr3stdE7declvalIT_EEspclsr3stdE7declvalIT0_EEEEOS5_DpOS6_, symObjAddr: 0x294B0, symBinAddr: 0x3EE70, symSize: 0x40 }
  - { offsetInCU: 0x45898, offset: 0x9C886, size: 0x8, addend: 0x0, symName: __ZNSt3__18__invokeB7v160006IRNS_10__identityEJRKcEEEDTclclsr3stdE7declvalIT_EEspclsr3stdE7declvalIT0_EEEEOS5_DpOS6_, symObjAddr: 0x294F0, symBinAddr: 0x3EEB0, symSize: 0x30 }
  - { offsetInCU: 0x45BEF, offset: 0x9CBDD, size: 0x8, addend: 0x0, symName: __ZNSt3__118__debug_db_erase_cB7v160006INS_6vectorIN8pybind116detail15argument_recordENS_9allocatorIS4_EEEEEEvPT_, symObjAddr: 0x2AA90, symBinAddr: 0x40450, symSize: 0x10 }
  - { offsetInCU: 0x45C20, offset: 0x9CC0E, size: 0x8, addend: 0x0, symName: __ZNSt3__1neB7v160006IPPcEEbRKNS_11__wrap_iterIT_EES7_, symObjAddr: 0x2B1C0, symBinAddr: 0x40B80, symSize: 0x30 }
  - { offsetInCU: 0x45C63, offset: 0x9CC51, size: 0x8, addend: 0x0, symName: __ZNSt3__1eqB7v160006IPPcEEbRKNS_11__wrap_iterIT_EES7_, symObjAddr: 0x2B2D0, symBinAddr: 0x40C90, symSize: 0x40 }
  - { offsetInCU: 0x45CA6, offset: 0x9CC94, size: 0x8, addend: 0x0, symName: __ZNSt3__118__debug_db_erase_cB7v160006INS_6vectorIPcNS_9allocatorIS2_EEEEEEvPT_, symObjAddr: 0x2B450, symBinAddr: 0x40E10, symSize: 0x10 }
  - { offsetInCU: 0x45CD7, offset: 0x9CCC5, size: 0x8, addend: 0x0, symName: __ZNSt3__1neB7v160006ERKNS_25__hash_map_const_iteratorINS_21__hash_const_iteratorIPNS_11__hash_nodeINS_17__hash_value_typeIP11_typeobjectNS_6vectorIPN8pybind116detail9type_infoENS_9allocatorISA_EEEEEEPvEEEEEESL_, symObjAddr: 0x2B8D0, symBinAddr: 0x41290, symSize: 0x30 }
  - { offsetInCU: 0x45D14, offset: 0x9CD02, size: 0x8, addend: 0x0, symName: __ZNSt3__1neB7v160006IPKPN8pybind116detail9type_infoEEEbRKNS_11__wrap_iterIT_EESB_, symObjAddr: 0x2B9C0, symBinAddr: 0x41380, symSize: 0x30 }
  - { offsetInCU: 0x45D57, offset: 0x9CD45, size: 0x8, addend: 0x0, symName: __ZNSt3__1neB7v160006IPPN8pybind116detail9type_infoEEEbRKNS_11__wrap_iterIT_EESA_, symObjAddr: 0x2BA70, symBinAddr: 0x41430, symSize: 0x30 }
  - { offsetInCU: 0x45D9A, offset: 0x9CD88, size: 0x8, addend: 0x0, symName: __ZNSt3__119__debug_db_insert_cB7v160006INS_6vectorIP11_typeobjectNS_9allocatorIS3_EEEEEEvPT_, symObjAddr: 0x2BCB0, symBinAddr: 0x41670, symSize: 0x10 }
  - { offsetInCU: 0x45DCB, offset: 0x9CDB9, size: 0x8, addend: 0x0, symName: __ZNSt3__112__to_addressB7v160006IP11_typeobjectEEPT_S4_, symObjAddr: 0x2C130, symBinAddr: 0x41AF0, symSize: 0x10 }
  - { offsetInCU: 0x45E27, offset: 0x9CE15, size: 0x8, addend: 0x0, symName: __ZNSt3__112construct_atB7v160006IP11_typeobjectJS2_EPS2_EEPT_S5_DpOT0_, symObjAddr: 0x2C1A0, symBinAddr: 0x41B60, symSize: 0x30 }
  - { offsetInCU: 0x45E99, offset: 0x9CE87, size: 0x8, addend: 0x0, symName: __ZNSt3__119__allocate_at_leastB7v160006INS_9allocatorIP11_typeobjectEEEENS_19__allocation_resultINS_16allocator_traitsIT_E7pointerEEERS7_m, symObjAddr: 0x2C6C0, symBinAddr: 0x42080, symSize: 0x40 }
  - { offsetInCU: 0x45EDC, offset: 0x9CECA, size: 0x8, addend: 0x0, symName: __ZNSt3__142__uninitialized_allocator_move_if_noexceptB7v160006INS_9allocatorIP11_typeobjectEENS_16reverse_iteratorIPS3_EES7_S3_vEET1_RT_T0_SB_S8_, symObjAddr: 0x2C900, symBinAddr: 0x422C0, symSize: 0x70 }
  - { offsetInCU: 0x45F59, offset: 0x9CF47, size: 0x8, addend: 0x0, symName: __ZNSt3__14swapB7v160006IPP11_typeobjectEENS_9enable_ifIXaasr21is_move_constructibleIT_EE5valuesr18is_move_assignableIS5_EE5valueEvE4typeERS5_S8_, symObjAddr: 0x2C9C0, symBinAddr: 0x42380, symSize: 0x40 }
  - { offsetInCU: 0x45FAA, offset: 0x9CF98, size: 0x8, addend: 0x0, symName: __ZNSt3__125__debug_db_invalidate_allB7v160006INS_6vectorIP11_typeobjectNS_9allocatorIS3_EEEEEEvPT_, symObjAddr: 0x2CAB0, symBinAddr: 0x42470, symSize: 0x10 }
  - { offsetInCU: 0x45FDB, offset: 0x9CFC9, size: 0x8, addend: 0x0, symName: __ZNSt3__14moveB7v160006INS_16reverse_iteratorIPP11_typeobjectEES5_EET0_T_S7_S6_, symObjAddr: 0x2CB00, symBinAddr: 0x424C0, symSize: 0x80 }
  - { offsetInCU: 0x46035, offset: 0x9D023, size: 0x8, addend: 0x0, symName: __ZNSt3__16__moveB7v160006INS_17_ClassicAlgPolicyENS_16reverse_iteratorIPP11_typeobjectEES6_S6_EENS_4pairIT0_T2_EES8_T1_S9_, symObjAddr: 0x2CB80, symBinAddr: 0x42540, symSize: 0x90 }
  - { offsetInCU: 0x460A1, offset: 0x9D08F, size: 0x8, addend: 0x0, symName: __ZNSt3__123__dispatch_copy_or_moveB7v160006INS_17_ClassicAlgPolicyENS_11__move_loopIS1_EENS_14__move_trivialENS_16reverse_iteratorIPP11_typeobjectEES9_S9_EENS_4pairIT2_T4_EESB_T3_SC_, symObjAddr: 0x2CC10, symBinAddr: 0x425D0, symSize: 0x90 }
  - { offsetInCU: 0x4611F, offset: 0x9D10D, size: 0x8, addend: 0x0, symName: __ZNSt3__121__unwrap_and_dispatchB7v160006INS_10__overloadINS_11__move_loopINS_17_ClassicAlgPolicyEEENS_14__move_trivialEEENS_16reverse_iteratorIPP11_typeobjectEESB_SB_Li0EEENS_4pairIT0_T2_EESD_T1_SE_, symObjAddr: 0x2CCA0, symBinAddr: 0x42660, symSize: 0x210 }
  - { offsetInCU: 0x461AF, offset: 0x9D19D, size: 0x8, addend: 0x0, symName: __ZNSt3__114__unwrap_rangeB7v160006INS_16reverse_iteratorIPP11_typeobjectEES5_EEDaT_T0_, symObjAddr: 0x2CEB0, symBinAddr: 0x42870, symSize: 0x60 }
  - { offsetInCU: 0x462D0, offset: 0x9D2BE, size: 0x8, addend: 0x0, symName: __ZNSt3__113__unwrap_iterB7v160006INS_16reverse_iteratorIPP11_typeobjectEENS_18__unwrap_iter_implIS5_Lb0EEELi0EEEDTclsrT0_8__unwrapclsr3stdE7declvalIT_EEEES9_, symObjAddr: 0x2CFB0, symBinAddr: 0x42970, symSize: 0x40 }
  - { offsetInCU: 0x46315, offset: 0x9D303, size: 0x8, addend: 0x0, symName: __ZNSt3__19make_pairB7v160006INS_16reverse_iteratorIPP11_typeobjectEES5_EENS_4pairINS_18__unwrap_ref_decayIT_E4typeENS7_IT0_E4typeEEEOS8_OSB_, symObjAddr: 0x2CFF0, symBinAddr: 0x429B0, symSize: 0x30 }
  - { offsetInCU: 0x46364, offset: 0x9D352, size: 0x8, addend: 0x0, symName: __ZNSt3__114__rewrap_rangeB7v160006INS_16reverse_iteratorIPP11_typeobjectEES5_S5_EET0_S6_T1_, symObjAddr: 0x2D020, symBinAddr: 0x429E0, symSize: 0x60 }
  - { offsetInCU: 0x463B9, offset: 0x9D3A7, size: 0x8, addend: 0x0, symName: __ZNSt3__113__rewrap_iterB7v160006INS_16reverse_iteratorIPP11_typeobjectEES5_NS_18__unwrap_iter_implIS5_Lb0EEEEET_S8_T0_, symObjAddr: 0x2D080, symBinAddr: 0x42A40, symSize: 0x70 }
  - { offsetInCU: 0x4645E, offset: 0x9D44C, size: 0x8, addend: 0x0, symName: __ZNSt3__1neB7v160006IPP11_typeobjectS3_EEbRKNS_16reverse_iteratorIT_EERKNS4_IT0_EE, symObjAddr: 0x2D1F0, symBinAddr: 0x42BB0, symSize: 0x40 }
  - { offsetInCU: 0x46517, offset: 0x9D505, size: 0x8, addend: 0x0, symName: __ZNSt3__110destroy_atB7v160006IP11_typeobjectLi0EEEvPT_, symObjAddr: 0x2D550, symBinAddr: 0x42F10, symSize: 0x20 }
  - { offsetInCU: 0x4654F, offset: 0x9D53D, size: 0x8, addend: 0x0, symName: __ZNSt3__112__destroy_atB7v160006IP11_typeobjectLi0EEEvPT_, symObjAddr: 0x2D570, symBinAddr: 0x42F30, symSize: 0x10 }
  - { offsetInCU: 0x46587, offset: 0x9D575, size: 0x8, addend: 0x0, symName: __ZNSt3__1neB7v160006ERKNS_21__hash_const_iteratorIPNS_11__hash_nodeINS_17__hash_value_typeIP11_typeobjectNS_6vectorIPN8pybind116detail9type_infoENS_9allocatorIS9_EEEEEEPvEEEESJ_, symObjAddr: 0x2D920, symBinAddr: 0x432E0, symSize: 0x30 }
  - { offsetInCU: 0x465C4, offset: 0x9D5B2, size: 0x8, addend: 0x0, symName: __ZNSt3__1eqB7v160006ERKNS_21__hash_const_iteratorIPNS_11__hash_nodeINS_17__hash_value_typeIP11_typeobjectNS_6vectorIPN8pybind116detail9type_infoENS_9allocatorIS9_EEEEEEPvEEEESJ_, symObjAddr: 0x2D950, symBinAddr: 0x43310, symSize: 0x30 }
  - { offsetInCU: 0x46667, offset: 0x9D655, size: 0x8, addend: 0x0, symName: __ZNSt3__1eqB7v160006IPKPN8pybind116detail9type_infoEEEbRKNS_11__wrap_iterIT_EESB_, symObjAddr: 0x2DA50, symBinAddr: 0x43410, symSize: 0x40 }
  - { offsetInCU: 0x466AA, offset: 0x9D698, size: 0x8, addend: 0x0, symName: __ZNSt3__1eqB7v160006IPPN8pybind116detail9type_infoEEEbRKNS_11__wrap_iterIT_EESA_, symObjAddr: 0x2DB30, symBinAddr: 0x434F0, symSize: 0x40 }
  - { offsetInCU: 0x466ED, offset: 0x9D6DB, size: 0x8, addend: 0x0, symName: __ZNSt3__1miB7v160006IPKPN8pybind116detail9type_infoEPS4_EEDTmicldtfp_4baseEcldtfp0_4baseEERKNS_11__wrap_iterIT_EERKNS9_IT0_EE, symObjAddr: 0x2DE50, symBinAddr: 0x43810, symSize: 0x40 }
  - { offsetInCU: 0x46793, offset: 0x9D781, size: 0x8, addend: 0x0, symName: __ZNSt3__112construct_atB7v160006IPN8pybind116detail9type_infoEJRKS4_EPS4_EEPT_S9_DpOT0_, symObjAddr: 0x2E670, symBinAddr: 0x44030, symSize: 0x30 }
  - { offsetInCU: 0x46805, offset: 0x9D7F3, size: 0x8, addend: 0x0, symName: __ZNSt3__113move_backwardB7v160006IPPN8pybind116detail9type_infoES5_EET0_T_S7_S6_, symObjAddr: 0x2E6F0, symBinAddr: 0x440B0, symSize: 0x40 }
  - { offsetInCU: 0x4685F, offset: 0x9D84D, size: 0x8, addend: 0x0, symName: __ZNSt3__112construct_atB7v160006IPN8pybind116detail9type_infoEJS4_EPS4_EEPT_S7_DpOT0_, symObjAddr: 0x2E730, symBinAddr: 0x440F0, symSize: 0x30 }
  - { offsetInCU: 0x468D1, offset: 0x9D8BF, size: 0x8, addend: 0x0, symName: __ZNSt3__115__move_backwardB7v160006INS_17_ClassicAlgPolicyEPPN8pybind116detail9type_infoES6_S6_EENS_4pairIT0_T2_EES8_T1_S9_, symObjAddr: 0x2E760, symBinAddr: 0x44120, symSize: 0x40 }
  - { offsetInCU: 0x4693D, offset: 0x9D92B, size: 0x8, addend: 0x0, symName: __ZNSt3__123__dispatch_copy_or_moveB7v160006INS_17_ClassicAlgPolicyENS_20__move_backward_loopIS1_EENS_23__move_backward_trivialEPPN8pybind116detail9type_infoES9_S9_EENS_4pairIT2_T4_EESB_T3_SC_, symObjAddr: 0x2E7A0, symBinAddr: 0x44160, symSize: 0x40 }
  - { offsetInCU: 0x469BB, offset: 0x9D9A9, size: 0x8, addend: 0x0, symName: __ZNSt3__121__unwrap_and_dispatchB7v160006INS_10__overloadINS_20__move_backward_loopINS_17_ClassicAlgPolicyEEENS_23__move_backward_trivialEEEPPN8pybind116detail9type_infoESB_SB_Li0EEENS_4pairIT0_T2_EESD_T1_SE_, symObjAddr: 0x2E7E0, symBinAddr: 0x441A0, symSize: 0xB0 }
  - { offsetInCU: 0x46A4B, offset: 0x9DA39, size: 0x8, addend: 0x0, symName: __ZNSt3__114__unwrap_rangeB7v160006IPPN8pybind116detail9type_infoES5_EEDaT_T0_, symObjAddr: 0x2E890, symBinAddr: 0x44250, symSize: 0x40 }
  - { offsetInCU: 0x46C13, offset: 0x9DC01, size: 0x8, addend: 0x0, symName: __ZNSt3__113__unwrap_iterB7v160006IPPN8pybind116detail9type_infoENS_18__unwrap_iter_implIS5_Lb1EEELi0EEEDTclsrT0_8__unwrapclsr3stdE7declvalIT_EEEES9_, symObjAddr: 0x2E910, symBinAddr: 0x442D0, symSize: 0x20 }
  - { offsetInCU: 0x46C58, offset: 0x9DC46, size: 0x8, addend: 0x0, symName: __ZNSt3__19make_pairB7v160006IPPN8pybind116detail9type_infoES5_EENS_4pairINS_18__unwrap_ref_decayIT_E4typeENS7_IT0_E4typeEEEOS8_OSB_, symObjAddr: 0x2E930, symBinAddr: 0x442F0, symSize: 0x30 }
  - { offsetInCU: 0x46CA7, offset: 0x9DC95, size: 0x8, addend: 0x0, symName: __ZNSt3__114__rewrap_rangeB7v160006IPPN8pybind116detail9type_infoES5_S5_EET0_S6_T1_, symObjAddr: 0x2E960, symBinAddr: 0x44320, symSize: 0x30 }
  - { offsetInCU: 0x46CFC, offset: 0x9DCEA, size: 0x8, addend: 0x0, symName: __ZNSt3__113__rewrap_iterB7v160006IPPN8pybind116detail9type_infoES5_NS_18__unwrap_iter_implIS5_Lb1EEEEET_S8_T0_, symObjAddr: 0x2E990, symBinAddr: 0x44350, symSize: 0x40 }
  - { offsetInCU: 0x46DA1, offset: 0x9DD8F, size: 0x8, addend: 0x0, symName: __ZNSt3__128__copy_backward_trivial_implB7v160006IPN8pybind116detail9type_infoES4_EENS_4pairIPT_PT0_EES7_S7_S9_, symObjAddr: 0x2EA80, symBinAddr: 0x44440, symSize: 0x80 }
  - { offsetInCU: 0x46E09, offset: 0x9DDF7, size: 0x8, addend: 0x0, symName: __ZNSt3__19make_pairB7v160006IRPPN8pybind116detail9type_infoES6_EENS_4pairINS_18__unwrap_ref_decayIT_E4typeENS8_IT0_E4typeEEEOS9_OSC_, symObjAddr: 0x2EB00, symBinAddr: 0x444C0, symSize: 0x30 }
  - { offsetInCU: 0x46EAB, offset: 0x9DE99, size: 0x8, addend: 0x0, symName: __ZNSt3__119__allocate_at_leastB7v160006INS_9allocatorIPN8pybind116detail9type_infoEEEEENS_19__allocation_resultINS_16allocator_traitsIT_E7pointerEEERS9_m, symObjAddr: 0x2EE20, symBinAddr: 0x447E0, symSize: 0x40 }
  - { offsetInCU: 0x46EEE, offset: 0x9DEDC, size: 0x8, addend: 0x0, symName: __ZNSt3__14moveB7v160006IPPN8pybind116detail9type_infoES5_EET0_T_S7_S6_, symObjAddr: 0x2EFB0, symBinAddr: 0x44970, symSize: 0x40 }
  - { offsetInCU: 0x46F48, offset: 0x9DF36, size: 0x8, addend: 0x0, symName: __ZNSt3__14swapB7v160006IPPN8pybind116detail9type_infoEEENS_9enable_ifIXaasr21is_move_constructibleIT_EE5valuesr18is_move_assignableIS7_EE5valueEvE4typeERS7_SA_, symObjAddr: 0x2F120, symBinAddr: 0x44AE0, symSize: 0x40 }
  - { offsetInCU: 0x46F99, offset: 0x9DF87, size: 0x8, addend: 0x0, symName: __ZNSt3__16__moveB7v160006INS_17_ClassicAlgPolicyEPPN8pybind116detail9type_infoES6_S6_EENS_4pairIT0_T2_EES8_T1_S9_, symObjAddr: 0x2F160, symBinAddr: 0x44B20, symSize: 0x40 }
  - { offsetInCU: 0x47005, offset: 0x9DFF3, size: 0x8, addend: 0x0, symName: __ZNSt3__123__dispatch_copy_or_moveB7v160006INS_17_ClassicAlgPolicyENS_11__move_loopIS1_EENS_14__move_trivialEPPN8pybind116detail9type_infoES9_S9_EENS_4pairIT2_T4_EESB_T3_SC_, symObjAddr: 0x2F1A0, symBinAddr: 0x44B60, symSize: 0x40 }
  - { offsetInCU: 0x47083, offset: 0x9E071, size: 0x8, addend: 0x0, symName: __ZNSt3__121__unwrap_and_dispatchB7v160006INS_10__overloadINS_11__move_loopINS_17_ClassicAlgPolicyEEENS_14__move_trivialEEEPPN8pybind116detail9type_infoESB_SB_Li0EEENS_4pairIT0_T2_EESD_T1_SE_, symObjAddr: 0x2F1E0, symBinAddr: 0x44BA0, symSize: 0xB0 }
  - { offsetInCU: 0x4715A, offset: 0x9E148, size: 0x8, addend: 0x0, symName: __ZNSt3__119__copy_trivial_implB7v160006IPN8pybind116detail9type_infoES4_EENS_4pairIPT_PT0_EES7_S7_S9_, symObjAddr: 0x2F2D0, symBinAddr: 0x44C90, symSize: 0x70 }
  - { offsetInCU: 0x471C2, offset: 0x9E1B0, size: 0x8, addend: 0x0, symName: __ZNSt3__19make_pairB7v160006IRPPN8pybind116detail9type_infoES5_EENS_4pairINS_18__unwrap_ref_decayIT_E4typeENS8_IT0_E4typeEEEOS9_OSC_, symObjAddr: 0x2F340, symBinAddr: 0x44D00, symSize: 0x30 }
  - { offsetInCU: 0x47211, offset: 0x9E1FF, size: 0x8, addend: 0x0, symName: __ZNSt3__18distanceB7v160006INS_13move_iteratorIPPN8pybind116detail9type_infoEEEEENS_15iterator_traitsIT_E15difference_typeES9_S9_, symObjAddr: 0x2F3D0, symBinAddr: 0x44D90, symSize: 0x40 }
  - { offsetInCU: 0x47254, offset: 0x9E242, size: 0x8, addend: 0x0, symName: __ZNSt3__110__distanceB7v160006INS_13move_iteratorIPPN8pybind116detail9type_infoEEEEENS_15iterator_traitsIT_E15difference_typeES9_S9_NS_26random_access_iterator_tagE, symObjAddr: 0x2F4B0, symBinAddr: 0x44E70, symSize: 0x30 }
  - { offsetInCU: 0x472A1, offset: 0x9E28F, size: 0x8, addend: 0x0, symName: __ZNSt3__1miB7v160006IPPN8pybind116detail9type_infoES5_EEDTmicldtfp_4baseEcldtfp0_4baseEERKNS_13move_iteratorIT_EERKNS7_IT0_EE, symObjAddr: 0x2F4E0, symBinAddr: 0x44EA0, symSize: 0x40 }
  - { offsetInCU: 0x472F0, offset: 0x9E2DE, size: 0x8, addend: 0x0, symName: __ZNSt3__142__uninitialized_allocator_move_if_noexceptB7v160006INS_9allocatorIPN8pybind116detail9type_infoEEENS_16reverse_iteratorIPS5_EES9_S5_vEET1_RT_T0_SD_SA_, symObjAddr: 0x2F5D0, symBinAddr: 0x44F90, symSize: 0x70 }
  - { offsetInCU: 0x4736D, offset: 0x9E35B, size: 0x8, addend: 0x0, symName: __ZNSt3__142__uninitialized_allocator_move_if_noexceptB7v160006INS_9allocatorIPN8pybind116detail9type_infoEEEPS5_S7_S5_vEET1_RT_T0_SB_S8_, symObjAddr: 0x2F690, symBinAddr: 0x45050, symSize: 0x30 }
  - { offsetInCU: 0x473EA, offset: 0x9E3D8, size: 0x8, addend: 0x0, symName: __ZNSt3__125__debug_db_invalidate_allB7v160006INS_6vectorIPN8pybind116detail9type_infoENS_9allocatorIS5_EEEEEEvPT_, symObjAddr: 0x2F770, symBinAddr: 0x45130, symSize: 0x10 }
  - { offsetInCU: 0x4741B, offset: 0x9E409, size: 0x8, addend: 0x0, symName: __ZNSt3__14moveB7v160006INS_16reverse_iteratorIPPN8pybind116detail9type_infoEEES7_EET0_T_S9_S8_, symObjAddr: 0x2F780, symBinAddr: 0x45140, symSize: 0x80 }
  - { offsetInCU: 0x47475, offset: 0x9E463, size: 0x8, addend: 0x0, symName: __ZNSt3__16__moveB7v160006INS_17_ClassicAlgPolicyENS_16reverse_iteratorIPPN8pybind116detail9type_infoEEES8_S8_EENS_4pairIT0_T2_EESA_T1_SB_, symObjAddr: 0x2F800, symBinAddr: 0x451C0, symSize: 0x90 }
  - { offsetInCU: 0x474E1, offset: 0x9E4CF, size: 0x8, addend: 0x0, symName: __ZNSt3__123__dispatch_copy_or_moveB7v160006INS_17_ClassicAlgPolicyENS_11__move_loopIS1_EENS_14__move_trivialENS_16reverse_iteratorIPPN8pybind116detail9type_infoEEESB_SB_EENS_4pairIT2_T4_EESD_T3_SE_, symObjAddr: 0x2F890, symBinAddr: 0x45250, symSize: 0x90 }
  - { offsetInCU: 0x4755F, offset: 0x9E54D, size: 0x8, addend: 0x0, symName: __ZNSt3__121__unwrap_and_dispatchB7v160006INS_10__overloadINS_11__move_loopINS_17_ClassicAlgPolicyEEENS_14__move_trivialEEENS_16reverse_iteratorIPPN8pybind116detail9type_infoEEESD_SD_Li0EEENS_4pairIT0_T2_EESF_T1_SG_, symObjAddr: 0x2F920, symBinAddr: 0x452E0, symSize: 0x210 }
  - { offsetInCU: 0x475EF, offset: 0x9E5DD, size: 0x8, addend: 0x0, symName: __ZNSt3__114__unwrap_rangeB7v160006INS_16reverse_iteratorIPPN8pybind116detail9type_infoEEES7_EEDaT_T0_, symObjAddr: 0x2FB30, symBinAddr: 0x454F0, symSize: 0x60 }
  - { offsetInCU: 0x47710, offset: 0x9E6FE, size: 0x8, addend: 0x0, symName: __ZNSt3__113__unwrap_iterB7v160006INS_16reverse_iteratorIPPN8pybind116detail9type_infoEEENS_18__unwrap_iter_implIS7_Lb0EEELi0EEEDTclsrT0_8__unwrapclsr3stdE7declvalIT_EEEESB_, symObjAddr: 0x2FC30, symBinAddr: 0x455F0, symSize: 0x40 }
  - { offsetInCU: 0x47755, offset: 0x9E743, size: 0x8, addend: 0x0, symName: __ZNSt3__19make_pairB7v160006INS_16reverse_iteratorIPPN8pybind116detail9type_infoEEES7_EENS_4pairINS_18__unwrap_ref_decayIT_E4typeENS9_IT0_E4typeEEEOSA_OSD_, symObjAddr: 0x2FC70, symBinAddr: 0x45630, symSize: 0x30 }
  - { offsetInCU: 0x477A4, offset: 0x9E792, size: 0x8, addend: 0x0, symName: __ZNSt3__114__rewrap_rangeB7v160006INS_16reverse_iteratorIPPN8pybind116detail9type_infoEEES7_S7_EET0_S8_T1_, symObjAddr: 0x2FCA0, symBinAddr: 0x45660, symSize: 0x60 }
  - { offsetInCU: 0x477F9, offset: 0x9E7E7, size: 0x8, addend: 0x0, symName: __ZNSt3__113__rewrap_iterB7v160006INS_16reverse_iteratorIPPN8pybind116detail9type_infoEEES7_NS_18__unwrap_iter_implIS7_Lb0EEEEET_SA_T0_, symObjAddr: 0x2FD00, symBinAddr: 0x456C0, symSize: 0x70 }
  - { offsetInCU: 0x4789E, offset: 0x9E88C, size: 0x8, addend: 0x0, symName: __ZNSt3__1neB7v160006IPPN8pybind116detail9type_infoES5_EEbRKNS_16reverse_iteratorIT_EERKNS6_IT0_EE, symObjAddr: 0x2FE70, symBinAddr: 0x45830, symSize: 0x40 }
  - { offsetInCU: 0x47957, offset: 0x9E945, size: 0x8, addend: 0x0, symName: __ZNSt3__118__debug_db_erase_cB7v160006INS_6vectorIP11_typeobjectNS_9allocatorIS3_EEEEEEvPT_, symObjAddr: 0x306B0, symBinAddr: 0x46070, symSize: 0x10 }
  - { offsetInCU: 0x479EE, offset: 0x9E9DC, size: 0x8, addend: 0x0, symName: __ZNSt3__1neB7v160006ERKNS_19__hash_map_iteratorINS_15__hash_iteratorIPNS_11__hash_nodeINS_17__hash_value_typeIP11_typeobjectNS_6vectorIPN8pybind116detail9type_infoENS_9allocatorISA_EEEEEEPvEEEEEESL_, symObjAddr: 0x30980, symBinAddr: 0x46340, symSize: 0x30 }
  - { offsetInCU: 0x47A2B, offset: 0x9EA19, size: 0x8, addend: 0x0, symName: __ZNSt3__1neB7v160006ERKNS_15__hash_iteratorIPNS_11__hash_nodeINS_17__hash_value_typeIP11_typeobjectNS_6vectorIPN8pybind116detail9type_infoENS_9allocatorIS9_EEEEEEPvEEEESJ_, symObjAddr: 0x30A80, symBinAddr: 0x46440, symSize: 0x30 }
  - { offsetInCU: 0x47A68, offset: 0x9EA56, size: 0x8, addend: 0x0, symName: __ZNSt3__1eqB7v160006ERKNS_15__hash_iteratorIPNS_11__hash_nodeINS_17__hash_value_typeINS_10type_indexENS_6vectorIPFbP7_objectRPvENS_9allocatorISA_EEEEEES7_EEEESJ_, symObjAddr: 0x30CC0, symBinAddr: 0x46680, symSize: 0x30 }
  - { offsetInCU: 0x47AA5, offset: 0x9EA93, size: 0x8, addend: 0x0, symName: __ZNSt3__17launderB7v160006IKNS_4pairIKNS_10type_indexENS_6vectorIPFbP7_objectRPvENS_9allocatorISA_EEEEEEEEPT_SH_, symObjAddr: 0x31080, symBinAddr: 0x46A40, symSize: 0x20 }
  - { offsetInCU: 0x47ADC, offset: 0x9EACA, size: 0x8, addend: 0x0, symName: __ZNSt3__19__launderB7v160006IKNS_4pairIKNS_10type_indexENS_6vectorIPFbP7_objectRPvENS_9allocatorISA_EEEEEEEEPT_SH_, symObjAddr: 0x310A0, symBinAddr: 0x46A60, symSize: 0x10 }
  - { offsetInCU: 0x47B64, offset: 0x9EB52, size: 0x8, addend: 0x0, symName: __ZNSt3__110destroy_atB7v160006INS_4pairIKNS_10type_indexENS_6vectorIPFbP7_objectRPvENS_9allocatorISA_EEEEEELi0EEEvPT_, symObjAddr: 0x31780, symBinAddr: 0x47140, symSize: 0x20 }
  - { offsetInCU: 0x47B9C, offset: 0x9EB8A, size: 0x8, addend: 0x0, symName: __ZNSt3__112__destroy_atB7v160006INS_4pairIKNS_10type_indexENS_6vectorIPFbP7_objectRPvENS_9allocatorISA_EEEEEELi0EEEvPT_, symObjAddr: 0x317A0, symBinAddr: 0x47160, symSize: 0x20 }
  - { offsetInCU: 0x47BD4, offset: 0x9EBC2, size: 0x8, addend: 0x0, symName: __ZNSt3__118__debug_db_erase_cB7v160006INS_6vectorIPFbP7_objectRPvENS_9allocatorIS7_EEEEEEvPT_, symObjAddr: 0x319F0, symBinAddr: 0x473B0, symSize: 0x10 }
  - { offsetInCU: 0x47C05, offset: 0x9EBF3, size: 0x8, addend: 0x0, symName: __ZNSt3__112__to_addressB7v160006IPFbP7_objectRPvEEEPT_S8_, symObjAddr: 0x31B00, symBinAddr: 0x474C0, symSize: 0x10 }
  - { offsetInCU: 0x47C3A, offset: 0x9EC28, size: 0x8, addend: 0x0, symName: __ZNSt3__110destroy_atB7v160006IPFbP7_objectRPvELi0EEEvPT_, symObjAddr: 0x31BB0, symBinAddr: 0x47570, symSize: 0x20 }
  - { offsetInCU: 0x47C72, offset: 0x9EC60, size: 0x8, addend: 0x0, symName: __ZNSt3__112__destroy_atB7v160006IPFbP7_objectRPvELi0EEEvPT_, symObjAddr: 0x31BD0, symBinAddr: 0x47590, symSize: 0x10 }
  - { offsetInCU: 0x47CAA, offset: 0x9EC98, size: 0x8, addend: 0x0, symName: __ZNSt3__17launderB7v160006INS_4pairIKNS_10type_indexENS_6vectorIPFbP7_objectRPvENS_9allocatorISA_EEEEEEEEPT_SG_, symObjAddr: 0x31CC0, symBinAddr: 0x47680, symSize: 0x20 }
  - { offsetInCU: 0x47CE1, offset: 0x9ECCF, size: 0x8, addend: 0x0, symName: __ZNSt3__19__launderB7v160006INS_4pairIKNS_10type_indexENS_6vectorIPFbP7_objectRPvENS_9allocatorISA_EEEEEEEEPT_SG_, symObjAddr: 0x31CE0, symBinAddr: 0x476A0, symSize: 0x10 }
  - { offsetInCU: 0x47D36, offset: 0x9ED24, size: 0x8, addend: 0x0, symName: __ZNSt3__118__debug_db_erase_cB7v160006INS_6vectorINS_4pairIPKSt9type_infoPFPvS6_EEENS_9allocatorIS9_EEEEEEvPT_, symObjAddr: 0x326A0, symBinAddr: 0x48060, symSize: 0x10 }
  - { offsetInCU: 0x47D67, offset: 0x9ED55, size: 0x8, addend: 0x0, symName: __ZNSt3__112__to_addressB7v160006INS_4pairIPKSt9type_infoPFPvS5_EEEEEPT_SA_, symObjAddr: 0x327B0, symBinAddr: 0x48170, symSize: 0x10 }
  - { offsetInCU: 0x47D9C, offset: 0x9ED8A, size: 0x8, addend: 0x0, symName: __ZNSt3__110destroy_atB7v160006INS_4pairIPKSt9type_infoPFPvS5_EEELi0EEEvPT_, symObjAddr: 0x32860, symBinAddr: 0x48220, symSize: 0x20 }
  - { offsetInCU: 0x47DD4, offset: 0x9EDC2, size: 0x8, addend: 0x0, symName: __ZNSt3__112__destroy_atB7v160006INS_4pairIPKSt9type_infoPFPvS5_EEELi0EEEvPT_, symObjAddr: 0x32880, symBinAddr: 0x48240, symSize: 0x10 }
  - { offsetInCU: 0x47E0C, offset: 0x9EDFA, size: 0x8, addend: 0x0, symName: __ZNSt3__118__debug_db_erase_cB7v160006INS_6vectorIPFP7_objectS3_P11_typeobjectENS_9allocatorIS7_EEEEEEvPT_, symObjAddr: 0x32B20, symBinAddr: 0x484E0, symSize: 0x10 }
  - { offsetInCU: 0x47E3D, offset: 0x9EE2B, size: 0x8, addend: 0x0, symName: __ZNSt3__112__to_addressB7v160006IPFP7_objectS2_P11_typeobjectEEEPT_S8_, symObjAddr: 0x32C30, symBinAddr: 0x485F0, symSize: 0x10 }
  - { offsetInCU: 0x47E72, offset: 0x9EE60, size: 0x8, addend: 0x0, symName: __ZNSt3__110destroy_atB7v160006IPFP7_objectS2_P11_typeobjectELi0EEEvPT_, symObjAddr: 0x32CE0, symBinAddr: 0x486A0, symSize: 0x20 }
  - { offsetInCU: 0x47EAA, offset: 0x9EE98, size: 0x8, addend: 0x0, symName: __ZNSt3__112__destroy_atB7v160006IPFP7_objectS2_P11_typeobjectELi0EEEvPT_, symObjAddr: 0x32D00, symBinAddr: 0x486C0, symSize: 0x10 }
  - { offsetInCU: 0x47EE2, offset: 0x9EED0, size: 0x8, addend: 0x0, symName: __ZNSt3__1neB7v160006ERKNS_19__hash_map_iteratorINS_15__hash_iteratorIPNS_11__hash_nodeINS_17__hash_value_typeIPKvPN8pybind116detail8instanceEEEPvEEEEEESH_, symObjAddr: 0x33A10, symBinAddr: 0x493D0, symSize: 0x30 }
  - { offsetInCU: 0x47FF4, offset: 0x9EFE2, size: 0x8, addend: 0x0, symName: __ZNSt3__1neB7v160006ERKNS_15__hash_iteratorIPNS_11__hash_nodeINS_17__hash_value_typeIPKvPN8pybind116detail8instanceEEEPvEEEESF_, symObjAddr: 0x33D90, symBinAddr: 0x49750, symSize: 0x30 }
  - { offsetInCU: 0x48064, offset: 0x9F052, size: 0x8, addend: 0x0, symName: __ZNSt3__1eqB7v160006ERKNS_15__hash_iteratorIPNS_11__hash_nodeINS_17__hash_value_typeIPKvPN8pybind116detail8instanceEEEPvEEEESF_, symObjAddr: 0x34160, symBinAddr: 0x49B20, symSize: 0x30 }
  - { offsetInCU: 0x480A1, offset: 0x9F08F, size: 0x8, addend: 0x0, symName: __ZNSt3__17launderB7v160006IKNS_4pairIKPKvPN8pybind116detail8instanceEEEEEPT_SC_, symObjAddr: 0x34210, symBinAddr: 0x49BD0, symSize: 0x20 }
  - { offsetInCU: 0x480D8, offset: 0x9F0C6, size: 0x8, addend: 0x0, symName: __ZNSt3__19__launderB7v160006IKNS_4pairIKPKvPN8pybind116detail8instanceEEEEEPT_SC_, symObjAddr: 0x34230, symBinAddr: 0x49BF0, symSize: 0x10 }
  - { offsetInCU: 0x48175, offset: 0x9F163, size: 0x8, addend: 0x0, symName: __ZNSt3__17launderB7v160006INS_4pairIKPKvPN8pybind116detail8instanceEEEEEPT_SB_, symObjAddr: 0x34380, symBinAddr: 0x49D40, symSize: 0x20 }
  - { offsetInCU: 0x481AC, offset: 0x9F19A, size: 0x8, addend: 0x0, symName: __ZNSt3__19__launderB7v160006INS_4pairIKPKvPN8pybind116detail8instanceEEEEEPT_SB_, symObjAddr: 0x343A0, symBinAddr: 0x49D60, symSize: 0x10 }
  - { offsetInCU: 0x48201, offset: 0x9F1EF, size: 0x8, addend: 0x0, symName: __ZNSt3__110destroy_atB7v160006INS_4pairIKPKvPN8pybind116detail8instanceEEELi0EEEvPT_, symObjAddr: 0x34AD0, symBinAddr: 0x4A490, symSize: 0x20 }
  - { offsetInCU: 0x48239, offset: 0x9F227, size: 0x8, addend: 0x0, symName: __ZNSt3__112__destroy_atB7v160006INS_4pairIKPKvPN8pybind116detail8instanceEEELi0EEEvPT_, symObjAddr: 0x34AF0, symBinAddr: 0x4A4B0, symSize: 0x10 }
  - { offsetInCU: 0x48271, offset: 0x9F25F, size: 0x8, addend: 0x0, symName: __ZNSt3__1neB7v160006IPNS_4pairIPKSt9type_infoPFPvS5_EEEEEbRKNS_11__wrap_iterIT_EESE_, symObjAddr: 0x34BC0, symBinAddr: 0x4A580, symSize: 0x30 }
  - { offsetInCU: 0x482B4, offset: 0x9F2A2, size: 0x8, addend: 0x0, symName: __ZNSt3__1eqB7v160006IPNS_4pairIPKSt9type_infoPFPvS5_EEEEEbRKNS_11__wrap_iterIT_EESE_, symObjAddr: 0x34CB0, symBinAddr: 0x4A670, symSize: 0x40 }
  - { offsetInCU: 0x482F7, offset: 0x9F2E5, size: 0x8, addend: 0x0, symName: __ZNSt3__1neB7v160006ERKNS_19__hash_map_iteratorINS_15__hash_iteratorIPNS_11__hash_nodeINS_17__hash_value_typeIPK7_objectNS_6vectorIPS4_NS_9allocatorIS8_EEEEEEPvEEEEEESJ_, symObjAddr: 0x34D50, symBinAddr: 0x4A710, symSize: 0x30 }
  - { offsetInCU: 0x48334, offset: 0x9F322, size: 0x8, addend: 0x0, symName: __ZNSt3__1neB7v160006IPP7_objectEEbRKNS_11__wrap_iterIT_EES8_, symObjAddr: 0x34EC0, symBinAddr: 0x4A880, symSize: 0x30 }
  - { offsetInCU: 0x48377, offset: 0x9F365, size: 0x8, addend: 0x0, symName: __ZNSt3__17launderB7v160006IKNS_4pairIKPK7_objectNS_6vectorIPS2_NS_9allocatorIS7_EEEEEEEEPT_SE_, symObjAddr: 0x35470, symBinAddr: 0x4AE30, symSize: 0x20 }
  - { offsetInCU: 0x483AE, offset: 0x9F39C, size: 0x8, addend: 0x0, symName: __ZNSt3__19__launderB7v160006IKNS_4pairIKPK7_objectNS_6vectorIPS2_NS_9allocatorIS7_EEEEEEEEPT_SE_, symObjAddr: 0x35490, symBinAddr: 0x4AE50, symSize: 0x10 }
  - { offsetInCU: 0x48418, offset: 0x9F406, size: 0x8, addend: 0x0, symName: __ZNSt3__1neB7v160006ERKNS_15__hash_iteratorIPNS_11__hash_nodeINS_17__hash_value_typeIPK7_objectNS_6vectorIPS3_NS_9allocatorIS7_EEEEEEPvEEEESH_, symObjAddr: 0x354F0, symBinAddr: 0x4AEB0, symSize: 0x30 }
  - { offsetInCU: 0x48455, offset: 0x9F443, size: 0x8, addend: 0x0, symName: __ZNSt3__1eqB7v160006ERKNS_15__hash_iteratorIPNS_11__hash_nodeINS_17__hash_value_typeIPK7_objectNS_6vectorIPS3_NS_9allocatorIS7_EEEEEEPvEEEESH_, symObjAddr: 0x35520, symBinAddr: 0x4AEE0, symSize: 0x30 }
  - { offsetInCU: 0x484F8, offset: 0x9F4E6, size: 0x8, addend: 0x0, symName: __ZNSt3__17launderB7v160006INS_4pairIKPK7_objectNS_6vectorIPS2_NS_9allocatorIS7_EEEEEEEEPT_SD_, symObjAddr: 0x355C0, symBinAddr: 0x4AF80, symSize: 0x20 }
  - { offsetInCU: 0x4852F, offset: 0x9F51D, size: 0x8, addend: 0x0, symName: __ZNSt3__19__launderB7v160006INS_4pairIKPK7_objectNS_6vectorIPS2_NS_9allocatorIS7_EEEEEEEEPT_SD_, symObjAddr: 0x355E0, symBinAddr: 0x4AFA0, symSize: 0x10 }
  - { offsetInCU: 0x48566, offset: 0x9F554, size: 0x8, addend: 0x0, symName: __ZNSt3__115__debug_db_swapB7v160006INS_6vectorIP7_objectNS_9allocatorIS3_EEEEEEvPT_S8_, symObjAddr: 0x35720, symBinAddr: 0x4B0E0, symSize: 0x10 }
  - { offsetInCU: 0x485C3, offset: 0x9F5B1, size: 0x8, addend: 0x0, symName: __ZNSt3__110destroy_atB7v160006INS_4pairIKPK7_objectNS_6vectorIPS2_NS_9allocatorIS7_EEEEEELi0EEEvPT_, symObjAddr: 0x35F40, symBinAddr: 0x4B900, symSize: 0x20 }
  - { offsetInCU: 0x485FB, offset: 0x9F5E9, size: 0x8, addend: 0x0, symName: __ZNSt3__112__destroy_atB7v160006INS_4pairIKPK7_objectNS_6vectorIPS2_NS_9allocatorIS7_EEEEEELi0EEEvPT_, symObjAddr: 0x35F60, symBinAddr: 0x4B920, symSize: 0x20 }
  - { offsetInCU: 0x48633, offset: 0x9F621, size: 0x8, addend: 0x0, symName: __ZNSt3__1eqB7v160006IPP7_objectEEbRKNS_11__wrap_iterIT_EES8_, symObjAddr: 0x360B0, symBinAddr: 0x4BA70, symSize: 0x40 }
  - { offsetInCU: 0x48676, offset: 0x9F664, size: 0x8, addend: 0x0, symName: __ZNSt3__118__debug_db_erase_cB7v160006INS_6vectorIP7_objectNS_9allocatorIS3_EEEEEEvPT_, symObjAddr: 0x362E0, symBinAddr: 0x4BCA0, symSize: 0x10 }
  - { offsetInCU: 0x486A7, offset: 0x9F695, size: 0x8, addend: 0x0, symName: __ZNSt3__112__to_addressB7v160006IP7_objectEEPT_S4_, symObjAddr: 0x363D0, symBinAddr: 0x4BD90, symSize: 0x10 }
  - { offsetInCU: 0x48703, offset: 0x9F6F1, size: 0x8, addend: 0x0, symName: __ZNSt3__112construct_atB7v160006INS_4pairIKPKvPN8pybind116detail8instanceEEEJRPvRS8_EPS9_EEPT_SF_DpOT0_, symObjAddr: 0x38300, symBinAddr: 0x4DCC0, symSize: 0x40 }
  - { offsetInCU: 0x48788, offset: 0x9F776, size: 0x8, addend: 0x0, symName: __ZNSt3__125__debug_db_invalidate_allB7v160006INS_12__hash_tableINS_17__hash_value_typeIPKvPN8pybind116detail8instanceEEENS_22__unordered_map_hasherIS4_S9_NS_4hashIS4_EENS_8equal_toIS4_EELb1EEENS_21__unordered_map_equalIS4_S9_SE_SC_Lb1EEENS_9allocatorIS9_EEEEEEvPT_, symObjAddr: 0x38E30, symBinAddr: 0x4E7F0, symSize: 0x10 }
  - { offsetInCU: 0x48CFE, offset: 0x9FCEC, size: 0x8, addend: 0x0, symName: __ZNSt3__112construct_atB7v160006INS_12basic_stringIcNS_11char_traitsIcEENS_9allocatorIcEEEEJS6_EPS6_EEPT_S9_DpOT0_, symObjAddr: 0x3C080, symBinAddr: 0x51A40, symSize: 0x40 }
  - { offsetInCU: 0x48DA3, offset: 0x9FD91, size: 0x8, addend: 0x0, symName: __ZNSt3__1neB7v160006IPlEEbRKNS_11__wrap_iterIT_EES6_, symObjAddr: 0x3CB50, symBinAddr: 0x52510, symSize: 0x30 }
  - { offsetInCU: 0x48DE6, offset: 0x9FDD4, size: 0x8, addend: 0x0, symName: __ZNSt3__118__debug_db_erase_cB7v160006INS_6vectorIlNS_9allocatorIlEEEEEEvPT_, symObjAddr: 0x3CE70, symBinAddr: 0x52830, symSize: 0x10 }
  - { offsetInCU: 0x48E17, offset: 0x9FE05, size: 0x8, addend: 0x0, symName: __ZNSt3__112__to_addressB7v160006IlEEPT_S2_, symObjAddr: 0x3CF80, symBinAddr: 0x52940, symSize: 0x10 }
  - { offsetInCU: 0x48E4C, offset: 0x9FE3A, size: 0x8, addend: 0x0, symName: __ZNSt3__110destroy_atB7v160006IlLi0EEEvPT_, symObjAddr: 0x3D030, symBinAddr: 0x529F0, symSize: 0x20 }
  - { offsetInCU: 0x48E84, offset: 0x9FE72, size: 0x8, addend: 0x0, symName: __ZNSt3__112__destroy_atB7v160006IlLi0EEEvPT_, symObjAddr: 0x3D050, symBinAddr: 0x52A10, symSize: 0x10 }
  - { offsetInCU: 0x48EBC, offset: 0x9FEAA, size: 0x8, addend: 0x0, symName: __ZNSt3__1eqB7v160006IPlEEbRKNS_11__wrap_iterIT_EES6_, symObjAddr: 0x3D1A0, symBinAddr: 0x52B60, symSize: 0x40 }
  - { offsetInCU: 0x48F00, offset: 0x9FEEE, size: 0x8, addend: 0x0, symName: __ZNSt3__125__throw_bad_function_callB7v160006Ev, symObjAddr: 0x3D260, symBinAddr: 0x52C20, symSize: 0x40 }
  - { offsetInCU: 0x48F51, offset: 0x9FF3F, size: 0x8, addend: 0x0, symName: __ZNSt3__119__debug_db_insert_cB7v160006INS_6vectorIPFP7_objectS3_P11_typeobjectENS_9allocatorIS7_EEEEEEvPT_, symObjAddr: 0x3D4A0, symBinAddr: 0x52E60, symSize: 0x10 }
  - { offsetInCU: 0x48F82, offset: 0x9FF70, size: 0x8, addend: 0x0, symName: __ZNSt3__119__debug_db_insert_cB7v160006INS_6vectorINS_4pairIPKSt9type_infoPFPvS6_EEENS_9allocatorIS9_EEEEEEvPT_, symObjAddr: 0x3D5F0, symBinAddr: 0x52FB0, symSize: 0x10 }
  - { offsetInCU: 0x48FB3, offset: 0x9FFA1, size: 0x8, addend: 0x0, symName: __ZNSt3__116forward_as_tupleB7v160006IJRKNS_10type_indexEEEENS_5tupleIJDpOT_EEES7_, symObjAddr: 0x3DC60, symBinAddr: 0x53620, symSize: 0x30 }
  - { offsetInCU: 0x49013, offset: 0xA0001, size: 0x8, addend: 0x0, symName: __ZNSt3__112construct_atB7v160006INS_4pairIKNS_10type_indexENS_6vectorIPFbP7_objectRPvENS_9allocatorISA_EEEEEEJRKNS_21piecewise_construct_tENS_5tupleIJRS3_EEENSI_IJEEEEPSE_EEPT_SO_DpOT0_, symObjAddr: 0x3E020, symBinAddr: 0x539E0, symSize: 0x50 }
  - { offsetInCU: 0x490AB, offset: 0xA0099, size: 0x8, addend: 0x0, symName: __ZNSt3__13getB7v160006ILm0EJRKNS_10type_indexEEEERNS_13tuple_elementIXT_ENS_5tupleIJDpT0_EEEE4typeERS8_, symObjAddr: 0x3E120, symBinAddr: 0x53AE0, symSize: 0x20 }
  - { offsetInCU: 0x490EE, offset: 0xA00DC, size: 0x8, addend: 0x0, symName: __ZNSt3__119__debug_db_insert_cB7v160006INS_6vectorIPFbP7_objectRPvENS_9allocatorIS7_EEEEEEvPT_, symObjAddr: 0x3E210, symBinAddr: 0x53BD0, symSize: 0x10 }
  - { offsetInCU: 0x4911F, offset: 0xA010D, size: 0x8, addend: 0x0, symName: __ZNSt3__125__debug_db_invalidate_allB7v160006INS_12__hash_tableINS_17__hash_value_typeINS_10type_indexENS_6vectorIPFbP7_objectRPvENS_9allocatorISA_EEEEEENS_22__unordered_map_hasherIS3_SE_N8pybind116detail9type_hashENSH_13type_equal_toELb1EEENS_21__unordered_map_equalIS3_SE_SJ_SI_Lb1EEENSB_ISE_EEEEEEvPT_, symObjAddr: 0x3E780, symBinAddr: 0x54140, symSize: 0x10 }
  - { offsetInCU: 0x491BF, offset: 0xA01AD, size: 0x8, addend: 0x0, symName: __ZNSt3__112construct_atB7v160006INS_4pairIKNS_10type_indexEPN8pybind116detail9type_infoEEEJRKNS_21piecewise_construct_tENS_5tupleIJRS3_EEENSC_IJEEEEPS8_EEPT_SI_DpOT0_, symObjAddr: 0x3F4C0, symBinAddr: 0x54E80, symSize: 0x50 }
  - { offsetInCU: 0x49257, offset: 0xA0245, size: 0x8, addend: 0x0, symName: __ZNSt3__125__debug_db_invalidate_allB7v160006INS_12__hash_tableINS_17__hash_value_typeINS_10type_indexEPN8pybind116detail9type_infoEEENS_22__unordered_map_hasherIS3_S8_NS5_9type_hashENS5_13type_equal_toELb1EEENS_21__unordered_map_equalIS3_S8_SB_SA_Lb1EEENS_9allocatorIS8_EEEEEEvPT_, symObjAddr: 0x3FA70, symBinAddr: 0x55430, symSize: 0x10 }
  - { offsetInCU: 0x49288, offset: 0xA0276, size: 0x8, addend: 0x0, symName: __ZNSt3__116forward_as_tupleB7v160006IJP11_typeobjectEEENS_5tupleIJDpOT_EEES6_, symObjAddr: 0x401C0, symBinAddr: 0x55B80, symSize: 0x30 }
  - { offsetInCU: 0x492C1, offset: 0xA02AF, size: 0x8, addend: 0x0, symName: __ZNSt3__112construct_atB7v160006INS_4pairIKP11_typeobjectNS_6vectorIPN8pybind116detail9type_infoENS_9allocatorIS9_EEEEEEJRKNS_21piecewise_construct_tENS_5tupleIJOS3_EEENSH_IJEEEEPSD_EEPT_SN_DpOT0_, symObjAddr: 0x40380, symBinAddr: 0x55D40, symSize: 0x50 }
  - { offsetInCU: 0x49359, offset: 0xA0347, size: 0x8, addend: 0x0, symName: __ZNSt3__13getB7v160006ILm0EJOP11_typeobjectEEERNS_13tuple_elementIXT_ENS_5tupleIJDpT0_EEEE4typeERS8_, symObjAddr: 0x40480, symBinAddr: 0x55E40, symSize: 0x20 }
  - { offsetInCU: 0x493B1, offset: 0xA039F, size: 0x8, addend: 0x0, symName: __ZNSt3__18distanceB7v160006IPKPN8pybind116detail9type_infoEEENS_15iterator_traitsIT_E15difference_typeES8_S8_, symObjAddr: 0x40740, symBinAddr: 0x56100, symSize: 0x30 }
  - { offsetInCU: 0x493F4, offset: 0xA03E2, size: 0x8, addend: 0x0, symName: __ZNSt3__14copyB7v160006IPKPN8pybind116detail9type_infoEPS4_EET0_T_S9_S8_, symObjAddr: 0x407C0, symBinAddr: 0x56180, symSize: 0x40 }
  - { offsetInCU: 0x4944E, offset: 0xA043C, size: 0x8, addend: 0x0, symName: __ZNSt3__110__distanceB7v160006IPKPN8pybind116detail9type_infoEEENS_15iterator_traitsIT_E15difference_typeES8_S8_NS_26random_access_iterator_tagE, symObjAddr: 0x40A10, symBinAddr: 0x563D0, symSize: 0x20 }
  - { offsetInCU: 0x4949B, offset: 0xA0489, size: 0x8, addend: 0x0, symName: __ZNSt3__19__advanceB7v160006IPKPN8pybind116detail9type_infoEEEvRT_NS_15iterator_traitsIS7_E15difference_typeENS_26random_access_iterator_tagE, symObjAddr: 0x40A30, symBinAddr: 0x563F0, symSize: 0x20 }
  - { offsetInCU: 0x494E4, offset: 0xA04D2, size: 0x8, addend: 0x0, symName: __ZNSt3__16__copyB7v160006INS_17_ClassicAlgPolicyEPKPN8pybind116detail9type_infoES7_PS5_EENS_4pairIT0_T2_EESA_T1_SB_, symObjAddr: 0x40A50, symBinAddr: 0x56410, symSize: 0x40 }
  - { offsetInCU: 0x49550, offset: 0xA053E, size: 0x8, addend: 0x0, symName: __ZNSt3__123__dispatch_copy_or_moveB7v160006INS_17_ClassicAlgPolicyENS_11__copy_loopIS1_EENS_14__copy_trivialEPKPN8pybind116detail9type_infoESA_PS8_EENS_4pairIT2_T4_EESD_T3_SE_, symObjAddr: 0x40A90, symBinAddr: 0x56450, symSize: 0x40 }
  - { offsetInCU: 0x495CE, offset: 0xA05BC, size: 0x8, addend: 0x0, symName: __ZNSt3__121__unwrap_and_dispatchB7v160006INS_10__overloadINS_11__copy_loopINS_17_ClassicAlgPolicyEEENS_14__copy_trivialEEEPKPN8pybind116detail9type_infoESC_PSA_Li0EEENS_4pairIT0_T2_EESF_T1_SG_, symObjAddr: 0x40AD0, symBinAddr: 0x56490, symSize: 0xB0 }
  - { offsetInCU: 0x4965E, offset: 0xA064C, size: 0x8, addend: 0x0, symName: __ZNSt3__114__unwrap_rangeB7v160006IPKPN8pybind116detail9type_infoES6_EEDaT_T0_, symObjAddr: 0x40B80, symBinAddr: 0x56540, symSize: 0x40 }
  - { offsetInCU: 0x497AF, offset: 0xA079D, size: 0x8, addend: 0x0, symName: __ZNSt3__19make_pairB7v160006IPKPN8pybind116detail9type_infoEPS4_EENS_4pairINS_18__unwrap_ref_decayIT_E4typeENS9_IT0_E4typeEEEOSA_OSD_, symObjAddr: 0x40C00, symBinAddr: 0x565C0, symSize: 0x30 }
  - { offsetInCU: 0x497FE, offset: 0xA07EC, size: 0x8, addend: 0x0, symName: __ZNSt3__114__rewrap_rangeB7v160006IPKPN8pybind116detail9type_infoES6_S6_EET0_S7_T1_, symObjAddr: 0x40C30, symBinAddr: 0x565F0, symSize: 0x30 }
  - { offsetInCU: 0x49970, offset: 0xA095E, size: 0x8, addend: 0x0, symName: __ZNSt3__113__unwrap_iterB7v160006IPKPN8pybind116detail9type_infoENS_18__unwrap_iter_implIS6_Lb1EEELi0EEEDTclsrT0_8__unwrapclsr3stdE7declvalIT_EEEESA_, symObjAddr: 0x40CB0, symBinAddr: 0x56670, symSize: 0x20 }
  - { offsetInCU: 0x49A08, offset: 0xA09F6, size: 0x8, addend: 0x0, symName: __ZNSt3__112__to_addressB7v160006IKPN8pybind116detail9type_infoEEEPT_S7_, symObjAddr: 0x40D20, symBinAddr: 0x566E0, symSize: 0x10 }
  - { offsetInCU: 0x49A3D, offset: 0xA0A2B, size: 0x8, addend: 0x0, symName: __ZNSt3__119__copy_trivial_implB7v160006IKPN8pybind116detail9type_infoES4_EENS_4pairIPT_PT0_EES8_S8_SA_, symObjAddr: 0x40D60, symBinAddr: 0x56720, symSize: 0x70 }
  - { offsetInCU: 0x49AA5, offset: 0xA0A93, size: 0x8, addend: 0x0, symName: __ZNSt3__19make_pairB7v160006IRPKPN8pybind116detail9type_infoEPS4_EENS_4pairINS_18__unwrap_ref_decayIT_E4typeENSA_IT0_E4typeEEEOSB_OSE_, symObjAddr: 0x40DD0, symBinAddr: 0x56790, symSize: 0x30 }
  - { offsetInCU: 0x49AF4, offset: 0xA0AE2, size: 0x8, addend: 0x0, symName: __ZNSt3__113__rewrap_iterB7v160006IPKPN8pybind116detail9type_infoES6_NS_18__unwrap_iter_implIS6_Lb1EEEEET_S9_T0_, symObjAddr: 0x40EF0, symBinAddr: 0x568B0, symSize: 0x40 }
  - { offsetInCU: 0x49B49, offset: 0xA0B37, size: 0x8, addend: 0x0, symName: __ZNSt3__130__uninitialized_allocator_copyB7v160006INS_9allocatorIPN8pybind116detail9type_infoEEES5_S5_LPv0EEEPT0_RT_PKS8_SD_S9_, symObjAddr: 0x40F80, symBinAddr: 0x56940, symSize: 0x30 }
  - { offsetInCU: 0x49BC2, offset: 0xA0BB0, size: 0x8, addend: 0x0, symName: __ZNSt3__1neB7v160006IPKPFP7_objectS2_P11_typeobjectEEEbRKNS_11__wrap_iterIT_EESD_, symObjAddr: 0x41DD0, symBinAddr: 0x57790, symSize: 0x30 }
  - { offsetInCU: 0x49C05, offset: 0xA0BF3, size: 0x8, addend: 0x0, symName: __ZNSt3__1neB7v160006IPKNS_4pairIPKSt9type_infoPFPvS5_EEEEEbRKNS_11__wrap_iterIT_EESF_, symObjAddr: 0x42190, symBinAddr: 0x57B50, symSize: 0x30 }
  - { offsetInCU: 0x49C48, offset: 0xA0C36, size: 0x8, addend: 0x0, symName: __ZNSt3__1eqB7v160006IPKNS_4pairIPKSt9type_infoPFPvS5_EEEEEbRKNS_11__wrap_iterIT_EESF_, symObjAddr: 0x422B0, symBinAddr: 0x57C70, symSize: 0x40 }
  - { offsetInCU: 0x49C8B, offset: 0xA0C79, size: 0x8, addend: 0x0, symName: __ZNSt3__1eqB7v160006IPKPFP7_objectS2_P11_typeobjectEEEbRKNS_11__wrap_iterIT_EESD_, symObjAddr: 0x423E0, symBinAddr: 0x57DA0, symSize: 0x40 }
  - { offsetInCU: 0x49D13, offset: 0xA0D01, size: 0x8, addend: 0x0, symName: __ZNSt3__112construct_atB7v160006IP7_objectJRKS2_EPS2_EEPT_S7_DpOT0_, symObjAddr: 0x43330, symBinAddr: 0x58CF0, symSize: 0x30 }
  - { offsetInCU: 0x49D85, offset: 0xA0D73, size: 0x8, addend: 0x0, symName: __ZNSt3__125__debug_db_invalidate_allB7v160006INS_12__hash_tableIP7_objectNS_4hashIS3_EENS_8equal_toIS3_EENS_9allocatorIS3_EEEEEEvPT_, symObjAddr: 0x43860, symBinAddr: 0x59220, symSize: 0x10 }
  - { offsetInCU: 0x49DB6, offset: 0xA0DA4, size: 0x8, addend: 0x0, symName: __ZNSt3__1neB7v160006IPPFbP7_objectRPvEEEbRKNS_11__wrap_iterIT_EESC_, symObjAddr: 0x43BE0, symBinAddr: 0x595A0, symSize: 0x30 }
  - { offsetInCU: 0x49DF9, offset: 0xA0DE7, size: 0x8, addend: 0x0, symName: __ZNSt3__1eqB7v160006IPPFbP7_objectRPvEEEbRKNS_11__wrap_iterIT_EESC_, symObjAddr: 0x43CD0, symBinAddr: 0x59690, symSize: 0x40 }
  - { offsetInCU: 0x49E47, offset: 0xA0E35, size: 0x8, addend: 0x0, symName: __ZNSt3__13getB7v160006ILm0EJN8pybind116detail11type_casterINS2_16value_and_holderEvEENS3_INS_3mapINS_12basic_stringIcNS_11char_traitsIcEENS_9allocatorIcEEEESC_NS_4lessISC_EENSA_INS_4pairIKSC_SC_EEEEEEvEEEEERNS_13tuple_elementIXT_ENS_5tupleIJDpT0_EEEE4typeERSP_, symObjAddr: 0x45110, symBinAddr: 0x5AA00, symSize: 0x20 }
  - { offsetInCU: 0x49E8F, offset: 0xA0E7D, size: 0x8, addend: 0x0, symName: __ZNSt3__13getB7v160006ILm1EJN8pybind116detail11type_casterINS2_16value_and_holderEvEENS3_INS_3mapINS_12basic_stringIcNS_11char_traitsIcEENS_9allocatorIcEEEESC_NS_4lessISC_EENSA_INS_4pairIKSC_SC_EEEEEEvEEEEERNS_13tuple_elementIXT_ENS_5tupleIJDpT0_EEEE4typeERSP_, symObjAddr: 0x45180, symBinAddr: 0x5AA70, symSize: 0x20 }
  - { offsetInCU: 0x49ED7, offset: 0xA0EC5, size: 0x8, addend: 0x0, symName: __ZNSt3__110destroy_atB7v160006INS_4pairIKNS_12basic_stringIcNS_11char_traitsIcEENS_9allocatorIcEEEES7_EELi0EEEvPT_, symObjAddr: 0x45810, symBinAddr: 0x5B0E0, symSize: 0x20 }
  - { offsetInCU: 0x49F0F, offset: 0xA0EFD, size: 0x8, addend: 0x0, symName: __ZNSt3__112__destroy_atB7v160006INS_4pairIKNS_12basic_stringIcNS_11char_traitsIcEENS_9allocatorIcEEEES7_EELi0EEEvPT_, symObjAddr: 0x45830, symBinAddr: 0x5B100, symSize: 0x20 }
  - { offsetInCU: 0x49FB1, offset: 0xA0F9F, size: 0x8, addend: 0x0, symName: __ZNSt3__112construct_atB7v160006INS_4pairIKNS_12basic_stringIcNS_11char_traitsIcEENS_9allocatorIcEEEES7_EEJS7_S7_EPS9_EEPT_SC_DpOT0_, symObjAddr: 0x46500, symBinAddr: 0x5B8B0, symSize: 0x40 }
  - { offsetInCU: 0x4A036, offset: 0xA1024, size: 0x8, addend: 0x0, symName: __ZNSt3__13getB7v160006ILm0EJN8pybind116detail11type_casterI11ApplicationvEENS3_IfvEEEEERNS_13tuple_elementIXT_ENS_5tupleIJDpT0_EEEE4typeERSB_, symObjAddr: 0x485F0, symBinAddr: 0x5D480, symSize: 0x20 }
  - { offsetInCU: 0x4A07E, offset: 0xA106C, size: 0x8, addend: 0x0, symName: __ZNSt3__13getB7v160006ILm1EJN8pybind116detail11type_casterI11ApplicationvEENS3_IfvEEEEERNS_13tuple_elementIXT_ENS_5tupleIJDpT0_EEEE4typeERSB_, symObjAddr: 0x48610, symBinAddr: 0x5D4A0, symSize: 0x20 }
  - { offsetInCU: 0x4A0ED, offset: 0xA10DB, size: 0x8, addend: 0x0, symName: __ZNSt3__112construct_atB7v160006IN8pybind116detail15argument_recordEJRA5_KcDnNS1_6handleEbbEPS3_EEPT_SA_DpOT0_, symObjAddr: 0x48F50, symBinAddr: 0x5DDE0, symSize: 0x70 }
  - { offsetInCU: 0x4A1AB, offset: 0xA1199, size: 0x8, addend: 0x0, symName: __ZNSt3__112construct_atB7v160006IN8pybind116detail15argument_recordEJRKPKcDnNS1_6handleEbRKbEPS3_EEPT_SD_DpOT0_, symObjAddr: 0x49430, symBinAddr: 0x5E2C0, symSize: 0x80 }
  - { offsetInCU: 0x4A269, offset: 0xA1257, size: 0x8, addend: 0x0, symName: __ZNSt3__13getB7v160006ILm0EJN8pybind116detail11type_casterI11ApplicationvEENS3_IcvEEEEERNS_13tuple_elementIXT_ENS_5tupleIJDpT0_EEEE4typeERSB_, symObjAddr: 0x49CB0, symBinAddr: 0x5EB40, symSize: 0x20 }
  - { offsetInCU: 0x4A2B1, offset: 0xA129F, size: 0x8, addend: 0x0, symName: __ZNSt3__13getB7v160006ILm1EJN8pybind116detail11type_casterI11ApplicationvEENS3_IcvEEEEERNS_13tuple_elementIXT_ENS_5tupleIJDpT0_EEEE4typeERSB_, symObjAddr: 0x49CD0, symBinAddr: 0x5EB60, symSize: 0x20 }
  - { offsetInCU: 0x4AC99, offset: 0xA1C87, size: 0x8, addend: 0x0, symName: __ZStneB7v160006RKSt13exception_ptrS1_, symObjAddr: 0xCB10, symBinAddr: 0x23550, symSize: 0x30 }
  - { offsetInCU: 0x4ACD3, offset: 0xA1CC1, size: 0x8, addend: 0x0, symName: __ZSteqB7v160006RKSt13exception_ptrS1_, symObjAddr: 0xCB70, symBinAddr: 0x235B0, symSize: 0x30 }
  - { offsetInCU: 0x4EB13, offset: 0xA5B01, size: 0x8, addend: 0x0, symName: __ZN8pybind116handle15inc_ref_counterEm, symObjAddr: 0x8A40, symBinAddr: 0x1F4C0, symSize: 0x40 }
  - { offsetInCU: 0x4F08C, offset: 0xA607A, size: 0x8, addend: 0x0, symName: __ZN8pybind1112cpp_function10initializeIZNS_6detail23all_type_info_get_cacheEP11_typeobjectEUlNS_6handleEE_vJS5_EJEEEvOT_PFT0_DpT1_EDpRKT2_, symObjAddr: 0x11200, symBinAddr: 0x26DD0, symSize: 0x110 }
  - { offsetInCU: 0x4F0AF, offset: 0xA609D, size: 0x8, addend: 0x0, symName: __ZZN8pybind1112cpp_function10initializeIZNS_6detail23all_type_info_get_cacheEP11_typeobjectEUlNS_6handleEE_vJS5_EJEEEvOT_PFT0_DpT1_EDpRKT2_E9signature, symObjAddr: 0x4E1BC, symBinAddr: 0x63354, symSize: 0x0 }
  - { offsetInCU: 0x4F0C6, offset: 0xA60B4, size: 0x8, addend: 0x0, symName: __ZZN8pybind1112cpp_function10initializeIZNS_6detail23all_type_info_get_cacheEP11_typeobjectEUlNS_6handleEE_vJS5_EJEEEvOT_PFT0_DpT1_EDpRKT2_E5types, symObjAddr: 0x4E1D0, symBinAddr: 0x63368, symSize: 0x0 }
  - { offsetInCU: 0x4F2AF, offset: 0xA629D, size: 0x8, addend: 0x0, symName: __ZN8pybind117options12global_stateEv, symObjAddr: 0x2B0B0, symBinAddr: 0x40A70, symSize: 0x10 }
  - { offsetInCU: 0x4F2CE, offset: 0xA62BC, size: 0x8, addend: 0x0, symName: __ZZN8pybind117options12global_stateEvE8instance, symObjAddr: 0x4E578, symBinAddr: 0x695C8, symSize: 0x0 }
  - { offsetInCU: 0x4F2EA, offset: 0xA62D8, size: 0x8, addend: 0x0, symName: __ZL32pybind11_module_def_mygameengine, symObjAddr: 0x2AEB38, symBinAddr: 0x69640, symSize: 0x0 }
  - { offsetInCU: 0x4FC44, offset: 0xA6C32, size: 0x8, addend: 0x0, symName: __ZN8pybind116detail8initimpl11constructorIJRKNSt3__13mapINS3_12basic_stringIcNS3_11char_traitsIcEENS3_9allocatorIcEEEESA_NS3_4lessISA_EENS8_INS3_4pairIKSA_SA_EEEEEEEE7executeINS_6class_I11ApplicationJEEEJELi0EEEvRT_DpRKT0_, symObjAddr: 0x43E60, symBinAddr: 0x59820, symSize: 0x30 }
  - { offsetInCU: 0x4FCE9, offset: 0xA6CD7, size: 0x8, addend: 0x0, symName: __ZN8pybind1112cpp_function10initializeIZNS_6detail8initimpl11constructorIJRKNSt3__13mapINS5_12basic_stringIcNS5_11char_traitsIcEENS5_9allocatorIcEEEESC_NS5_4lessISC_EENSA_INS5_4pairIKSC_SC_EEEEEEEE7executeINS_6class_I11ApplicationJEEEJELi0EEEvRT_DpRKT0_EUlRNS2_16value_and_holderESL_E_vJSY_SL_EJNS_4nameENS_9is_methodENS_7siblingENS2_24is_new_style_constructorEEEEvOSR_PFT0_DpT1_EDpRKT2_, symObjAddr: 0x44500, symBinAddr: 0x59EC0, symSize: 0x130 }
  - { offsetInCU: 0x4FD0C, offset: 0xA6CFA, size: 0x8, addend: 0x0, symName: __ZZN8pybind1112cpp_function10initializeIZNS_6detail8initimpl11constructorIJRKNSt3__13mapINS5_12basic_stringIcNS5_11char_traitsIcEENS5_9allocatorIcEEEESC_NS5_4lessISC_EENSA_INS5_4pairIKSC_SC_EEEEEEEE7executeINS_6class_I11ApplicationJEEEJELi0EEEvRT_DpRKT0_EUlRNS2_16value_and_holderESL_E_vJSY_SL_EJNS_4nameENS_9is_methodENS_7siblingENS2_24is_new_style_constructorEEEEvOSR_PFT0_DpT1_EDpRKT2_E9signature, symObjAddr: 0x4E287, symBinAddr: 0x6341F, symSize: 0x0 }
  - { offsetInCU: 0x4FD23, offset: 0xA6D11, size: 0x8, addend: 0x0, symName: __ZZN8pybind1112cpp_function10initializeIZNS_6detail8initimpl11constructorIJRKNSt3__13mapINS5_12basic_stringIcNS5_11char_traitsIcEENS5_9allocatorIcEEEESC_NS5_4lessISC_EENSA_INS5_4pairIKSC_SC_EEEEEEEE7executeINS_6class_I11ApplicationJEEEJELi0EEEvRT_DpRKT0_EUlRNS2_16value_and_holderESL_E_vJSY_SL_EJNS_4nameENS_9is_methodENS_7siblingENS2_24is_new_style_constructorEEEEvOSR_PFT0_DpT1_EDpRKT2_E5types, symObjAddr: 0x4E508, symBinAddr: 0x67FE0, symSize: 0x0 }
  - { offsetInCU: 0x4FF38, offset: 0xA6F26, size: 0x8, addend: 0x0, symName: __ZN8pybind1112cpp_functionC2Iv11ApplicationJfEJNS_4nameENS_9is_methodENS_7siblingENS_3argEEEEMT0_FT_DpT1_EDpRKT2_, symObjAddr: 0x47CF0, symBinAddr: 0x5CB80, symSize: 0xB0 }
  - { offsetInCU: 0x50026, offset: 0xA7014, size: 0x8, addend: 0x0, symName: __ZN8pybind1112cpp_function10initializeIZNS0_C1Iv11ApplicationJfEJNS_4nameENS_9is_methodENS_7siblingENS_3argEEEEMT0_FT_DpT1_EDpRKT2_EUlPS3_fE_vJSI_fEJS4_S5_S6_S7_EEEvOS9_PFS8_SB_ESH_, symObjAddr: 0x47DA0, symBinAddr: 0x5CC30, symSize: 0x140 }
  - { offsetInCU: 0x50049, offset: 0xA7037, size: 0x8, addend: 0x0, symName: __ZZN8pybind1112cpp_function10initializeIZNS0_C1Iv11ApplicationJfEJNS_4nameENS_9is_methodENS_7siblingENS_3argEEEEMT0_FT_DpT1_EDpRKT2_EUlPS3_fE_vJSI_fEJS4_S5_S6_S7_EEEvOS9_PFS8_SB_ESH_E9signature, symObjAddr: 0x4E2D1, symBinAddr: 0x63469, symSize: 0x0 }
  - { offsetInCU: 0x50060, offset: 0xA704E, size: 0x8, addend: 0x0, symName: __ZZN8pybind1112cpp_function10initializeIZNS0_C1Iv11ApplicationJfEJNS_4nameENS_9is_methodENS_7siblingENS_3argEEEEMT0_FT_DpT1_EDpRKT2_EUlPS3_fE_vJSI_fEJS4_S5_S6_S7_EEEvOS9_PFS8_SB_ESH_E5types, symObjAddr: 0x4E538, symBinAddr: 0x68010, symSize: 0x0 }
  - { offsetInCU: 0x50228, offset: 0xA7216, size: 0x8, addend: 0x0, symName: __ZN8pybind1112cpp_functionC2Iv11ApplicationJPKcEJNS_4nameENS_9is_methodENS_7siblingENS_3argEEEEMT0_FT_DpT1_EDpRKT2_, symObjAddr: 0x49590, symBinAddr: 0x5E420, symSize: 0xB0 }
  - { offsetInCU: 0x50316, offset: 0xA7304, size: 0x8, addend: 0x0, symName: __ZN8pybind1112cpp_function10initializeIZNS0_C1Iv11ApplicationJPKcEJNS_4nameENS_9is_methodENS_7siblingENS_3argEEEEMT0_FT_DpT1_EDpRKT2_EUlPS3_S5_E_vJSK_S5_EJS6_S7_S8_S9_EEEvOSB_PFSA_SD_ESJ_, symObjAddr: 0x49640, symBinAddr: 0x5E4D0, symSize: 0x140 }
  - { offsetInCU: 0x50339, offset: 0xA7327, size: 0x8, addend: 0x0, symName: __ZZN8pybind1112cpp_function10initializeIZNS0_C1Iv11ApplicationJPKcEJNS_4nameENS_9is_methodENS_7siblingENS_3argEEEEMT0_FT_DpT1_EDpRKT2_EUlPS3_S5_E_vJSK_S5_EJS6_S7_S8_S9_EEEvOSB_PFSA_SD_ESJ_E9signature, symObjAddr: 0x4E2E9, symBinAddr: 0x63481, symSize: 0x0 }
  - { offsetInCU: 0x50350, offset: 0xA733E, size: 0x8, addend: 0x0, symName: __ZZN8pybind1112cpp_function10initializeIZNS0_C1Iv11ApplicationJPKcEJNS_4nameENS_9is_methodENS_7siblingENS_3argEEEEMT0_FT_DpT1_EDpRKT2_EUlPS3_S5_E_vJSK_S5_EJS6_S7_S8_S9_EEEvOSB_PFSA_SD_ESJ_E5types, symObjAddr: 0x4E548, symBinAddr: 0x68020, symSize: 0x0 }
  - { offsetInCU: 0x50E7A, offset: 0xA7E68, size: 0x8, addend: 0x0, symName: __ZNSt3__16vectorIPcNS_9allocatorIS1_EEE26__swap_out_circular_bufferERNS_14__split_bufferIS1_RS3_EE, symObjAddr: 0x193D0, symBinAddr: 0x2EFA0, symSize: 0x130 }
  - { offsetInCU: 0x50F2E, offset: 0xA7F1C, size: 0x8, addend: 0x0, symName: __ZNSt3__16vectorIN8pybind116detail15argument_recordENS_9allocatorIS3_EEE26__swap_out_circular_bufferERNS_14__split_bufferIS3_RS5_EE, symObjAddr: 0x1E0B0, symBinAddr: 0x33A80, symSize: 0x130 }
  - { offsetInCU: 0x50FF2, offset: 0xA7FE0, size: 0x8, addend: 0x0, symName: __ZNSt3__16vectorIN8pybind116handleENS_9allocatorIS2_EEE26__swap_out_circular_bufferERNS_14__split_bufferIS2_RS4_EE, symObjAddr: 0x21200, symBinAddr: 0x36BD0, symSize: 0x130 }
  - { offsetInCU: 0x5167A, offset: 0xA8668, size: 0x8, addend: 0x0, symName: __ZNSt3__16vectorIN8pybind116detail13function_callENS_9allocatorIS3_EEE26__swap_out_circular_bufferERNS_14__split_bufferIS3_RS5_EE, symObjAddr: 0x27680, symBinAddr: 0x3D050, symSize: 0x130 }
  - { offsetInCU: 0x5191F, offset: 0xA890D, size: 0x8, addend: 0x0, symName: __ZNSt3__16vectorIP11_typeobjectNS_9allocatorIS2_EEE26__swap_out_circular_bufferERNS_14__split_bufferIS2_RS4_EE, symObjAddr: 0x2C300, symBinAddr: 0x41CC0, symSize: 0x130 }
  - { offsetInCU: 0x5198D, offset: 0xA897B, size: 0x8, addend: 0x0, symName: __ZNSt3__16vectorIPN8pybind116detail9type_infoENS_9allocatorIS4_EEE26__swap_out_circular_bufferERNS_14__split_bufferIS4_RS6_EEPS4_, symObjAddr: 0x2E3F0, symBinAddr: 0x43DB0, symSize: 0x170 }
  - { offsetInCU: 0x51A00, offset: 0xA89EE, size: 0x8, addend: 0x0, symName: __ZNSt3__16vectorIPN8pybind116detail9type_infoENS_9allocatorIS4_EEE26__swap_out_circular_bufferERNS_14__split_bufferIS4_RS6_EE, symObjAddr: 0x302D0, symBinAddr: 0x45C90, symSize: 0x130 }
  - { offsetInCU: 0x53BE3, offset: 0xAABD1, size: 0x8, addend: 0x0, symName: __ZNK8pybind1117error_already_set4whatEv, symObjAddr: 0x0, symBinAddr: 0x17590, symSize: 0x80 }
  - { offsetInCU: 0x53C3D, offset: 0xAAC2B, size: 0x8, addend: 0x0, symName: __ZN8pybind1118gil_scoped_acquireC1Ev, symObjAddr: 0x80, symBinAddr: 0x17610, symSize: 0x20 }
  - { offsetInCU: 0x53C79, offset: 0xAAC67, size: 0x8, addend: 0x0, symName: __ZN8pybind1111error_scopeC1Ev, symObjAddr: 0xB0, symBinAddr: 0x17630, symSize: 0x20 }
  - { offsetInCU: 0x53CA1, offset: 0xAAC8F, size: 0x8, addend: 0x0, symName: __ZNKSt3__110shared_ptrIN8pybind116detail25error_fetch_and_normalizeEEptB7v160006Ev, symObjAddr: 0xD0, symBinAddr: 0x17650, symSize: 0x20 }
  - { offsetInCU: 0x53CC5, offset: 0xAACB3, size: 0x8, addend: 0x0, symName: __ZNK8pybind116detail25error_fetch_and_normalize12error_stringEv, symObjAddr: 0xF0, symBinAddr: 0x17670, symSize: 0xD0 }
  - { offsetInCU: 0x53CE9, offset: 0xAACD7, size: 0x8, addend: 0x0, symName: __ZN8pybind1111error_scopeD1Ev, symObjAddr: 0x1E0, symBinAddr: 0x17740, symSize: 0x20 }
  - { offsetInCU: 0x53D11, offset: 0xAACFF, size: 0x8, addend: 0x0, symName: __ZN8pybind1118gil_scoped_acquireD1Ev, symObjAddr: 0x200, symBinAddr: 0x17760, symSize: 0x20 }
  - { offsetInCU: 0x53D39, offset: 0xAAD27, size: 0x8, addend: 0x0, symName: _PyInit_mygameengine, symObjAddr: 0x220, symBinAddr: 0x17780, symSize: 0x250 }
  - { offsetInCU: 0x53DB7, offset: 0xAADA5, size: 0x8, addend: 0x0, symName: __ZN8pybind117module_23create_extension_moduleEPKcS2_P11PyModuleDef, symObjAddr: 0x980, symBinAddr: 0x17EE0, symSize: 0x180 }
  - { offsetInCU: 0x53E07, offset: 0xAADF5, size: 0x8, addend: 0x0, symName: __ZL26pybind11_init_mygameengineRN8pybind117module_E, symObjAddr: 0xB00, symBinAddr: 0x18060, symSize: 0x1B0 }
  - { offsetInCU: 0x53E30, offset: 0xAAE1E, size: 0x8, addend: 0x0, symName: __ZN8pybind116handle3ptrEv, symObjAddr: 0xCB0, symBinAddr: 0x18210, symSize: 0x10 }
  - { offsetInCU: 0x53E54, offset: 0xAAE42, size: 0x8, addend: 0x0, symName: __ZN8pybind116handleC1IP7_objectLi0EEET_, symObjAddr: 0xCF0, symBinAddr: 0x18250, symSize: 0x30 }
  - { offsetInCU: 0x53E9A, offset: 0xAAE88, size: 0x8, addend: 0x0, symName: __ZN8pybind117module_D1Ev, symObjAddr: 0xD50, symBinAddr: 0x182B0, symSize: 0x20 }
  - { offsetInCU: 0x53EC6, offset: 0xAAEB4, size: 0x8, addend: 0x0, symName: __ZN8pybind1117error_already_setD1Ev, symObjAddr: 0xD70, symBinAddr: 0x182D0, symSize: 0x20 }
  - { offsetInCU: 0x53EF2, offset: 0xAAEE0, size: 0x8, addend: 0x0, symName: __ZN8pybind1117error_already_setD0Ev, symObjAddr: 0xD90, symBinAddr: 0x182F0, symSize: 0x30 }
  - { offsetInCU: 0x53F1E, offset: 0xAAF0C, size: 0x8, addend: 0x0, symName: __ZN8pybind1118gil_scoped_acquireC2Ev, symObjAddr: 0xDC0, symBinAddr: 0x18320, symSize: 0x110 }
  - { offsetInCU: 0x53F62, offset: 0xAAF50, size: 0x8, addend: 0x0, symName: __ZN8pybind1118gil_scoped_acquire7inc_refEv, symObjAddr: 0xF90, symBinAddr: 0x184F0, symSize: 0x20 }
  - { offsetInCU: 0x53F86, offset: 0xAAF74, size: 0x8, addend: 0x0, symName: __ZN8pybind1111error_scopeC2Ev, symObjAddr: 0xFB0, symBinAddr: 0x18510, symSize: 0x30 }
  - { offsetInCU: 0x53FAE, offset: 0xAAF9C, size: 0x8, addend: 0x0, symName: __ZNK8pybind116detail25error_fetch_and_normalize22format_value_and_traceEv, symObjAddr: 0x1030, symBinAddr: 0x18590, symSize: 0x1010 }
  - { offsetInCU: 0x54167, offset: 0xAB155, size: 0x8, addend: 0x0, symName: __ZNSt3__112basic_stringIcNS_11char_traitsIcEENS_9allocatorIcEEEpLB7v160006ERKS5_, symObjAddr: 0x2040, symBinAddr: 0x195A0, symSize: 0x30 }
  - { offsetInCU: 0x5419A, offset: 0xAB188, size: 0x8, addend: 0x0, symName: __ZNSt3__112basic_stringIcNS_11char_traitsIcEENS_9allocatorIcEEEC1B7v160006EOS5_, symObjAddr: 0x2070, symBinAddr: 0x195D0, symSize: 0x30 }
  - { offsetInCU: 0x541D1, offset: 0xAB1BF, size: 0x8, addend: 0x0, symName: __ZNSt3__112basic_stringIcNS_11char_traitsIcEENS_9allocatorIcEEEC2B7v160006EOS5_, symObjAddr: 0x20A0, symBinAddr: 0x19600, symSize: 0x90 }
  - { offsetInCU: 0x54208, offset: 0xAB1F6, size: 0x8, addend: 0x0, symName: __ZNSt3__112basic_stringIcNS_11char_traitsIcEENS_9allocatorIcEEE14__default_initB7v160006Ev, symObjAddr: 0x2130, symBinAddr: 0x19690, symSize: 0x50 }
  - { offsetInCU: 0x5422C, offset: 0xAB21A, size: 0x8, addend: 0x0, symName: __ZNSt3__117__compressed_pairINS_12basic_stringIcNS_11char_traitsIcEENS_9allocatorIcEEE5__repES5_E5firstB7v160006Ev, symObjAddr: 0x21D0, symBinAddr: 0x196F0, symSize: 0x20 }
  - { offsetInCU: 0x54250, offset: 0xAB23E, size: 0x8, addend: 0x0, symName: __ZNSt3__122__compressed_pair_elemINS_12basic_stringIcNS_11char_traitsIcEENS_9allocatorIcEEE5__repELi0ELb0EE5__getB7v160006Ev, symObjAddr: 0x21F0, symBinAddr: 0x19710, symSize: 0x10 }
  - { offsetInCU: 0x54274, offset: 0xAB262, size: 0x8, addend: 0x0, symName: __ZNSt3__112basic_stringIcNS_11char_traitsIcEENS_9allocatorIcEEEC1B7v160006Ev, symObjAddr: 0x2230, symBinAddr: 0x19720, symSize: 0x20 }
  - { offsetInCU: 0x5429C, offset: 0xAB28A, size: 0x8, addend: 0x0, symName: __ZNK8pybind116handlecvbEv, symObjAddr: 0x2250, symBinAddr: 0x19740, symSize: 0x20 }
  - { offsetInCU: 0x542C0, offset: 0xAB2AE, size: 0x8, addend: 0x0, symName: __ZNK8pybind116handle3ptrEv, symObjAddr: 0x22B0, symBinAddr: 0x197A0, symSize: 0x20 }
  - { offsetInCU: 0x542E4, offset: 0xAB2D2, size: 0x8, addend: 0x0, symName: __ZNSt3__112basic_stringIcNS_11char_traitsIcEENS_9allocatorIcEEEaSB7v160006EOS5_, symObjAddr: 0x2350, symBinAddr: 0x19840, symSize: 0x30 }
  - { offsetInCU: 0x54317, offset: 0xAB305, size: 0x8, addend: 0x0, symName: __ZNSt3__112basic_stringIcNS_11char_traitsIcEENS_9allocatorIcEEEaSB7v160006EPKc, symObjAddr: 0x2380, symBinAddr: 0x19870, symSize: 0x30 }
  - { offsetInCU: 0x5434A, offset: 0xAB338, size: 0x8, addend: 0x0, symName: __ZNSt3__112basic_stringIcNS_11char_traitsIcEENS_9allocatorIcEEEC1B7v160006EPKcm, symObjAddr: 0x23B0, symBinAddr: 0x198A0, symSize: 0x30 }
  - { offsetInCU: 0x54390, offset: 0xAB37E, size: 0x8, addend: 0x0, symName: __ZN8pybind116objectD1Ev, symObjAddr: 0x23E0, symBinAddr: 0x198D0, symSize: 0x20 }
  - { offsetInCU: 0x543B7, offset: 0xAB3A5, size: 0x8, addend: 0x0, symName: __ZL17PyType_HasFeatureP11_typeobjectm, symObjAddr: 0x2450, symBinAddr: 0x19940, symSize: 0x40 }
  - { offsetInCU: 0x54404, offset: 0xAB3F2, size: 0x8, addend: 0x0, symName: __ZL7Py_TYPEP7_object, symObjAddr: 0x2490, symBinAddr: 0x19980, symSize: 0x20 }
  - { offsetInCU: 0x54432, offset: 0xAB420, size: 0x8, addend: 0x0, symName: __ZNSt3__112basic_stringIcNS_11char_traitsIcEENS_9allocatorIcEEEpLB7v160006Ec, symObjAddr: 0x2500, symBinAddr: 0x199F0, symSize: 0x30 }
  - { offsetInCU: 0x54465, offset: 0xAB453, size: 0x8, addend: 0x0, symName: __ZNKSt3__112basic_stringIcNS_11char_traitsIcEENS_9allocatorIcEEE5emptyB7v160006Ev, symObjAddr: 0x2530, symBinAddr: 0x19A20, symSize: 0x30 }
  - { offsetInCU: 0x54489, offset: 0xAB477, size: 0x8, addend: 0x0, symName: __ZL10Py_XINCREFP7_object, symObjAddr: 0x2560, symBinAddr: 0x19A50, symSize: 0x30 }
  - { offsetInCU: 0x544B4, offset: 0xAB4A2, size: 0x8, addend: 0x0, symName: __ZNSt3__112basic_stringIcNS_11char_traitsIcEENS_9allocatorIcEEEpLB7v160006EPKc, symObjAddr: 0x2590, symBinAddr: 0x19A80, symSize: 0x30 }
  - { offsetInCU: 0x544E7, offset: 0xAB4D5, size: 0x8, addend: 0x0, symName: __ZNK8pybind116handle4castINSt3__112basic_stringIcNS2_11char_traitsIcEENS2_9allocatorIcEEEEEET_v, symObjAddr: 0x25C0, symBinAddr: 0x19AB0, symSize: 0x30 }
  - { offsetInCU: 0x54518, offset: 0xAB506, size: 0x8, addend: 0x0, symName: __ZL9Py_DECREFP7_object, symObjAddr: 0x25F0, symBinAddr: 0x19AE0, symSize: 0x40 }
  - { offsetInCU: 0x54543, offset: 0xAB531, size: 0x8, addend: 0x0, symName: __ZNSt3__112basic_stringIcNS_11char_traitsIcEENS_9allocatorIcEEEC2B7v160006Ev, symObjAddr: 0x2630, symBinAddr: 0x19B20, symSize: 0x50 }
  - { offsetInCU: 0x54570, offset: 0xAB55E, size: 0x8, addend: 0x0, symName: __ZN8pybind116objectC1ENS_6handleENS0_8stolen_tE, symObjAddr: 0x2740, symBinAddr: 0x19B70, symSize: 0x30 }
  - { offsetInCU: 0x545B2, offset: 0xAB5A0, size: 0x8, addend: 0x0, symName: __ZN8pybind116objectC2ENS_6handleENS0_8stolen_tE, symObjAddr: 0x2770, symBinAddr: 0x19BA0, symSize: 0x20 }
  - { offsetInCU: 0x545F4, offset: 0xAB5E2, size: 0x8, addend: 0x0, symName: __ZN8pybind116detail25error_fetch_and_normalizeC1EPKc, symObjAddr: 0x2790, symBinAddr: 0x19BC0, symSize: 0x30 }
  - { offsetInCU: 0x5462B, offset: 0xAB619, size: 0x8, addend: 0x0, symName: __ZN8pybind116detail25error_fetch_and_normalizeD1Ev, symObjAddr: 0x27C0, symBinAddr: 0x19BF0, symSize: 0x20 }
  - { offsetInCU: 0x54657, offset: 0xAB645, size: 0x8, addend: 0x0, symName: __ZN8pybind116detail25error_fetch_and_normalizeC2EPKc, symObjAddr: 0x27E0, symBinAddr: 0x19C10, symSize: 0x730 }
  - { offsetInCU: 0x546D2, offset: 0xAB6C0, size: 0x8, addend: 0x0, symName: __ZN8pybind116objectC1Ev, symObjAddr: 0x2F10, symBinAddr: 0x1A340, symSize: 0x20 }
  - { offsetInCU: 0x546FF, offset: 0xAB6ED, size: 0x8, addend: 0x0, symName: __ZN8pybind116objectC2Ev, symObjAddr: 0x30C0, symBinAddr: 0x1A4C0, symSize: 0x20 }
  - { offsetInCU: 0x54727, offset: 0xAB715, size: 0x8, addend: 0x0, symName: __ZN8pybind116handleC2Ev, symObjAddr: 0x30E0, symBinAddr: 0x1A4E0, symSize: 0x20 }
  - { offsetInCU: 0x5474E, offset: 0xAB73C, size: 0x8, addend: 0x0, symName: __ZL12PyType_CheckP7_object, symObjAddr: 0x31B0, symBinAddr: 0x1A500, symSize: 0x30 }
  - { offsetInCU: 0x5477E, offset: 0xAB76C, size: 0x8, addend: 0x0, symName: __ZNSt3__117basic_string_viewIcNS_11char_traitsIcEEEC1B7v160006EPKc, symObjAddr: 0x32C0, symBinAddr: 0x1A5C0, symSize: 0x30 }
  - { offsetInCU: 0x547B5, offset: 0xAB7A3, size: 0x8, addend: 0x0, symName: __ZNSt3__117basic_string_viewIcNS_11char_traitsIcEEEC2B7v160006EPKc, symObjAddr: 0x3780, symBinAddr: 0x1A5F0, symSize: 0x40 }
  - { offsetInCU: 0x547EC, offset: 0xAB7DA, size: 0x8, addend: 0x0, symName: __ZN8pybind116detail25error_fetch_and_normalizeD2Ev, symObjAddr: 0x37E0, symBinAddr: 0x1A650, symSize: 0x50 }
  - { offsetInCU: 0x54818, offset: 0xAB806, size: 0x8, addend: 0x0, symName: __ZNSt3__112basic_stringIcNS_11char_traitsIcEENS_9allocatorIcEEE13__move_assignB7v160006ERS5_NS_17integral_constantIbLb1EEE, symObjAddr: 0x3830, symBinAddr: 0x1A6A0, symSize: 0xD0 }
  - { offsetInCU: 0x54858, offset: 0xAB846, size: 0x8, addend: 0x0, symName: __ZNSt3__116allocator_traitsINS_9allocatorIcEEE10deallocateB7v160006ERS2_Pcm, symObjAddr: 0x3900, symBinAddr: 0x1A770, symSize: 0x30 }
  - { offsetInCU: 0x54899, offset: 0xAB887, size: 0x8, addend: 0x0, symName: __ZNSt3__112basic_stringIcNS_11char_traitsIcEENS_9allocatorIcEEE7__allocB7v160006Ev, symObjAddr: 0x3930, symBinAddr: 0x1A7A0, symSize: 0x20 }
  - { offsetInCU: 0x548BD, offset: 0xAB8AB, size: 0x8, addend: 0x0, symName: __ZNSt3__112basic_stringIcNS_11char_traitsIcEENS_9allocatorIcEEE18__get_long_pointerB7v160006Ev, symObjAddr: 0x3950, symBinAddr: 0x1A7C0, symSize: 0x20 }
  - { offsetInCU: 0x548E1, offset: 0xAB8CF, size: 0x8, addend: 0x0, symName: __ZNKSt3__112basic_stringIcNS_11char_traitsIcEENS_9allocatorIcEEE14__get_long_capB7v160006Ev, symObjAddr: 0x3970, symBinAddr: 0x1A7E0, symSize: 0x30 }
  - { offsetInCU: 0x54905, offset: 0xAB8F3, size: 0x8, addend: 0x0, symName: __ZNSt3__112basic_stringIcNS_11char_traitsIcEENS_9allocatorIcEEE19__move_assign_allocB7v160006ERS5_, symObjAddr: 0x39A0, symBinAddr: 0x1A810, symSize: 0x30 }
  - { offsetInCU: 0x54938, offset: 0xAB926, size: 0x8, addend: 0x0, symName: __ZNSt3__112basic_stringIcNS_11char_traitsIcEENS_9allocatorIcEEE16__set_short_sizeB7v160006Em, symObjAddr: 0x39D0, symBinAddr: 0x1A840, symSize: 0x50 }
  - { offsetInCU: 0x5496B, offset: 0xAB959, size: 0x8, addend: 0x0, symName: __ZNSt3__111char_traitsIcE6assignERcRKc, symObjAddr: 0x3A20, symBinAddr: 0x1A890, symSize: 0x20 }
  - { offsetInCU: 0x5499B, offset: 0xAB989, size: 0x8, addend: 0x0, symName: __ZNSt3__112basic_stringIcNS_11char_traitsIcEENS_9allocatorIcEEE19__get_short_pointerB7v160006Ev, symObjAddr: 0x3A40, symBinAddr: 0x1A8B0, symSize: 0x30 }
  - { offsetInCU: 0x549BF, offset: 0xAB9AD, size: 0x8, addend: 0x0, symName: __ZNSt3__19allocatorIcE10deallocateB7v160006EPcm, symObjAddr: 0x3A70, symBinAddr: 0x1A8E0, symSize: 0x40 }
  - { offsetInCU: 0x549FF, offset: 0xAB9ED, size: 0x8, addend: 0x0, symName: __ZNSt3__117__compressed_pairINS_12basic_stringIcNS_11char_traitsIcEENS_9allocatorIcEEE5__repES5_E6secondB7v160006Ev, symObjAddr: 0x3BD0, symBinAddr: 0x1A920, symSize: 0x20 }
  - { offsetInCU: 0x54A23, offset: 0xABA11, size: 0x8, addend: 0x0, symName: __ZNSt3__122__compressed_pair_elemINS_9allocatorIcEELi1ELb1EE5__getB7v160006Ev, symObjAddr: 0x3BF0, symBinAddr: 0x1A940, symSize: 0x10 }
  - { offsetInCU: 0x54A47, offset: 0xABA35, size: 0x8, addend: 0x0, symName: __ZNSt3__112basic_stringIcNS_11char_traitsIcEENS_9allocatorIcEEE19__move_assign_allocB7v160006ERS5_NS_17integral_constantIbLb1EEE, symObjAddr: 0x3C00, symBinAddr: 0x1A950, symSize: 0x30 }
  - { offsetInCU: 0x54A85, offset: 0xABA73, size: 0x8, addend: 0x0, symName: __ZNSt3__114pointer_traitsIPcE10pointer_toB7v160006ERc, symObjAddr: 0x3C30, symBinAddr: 0x1A980, symSize: 0x10 }
  - { offsetInCU: 0x54AA7, offset: 0xABA95, size: 0x8, addend: 0x0, symName: __ZNSt3__112basic_stringIcNS_11char_traitsIcEENS_9allocatorIcEEEC2B7v160006EPKcm, symObjAddr: 0x3C40, symBinAddr: 0x1A990, symSize: 0x70 }
  - { offsetInCU: 0x54AED, offset: 0xABADB, size: 0x8, addend: 0x0, symName: __ZN8pybind116objectD2Ev, symObjAddr: 0x3CB0, symBinAddr: 0x1AA00, symSize: 0x30 }
  - { offsetInCU: 0x54B15, offset: 0xABB03, size: 0x8, addend: 0x0, symName: __ZNKR8pybind116handle7dec_refEv, symObjAddr: 0x3CE0, symBinAddr: 0x1AA30, symSize: 0xA0 }
  - { offsetInCU: 0x54B39, offset: 0xABB27, size: 0x8, addend: 0x0, symName: __ZNK8pybind116handle20throw_gilstate_errorERKNSt3__112basic_stringIcNS1_11char_traitsIcEENS1_9allocatorIcEEEE, symObjAddr: 0x3D80, symBinAddr: 0x1AAD0, symSize: 0x180 }
  - { offsetInCU: 0x54B6C, offset: 0xABB5A, size: 0x8, addend: 0x0, symName: __ZL10Py_XDECREFP7_object, symObjAddr: 0x3F00, symBinAddr: 0x1AC50, symSize: 0x30 }
  - { offsetInCU: 0x54BA1, offset: 0xABB8F, size: 0x8, addend: 0x0, symName: __ZNSt3__116allocator_traitsINS_9allocatorIcEEE37select_on_container_copy_constructionB7v160006IS2_vvEES2_RKS2_, symObjAddr: 0x4030, symBinAddr: 0x1AD80, symSize: 0x10 }
  - { offsetInCU: 0x54BD1, offset: 0xABBBF, size: 0x8, addend: 0x0, symName: __ZNKSt3__112basic_stringIcNS_11char_traitsIcEENS_9allocatorIcEEE13get_allocatorB7v160006Ev, symObjAddr: 0x4040, symBinAddr: 0x1AD90, symSize: 0x20 }
  - { offsetInCU: 0x54BF5, offset: 0xABBE3, size: 0x8, addend: 0x0, symName: __ZNSt3__112basic_stringIcNS_11char_traitsIcEENS_9allocatorIcEEEC1B7v160006ENS_24__uninitialized_size_tagEmRKS4_, symObjAddr: 0x4060, symBinAddr: 0x1ADB0, symSize: 0x30 }
  - { offsetInCU: 0x54C46, offset: 0xABC34, size: 0x8, addend: 0x0, symName: __ZNSt3__112basic_stringIcNS_11char_traitsIcEENS_9allocatorIcEEE13__get_pointerB7v160006Ev, symObjAddr: 0x40A0, symBinAddr: 0x1ADF0, symSize: 0x50 }
  - { offsetInCU: 0x54C6A, offset: 0xABC58, size: 0x8, addend: 0x0, symName: __ZNSt3__111char_traitsIcE4copyEPcPKcm, symObjAddr: 0x40F0, symBinAddr: 0x1AE40, symSize: 0x70 }
  - { offsetInCU: 0x54CA8, offset: 0xABC96, size: 0x8, addend: 0x0, symName: __ZNSt3__111char_traitsIcE6assignEPcmc, symObjAddr: 0x4160, symBinAddr: 0x1AEB0, symSize: 0x40 }
  - { offsetInCU: 0x54CE6, offset: 0xABCD4, size: 0x8, addend: 0x0, symName: __ZNKSt3__112basic_stringIcNS_11char_traitsIcEENS_9allocatorIcEEE7__allocB7v160006Ev, symObjAddr: 0x41A0, symBinAddr: 0x1AEF0, symSize: 0x20 }
  - { offsetInCU: 0x54D0A, offset: 0xABCF8, size: 0x8, addend: 0x0, symName: __ZNKSt3__117__compressed_pairINS_12basic_stringIcNS_11char_traitsIcEENS_9allocatorIcEEE5__repES5_E6secondB7v160006Ev, symObjAddr: 0x41C0, symBinAddr: 0x1AF10, symSize: 0x20 }
  - { offsetInCU: 0x54D2E, offset: 0xABD1C, size: 0x8, addend: 0x0, symName: __ZNKSt3__122__compressed_pair_elemINS_9allocatorIcEELi1ELb1EE5__getB7v160006Ev, symObjAddr: 0x41E0, symBinAddr: 0x1AF30, symSize: 0x10 }
  - { offsetInCU: 0x54D52, offset: 0xABD40, size: 0x8, addend: 0x0, symName: __ZNSt3__112basic_stringIcNS_11char_traitsIcEENS_9allocatorIcEEEC2B7v160006ENS_24__uninitialized_size_tagEmRKS4_, symObjAddr: 0x41F0, symBinAddr: 0x1AF40, symSize: 0x120 }
  - { offsetInCU: 0x54DD1, offset: 0xABDBF, size: 0x8, addend: 0x0, symName: __ZNSt3__117__compressed_pairINS_12basic_stringIcNS_11char_traitsIcEENS_9allocatorIcEEE5__repES5_EC1B7v160006INS_18__default_init_tagERKS5_EEOT_OT0_, symObjAddr: 0x4310, symBinAddr: 0x1B060, symSize: 0x30 }
  - { offsetInCU: 0x54E27, offset: 0xABE15, size: 0x8, addend: 0x0, symName: __ZNKSt3__112basic_stringIcNS_11char_traitsIcEENS_9allocatorIcEEE8max_sizeB7v160006Ev, symObjAddr: 0x4340, symBinAddr: 0x1B090, symSize: 0xA0 }
  - { offsetInCU: 0x54E77, offset: 0xABE65, size: 0x8, addend: 0x0, symName: __ZNKSt3__112basic_stringIcNS_11char_traitsIcEENS_9allocatorIcEEE20__throw_length_errorB7v160006Ev, symObjAddr: 0x43E0, symBinAddr: 0x1B130, symSize: 0x20 }
  - { offsetInCU: 0x54E9B, offset: 0xABE89, size: 0x8, addend: 0x0, symName: __ZNSt3__112basic_stringIcNS_11char_traitsIcEENS_9allocatorIcEEE13__fits_in_ssoB7v160006Em, symObjAddr: 0x4400, symBinAddr: 0x1B150, symSize: 0x20 }
  - { offsetInCU: 0x54EBE, offset: 0xABEAC, size: 0x8, addend: 0x0, symName: __ZNSt3__112basic_stringIcNS_11char_traitsIcEENS_9allocatorIcEEE11__recommendB7v160006Em, symObjAddr: 0x4420, symBinAddr: 0x1B170, symSize: 0x70 }
  - { offsetInCU: 0x54EF0, offset: 0xABEDE, size: 0x8, addend: 0x0, symName: __ZNSt3__116allocator_traitsINS_9allocatorIcEEE8allocateB7v160006ERS2_m, symObjAddr: 0x4490, symBinAddr: 0x1B1E0, symSize: 0x30 }
  - { offsetInCU: 0x54F22, offset: 0xABF10, size: 0x8, addend: 0x0, symName: __ZNSt3__112basic_stringIcNS_11char_traitsIcEENS_9allocatorIcEEE16__begin_lifetimeB7v160006EPcm, symObjAddr: 0x44C0, symBinAddr: 0x1B210, symSize: 0x10 }
  - { offsetInCU: 0x54F54, offset: 0xABF42, size: 0x8, addend: 0x0, symName: __ZNSt3__112basic_stringIcNS_11char_traitsIcEENS_9allocatorIcEEE14__set_long_capB7v160006Em, symObjAddr: 0x44D0, symBinAddr: 0x1B220, symSize: 0x70 }
  - { offsetInCU: 0x54F87, offset: 0xABF75, size: 0x8, addend: 0x0, symName: __ZNSt3__112basic_stringIcNS_11char_traitsIcEENS_9allocatorIcEEE18__set_long_pointerB7v160006EPc, symObjAddr: 0x4540, symBinAddr: 0x1B290, symSize: 0x30 }
  - { offsetInCU: 0x54FBA, offset: 0xABFA8, size: 0x8, addend: 0x0, symName: __ZNSt3__112basic_stringIcNS_11char_traitsIcEENS_9allocatorIcEEE15__set_long_sizeB7v160006Em, symObjAddr: 0x4570, symBinAddr: 0x1B2C0, symSize: 0x30 }
  - { offsetInCU: 0x54FED, offset: 0xABFDB, size: 0x8, addend: 0x0, symName: __ZNSt3__117__compressed_pairINS_12basic_stringIcNS_11char_traitsIcEENS_9allocatorIcEEE5__repES5_EC2B7v160006INS_18__default_init_tagERKS5_EEOT_OT0_, symObjAddr: 0x45A0, symBinAddr: 0x1B2F0, symSize: 0x40 }
  - { offsetInCU: 0x55043, offset: 0xAC031, size: 0x8, addend: 0x0, symName: __ZNSt3__122__compressed_pair_elemINS_9allocatorIcEELi1ELb1EEC2B7v160006IRKS2_vEEOT_, symObjAddr: 0x45E0, symBinAddr: 0x1B330, symSize: 0x10 }
  - { offsetInCU: 0x55084, offset: 0xAC072, size: 0x8, addend: 0x0, symName: __ZNSt3__116allocator_traitsINS_9allocatorIcEEE8max_sizeB7v160006IS2_vvEEmRKS2_, symObjAddr: 0x45F0, symBinAddr: 0x1B340, symSize: 0x20 }
  - { offsetInCU: 0x550B0, offset: 0xAC09E, size: 0x8, addend: 0x0, symName: __ZNSt3__112basic_stringIcNS_11char_traitsIcEENS_9allocatorIcEEE10__align_itB7v160006ILm16EEEmm, symObjAddr: 0x4710, symBinAddr: 0x1B360, symSize: 0x20 }
  - { offsetInCU: 0x550DD, offset: 0xAC0CB, size: 0x8, addend: 0x0, symName: __ZNSt3__19allocatorIcE8allocateB7v160006Em, symObjAddr: 0x4730, symBinAddr: 0x1B380, symSize: 0x50 }
  - { offsetInCU: 0x55132, offset: 0xAC120, size: 0x8, addend: 0x0, symName: __ZNKSt3__114__copy_trivialclB7v160006IKccLi0EEENS_4pairIPT_PT0_EES5_S5_S7_, symObjAddr: 0x4A60, symBinAddr: 0x1B5C0, symSize: 0x40 }
  - { offsetInCU: 0x551B2, offset: 0xAC1A0, size: 0x8, addend: 0x0, symName: __ZNSt3__119__unwrap_range_implIPKcS2_E8__unwrapB7v160006ES2_S2_, symObjAddr: 0x4B60, symBinAddr: 0x1B6C0, symSize: 0x50 }
  - { offsetInCU: 0x551E7, offset: 0xAC1D5, size: 0x8, addend: 0x0, symName: __ZNSt3__14pairIPKcS2_EC1B7v160006IS2_S2_LPv0EEEOT_OT0_, symObjAddr: 0x4BD0, symBinAddr: 0x1B730, symSize: 0x30 }
  - { offsetInCU: 0x55244, offset: 0xAC232, size: 0x8, addend: 0x0, symName: __ZNSt3__118__unwrap_iter_implIPKcLb1EE8__unwrapB7v160006ES2_, symObjAddr: 0x4C00, symBinAddr: 0x1B760, symSize: 0x20 }
  - { offsetInCU: 0x55266, offset: 0xAC254, size: 0x8, addend: 0x0, symName: __ZNSt3__14pairIPKcS2_EC2B7v160006IS2_S2_LPv0EEEOT_OT0_, symObjAddr: 0x4C20, symBinAddr: 0x1B780, symSize: 0x30 }
  - { offsetInCU: 0x552CD, offset: 0xAC2BB, size: 0x8, addend: 0x0, symName: __ZNSt3__14pairIPKcPcEC1B7v160006IRS2_S3_LPv0EEEOT_OT0_, symObjAddr: 0x4CF0, symBinAddr: 0x1B850, symSize: 0x30 }
  - { offsetInCU: 0x5532A, offset: 0xAC318, size: 0x8, addend: 0x0, symName: __ZNSt3__14pairIPKcPcEC2B7v160006IRS2_S3_LPv0EEEOT_OT0_, symObjAddr: 0x4D20, symBinAddr: 0x1B880, symSize: 0x30 }
  - { offsetInCU: 0x55387, offset: 0xAC375, size: 0x8, addend: 0x0, symName: __ZNSt3__118__unwrap_iter_implIPcLb1EE8__unwrapB7v160006ES1_, symObjAddr: 0x4D50, symBinAddr: 0x1B8B0, symSize: 0x20 }
  - { offsetInCU: 0x553A9, offset: 0xAC397, size: 0x8, addend: 0x0, symName: __ZNSt3__14pairIPKcPcEC1B7v160006IS2_S3_LPv0EEEOT_OT0_, symObjAddr: 0x4D70, symBinAddr: 0x1B8D0, symSize: 0x30 }
  - { offsetInCU: 0x55406, offset: 0xAC3F4, size: 0x8, addend: 0x0, symName: __ZNSt3__14pairIPKcPcEC2B7v160006IS2_S3_LPv0EEEOT_OT0_, symObjAddr: 0x4DA0, symBinAddr: 0x1B900, symSize: 0x30 }
  - { offsetInCU: 0x55463, offset: 0xAC451, size: 0x8, addend: 0x0, symName: __ZNSt3__119__unwrap_range_implIPKcS2_E8__rewrapB7v160006ES2_S2_, symObjAddr: 0x4DD0, symBinAddr: 0x1B930, symSize: 0x30 }
  - { offsetInCU: 0x55493, offset: 0xAC481, size: 0x8, addend: 0x0, symName: __ZNSt3__118__unwrap_iter_implIPKcLb1EE8__rewrapB7v160006ES2_S2_, symObjAddr: 0x4E40, symBinAddr: 0x1B9A0, symSize: 0x40 }
  - { offsetInCU: 0x554C3, offset: 0xAC4B1, size: 0x8, addend: 0x0, symName: __ZNSt3__118__unwrap_iter_implIPcLb1EE8__rewrapB7v160006ES1_S1_, symObjAddr: 0x4E80, symBinAddr: 0x1B9E0, symSize: 0x40 }
  - { offsetInCU: 0x554F3, offset: 0xAC4E1, size: 0x8, addend: 0x0, symName: __ZNSt3__112basic_stringIcNS_11char_traitsIcEENS_9allocatorIcEEE6appendB7v160006ERKS5_, symObjAddr: 0x4F60, symBinAddr: 0x1BAC0, symSize: 0x50 }
  - { offsetInCU: 0x55526, offset: 0xAC514, size: 0x8, addend: 0x0, symName: __ZL9Py_INCREFP7_object, symObjAddr: 0x4FB0, symBinAddr: 0x1BB10, symSize: 0x20 }
  - { offsetInCU: 0x55556, offset: 0xAC544, size: 0x8, addend: 0x0, symName: __ZN8pybind116detail11type_casterINSt3__112basic_stringIcNS2_11char_traitsIcEENS2_9allocatorIcEEEEvED1Ev, symObjAddr: 0x50F0, symBinAddr: 0x1BC50, symSize: 0x20 }
  - { offsetInCU: 0x55582, offset: 0xAC570, size: 0x8, addend: 0x0, symName: __ZNO8pybind116detail13string_casterINSt3__112basic_stringIcNS2_11char_traitsIcEENS2_9allocatorIcEEEELb0EEcvOS8_Ev, symObjAddr: 0x5110, symBinAddr: 0x1BC70, symSize: 0x10 }
  - { offsetInCU: 0x555A6, offset: 0xAC594, size: 0x8, addend: 0x0, symName: __ZN8pybind116detail11type_casterINSt3__112basic_stringIcNS2_11char_traitsIcEENS2_9allocatorIcEEEEvEC1Ev, symObjAddr: 0x5120, symBinAddr: 0x1BC80, symSize: 0x20 }
  - { offsetInCU: 0x555D2, offset: 0xAC5C0, size: 0x8, addend: 0x0, symName: __ZN8pybind116detail11type_casterINSt3__112basic_stringIcNS2_11char_traitsIcEENS2_9allocatorIcEEEEvEC2Ev, symObjAddr: 0x53E0, symBinAddr: 0x1BF40, symSize: 0x20 }
  - { offsetInCU: 0x555FE, offset: 0xAC5EC, size: 0x8, addend: 0x0, symName: __ZN8pybind116detail13string_casterINSt3__112basic_stringIcNS2_11char_traitsIcEENS2_9allocatorIcEEEELb0EEC2Ev, symObjAddr: 0x5400, symBinAddr: 0x1BF60, symSize: 0x20 }
  - { offsetInCU: 0x5562A, offset: 0xAC618, size: 0x8, addend: 0x0, symName: __ZN8pybind116detail13string_casterINSt3__112basic_stringIcNS2_11char_traitsIcEENS2_9allocatorIcEEEELb0EE4loadENS_6handleEb, symObjAddr: 0x5420, symBinAddr: 0x1BF80, symSize: 0x100 }
  - { offsetInCU: 0x556B2, offset: 0xAC6A0, size: 0x8, addend: 0x0, symName: __ZN8pybind114type9handle_ofENS_6handleE, symObjAddr: 0x5520, symBinAddr: 0x1C080, symSize: 0x40 }
  - { offsetInCU: 0x556D5, offset: 0xAC6C3, size: 0x8, addend: 0x0, symName: __ZN8pybind113strC1ENS_6handleE, symObjAddr: 0x5560, symBinAddr: 0x1C0C0, symSize: 0x30 }
  - { offsetInCU: 0x5570C, offset: 0xAC6FA, size: 0x8, addend: 0x0, symName: __ZNO8pybind116object4castINSt3__112basic_stringIcNS2_11char_traitsIcEENS2_9allocatorIcEEEEEET_v, symObjAddr: 0x5590, symBinAddr: 0x1C0F0, symSize: 0x30 }
  - { offsetInCU: 0x5573D, offset: 0xAC72B, size: 0x8, addend: 0x0, symName: __ZN8pybind1110cast_errorCI1St13runtime_errorERKNSt3__112basic_stringIcNS1_11char_traitsIcEENS1_9allocatorIcEEEE, symObjAddr: 0x5600, symBinAddr: 0x1C160, symSize: 0x30 }
  - { offsetInCU: 0x55772, offset: 0xAC760, size: 0x8, addend: 0x0, symName: __ZN8pybind1110cast_errorD1Ev, symObjAddr: 0x5630, symBinAddr: 0x1C190, symSize: 0x20 }
  - { offsetInCU: 0x5579E, offset: 0xAC78C, size: 0x8, addend: 0x0, symName: __ZN8pybind113strD1Ev, symObjAddr: 0x5650, symBinAddr: 0x1C1B0, symSize: 0x20 }
  - { offsetInCU: 0x557CA, offset: 0xAC7B8, size: 0x8, addend: 0x0, symName: __ZN8pybind116detail13string_casterINSt3__112basic_stringIcNS2_11char_traitsIcEENS2_9allocatorIcEEEELb0EE8load_rawIcEEbNS2_9enable_ifIXsr3std7is_sameIT_cEE5valueENS_6handleEE4typeE, symObjAddr: 0x5670, symBinAddr: 0x1C1D0, symSize: 0x160 }
  - { offsetInCU: 0x5583F, offset: 0xAC82D, size: 0x8, addend: 0x0, symName: __ZL18PyObject_TypeCheckP7_objectP11_typeobject, symObjAddr: 0x57D0, symBinAddr: 0x1C330, symSize: 0x60 }
  - { offsetInCU: 0x5587D, offset: 0xAC86B, size: 0x8, addend: 0x0, symName: __ZL10Py_IS_TYPEP7_objectP11_typeobject, symObjAddr: 0x5830, symBinAddr: 0x1C390, symSize: 0x30 }
  - { offsetInCU: 0x558B9, offset: 0xAC8A7, size: 0x8, addend: 0x0, symName: __ZN8pybind113strC2ENS_6handleE, symObjAddr: 0x5860, symBinAddr: 0x1C3C0, symSize: 0xD0 }
  - { offsetInCU: 0x558F0, offset: 0xAC8DE, size: 0x8, addend: 0x0, symName: __ZN8pybind113str7raw_strEP7_object, symObjAddr: 0x5930, symBinAddr: 0x1C490, symSize: 0x30 }
  - { offsetInCU: 0x55922, offset: 0xAC910, size: 0x8, addend: 0x0, symName: __ZN8pybind1117error_already_setC1Ev, symObjAddr: 0x5960, symBinAddr: 0x1C4C0, symSize: 0x20 }
  - { offsetInCU: 0x5594A, offset: 0xAC938, size: 0x8, addend: 0x0, symName: __ZN8pybind1117error_already_setC2Ev, symObjAddr: 0x5980, symBinAddr: 0x1C4E0, symSize: 0xC0 }
  - { offsetInCU: 0x55972, offset: 0xAC960, size: 0x8, addend: 0x0, symName: __ZN8pybind1117error_already_set23m_fetched_error_deleterEPNS_6detail25error_fetch_and_normalizeE, symObjAddr: 0x5A60, symBinAddr: 0x1C5A0, symSize: 0x80 }
  - { offsetInCU: 0x559C4, offset: 0xAC9B2, size: 0x8, addend: 0x0, symName: __ZNSt3__110shared_ptrIN8pybind116detail25error_fetch_and_normalizeEEC1B7v160006IS3_PFvPS3_EvEEPT_T0_, symObjAddr: 0x5AE0, symBinAddr: 0x1C620, symSize: 0x30 }
  - { offsetInCU: 0x55A1E, offset: 0xACA0C, size: 0x8, addend: 0x0, symName: __ZNSt3__110shared_ptrIN8pybind116detail25error_fetch_and_normalizeEEC2B7v160006IS3_PFvPS3_EvEEPT_T0_, symObjAddr: 0x5B10, symBinAddr: 0x1C650, symSize: 0x110 }
  - { offsetInCU: 0x55A82, offset: 0xACA70, size: 0x8, addend: 0x0, symName: __ZNSt3__19allocatorIN8pybind116detail25error_fetch_and_normalizeEEC1B7v160006Ev, symObjAddr: 0x5C20, symBinAddr: 0x1C760, symSize: 0x20 }
  - { offsetInCU: 0x55B6D, offset: 0xACB5B, size: 0x8, addend: 0x0, symName: __ZNSt3__120__shared_ptr_pointerIPN8pybind116detail25error_fetch_and_normalizeEPFvS4_ENS_9allocatorIS3_EEEC1B7v160006ES4_S6_S8_, symObjAddr: 0x5C40, symBinAddr: 0x1C780, symSize: 0x30 }
  - { offsetInCU: 0x55BBF, offset: 0xACBAD, size: 0x8, addend: 0x0, symName: __ZNSt3__110shared_ptrIN8pybind116detail25error_fetch_and_normalizeEE18__enable_weak_thisB7v160006Ez, symObjAddr: 0x5C70, symBinAddr: 0x1C7B0, symSize: 0x10 }
  - { offsetInCU: 0x55BE4, offset: 0xACBD2, size: 0x8, addend: 0x0, symName: __ZNSt3__19allocatorIN8pybind116detail25error_fetch_and_normalizeEEC2B7v160006Ev, symObjAddr: 0x5C80, symBinAddr: 0x1C7C0, symSize: 0x20 }
  - { offsetInCU: 0x55C0C, offset: 0xACBFA, size: 0x8, addend: 0x0, symName: __ZNSt3__116__non_trivial_ifILb1ENS_9allocatorIN8pybind116detail25error_fetch_and_normalizeEEEEC2B7v160006Ev, symObjAddr: 0x5CA0, symBinAddr: 0x1C7E0, symSize: 0x10 }
  - { offsetInCU: 0x55C34, offset: 0xACC22, size: 0x8, addend: 0x0, symName: __ZNSt3__120__shared_ptr_pointerIPN8pybind116detail25error_fetch_and_normalizeEPFvS4_ENS_9allocatorIS3_EEEC2B7v160006ES4_S6_S8_, symObjAddr: 0x5CB0, symBinAddr: 0x1C7F0, symSize: 0x90 }
  - { offsetInCU: 0x55C8B, offset: 0xACC79, size: 0x8, addend: 0x0, symName: __ZNSt3__117__compressed_pairIPN8pybind116detail25error_fetch_and_normalizeEPFvS4_EEC1B7v160006IRS4_S6_EEOT_OT0_, symObjAddr: 0x5D90, symBinAddr: 0x1C880, symSize: 0x30 }
  - { offsetInCU: 0x55CEB, offset: 0xACCD9, size: 0x8, addend: 0x0, symName: __ZNSt3__117__compressed_pairINS0_IPN8pybind116detail25error_fetch_and_normalizeEPFvS4_EEENS_9allocatorIS3_EEEC1B7v160006IS7_S9_EEOT_OT0_, symObjAddr: 0x5DC0, symBinAddr: 0x1C8B0, symSize: 0x30 }
  - { offsetInCU: 0x55D41, offset: 0xACD2F, size: 0x8, addend: 0x0, symName: __ZNSt3__120__shared_ptr_pointerIPN8pybind116detail25error_fetch_and_normalizeEPFvS4_ENS_9allocatorIS3_EEED1Ev, symObjAddr: 0x5DF0, symBinAddr: 0x1C8E0, symSize: 0x20 }
  - { offsetInCU: 0x55D6B, offset: 0xACD59, size: 0x8, addend: 0x0, symName: __ZNSt3__120__shared_ptr_pointerIPN8pybind116detail25error_fetch_and_normalizeEPFvS4_ENS_9allocatorIS3_EEED0Ev, symObjAddr: 0x5E10, symBinAddr: 0x1C900, symSize: 0x30 }
  - { offsetInCU: 0x55D95, offset: 0xACD83, size: 0x8, addend: 0x0, symName: __ZNSt3__120__shared_ptr_pointerIPN8pybind116detail25error_fetch_and_normalizeEPFvS4_ENS_9allocatorIS3_EEE16__on_zero_sharedEv, symObjAddr: 0x5E40, symBinAddr: 0x1C930, symSize: 0x80 }
  - { offsetInCU: 0x55DBB, offset: 0xACDA9, size: 0x8, addend: 0x0, symName: __ZNKSt3__120__shared_ptr_pointerIPN8pybind116detail25error_fetch_and_normalizeEPFvS4_ENS_9allocatorIS3_EEE13__get_deleterERKSt9type_info, symObjAddr: 0x5EC0, symBinAddr: 0x1C9B0, symSize: 0x70 }
  - { offsetInCU: 0x55DEF, offset: 0xACDDD, size: 0x8, addend: 0x0, symName: __ZNSt3__120__shared_ptr_pointerIPN8pybind116detail25error_fetch_and_normalizeEPFvS4_ENS_9allocatorIS3_EEE21__on_zero_shared_weakEv, symObjAddr: 0x5F30, symBinAddr: 0x1CA20, symSize: 0x60 }
  - { offsetInCU: 0x55E2F, offset: 0xACE1D, size: 0x8, addend: 0x0, symName: __ZNSt3__117__compressed_pairIPN8pybind116detail25error_fetch_and_normalizeEPFvS4_EEC2B7v160006IRS4_S6_EEOT_OT0_, symObjAddr: 0x5FC0, symBinAddr: 0x1CA80, symSize: 0x40 }
