---
triple:          'x86_64-apple-darwin'
binary-path:     mygameengine.so
relocations:
  - { offsetInCU: 0x5C, offset: 0x5C, size: 0x8, addend: 0x0, symName: __ZN8pybind116detail16get_internals_ppEv, symObjAddr: 0x1A40, symBinAddr: 0x28F0, symSize: 0x10 }
  - { offsetInCU: 0x202C, offset: 0x202C, size: 0x8, addend: 0x0, symName: __ZN8pybind116detail23all_type_info_get_cacheEP11_typeobject, symObjAddr: 0xDCC0, symBinAddr: 0xEB70, symSize: 0xF0 }
  - { offsetInCU: 0x20E4, offset: 0x20E4, size: 0x8, addend: 0x0, symName: __ZN8pybind116detail19get_local_internalsEv, symObjAddr: 0x1B2B0, symBinAddr: 0x1C160, symSize: 0xB0 }
  - { offsetInCU: 0x210F, offset: 0x210F, size: 0x8, addend: 0x0, symName: __ZZN8pybind116detail19get_local_internalsEvE6locals, symObjAddr: 0x3DC68, symBinAddr: 0x5A648, symSize: 0x0 }
  - { offsetInCU: 0x342B, offset: 0x342B, size: 0x8, addend: 0x0, symName: __ZN8pybind116detail13get_internalsEv, symObjAddr: 0x1440, symBinAddr: 0x22F0, symSize: 0x520 }
  - { offsetInCU: 0x352A, offset: 0x352A, size: 0x8, addend: 0x0, symName: __ZN8pybind116detail26get_thread_state_uncheckedEv, symObjAddr: 0x1A10, symBinAddr: 0x28C0, symSize: 0x10 }
  - { offsetInCU: 0x3548, offset: 0x3548, size: 0x8, addend: 0x0, symName: __ZN8pybind116detail21get_python_state_dictEv, symObjAddr: 0x1A70, symBinAddr: 0x2920, symSize: 0x150 }
  - { offsetInCU: 0x3577, offset: 0x3577, size: 0x8, addend: 0x0, symName: __ZN8pybind116detail33get_internals_obj_from_state_dictENS_6handleE, symObjAddr: 0x1BF0, symBinAddr: 0x2AA0, symSize: 0x60 }
  - { offsetInCU: 0x35A5, offset: 0x35A5, size: 0x8, addend: 0x0, symName: __ZN8pybind116detail29get_internals_pp_from_capsuleENS_6handleE, symObjAddr: 0x1C70, symBinAddr: 0x2B20, symSize: 0xB0 }
  - { offsetInCU: 0x35E2, offset: 0x35E2, size: 0x8, addend: 0x0, symName: __ZN8pybind116detail25translate_local_exceptionESt13exception_ptr, symObjAddr: 0x1E30, symBinAddr: 0x2CE0, symSize: 0x120 }
  - { offsetInCU: 0x362B, offset: 0x362B, size: 0x8, addend: 0x0, symName: __ZN8pybind116detail19translate_exceptionESt13exception_ptr, symObjAddr: 0x20F0, symBinAddr: 0x2FA0, symSize: 0x6F0 }
  - { offsetInCU: 0x3718, offset: 0x3718, size: 0x8, addend: 0x0, symName: __ZN8pybind116detail25make_static_property_typeEv, symObjAddr: 0x27E0, symBinAddr: 0x3690, symSize: 0x210 }
  - { offsetInCU: 0x376E, offset: 0x376E, size: 0x8, addend: 0x0, symName: __ZN8pybind116detail22make_default_metaclassEv, symObjAddr: 0x29F0, symBinAddr: 0x38A0, symSize: 0x230 }
  - { offsetInCU: 0x37C6, offset: 0x37C6, size: 0x8, addend: 0x0, symName: __ZN8pybind116detail21make_object_base_typeEP11_typeobject, symObjAddr: 0x2C20, symBinAddr: 0x3AD0, symSize: 0x310 }
  - { offsetInCU: 0x3830, offset: 0x3830, size: 0x8, addend: 0x0, symName: __ZN8pybind116detail14obj_class_nameEP7_object, symObjAddr: 0x55F0, symBinAddr: 0x64A0, symSize: 0x50 }
  - { offsetInCU: 0x385E, offset: 0x385E, size: 0x8, addend: 0x0, symName: __ZN8pybind116detail12error_stringEv, symObjAddr: 0x6D50, symBinAddr: 0x7C00, symSize: 0x80 }
  - { offsetInCU: 0x387C, offset: 0x387C, size: 0x8, addend: 0x0, symName: __ZN8pybind116detail7cast_opINSt3__112basic_stringIcNS2_11char_traitsIcEENS2_9allocatorIcEEEEEENS0_11type_casterINS0_14intrinsic_typeIT_E4typeEvE12cast_op_typeINS2_20add_rvalue_referenceISB_E4typeEEEOSE_, symObjAddr: 0x73B0, symBinAddr: 0x8260, symSize: 0x20 }
  - { offsetInCU: 0x38B1, offset: 0x38B1, size: 0x8, addend: 0x0, symName: __ZN8pybind116detail9load_typeINSt3__112basic_stringIcNS2_11char_traitsIcEENS2_9allocatorIcEEEEEENS0_11type_casterINS0_14intrinsic_typeIT_E4typeEvEERKNS_6handleE, symObjAddr: 0x73D0, symBinAddr: 0x8280, symSize: 0x80 }
  - { offsetInCU: 0x392D, offset: 0x392D, size: 0x8, addend: 0x0, symName: __ZN8pybind116detail9load_typeINSt3__112basic_stringIcNS2_11char_traitsIcEENS2_9allocatorIcEEEEvEERNS0_11type_casterIT_T0_EESD_RKNS_6handleE, symObjAddr: 0x74A0, symBinAddr: 0x8350, symSize: 0x2A0 }
  - { offsetInCU: 0x3978, offset: 0x3978, size: 0x8, addend: 0x0, symName: __ZN8pybind116detail13clean_type_idEPKc, symObjAddr: 0x80E0, symBinAddr: 0x8F90, symSize: 0x80 }
  - { offsetInCU: 0x39B3, offset: 0x39B3, size: 0x8, addend: 0x0, symName: __ZN8pybind116detail13clean_type_idERNSt3__112basic_stringIcNS1_11char_traitsIcEENS1_9allocatorIcEEEE, symObjAddr: 0x8180, symBinAddr: 0x9030, symSize: 0x100 }
  - { offsetInCU: 0x39F7, offset: 0x39F7, size: 0x8, addend: 0x0, symName: __ZN8pybind116detail9erase_allERNSt3__112basic_stringIcNS1_11char_traitsIcEENS1_9allocatorIcEEEERKS7_, symObjAddr: 0x82D0, symBinAddr: 0x9180, symSize: 0x80 }
  - { offsetInCU: 0x3A49, offset: 0x3A49, size: 0x8, addend: 0x0, symName: __ZN8pybind116detail18dict_getitemstringEP7_objectPKc, symObjAddr: 0x9450, symBinAddr: 0xA300, symSize: 0x120 }
  - { offsetInCU: 0x3AA4, offset: 0x3AA4, size: 0x8, addend: 0x0, symName: __ZN8pybind116detail14object_or_castINS_7capsuleELi0EEEDTclsr3stdE7forwardIT_Efp_EEOS3_, symObjAddr: 0xC9F0, symBinAddr: 0xD8A0, symSize: 0x10 }
  - { offsetInCU: 0x3AE1, offset: 0x3AE1, size: 0x8, addend: 0x0, symName: __ZN8pybind116detail9raise_errEP7_objectPKc, symObjAddr: 0xCA50, symBinAddr: 0xD900, symSize: 0x70 }
  - { offsetInCU: 0x3B1E, offset: 0x3B1E, size: 0x8, addend: 0x0, symName: __ZN8pybind116detail23handle_nested_exceptionISt16nested_exceptionLi0EEEbRKT_RKSt13exception_ptr, symObjAddr: 0xCAC0, symBinAddr: 0xD970, symSize: 0x110 }
  - { offsetInCU: 0x3B79, offset: 0x3B79, size: 0x8, addend: 0x0, symName: __ZN8pybind116detail23handle_nested_exceptionISt9exceptionLi0EEEbRKT_RKSt13exception_ptr, symObjAddr: 0xCBD0, symBinAddr: 0xDA80, symSize: 0x90 }
  - { offsetInCU: 0x3BDA, offset: 0x3BDA, size: 0x8, addend: 0x0, symName: __ZN8pybind116detail23handle_nested_exceptionISt14overflow_errorLi0EEEbRKT_RKSt13exception_ptr, symObjAddr: 0xCC60, symBinAddr: 0xDB10, symSize: 0x90 }
  - { offsetInCU: 0x3C3B, offset: 0x3C3B, size: 0x8, addend: 0x0, symName: __ZN8pybind116detail23handle_nested_exceptionISt11range_errorLi0EEEbRKT_RKSt13exception_ptr, symObjAddr: 0xCCF0, symBinAddr: 0xDBA0, symSize: 0x90 }
  - { offsetInCU: 0x3C9C, offset: 0x3C9C, size: 0x8, addend: 0x0, symName: __ZN8pybind116detail23handle_nested_exceptionISt12out_of_rangeLi0EEEbRKT_RKSt13exception_ptr, symObjAddr: 0xCD80, symBinAddr: 0xDC30, symSize: 0x90 }
  - { offsetInCU: 0x3CFD, offset: 0x3CFD, size: 0x8, addend: 0x0, symName: __ZN8pybind116detail23handle_nested_exceptionISt12length_errorLi0EEEbRKT_RKSt13exception_ptr, symObjAddr: 0xCE10, symBinAddr: 0xDCC0, symSize: 0x90 }
  - { offsetInCU: 0x3D5E, offset: 0x3D5E, size: 0x8, addend: 0x0, symName: __ZN8pybind116detail23handle_nested_exceptionISt16invalid_argumentLi0EEEbRKT_RKSt13exception_ptr, symObjAddr: 0xCEA0, symBinAddr: 0xDD50, symSize: 0x90 }
  - { offsetInCU: 0x3DBF, offset: 0x3DBF, size: 0x8, addend: 0x0, symName: __ZN8pybind116detail23handle_nested_exceptionISt12domain_errorLi0EEEbRKT_RKSt13exception_ptr, symObjAddr: 0xCF30, symBinAddr: 0xDDE0, symSize: 0x90 }
  - { offsetInCU: 0x3E20, offset: 0x3E20, size: 0x8, addend: 0x0, symName: __ZN8pybind116detail23handle_nested_exceptionISt9bad_allocLi0EEEbRKT_RKSt13exception_ptr, symObjAddr: 0xCFC0, symBinAddr: 0xDE70, symSize: 0x90 }
  - { offsetInCU: 0x3E81, offset: 0x3E81, size: 0x8, addend: 0x0, symName: __ZN8pybind116detail23handle_nested_exceptionINS_17error_already_setELi0EEEbRKT_RKSt13exception_ptr, symObjAddr: 0xD050, symBinAddr: 0xDF00, symSize: 0x90 }
  - { offsetInCU: 0x3EE2, offset: 0x3EE2, size: 0x8, addend: 0x0, symName: __ZN8pybind116detail11type_increfEP11_typeobject, symObjAddr: 0xD1F0, symBinAddr: 0xE0A0, symSize: 0x20 }
  - { offsetInCU: 0x3F0E, offset: 0x3F0E, size: 0x8, addend: 0x0, symName: __ZN8pybind116detail27get_fully_qualified_tp_nameEP11_typeobject, symObjAddr: 0xDAE0, symBinAddr: 0xE990, symSize: 0x30 }
  - { offsetInCU: 0x3F3A, offset: 0x3F3A, size: 0x8, addend: 0x0, symName: __ZN8pybind116detail13all_type_infoEP11_typeobject, symObjAddr: 0xDC40, symBinAddr: 0xEAF0, symSize: 0x60 }
  - { offsetInCU: 0x3F74, offset: 0x3F74, size: 0x8, addend: 0x0, symName: __ZN8pybind116detail22all_type_info_populateEP11_typeobjectRNSt3__16vectorIPNS0_9type_infoENS3_9allocatorIS6_EEEE, symObjAddr: 0xDDB0, symBinAddr: 0xEC60, symSize: 0x5F0 }
  - { offsetInCU: 0x49F4, offset: 0x49F4, size: 0x8, addend: 0x0, symName: __ZN8pybind116detail7cast_opINS_6handleEEENS0_11type_casterINS0_14intrinsic_typeIT_E4typeEvE12cast_op_typeINSt3__120add_rvalue_referenceIS5_E4typeEEEOS8_, symObjAddr: 0x14860, symBinAddr: 0x15710, symSize: 0x20 }
  - { offsetInCU: 0x4A29, offset: 0x4A29, size: 0x8, addend: 0x0, symName: __ZN8pybind116detail27replace_newlines_and_squashEPKc, symObjAddr: 0x15C70, symBinAddr: 0x16B20, symSize: 0x220 }
  - { offsetInCU: 0x4AD6, offset: 0x4AD6, size: 0x8, addend: 0x0, symName: __ZN8pybind116detail13get_type_infoERKNSt3__110type_indexEb, symObjAddr: 0x15E90, symBinAddr: 0x16D40, symSize: 0x150 }
  - { offsetInCU: 0x4B54, offset: 0x4B54, size: 0x8, addend: 0x0, symName: __ZN8pybind116detail19quote_cpp_type_nameERKNSt3__112basic_stringIcNS1_11char_traitsIcEENS1_9allocatorIcEEEE, symObjAddr: 0x160C0, symBinAddr: 0x16F70, symSize: 0x30 }
  - { offsetInCU: 0x4B82, offset: 0x4B82, size: 0x8, addend: 0x0, symName: __ZN8pybind116detail26is_function_record_capsuleERKNS_7capsuleE, symObjAddr: 0x162F0, symBinAddr: 0x171A0, symSize: 0x40 }
  - { offsetInCU: 0x4BB0, offset: 0x4BB0, size: 0x8, addend: 0x0, symName: __ZN8pybind116detail32get_function_record_capsule_nameEv, symObjAddr: 0x18E50, symBinAddr: 0x19D00, symSize: 0x10 }
  - { offsetInCU: 0x4BCE, offset: 0x4BCE, size: 0x8, addend: 0x0, symName: __ZN8pybind116detail19get_local_type_infoERKNSt3__110type_indexE, symObjAddr: 0x1B140, symBinAddr: 0x1BFF0, symSize: 0x80 }
  - { offsetInCU: 0x4C16, offset: 0x4C16, size: 0x8, addend: 0x0, symName: __ZN8pybind116detail20get_global_type_infoERKNSt3__110type_indexE, symObjAddr: 0x1B1C0, symBinAddr: 0x1C070, symSize: 0x80 }
  - { offsetInCU: 0x4C5E, offset: 0x4C5E, size: 0x8, addend: 0x0, symName: __ZN8pybind116detail13get_type_infoEP11_typeobject, symObjAddr: 0x1FA40, symBinAddr: 0x208F0, symSize: 0x80 }
  - { offsetInCU: 0x4C98, offset: 0x4C98, size: 0x8, addend: 0x0, symName: __ZN8pybind116detail27apply_exception_translatorsERNSt3__112forward_listIPFvSt13exception_ptrENS1_9allocatorIS5_EEEE, symObjAddr: 0x20870, symBinAddr: 0x21720, symSize: 0x180 }
  - { offsetInCU: 0x4D11, offset: 0x4D11, size: 0x8, addend: 0x0, symName: __ZN8pybind116detailneERKNS0_16generic_iteratorINS0_17iterator_policies13dict_readonlyEEES6_, symObjAddr: 0x20BB0, symBinAddr: 0x21A60, symSize: 0x30 }
  - { offsetInCU: 0x4D4E, offset: 0x4D4E, size: 0x8, addend: 0x0, symName: __ZN8pybind116detail14object_or_castEP7_object, symObjAddr: 0x25000, symBinAddr: 0x25EB0, symSize: 0x30 }
  - { offsetInCU: 0x4D7C, offset: 0x4D7C, size: 0x8, addend: 0x0, symName: __ZN8pybind116detaileqERKNS0_16generic_iteratorINS0_17iterator_policies13dict_readonlyEEES6_, symObjAddr: 0x29DA0, symBinAddr: 0x2AC50, symSize: 0x30 }
  - { offsetInCU: 0x4DB9, offset: 0x4DB9, size: 0x8, addend: 0x0, symName: __ZN8pybind116detail17collect_argumentsILNS_19return_value_policyE1EJRKNS_6handleEEvEENS0_16simple_collectorIXT_EEEDpOT0_, symObjAddr: 0x29FB0, symBinAddr: 0x2AE60, symSize: 0x30 }
  - { offsetInCU: 0x4DFD, offset: 0x4DFD, size: 0x8, addend: 0x0, symName: __ZN8pybind116detailneERKNS0_16generic_iteratorINS0_17iterator_policies22sequence_fast_readonlyEEES6_, symObjAddr: 0x2BC30, symBinAddr: 0x2CAE0, symSize: 0x30 }
  - { offsetInCU: 0x4E3A, offset: 0x4E3A, size: 0x8, addend: 0x0, symName: __ZN8pybind116detail41all_type_info_add_base_most_derived_firstERNSt3__16vectorIPNS0_9type_infoENS1_9allocatorIS4_EEEES4_, symObjAddr: 0x2BFB0, symBinAddr: 0x2CE60, symSize: 0xD0 }
  - { offsetInCU: 0x4EA8, offset: 0x4EA8, size: 0x8, addend: 0x0, symName: __ZN8pybind116detaileqERKNS0_16generic_iteratorINS0_17iterator_policies22sequence_fast_readonlyEEES6_, symObjAddr: 0x2C340, symBinAddr: 0x2D1F0, symSize: 0x30 }
  - { offsetInCU: 0x4EE5, offset: 0x4EE5, size: 0x8, addend: 0x0, symName: __ZN8pybind116detail17make_new_instanceEP11_typeobject, symObjAddr: 0x33420, symBinAddr: 0x342D0, symSize: 0x40 }
  - { offsetInCU: 0x4F31, offset: 0x4F31, size: 0x8, addend: 0x0, symName: __ZN8pybind116detail30instance_simple_holder_in_ptrsEv, symObjAddr: 0x33650, symBinAddr: 0x34500, symSize: 0x10 }
  - { offsetInCU: 0x4F4F, offset: 0x4F4F, size: 0x8, addend: 0x0, symName: __ZN8pybind116detailL12size_in_ptrsEm, symObjAddr: 0x33660, symBinAddr: 0x34510, symSize: 0x40 }
  - { offsetInCU: 0x4F7D, offset: 0x4F7D, size: 0x8, addend: 0x0, symName: __ZN8pybind116detailL4log2Emi, symObjAddr: 0x336A0, symBinAddr: 0x34550, symSize: 0x50 }
  - { offsetInCU: 0x4FBA, offset: 0x4FBA, size: 0x8, addend: 0x0, symName: __ZN8pybind116detail14clear_instanceEP7_object, symObjAddr: 0x336F0, symBinAddr: 0x345A0, symSize: 0x200 }
  - { offsetInCU: 0x5073, offset: 0x5073, size: 0x8, addend: 0x0, symName: __ZN8pybind116detail19deregister_instanceEPNS0_8instanceEPvPKNS0_9type_infoE, symObjAddr: 0x338F0, symBinAddr: 0x347A0, symSize: 0x70 }
  - { offsetInCU: 0x50CE, offset: 0x50CE, size: 0x8, addend: 0x0, symName: __ZN8pybind116detail14clear_patientsEP7_object, symObjAddr: 0x339A0, symBinAddr: 0x34850, symSize: 0x1C0 }
  - { offsetInCU: 0x518D, offset: 0x518D, size: 0x8, addend: 0x0, symName: __ZN8pybind116detail24deregister_instance_implEPvPNS0_8instanceE, symObjAddr: 0x33B60, symBinAddr: 0x34A10, symSize: 0xD0 }
  - { offsetInCU: 0x5205, offset: 0x5205, size: 0x8, addend: 0x0, symName: __ZN8pybind116detail21traverse_offset_basesEPvPKNS0_9type_infoEPNS0_8instanceEPFbS1_S6_E, symObjAddr: 0x33C30, symBinAddr: 0x34AE0, symSize: 0x260 }
  - { offsetInCU: 0x532C, offset: 0x532C, size: 0x8, addend: 0x0, symName: __ZN8pybind116detail26ensure_builtins_in_globalsERNS_6objectE, symObjAddr: 0x37470, symBinAddr: 0x38320, symSize: 0x10 }
  - { offsetInCU: 0x6A83, offset: 0x6A83, size: 0x8, addend: 0x0, symName: __ZN8pybind114execERKNS_3strENS_6objectES3_, symObjAddr: 0x790, symBinAddr: 0x1640, symSize: 0xA0 }
  - { offsetInCU: 0x6AC9, offset: 0x6AC9, size: 0x8, addend: 0x0, symName: __ZN8pybind117globalsEv, symObjAddr: 0x860, symBinAddr: 0x1710, symSize: 0x190 }
  - { offsetInCU: 0x6AF7, offset: 0x6AF7, size: 0x8, addend: 0x0, symName: __ZN8pybind1113pybind11_failEPKc, symObjAddr: 0x1960, symBinAddr: 0x2810, symSize: 0xB0 }
  - { offsetInCU: 0x6B21, offset: 0x6B21, size: 0x8, addend: 0x0, symName: __ZN8pybind1118reinterpret_borrowINS_6objectEEET_NS_6handleE, symObjAddr: 0x2F80, symBinAddr: 0x3E30, symSize: 0x40 }
  - { offsetInCU: 0x6B58, offset: 0x6B58, size: 0x8, addend: 0x0, symName: __ZN8pybind1110raise_fromEP7_objectPKc, symObjAddr: 0x3070, symBinAddr: 0x3F20, symSize: 0x170 }
  - { offsetInCU: 0x6BCD, offset: 0x6BCD, size: 0x8, addend: 0x0, symName: __ZN8pybind1113pybind11_failERKNSt3__112basic_stringIcNS0_11char_traitsIcEENS0_9allocatorIcEEEE, symObjAddr: 0x54A0, symBinAddr: 0x6350, symSize: 0xB0 }
  - { offsetInCU: 0x6BF7, offset: 0x6BF7, size: 0x8, addend: 0x0, symName: __ZN8pybind1117reinterpret_stealINS_6objectEEET_NS_6handleE, symObjAddr: 0x6CF0, symBinAddr: 0x7BA0, symSize: 0x40 }
  - { offsetInCU: 0x6C2E, offset: 0x6C2E, size: 0x8, addend: 0x0, symName: __ZN8pybind114castINSt3__112basic_stringIcNS1_11char_traitsIcEENS1_9allocatorIcEEEELi0EEET_RKNS_6handleE, symObjAddr: 0x7330, symBinAddr: 0x81E0, symSize: 0x80 }
  - { offsetInCU: 0x6D54, offset: 0x6D54, size: 0x8, addend: 0x0, symName: __ZN8pybind11L7type_idINSt3__112basic_stringIcNS1_11char_traitsIcEENS1_9allocatorIcEEEEEES7_v, symObjAddr: 0x7920, symBinAddr: 0x87D0, symSize: 0x40 }
  - { offsetInCU: 0x6D7B, offset: 0x6D7B, size: 0x8, addend: 0x0, symName: __ZN8pybind114castINSt3__112basic_stringIcNS1_11char_traitsIcEENS1_9allocatorIcEEEEEENS1_9enable_ifIXaantsr6detail11is_pyobjectIT_EE5valuesr6detail20move_if_unreferencedIS9_EE5valueES9_E4typeEONS_6objectE, symObjAddr: 0x7CD0, symBinAddr: 0x8B80, symSize: 0x60 }
  - { offsetInCU: 0x6DB2, offset: 0x6DB2, size: 0x8, addend: 0x0, symName: __ZN8pybind114moveINSt3__112basic_stringIcNS1_11char_traitsIcEENS1_9allocatorIcEEEEEENS1_9enable_ifIXntsr6detail10move_neverIT_EE5valueES9_E4typeEONS_6objectE, symObjAddr: 0x7D60, symBinAddr: 0x8C10, symSize: 0x340 }
  - { offsetInCU: 0x6DF9, offset: 0x6DF9, size: 0x8, addend: 0x0, symName: __ZN8pybind119set_errorERKNS_6handleEPKc, symObjAddr: 0xD0E0, symBinAddr: 0xDF90, symSize: 0x30 }
  - { offsetInCU: 0x6E32, offset: 0x6E32, size: 0x8, addend: 0x0, symName: __ZN8pybind117setattrENS_6handleEPKcS0_, symObjAddr: 0xD2C0, symBinAddr: 0xE170, symSize: 0xB0 }
  - { offsetInCU: 0x71A3, offset: 0x71A3, size: 0x8, addend: 0x0, symName: __ZN8pybind114reprENS_6handleE, symObjAddr: 0x15B00, symBinAddr: 0x169B0, symSize: 0xC0 }
  - { offsetInCU: 0x71E0, offset: 0x71E0, size: 0x8, addend: 0x0, symName: __ZN8pybind1110isinstanceINS_7capsuleELi0EEEbNS_6handleE, symObjAddr: 0x16280, symBinAddr: 0x17130, symSize: 0x30 }
  - { offsetInCU: 0x721D, offset: 0x721D, size: 0x8, addend: 0x0, symName: __ZN8pybind1118reinterpret_borrowINS_7capsuleEEET_NS_6handleE, symObjAddr: 0x162B0, symBinAddr: 0x17160, symSize: 0x40 }
  - { offsetInCU: 0x7254, offset: 0x7254, size: 0x8, addend: 0x0, symName: __ZN8pybind117hasattrENS_6handleEPKc, symObjAddr: 0x18EE0, symBinAddr: 0x19D90, symSize: 0x40 }
  - { offsetInCU: 0x7291, offset: 0x7291, size: 0x8, addend: 0x0, symName: __ZN8pybind1117reinterpret_stealINS_3strEEET_NS_6handleE, symObjAddr: 0x1ACC0, symBinAddr: 0x1BB70, symSize: 0x40 }
  - { offsetInCU: 0x72C8, offset: 0x72C8, size: 0x8, addend: 0x0, symName: __ZN8pybind117getattrENS_6handleEPKc, symObjAddr: 0x1E430, symBinAddr: 0x1F2E0, symSize: 0xC0 }
  - { offsetInCU: 0x7314, offset: 0x7314, size: 0x8, addend: 0x0, symName: __ZN8pybind1118reinterpret_borrowINS_4dictEEET_NS_6handleE, symObjAddr: 0x20030, symBinAddr: 0x20EE0, symSize: 0x40 }
  - { offsetInCU: 0x734B, offset: 0x734B, size: 0x8, addend: 0x0, symName: __ZN8pybind1117reinterpret_stealINS_4dictEEET_NS_6handleE, symObjAddr: 0x20070, symBinAddr: 0x20F20, symSize: 0x40 }
  - { offsetInCU: 0x7382, offset: 0x7382, size: 0x8, addend: 0x0, symName: __ZN8pybind1118reinterpret_borrowINS_5tupleEEET_NS_6handleE, symObjAddr: 0x201C0, symBinAddr: 0x21070, symSize: 0x40 }
  - { offsetInCU: 0x73B9, offset: 0x73B9, size: 0x8, addend: 0x0, symName: __ZN8pybind1112ssize_t_castIlEElRKT_, symObjAddr: 0x24CD0, symBinAddr: 0x25B80, symSize: 0x20 }
  - { offsetInCU: 0x73F0, offset: 0x73F0, size: 0x8, addend: 0x0, symName: __ZN8pybind1112ssize_t_castIiEElRKT_, symObjAddr: 0x24E00, symBinAddr: 0x25CB0, symSize: 0x20 }
  - { offsetInCU: 0x7427, offset: 0x7427, size: 0x8, addend: 0x0, symName: __ZN8pybind1112ssize_t_castImEElRKT_, symObjAddr: 0x24EB0, symBinAddr: 0x25D60, symSize: 0x20 }
  - { offsetInCU: 0x745E, offset: 0x745E, size: 0x8, addend: 0x0, symName: __ZN8pybind1110make_tupleILNS_19return_value_policyE1EJRKNS_6handleEEEENS_5tupleEDpOT0_, symObjAddr: 0x2A170, symBinAddr: 0x2B020, symSize: 0x450 }
  - { offsetInCU: 0x754E, offset: 0x754E, size: 0x8, addend: 0x0, symName: __ZN8pybind11L7type_idIRKNS_6handleEEENSt3__112basic_stringIcNS4_11char_traitsIcEENS4_9allocatorIcEEEEv, symObjAddr: 0x2A650, symBinAddr: 0x2B500, symSize: 0x40 }
  - { offsetInCU: 0x7575, offset: 0x7575, size: 0x8, addend: 0x0, symName: __ZN8pybind1137cast_error_unable_to_convert_call_argERKNSt3__112basic_stringIcNS0_11char_traitsIcEENS0_9allocatorIcEEEES8_, symObjAddr: 0x2A690, symBinAddr: 0x2B540, symSize: 0x150 }
  - { offsetInCU: 0x75B2, offset: 0x75B2, size: 0x8, addend: 0x0, symName: __ZN8pybind114evalILNS_9eval_modeE2EEENS_6objectERKNS_3strES2_S2_, symObjAddr: 0x371F0, symBinAddr: 0x380A0, symSize: 0x210 }
  - { offsetInCU: 0x77B4, offset: 0x77B4, size: 0x8, addend: 0x0, symName: __ZN8pybind1117reinterpret_stealINS_7module_EEET_NS_6handleE, symObjAddr: 0x37650, symBinAddr: 0x38500, symSize: 0x40 }
  - { offsetInCU: 0x28DDD, offset: 0x28DDD, size: 0x8, addend: 0x0, symName: __ZNSt3__1L19piecewise_constructE, symObjAddr: 0x3DBBB, symBinAddr: 0x55903, symSize: 0x0 }
  - { offsetInCU: 0x2D4BD, offset: 0x2D4BD, size: 0x8, addend: 0x0, symName: __ZNSt3__16ranges5__cpo9iter_moveE, symObjAddr: 0x3DC5C, symBinAddr: 0x559A4, symSize: 0x0 }
  - { offsetInCU: 0x36F3B, offset: 0x36F3B, size: 0x8, addend: 0x0, symName: __ZNSt3__16copy_nB7v160006IPKcmPcEENS_9enable_ifIXsr33__is_cpp17_random_access_iteratorIT_EE5valueET1_E4typeES5_T0_S6_, symObjAddr: 0x4180, symBinAddr: 0x5030, symSize: 0x40 }
  - { offsetInCU: 0x39580, offset: 0x39580, size: 0x8, addend: 0x0, symName: __ZNSt3__114__copy_alignedB7v160006INS_6vectorIbNS_9allocatorIbEEEELb0EEENS_14__bit_iteratorIT_Lb0EXLi0EEEENS5_IS6_XT0_EXLi0EEEES8_S7_, symObjAddr: 0x23370, symBinAddr: 0x24220, symSize: 0x280 }
  - { offsetInCU: 0x396B0, offset: 0x396B0, size: 0x8, addend: 0x0, symName: __ZNSt3__16copy_nB7v160006IPmmS1_EENS_9enable_ifIXsr33__is_cpp17_random_access_iteratorIT_EE5valueET1_E4typeES3_T0_S4_, symObjAddr: 0x23B20, symBinAddr: 0x249D0, symSize: 0x40 }
  - { offsetInCU: 0x39757, offset: 0x39757, size: 0x8, addend: 0x0, symName: __ZNSt3__116__copy_unalignedB7v160006INS_6vectorIbNS_9allocatorIbEEEELb0EEENS_14__bit_iteratorIT_Lb0EXLi0EEEENS5_IS6_XT0_EXLi0EEEES8_S7_, symObjAddr: 0x235F0, symBinAddr: 0x244A0, symSize: 0x500 }
  - { offsetInCU: 0x398D5, offset: 0x398D5, size: 0x8, addend: 0x0, symName: __ZNSt3__114__copy_alignedB7v160006INS_6vectorIbNS_9allocatorIbEEEELb1EEENS_14__bit_iteratorIT_Lb0EXLi0EEEENS5_IS6_XT0_EXLi0EEEES8_S7_, symObjAddr: 0x25420, symBinAddr: 0x262D0, symSize: 0x260 }
  - { offsetInCU: 0x39A05, offset: 0x39A05, size: 0x8, addend: 0x0, symName: __ZNSt3__16copy_nB7v160006IPKmmPmEENS_9enable_ifIXsr33__is_cpp17_random_access_iteratorIT_EE5valueET1_E4typeES5_T0_S6_, symObjAddr: 0x25B90, symBinAddr: 0x26A40, symSize: 0x40 }
  - { offsetInCU: 0x39AAC, offset: 0x39AAC, size: 0x8, addend: 0x0, symName: __ZNSt3__116__copy_unalignedB7v160006INS_6vectorIbNS_9allocatorIbEEEELb1EEENS_14__bit_iteratorIT_Lb0EXLi0EEEENS5_IS6_XT0_EXLi0EEEES8_S7_, symObjAddr: 0x25680, symBinAddr: 0x26530, symSize: 0x4D0 }
  - { offsetInCU: 0x39C2A, offset: 0x39C2A, size: 0x8, addend: 0x0, symName: __ZNSt3__113__fill_n_trueB7v160006INS_6vectorIbNS_9allocatorIbEEEEEEvNS_14__bit_iteratorIT_Lb0EXLi0EEEENS6_9size_typeE, symObjAddr: 0x261F0, symBinAddr: 0x270A0, symSize: 0x140 }
  - { offsetInCU: 0x39CF0, offset: 0x39CF0, size: 0x8, addend: 0x0, symName: __ZNSt3__114__fill_n_falseB7v160006INS_6vectorIbNS_9allocatorIbEEEEEEvNS_14__bit_iteratorIT_Lb0EXLi0EEEENS6_9size_typeE, symObjAddr: 0x26330, symBinAddr: 0x271E0, symSize: 0x140 }
  - { offsetInCU: 0x3E435, offset: 0x3E435, size: 0x8, addend: 0x0, symName: __ZNSt3__17advanceB7v160006IPN8pybind116detail13function_callEllvEEvRT_T0_, symObjAddr: 0x28780, symBinAddr: 0x29630, symSize: 0x50 }
  - { offsetInCU: 0x3E6B5, offset: 0x3E6B5, size: 0x8, addend: 0x0, symName: __ZNSt3__17advanceB7v160006INS_16reverse_iteratorIPN8pybind116detail13function_callEEEllvEEvRT_T0_, symObjAddr: 0x28BE0, symBinAddr: 0x29A90, symSize: 0x50 }
  - { offsetInCU: 0x420F9, offset: 0x420F9, size: 0x8, addend: 0x0, symName: __ZNSt3__17advanceB7v160006IP10GameObjectllvEEvRT_T0_, symObjAddr: 0x38A60, symBinAddr: 0x39910, symSize: 0x50 }
  - { offsetInCU: 0x42379, offset: 0x42379, size: 0x8, addend: 0x0, symName: __ZNSt3__17advanceB7v160006INS_16reverse_iteratorIP10GameObjectEEllvEEvRT_T0_, symObjAddr: 0x38E50, symBinAddr: 0x39D00, symSize: 0x50 }
  - { offsetInCU: 0x4297D, offset: 0x4297D, size: 0x8, addend: 0x0, symName: __ZNSt3__124__put_character_sequenceB7v160006IcNS_11char_traitsIcEEEERNS_13basic_ostreamIT_T0_EES7_PKS4_m, symObjAddr: 0x39D20, symBinAddr: 0x3ABD0, symSize: 0x1F0 }
  - { offsetInCU: 0x4584F, offset: 0x4584F, size: 0x8, addend: 0x0, symName: __ZNSt3__17getlineB7v160006IcNS_11char_traitsIcEENS_9allocatorIcEEEERNS_13basic_istreamIT_T0_EES9_RNS_12basic_stringIS6_S7_T1_EE, symObjAddr: 0x710, symBinAddr: 0x15C0, symSize: 0x50 }
  - { offsetInCU: 0x458B2, offset: 0x458B2, size: 0x8, addend: 0x0, symName: __ZNSt3__1neB7v160006IP10GameObjectEEbRKNS_11__wrap_iterIT_EES7_, symObjAddr: 0x1040, symBinAddr: 0x1EF0, symSize: 0x30 }
  - { offsetInCU: 0x458F5, offset: 0x458F5, size: 0x8, addend: 0x0, symName: __ZNSt3__1lsB7v160006INS_11char_traitsIcEEEERNS_13basic_ostreamIcT_EES6_PKc, symObjAddr: 0x1230, symBinAddr: 0x20E0, symSize: 0x40 }
  - { offsetInCU: 0x4593B, offset: 0x4593B, size: 0x8, addend: 0x0, symName: __ZNSt3__14endlB7v160006IcNS_11char_traitsIcEEEERNS_13basic_ostreamIT_T0_EES7_, symObjAddr: 0x1290, symBinAddr: 0x2140, symSize: 0x50 }
  - { offsetInCU: 0x4597B, offset: 0x4597B, size: 0x8, addend: 0x0, symName: __ZNSt3__1plB7v160006IcNS_11char_traitsIcEENS_9allocatorIcEEEENS_12basic_stringIT_T0_T1_EERKS9_PKS6_, symObjAddr: 0x3550, symBinAddr: 0x4400, symSize: 0x100 }
  - { offsetInCU: 0x45A1D, offset: 0x45A1D, size: 0x8, addend: 0x0, symName: __ZNSt3__112__to_addressB7v160006IcEEPT_S2_, symObjAddr: 0x3730, symBinAddr: 0x45E0, symSize: 0x10 }
  - { offsetInCU: 0x45A52, offset: 0x45A52, size: 0x8, addend: 0x0, symName: __ZNSt3__118__constexpr_strlenB7v160006EPKc, symObjAddr: 0x3920, symBinAddr: 0x47D0, symSize: 0x20 }
  - { offsetInCU: 0x45A7E, offset: 0x45A7E, size: 0x8, addend: 0x0, symName: __ZNSt3__119__debug_db_insert_cB7v160006INS_12basic_stringIcNS_11char_traitsIcEENS_9allocatorIcEEEEEEvPT_, symObjAddr: 0x3DD0, symBinAddr: 0x4C80, symSize: 0x10 }
  - { offsetInCU: 0x45AB0, offset: 0x45AB0, size: 0x8, addend: 0x0, symName: __ZNSt3__120__throw_length_errorB7v160006EPKc, symObjAddr: 0x3E80, symBinAddr: 0x4D30, symSize: 0x70 }
  - { offsetInCU: 0x45AD8, offset: 0x45AD8, size: 0x8, addend: 0x0, symName: __ZNSt3__117__libcpp_allocateB7v160006Emm, symObjAddr: 0x4020, symBinAddr: 0x4ED0, symSize: 0x60 }
  - { offsetInCU: 0x45B32, offset: 0x45B32, size: 0x8, addend: 0x0, symName: __ZNSt3__124__is_overaligned_for_newB7v160006Em, symObjAddr: 0x4080, symBinAddr: 0x4F30, symSize: 0x20 }
  - { offsetInCU: 0x45B60, offset: 0x45B60, size: 0x8, addend: 0x0, symName: __ZNSt3__121__libcpp_operator_newB7v160006IJmSt11align_val_tEEEPvDpT_, symObjAddr: 0x40A0, symBinAddr: 0x4F50, symSize: 0x30 }
  - { offsetInCU: 0x45BAD, offset: 0x45BAD, size: 0x8, addend: 0x0, symName: __ZNSt3__121__libcpp_operator_newB7v160006IJmEEEPvDpT_, symObjAddr: 0x40D0, symBinAddr: 0x4F80, symSize: 0x20 }
  - { offsetInCU: 0x45BE6, offset: 0x45BE6, size: 0x8, addend: 0x0, symName: __ZNSt3__14copyB7v160006IPKcPcEET0_T_S5_S4_, symObjAddr: 0x41C0, symBinAddr: 0x5070, symSize: 0x40 }
  - { offsetInCU: 0x45C40, offset: 0x45C40, size: 0x8, addend: 0x0, symName: __ZNSt3__16__copyB7v160006INS_17_ClassicAlgPolicyEPKcS3_PcEENS_4pairIT0_T2_EES6_T1_S7_, symObjAddr: 0x4200, symBinAddr: 0x50B0, symSize: 0x40 }
  - { offsetInCU: 0x45CAC, offset: 0x45CAC, size: 0x8, addend: 0x0, symName: __ZNSt3__123__dispatch_copy_or_moveB7v160006INS_17_ClassicAlgPolicyENS_11__copy_loopIS1_EENS_14__copy_trivialEPKcS6_PcEENS_4pairIT2_T4_EES9_T3_SA_, symObjAddr: 0x4240, symBinAddr: 0x50F0, symSize: 0x40 }
  - { offsetInCU: 0x45D2A, offset: 0x45D2A, size: 0x8, addend: 0x0, symName: __ZNSt3__121__unwrap_and_dispatchB7v160006INS_10__overloadINS_11__copy_loopINS_17_ClassicAlgPolicyEEENS_14__copy_trivialEEEPKcS8_PcLi0EEENS_4pairIT0_T2_EESB_T1_SC_, symObjAddr: 0x4280, symBinAddr: 0x5130, symSize: 0xB0 }
  - { offsetInCU: 0x45DB9, offset: 0x45DB9, size: 0x8, addend: 0x0, symName: __ZNSt3__114__unwrap_rangeB7v160006IPKcS2_EEDaT_T0_, symObjAddr: 0x4330, symBinAddr: 0x51E0, symSize: 0x40 }
  - { offsetInCU: 0x45FC6, offset: 0x45FC6, size: 0x8, addend: 0x0, symName: __ZNSt3__113__unwrap_iterB7v160006IPcNS_18__unwrap_iter_implIS1_Lb1EEELi0EEEDTclsrT0_8__unwrapclsr3stdE7declvalIT_EEEES5_, symObjAddr: 0x43B0, symBinAddr: 0x5260, symSize: 0x20 }
  - { offsetInCU: 0x4600A, offset: 0x4600A, size: 0x8, addend: 0x0, symName: __ZNSt3__19make_pairB7v160006IPKcPcEENS_4pairINS_18__unwrap_ref_decayIT_E4typeENS5_IT0_E4typeEEEOS6_OS9_, symObjAddr: 0x43D0, symBinAddr: 0x5280, symSize: 0x30 }
  - { offsetInCU: 0x46059, offset: 0x46059, size: 0x8, addend: 0x0, symName: __ZNSt3__114__rewrap_rangeB7v160006IPKcS2_S2_EET0_S3_T1_, symObjAddr: 0x4400, symBinAddr: 0x52B0, symSize: 0x30 }
  - { offsetInCU: 0x460AE, offset: 0x460AE, size: 0x8, addend: 0x0, symName: __ZNSt3__113__rewrap_iterB7v160006IPcS1_NS_18__unwrap_iter_implIS1_Lb1EEEEET_S4_T0_, symObjAddr: 0x4430, symBinAddr: 0x52E0, symSize: 0x40 }
  - { offsetInCU: 0x4624E, offset: 0x4624E, size: 0x8, addend: 0x0, symName: __ZNSt3__113__unwrap_iterB7v160006IPKcNS_18__unwrap_iter_implIS2_Lb1EEELi0EEEDTclsrT0_8__unwrapclsr3stdE7declvalIT_EEEES6_, symObjAddr: 0x44C0, symBinAddr: 0x5370, symSize: 0x20 }
  - { offsetInCU: 0x462E6, offset: 0x462E6, size: 0x8, addend: 0x0, symName: __ZNSt3__112__to_addressB7v160006IKcEEPT_S3_, symObjAddr: 0x4530, symBinAddr: 0x53E0, symSize: 0x10 }
  - { offsetInCU: 0x4631B, offset: 0x4631B, size: 0x8, addend: 0x0, symName: __ZNSt3__119__copy_trivial_implB7v160006IKccEENS_4pairIPT_PT0_EES4_S4_S6_, symObjAddr: 0x4570, symBinAddr: 0x5420, symSize: 0x70 }
  - { offsetInCU: 0x46383, offset: 0x46383, size: 0x8, addend: 0x0, symName: __ZNSt3__19make_pairB7v160006IRPKcPcEENS_4pairINS_18__unwrap_ref_decayIT_E4typeENS6_IT0_E4typeEEEOS7_OSA_, symObjAddr: 0x45E0, symBinAddr: 0x5490, symSize: 0x30 }
  - { offsetInCU: 0x46426, offset: 0x46426, size: 0x8, addend: 0x0, symName: __ZNSt3__113__rewrap_iterB7v160006IPKcS2_NS_18__unwrap_iter_implIS2_Lb1EEEEET_S5_T0_, symObjAddr: 0x4720, symBinAddr: 0x55D0, symSize: 0x40 }
  - { offsetInCU: 0x464AE, offset: 0x464AE, size: 0x8, addend: 0x0, symName: __ZNSt3__16fill_nB7v160006IPcmcEET_S2_T0_RKT1_, symObjAddr: 0x4890, symBinAddr: 0x5740, symSize: 0x40 }
  - { offsetInCU: 0x46511, offset: 0x46511, size: 0x8, addend: 0x0, symName: __ZNSt3__18__fill_nB7v160006IPcmcEET_S2_T0_RKT1_, symObjAddr: 0x48D0, symBinAddr: 0x5780, symSize: 0x50 }
  - { offsetInCU: 0x46574, offset: 0x46574, size: 0x8, addend: 0x0, symName: __ZNSt3__121__convert_to_integralB7v160006Em, symObjAddr: 0x4920, symBinAddr: 0x57D0, symSize: 0x10 }
  - { offsetInCU: 0x465A0, offset: 0x465A0, size: 0x8, addend: 0x0, symName: __ZNSt3__1plB7v160006IcNS_11char_traitsIcEENS_9allocatorIcEEEENS_12basic_stringIT_T0_T1_EEOS9_PKS6_, symObjAddr: 0x5550, symBinAddr: 0x6400, symSize: 0x50 }
  - { offsetInCU: 0x465F8, offset: 0x465F8, size: 0x8, addend: 0x0, symName: __ZNSt3__1plB7v160006IcNS_11char_traitsIcEENS_9allocatorIcEEEENS_12basic_stringIT_T0_T1_EEPKS6_OS9_, symObjAddr: 0x55A0, symBinAddr: 0x6450, symSize: 0x50 }
  - { offsetInCU: 0x46650, offset: 0x46650, size: 0x8, addend: 0x0, symName: __ZNSt3__1eqB7v160006IcNS_11char_traitsIcEENS_9allocatorIcEEEEbRKNS_12basic_stringIT_T0_T1_EEPKS6_, symObjAddr: 0x5670, symBinAddr: 0x6520, symSize: 0x60 }
  - { offsetInCU: 0x466A8, offset: 0x466A8, size: 0x8, addend: 0x0, symName: __ZNSt3__115__debug_db_swapB7v160006INS_12basic_stringIcNS_11char_traitsIcEENS_9allocatorIcEEEEEEvPT_S8_, symObjAddr: 0x67B0, symBinAddr: 0x7660, symSize: 0x10 }
  - { offsetInCU: 0x466E7, offset: 0x466E7, size: 0x8, addend: 0x0, symName: __ZNSt3__1eqB7v160006IcNS_11char_traitsIcEEEEbNS_17basic_string_viewIT_T0_EES6_, symObjAddr: 0x6830, symBinAddr: 0x76E0, symSize: 0x90 }
  - { offsetInCU: 0x46736, offset: 0x46736, size: 0x8, addend: 0x0, symName: __ZNSt3__13minB7v160006ImEERKT_S3_S3_, symObjAddr: 0x6A60, symBinAddr: 0x7910, symSize: 0x30 }
  - { offsetInCU: 0x46779, offset: 0x46779, size: 0x8, addend: 0x0, symName: __ZNSt3__13minB7v160006ImNS_6__lessImmEEEERKT_S5_S5_T0_, symObjAddr: 0x6B10, symBinAddr: 0x79C0, symSize: 0x50 }
  - { offsetInCU: 0x4680E, offset: 0x4680E, size: 0x8, addend: 0x0, symName: __ZNSt3__118__constexpr_memcmpB7v160006IcEEiPKT_S3_m, symObjAddr: 0x6B90, symBinAddr: 0x7A40, symSize: 0x30 }
  - { offsetInCU: 0x4685F, offset: 0x4685F, size: 0x8, addend: 0x0, symName: __ZNSt3__128__char_traits_length_checkedB7v160006INS_11char_traitsIcEEEEmPKNT_9char_typeE, symObjAddr: 0x6C80, symBinAddr: 0x7B30, symSize: 0x20 }
  - { offsetInCU: 0x46894, offset: 0x46894, size: 0x8, addend: 0x0, symName: __ZNSt3__1plB7v160006IcNS_11char_traitsIcEENS_9allocatorIcEEEENS_12basic_stringIT_T0_T1_EEOS9_SA_, symObjAddr: 0x6E30, symBinAddr: 0x7CE0, symSize: 0x50 }
  - { offsetInCU: 0x468EC, offset: 0x468EC, size: 0x8, addend: 0x0, symName: __ZNSt3__119__libcpp_deallocateB7v160006EPvmm, symObjAddr: 0x7190, symBinAddr: 0x8040, symSize: 0x60 }
  - { offsetInCU: 0x46951, offset: 0x46951, size: 0x8, addend: 0x0, symName: __ZNSt3__127__do_deallocate_handle_sizeB7v160006IJSt11align_val_tEEEvPvmDpT_, symObjAddr: 0x71F0, symBinAddr: 0x80A0, symSize: 0x30 }
  - { offsetInCU: 0x469A4, offset: 0x469A4, size: 0x8, addend: 0x0, symName: __ZNSt3__127__do_deallocate_handle_sizeB7v160006IJEEEvPvmDpT_, symObjAddr: 0x7220, symBinAddr: 0x80D0, symSize: 0x20 }
  - { offsetInCU: 0x469E2, offset: 0x469E2, size: 0x8, addend: 0x0, symName: __ZNSt3__124__libcpp_operator_deleteB7v160006IJPvSt11align_val_tEEEvDpT_, symObjAddr: 0x7240, symBinAddr: 0x80F0, symSize: 0x30 }
  - { offsetInCU: 0x46A2B, offset: 0x46A2B, size: 0x8, addend: 0x0, symName: __ZNSt3__124__libcpp_operator_deleteB7v160006IJPvEEEvDpT_, symObjAddr: 0x7270, symBinAddr: 0x8120, symSize: 0x20 }
  - { offsetInCU: 0x46E8E, offset: 0x46E8E, size: 0x8, addend: 0x0, symName: __ZNSt3__110__str_findB7v160006IcmNS_11char_traitsIcEELm18446744073709551615EEET0_PKT_S3_S6_S3_S3_, symObjAddr: 0x8520, symBinAddr: 0x93D0, symSize: 0xB0 }
  - { offsetInCU: 0x46F35, offset: 0x46F35, size: 0x8, addend: 0x0, symName: __ZNSt3__118__search_substringB7v160006IcNS_11char_traitsIcEEEEPKT_S5_S5_S5_S5_, symObjAddr: 0x85D0, symBinAddr: 0x9480, symSize: 0x120 }
  - { offsetInCU: 0x46FCF, offset: 0x46FCF, size: 0x8, addend: 0x0, symName: __ZNSt3__123__constexpr_char_memchrB7v160006EPKcim, symObjAddr: 0x8760, symBinAddr: 0x9610, symSize: 0x30 }
  - { offsetInCU: 0x47C4D, offset: 0x47C4D, size: 0x8, addend: 0x0, symName: __ZNSt3__112construct_atB7v160006IPFvSt13exception_ptrEJS3_EPS3_EEPT_S6_DpOT0_, symObjAddr: 0x98D0, symBinAddr: 0xA780, symSize: 0x30 }
  - { offsetInCU: 0x47CF2, offset: 0x47CF2, size: 0x8, addend: 0x0, symName: __ZNSt3__119__debug_db_insert_cB7v160006INS_13unordered_mapINS_10type_indexEPN8pybind116detail9type_infoENS4_9type_hashENS4_13type_equal_toENS_9allocatorINS_4pairIKS2_S6_EEEEEEEEvPT_, symObjAddr: 0x9E90, symBinAddr: 0xAD40, symSize: 0x10 }
  - { offsetInCU: 0x47D23, offset: 0x47D23, size: 0x8, addend: 0x0, symName: __ZNSt3__119__debug_db_insert_cB7v160006INS_13unordered_mapIP11_typeobjectNS_6vectorIPN8pybind116detail9type_infoENS_9allocatorIS8_EEEENS_4hashIS3_EENS_8equal_toIS3_EENS9_INS_4pairIKS3_SB_EEEEEEEEvPT_, symObjAddr: 0xA420, symBinAddr: 0xB2D0, symSize: 0x10 }
  - { offsetInCU: 0x47D54, offset: 0x47D54, size: 0x8, addend: 0x0, symName: __ZNSt3__119__debug_db_insert_cB7v160006INS_18unordered_multimapIPKvPN8pybind116detail8instanceENS_4hashIS3_EENS_8equal_toIS3_EENS_9allocatorINS_4pairIKS3_S7_EEEEEEEEvPT_, symObjAddr: 0xA970, symBinAddr: 0xB820, symSize: 0x10 }
  - { offsetInCU: 0x47D85, offset: 0x47D85, size: 0x8, addend: 0x0, symName: __ZNSt3__119__debug_db_insert_cB7v160006INS_13unordered_setINS_4pairIPK7_objectPKcEEN8pybind116detail13override_hashENS_8equal_toIS8_EENS_9allocatorIS8_EEEEEEvPT_, symObjAddr: 0xAEC0, symBinAddr: 0xBD70, symSize: 0x10 }
  - { offsetInCU: 0x47DB6, offset: 0x47DB6, size: 0x8, addend: 0x0, symName: __ZNSt3__119__debug_db_insert_cB7v160006INS_13unordered_mapINS_10type_indexENS_6vectorIPFbP7_objectRPvENS_9allocatorIS9_EEEEN8pybind116detail9type_hashENSE_13type_equal_toENSA_INS_4pairIKS2_SC_EEEEEEEEvPT_, symObjAddr: 0xB3D0, symBinAddr: 0xC280, symSize: 0x10 }
  - { offsetInCU: 0x47DE7, offset: 0x47DE7, size: 0x8, addend: 0x0, symName: __ZNSt3__119__debug_db_insert_cB7v160006INS_13unordered_mapIPK7_objectNS_6vectorIPS2_NS_9allocatorIS6_EEEENS_4hashIS4_EENS_8equal_toIS4_EENS7_INS_4pairIKS4_S9_EEEEEEEEvPT_, symObjAddr: 0xB920, symBinAddr: 0xC7D0, symSize: 0x10 }
  - { offsetInCU: 0x47E18, offset: 0x47E18, size: 0x8, addend: 0x0, symName: __ZNSt3__119__debug_db_insert_cB7v160006INS_13unordered_mapINS_12basic_stringIcNS_11char_traitsIcEENS_9allocatorIcEEEEPvNS_4hashIS7_EENS_8equal_toIS7_EENS5_INS_4pairIKS7_S8_EEEEEEEEvPT_, symObjAddr: 0xC000, symBinAddr: 0xCEB0, symSize: 0x10 }
  - { offsetInCU: 0x47E49, offset: 0x47E49, size: 0x8, addend: 0x0, symName: __ZNSt3__119__debug_db_insert_cB7v160006INS_6vectorIP7_objectNS_9allocatorIS3_EEEEEEvPT_, symObjAddr: 0xC580, symBinAddr: 0xD430, symSize: 0x10 }
  - { offsetInCU: 0x47EB1, offset: 0x47EB1, size: 0x8, addend: 0x0, symName: __ZNSt3__116forward_as_tupleB7v160006IJRKP11_typeobjectEEENS_5tupleIJDpOT_EEES8_, symObjAddr: 0xEB30, symBinAddr: 0xF9E0, symSize: 0x30 }
  - { offsetInCU: 0x47EEA, offset: 0x47EEA, size: 0x8, addend: 0x0, symName: __ZNSt3__116forward_as_tupleB7v160006IJEEENS_5tupleIJDpOT_EEES4_, symObjAddr: 0xEB60, symBinAddr: 0xFA10, symSize: 0x10 }
  - { offsetInCU: 0x47F0E, offset: 0x47F0E, size: 0x8, addend: 0x0, symName: __ZNSt3__116__constrain_hashB7v160006Emm, symObjAddr: 0xEC20, symBinAddr: 0xFAD0, symSize: 0x80 }
  - { offsetInCU: 0x47F48, offset: 0x47F48, size: 0x8, addend: 0x0, symName: __ZNSt3__13maxB7v160006ImEERKT_S3_S3_, symObjAddr: 0xEF30, symBinAddr: 0xFDE0, symSize: 0x30 }
  - { offsetInCU: 0x47F8B, offset: 0x47F8B, size: 0x8, addend: 0x0, symName: __ZNSt3__116__is_hash_power2B7v160006Em, symObjAddr: 0xEF60, symBinAddr: 0xFE10, symSize: 0x40 }
  - { offsetInCU: 0x47FB7, offset: 0x47FB7, size: 0x8, addend: 0x0, symName: __ZNSt3__110__loadwordB7v160006ImEET_PKv, symObjAddr: 0xFA30, symBinAddr: 0x108E0, symSize: 0x20 }
  - { offsetInCU: 0x47FFA, offset: 0x47FFA, size: 0x8, addend: 0x0, symName: __ZNSt3__14swapB7v160006ImEENS_9enable_ifIXaasr21is_move_constructibleIT_EE5valuesr18is_move_assignableIS2_EE5valueEvE4typeERS2_S5_, symObjAddr: 0xFBF0, symBinAddr: 0x10AA0, symSize: 0x40 }
  - { offsetInCU: 0x4804B, offset: 0x4804B, size: 0x8, addend: 0x0, symName: __ZNSt3__110__loadwordB7v160006IjEET_PKv, symObjAddr: 0xFC80, symBinAddr: 0x10B30, symSize: 0x20 }
  - { offsetInCU: 0x4808E, offset: 0x4808E, size: 0x8, addend: 0x0, symName: __ZNSt3__17launderB7v160006IKNS_4pairIKP11_typeobjectNS_6vectorIPN8pybind116detail9type_infoENS_9allocatorIS9_EEEEEEEEPT_SG_, symObjAddr: 0xFF20, symBinAddr: 0x10DD0, symSize: 0x20 }
  - { offsetInCU: 0x480C5, offset: 0x480C5, size: 0x8, addend: 0x0, symName: __ZNSt3__19__launderB7v160006IKNS_4pairIKP11_typeobjectNS_6vectorIPN8pybind116detail9type_infoENS_9allocatorIS9_EEEEEEEEPT_SG_, symObjAddr: 0xFF40, symBinAddr: 0x10DF0, symSize: 0x10 }
  - { offsetInCU: 0x48174, offset: 0x48174, size: 0x8, addend: 0x0, symName: __ZNSt3__112construct_atB7v160006INS_4pairIKP11_typeobjectNS_6vectorIPN8pybind116detail9type_infoENS_9allocatorIS9_EEEEEEJRKNS_21piecewise_construct_tENS_5tupleIJRS4_EEENSH_IJEEEEPSD_EEPT_SN_DpOT0_, symObjAddr: 0x10280, symBinAddr: 0x11130, symSize: 0x50 }
  - { offsetInCU: 0x48218, offset: 0x48218, size: 0x8, addend: 0x0, symName: __ZNSt3__13getB7v160006ILm0EJRKP11_typeobjectEEERNS_13tuple_elementIXT_ENS_5tupleIJDpT0_EEEE4typeERS9_, symObjAddr: 0x10380, symBinAddr: 0x11230, symSize: 0x20 }
  - { offsetInCU: 0x4825B, offset: 0x4825B, size: 0x8, addend: 0x0, symName: __ZNSt3__119__debug_db_insert_cB7v160006INS_6vectorIPN8pybind116detail9type_infoENS_9allocatorIS5_EEEEEEvPT_, symObjAddr: 0x10470, symBinAddr: 0x11320, symSize: 0x10 }
  - { offsetInCU: 0x4828C, offset: 0x4828C, size: 0x8, addend: 0x0, symName: __ZNSt3__17launderB7v160006INS_4pairIKP11_typeobjectNS_6vectorIPN8pybind116detail9type_infoENS_9allocatorIS9_EEEEEEEEPT_SF_, symObjAddr: 0x10550, symBinAddr: 0x11400, symSize: 0x20 }
  - { offsetInCU: 0x482C3, offset: 0x482C3, size: 0x8, addend: 0x0, symName: __ZNSt3__19__launderB7v160006INS_4pairIKP11_typeobjectNS_6vectorIPN8pybind116detail9type_infoENS_9allocatorIS9_EEEEEEEEPT_SF_, symObjAddr: 0x10570, symBinAddr: 0x11420, symSize: 0x10 }
  - { offsetInCU: 0x482FA, offset: 0x482FA, size: 0x8, addend: 0x0, symName: __ZNSt3__116__next_hash_pow2B7v160006Em, symObjAddr: 0x10AA0, symBinAddr: 0x11950, symSize: 0x60 }
  - { offsetInCU: 0x48326, offset: 0x48326, size: 0x8, addend: 0x0, symName: __ZNSt3__125__debug_db_invalidate_allB7v160006INS_12__hash_tableINS_17__hash_value_typeIP11_typeobjectNS_6vectorIPN8pybind116detail9type_infoENS_9allocatorIS9_EEEEEENS_22__unordered_map_hasherIS4_SD_NS_4hashIS4_EENS_8equal_toIS4_EELb1EEENS_21__unordered_map_equalIS4_SD_SI_SG_Lb1EEENSA_ISD_EEEEEEvPT_, symObjAddr: 0x10B00, symBinAddr: 0x119B0, symSize: 0x10 }
  - { offsetInCU: 0x48374, offset: 0x48374, size: 0x8, addend: 0x0, symName: __ZNSt3__112__libcpp_clzB7v160006Em, symObjAddr: 0x10DF0, symBinAddr: 0x11CA0, symSize: 0x20 }
  - { offsetInCU: 0x483A0, offset: 0x483A0, size: 0x8, addend: 0x0, symName: __ZNSt3__13maxB7v160006ImNS_6__lessImmEEEERKT_S5_S5_T0_, symObjAddr: 0x10E10, symBinAddr: 0x11CC0, symSize: 0x50 }
  - { offsetInCU: 0x483FA, offset: 0x483FA, size: 0x8, addend: 0x0, symName: __ZNSt3__110destroy_atB7v160006INS_4pairIKP11_typeobjectNS_6vectorIPN8pybind116detail9type_infoENS_9allocatorIS9_EEEEEELi0EEEvPT_, symObjAddr: 0x11040, symBinAddr: 0x11EF0, symSize: 0x20 }
  - { offsetInCU: 0x48431, offset: 0x48431, size: 0x8, addend: 0x0, symName: __ZNSt3__112__destroy_atB7v160006INS_4pairIKP11_typeobjectNS_6vectorIPN8pybind116detail9type_infoENS_9allocatorIS9_EEEEEELi0EEEvPT_, symObjAddr: 0x11060, symBinAddr: 0x11F10, symSize: 0x20 }
  - { offsetInCU: 0x48468, offset: 0x48468, size: 0x8, addend: 0x0, symName: __ZNSt3__118__debug_db_erase_cB7v160006INS_6vectorIPN8pybind116detail9type_infoENS_9allocatorIS5_EEEEEEvPT_, symObjAddr: 0x112B0, symBinAddr: 0x12160, symSize: 0x10 }
  - { offsetInCU: 0x48499, offset: 0x48499, size: 0x8, addend: 0x0, symName: __ZNSt3__112__to_addressB7v160006IPN8pybind116detail9type_infoEEEPT_S6_, symObjAddr: 0x113C0, symBinAddr: 0x12270, symSize: 0x10 }
  - { offsetInCU: 0x484CE, offset: 0x484CE, size: 0x8, addend: 0x0, symName: __ZNSt3__110destroy_atB7v160006IPN8pybind116detail9type_infoELi0EEEvPT_, symObjAddr: 0x11470, symBinAddr: 0x12320, symSize: 0x20 }
  - { offsetInCU: 0x48505, offset: 0x48505, size: 0x8, addend: 0x0, symName: __ZNSt3__112__destroy_atB7v160006IPN8pybind116detail9type_infoELi0EEEvPT_, symObjAddr: 0x11490, symBinAddr: 0x12340, symSize: 0x10 }
  - { offsetInCU: 0x489B0, offset: 0x489B0, size: 0x8, addend: 0x0, symName: __ZNSt3__119__debug_db_insert_cB7v160006INS_6vectorIN8pybind116detail15argument_recordENS_9allocatorIS4_EEEEEEvPT_, symObjAddr: 0x13EC0, symBinAddr: 0x14D70, symSize: 0x10 }
  - { offsetInCU: 0x48A1B, offset: 0x48A1B, size: 0x8, addend: 0x0, symName: __ZNSt3__13getB7v160006ILm0EJN8pybind116detail11type_casterINS1_6handleEvEEEEERNS_13tuple_elementIXT_ENS_5tupleIJDpT0_EEEE4typeERSA_, symObjAddr: 0x14590, symBinAddr: 0x15440, symSize: 0x20 }
  - { offsetInCU: 0x48A5E, offset: 0x48A5E, size: 0x8, addend: 0x0, symName: __ZNSt3__1neB7v160006ERKNS_21__hash_const_iteratorIPNS_11__hash_nodeINS_4pairIPK7_objectPKcEEPvEEEESE_, symObjAddr: 0x14910, symBinAddr: 0x157C0, symSize: 0x30 }
  - { offsetInCU: 0x48A9B, offset: 0x48A9B, size: 0x8, addend: 0x0, symName: __ZNSt3__1eqB7v160006ERKNS_15__hash_iteratorIPNS_11__hash_nodeINS_17__hash_value_typeIP11_typeobjectNS_6vectorIPN8pybind116detail9type_infoENS_9allocatorIS9_EEEEEEPvEEEESJ_, symObjAddr: 0x14BE0, symBinAddr: 0x15A90, symSize: 0x30 }
  - { offsetInCU: 0x48AD8, offset: 0x48AD8, size: 0x8, addend: 0x0, symName: __ZNSt3__1eqB7v160006ERKNS_21__hash_const_iteratorIPNS_11__hash_nodeINS_4pairIPK7_objectPKcEEPvEEEESE_, symObjAddr: 0x15050, symBinAddr: 0x15F00, symSize: 0x30 }
  - { offsetInCU: 0x48B99, offset: 0x48B99, size: 0x8, addend: 0x0, symName: __ZNSt3__110destroy_atB7v160006INS_4pairIPK7_objectPKcEELi0EEEvPT_, symObjAddr: 0x15910, symBinAddr: 0x167C0, symSize: 0x20 }
  - { offsetInCU: 0x48BD0, offset: 0x48BD0, size: 0x8, addend: 0x0, symName: __ZNSt3__112__destroy_atB7v160006INS_4pairIPK7_objectPKcEELi0EEEvPT_, symObjAddr: 0x15930, symBinAddr: 0x167E0, symSize: 0x10 }
  - { offsetInCU: 0x48C07, offset: 0x48C07, size: 0x8, addend: 0x0, symName: __ZNSt3__1neB7v160006IPN8pybind116detail15argument_recordEEEbRKNS_11__wrap_iterIT_EES9_, symObjAddr: 0x15AB0, symBinAddr: 0x16960, symSize: 0x30 }
  - { offsetInCU: 0x48C4A, offset: 0x48C4A, size: 0x8, addend: 0x0, symName: __ZNSt3__1plB7v160006IcNS_11char_traitsIcEENS_9allocatorIcEEEENS_12basic_stringIT_T0_T1_EEOS9_RKS9_, symObjAddr: 0x15BE0, symBinAddr: 0x16A90, symSize: 0x50 }
  - { offsetInCU: 0x48CA2, offset: 0x48CA2, size: 0x8, addend: 0x0, symName: __ZNSt3__119__debug_db_insert_cB7v160006INS_6vectorIPcNS_9allocatorIS2_EEEEEEvPT_, symObjAddr: 0x19380, symBinAddr: 0x1A230, symSize: 0x10 }
  - { offsetInCU: 0x48CD3, offset: 0x48CD3, size: 0x8, addend: 0x0, symName: __ZNSt3__112__to_addressB7v160006IPcEEPT_S3_, symObjAddr: 0x196D0, symBinAddr: 0x1A580, symSize: 0x10 }
  - { offsetInCU: 0x48D2F, offset: 0x48D2F, size: 0x8, addend: 0x0, symName: __ZNSt3__112construct_atB7v160006IPcJRKS1_EPS1_EEPT_S6_DpOT0_, symObjAddr: 0x19740, symBinAddr: 0x1A5F0, symSize: 0x30 }
  - { offsetInCU: 0x48F8B, offset: 0x48F8B, size: 0x8, addend: 0x0, symName: __ZNSt3__119__allocate_at_leastB7v160006INS_9allocatorIPcEEEENS_19__allocation_resultINS_16allocator_traitsIT_E7pointerEEERS6_m, symObjAddr: 0x19CA0, symBinAddr: 0x1AB50, symSize: 0x40 }
  - { offsetInCU: 0x48FCE, offset: 0x48FCE, size: 0x8, addend: 0x0, symName: __ZNSt3__142__uninitialized_allocator_move_if_noexceptB7v160006INS_9allocatorIPcEENS_16reverse_iteratorIPS2_EES6_S2_vEET1_RT_T0_SA_S7_, symObjAddr: 0x19EE0, symBinAddr: 0x1AD90, symSize: 0x70 }
  - { offsetInCU: 0x4904B, offset: 0x4904B, size: 0x8, addend: 0x0, symName: __ZNSt3__14swapB7v160006IPPcEENS_9enable_ifIXaasr21is_move_constructibleIT_EE5valuesr18is_move_assignableIS4_EE5valueEvE4typeERS4_S7_, symObjAddr: 0x19FA0, symBinAddr: 0x1AE50, symSize: 0x40 }
  - { offsetInCU: 0x4909C, offset: 0x4909C, size: 0x8, addend: 0x0, symName: __ZNSt3__125__debug_db_invalidate_allB7v160006INS_6vectorIPcNS_9allocatorIS2_EEEEEEvPT_, symObjAddr: 0x1A090, symBinAddr: 0x1AF40, symSize: 0x10 }
  - { offsetInCU: 0x490CD, offset: 0x490CD, size: 0x8, addend: 0x0, symName: __ZNSt3__14moveB7v160006INS_16reverse_iteratorIPPcEES4_EET0_T_S6_S5_, symObjAddr: 0x1A0E0, symBinAddr: 0x1AF90, symSize: 0x80 }
  - { offsetInCU: 0x49127, offset: 0x49127, size: 0x8, addend: 0x0, symName: __ZNSt3__16__moveB7v160006INS_17_ClassicAlgPolicyENS_16reverse_iteratorIPPcEES5_S5_EENS_4pairIT0_T2_EES7_T1_S8_, symObjAddr: 0x1A160, symBinAddr: 0x1B010, symSize: 0x90 }
  - { offsetInCU: 0x49193, offset: 0x49193, size: 0x8, addend: 0x0, symName: __ZNSt3__123__dispatch_copy_or_moveB7v160006INS_17_ClassicAlgPolicyENS_11__move_loopIS1_EENS_14__move_trivialENS_16reverse_iteratorIPPcEES8_S8_EENS_4pairIT2_T4_EESA_T3_SB_, symObjAddr: 0x1A1F0, symBinAddr: 0x1B0A0, symSize: 0x90 }
  - { offsetInCU: 0x49211, offset: 0x49211, size: 0x8, addend: 0x0, symName: __ZNSt3__121__unwrap_and_dispatchB7v160006INS_10__overloadINS_11__move_loopINS_17_ClassicAlgPolicyEEENS_14__move_trivialEEENS_16reverse_iteratorIPPcEESA_SA_Li0EEENS_4pairIT0_T2_EESC_T1_SD_, symObjAddr: 0x1A280, symBinAddr: 0x1B130, symSize: 0x210 }
  - { offsetInCU: 0x492A0, offset: 0x492A0, size: 0x8, addend: 0x0, symName: __ZNSt3__114__unwrap_rangeB7v160006INS_16reverse_iteratorIPPcEES4_EEDaT_T0_, symObjAddr: 0x1A490, symBinAddr: 0x1B340, symSize: 0x60 }
  - { offsetInCU: 0x49517, offset: 0x49517, size: 0x8, addend: 0x0, symName: __ZNSt3__113__unwrap_iterB7v160006INS_16reverse_iteratorIPPcEENS_18__unwrap_iter_implIS4_Lb0EEELi0EEEDTclsrT0_8__unwrapclsr3stdE7declvalIT_EEEES8_, symObjAddr: 0x1A590, symBinAddr: 0x1B440, symSize: 0x40 }
  - { offsetInCU: 0x4955B, offset: 0x4955B, size: 0x8, addend: 0x0, symName: __ZNSt3__19make_pairB7v160006INS_16reverse_iteratorIPPcEES4_EENS_4pairINS_18__unwrap_ref_decayIT_E4typeENS6_IT0_E4typeEEEOS7_OSA_, symObjAddr: 0x1A5D0, symBinAddr: 0x1B480, symSize: 0x30 }
  - { offsetInCU: 0x495AA, offset: 0x495AA, size: 0x8, addend: 0x0, symName: __ZNSt3__114__rewrap_rangeB7v160006INS_16reverse_iteratorIPPcEES4_S4_EET0_S5_T1_, symObjAddr: 0x1A600, symBinAddr: 0x1B4B0, symSize: 0x60 }
  - { offsetInCU: 0x495FF, offset: 0x495FF, size: 0x8, addend: 0x0, symName: __ZNSt3__113__rewrap_iterB7v160006INS_16reverse_iteratorIPPcEES4_NS_18__unwrap_iter_implIS4_Lb0EEEEET_S7_T0_, symObjAddr: 0x1A660, symBinAddr: 0x1B510, symSize: 0x70 }
  - { offsetInCU: 0x496A4, offset: 0x496A4, size: 0x8, addend: 0x0, symName: __ZNSt3__1neB7v160006IPPcS2_EEbRKNS_16reverse_iteratorIT_EERKNS3_IT0_EE, symObjAddr: 0x1A7D0, symBinAddr: 0x1B680, symSize: 0x40 }
  - { offsetInCU: 0x49892, offset: 0x49892, size: 0x8, addend: 0x0, symName: __ZNSt3__110destroy_atB7v160006IPcLi0EEEvPT_, symObjAddr: 0x1AB30, symBinAddr: 0x1B9E0, symSize: 0x20 }
  - { offsetInCU: 0x498C9, offset: 0x498C9, size: 0x8, addend: 0x0, symName: __ZNSt3__112__destroy_atB7v160006IPcLi0EEEvPT_, symObjAddr: 0x1AB50, symBinAddr: 0x1BA00, symSize: 0x10 }
  - { offsetInCU: 0x49900, offset: 0x49900, size: 0x8, addend: 0x0, symName: __ZNSt3__1eqB7v160006IPN8pybind116detail15argument_recordEEEbRKNS_11__wrap_iterIT_EES9_, symObjAddr: 0x1AC60, symBinAddr: 0x1BB10, symSize: 0x40 }
  - { offsetInCU: 0x49943, offset: 0x49943, size: 0x8, addend: 0x0, symName: __ZNSt3__125__debug_db_invalidate_allB7v160006INS_12basic_stringIcNS_11char_traitsIcEENS_9allocatorIcEEEEEEvPT_, symObjAddr: 0x1AFB0, symBinAddr: 0x1BE60, symSize: 0x10 }
  - { offsetInCU: 0x49974, offset: 0x49974, size: 0x8, addend: 0x0, symName: __ZNSt3__123__str_find_first_not_ofB7v160006IcmNS_11char_traitsIcEELm18446744073709551615EEET0_PKT_S3_S6_S3_S3_, symObjAddr: 0x1AFC0, symBinAddr: 0x1BE70, symSize: 0xB0 }
  - { offsetInCU: 0x49A46, offset: 0x49A46, size: 0x8, addend: 0x0, symName: __ZNSt3__122__str_find_last_not_ofB7v160006IcmNS_11char_traitsIcEELm18446744073709551615EEET0_PKT_S3_S6_S3_S3_, symObjAddr: 0x1B070, symBinAddr: 0x1BF20, symSize: 0xB0 }
  - { offsetInCU: 0x49AFB, offset: 0x49AFB, size: 0x8, addend: 0x0, symName: __ZNSt3__1plB7v160006IcNS_11char_traitsIcEENS_9allocatorIcEEEENS_12basic_stringIT_T0_T1_EEOS9_S6_, symObjAddr: 0x1B260, symBinAddr: 0x1C110, symSize: 0x50 }
  - { offsetInCU: 0x49B53, offset: 0x49B53, size: 0x8, addend: 0x0, symName: __ZNSt3__1neB7v160006ERKNS_19__hash_map_iteratorINS_15__hash_iteratorIPNS_11__hash_nodeINS_17__hash_value_typeINS_10type_indexEPN8pybind116detail9type_infoEEEPvEEEEEESG_, symObjAddr: 0x1B3A0, symBinAddr: 0x1C250, symSize: 0x30 }
  - { offsetInCU: 0x49B90, offset: 0x49B90, size: 0x8, addend: 0x0, symName: __ZNSt3__116forward_as_tupleB7v160006IJNS_12basic_stringIcNS_11char_traitsIcEENS_9allocatorIcEEEEEEENS_5tupleIJDpOT_EEESA_, symObjAddr: 0x1BC80, symBinAddr: 0x1CB30, symSize: 0x30 }
  - { offsetInCU: 0x49BC9, offset: 0x49BC9, size: 0x8, addend: 0x0, symName: __ZNSt3__116__do_string_hashB7v160006IPKcEEmT_S3_, symObjAddr: 0x1C1E0, symBinAddr: 0x1D090, symSize: 0x40 }
  - { offsetInCU: 0x49C0F, offset: 0x49C0F, size: 0x8, addend: 0x0, symName: __ZNSt3__1eqB7v160006INS_9allocatorIcEEEEbRKNS_12basic_stringIcNS_11char_traitsIcEET_EES9_, symObjAddr: 0x1C360, symBinAddr: 0x1D210, symSize: 0x110 }
  - { offsetInCU: 0x49C82, offset: 0x49C82, size: 0x8, addend: 0x0, symName: __ZNSt3__17launderB7v160006IKNS_4pairIKNS_12basic_stringIcNS_11char_traitsIcEENS_9allocatorIcEEEEPvEEEEPT_SD_, symObjAddr: 0x1C470, symBinAddr: 0x1D320, symSize: 0x20 }
  - { offsetInCU: 0x49CB9, offset: 0x49CB9, size: 0x8, addend: 0x0, symName: __ZNSt3__19__launderB7v160006IKNS_4pairIKNS_12basic_stringIcNS_11char_traitsIcEENS_9allocatorIcEEEEPvEEEEPT_SD_, symObjAddr: 0x1C490, symBinAddr: 0x1D340, symSize: 0x10 }
  - { offsetInCU: 0x49D68, offset: 0x49D68, size: 0x8, addend: 0x0, symName: __ZNSt3__112construct_atB7v160006INS_4pairIKNS_12basic_stringIcNS_11char_traitsIcEENS_9allocatorIcEEEEPvEEJRKNS_21piecewise_construct_tENS_5tupleIJOS7_EEENSE_IJEEEEPSA_EEPT_SK_DpOT0_, symObjAddr: 0x1C7D0, symBinAddr: 0x1D680, symSize: 0x50 }
  - { offsetInCU: 0x49E00, offset: 0x49E00, size: 0x8, addend: 0x0, symName: __ZNSt3__13getB7v160006ILm0EJONS_12basic_stringIcNS_11char_traitsIcEENS_9allocatorIcEEEEEEERNS_13tuple_elementIXT_ENS_5tupleIJDpT0_EEEE4typeERSC_, symObjAddr: 0x1C8E0, symBinAddr: 0x1D790, symSize: 0x20 }
  - { offsetInCU: 0x49E43, offset: 0x49E43, size: 0x8, addend: 0x0, symName: __ZNSt3__125__debug_db_invalidate_allB7v160006INS_12__hash_tableINS_17__hash_value_typeINS_12basic_stringIcNS_11char_traitsIcEENS_9allocatorIcEEEEPvEENS_22__unordered_map_hasherIS8_SA_NS_4hashIS8_EENS_8equal_toIS8_EELb1EEENS_21__unordered_map_equalIS8_SA_SF_SD_Lb1EEENS6_ISA_EEEEEEvPT_, symObjAddr: 0x1CE20, symBinAddr: 0x1DCD0, symSize: 0x10 }
  - { offsetInCU: 0x49E74, offset: 0x49E74, size: 0x8, addend: 0x0, symName: __ZNSt3__110destroy_atB7v160006INS_4pairIKNS_12basic_stringIcNS_11char_traitsIcEENS_9allocatorIcEEEEPvEELi0EEEvPT_, symObjAddr: 0x1D2F0, symBinAddr: 0x1E1A0, symSize: 0x20 }
  - { offsetInCU: 0x49EAB, offset: 0x49EAB, size: 0x8, addend: 0x0, symName: __ZNSt3__112__destroy_atB7v160006INS_4pairIKNS_12basic_stringIcNS_11char_traitsIcEENS_9allocatorIcEEEEPvEELi0EEEvPT_, symObjAddr: 0x1D310, symBinAddr: 0x1E1C0, symSize: 0x20 }
  - { offsetInCU: 0x49F2A, offset: 0x49F2A, size: 0x8, addend: 0x0, symName: __ZNSt3__17launderB7v160006INS_4pairIKNS_12basic_stringIcNS_11char_traitsIcEENS_9allocatorIcEEEEPvEEEEPT_SC_, symObjAddr: 0x1D500, symBinAddr: 0x1E3B0, symSize: 0x20 }
  - { offsetInCU: 0x49F61, offset: 0x49F61, size: 0x8, addend: 0x0, symName: __ZNSt3__19__launderB7v160006INS_4pairIKNS_12basic_stringIcNS_11char_traitsIcEENS_9allocatorIcEEEEPvEEEEPT_SC_, symObjAddr: 0x1D520, symBinAddr: 0x1E3D0, symSize: 0x10 }
  - { offsetInCU: 0x49F98, offset: 0x49F98, size: 0x8, addend: 0x0, symName: __ZNSt3__110destroy_atB7v160006IPFvSt13exception_ptrELi0EEEvPT_, symObjAddr: 0x1D690, symBinAddr: 0x1E540, symSize: 0x20 }
  - { offsetInCU: 0x49FCF, offset: 0x49FCF, size: 0x8, addend: 0x0, symName: __ZNSt3__112__destroy_atB7v160006IPFvSt13exception_ptrELi0EEEvPT_, symObjAddr: 0x1D6B0, symBinAddr: 0x1E560, symSize: 0x10 }
  - { offsetInCU: 0x4A006, offset: 0x4A006, size: 0x8, addend: 0x0, symName: __ZNSt3__118__debug_db_erase_cB7v160006INS_12__hash_tableINS_17__hash_value_typeINS_10type_indexEPN8pybind116detail9type_infoEEENS_22__unordered_map_hasherIS3_S8_NS5_9type_hashENS5_13type_equal_toELb1EEENS_21__unordered_map_equalIS3_S8_SB_SA_Lb1EEENS_9allocatorIS8_EEEEEEvPT_, symObjAddr: 0x1D810, symBinAddr: 0x1E6C0, symSize: 0x10 }
  - { offsetInCU: 0x4A06A, offset: 0x4A06A, size: 0x8, addend: 0x0, symName: __ZNSt3__110destroy_atB7v160006INS_4pairIKNS_10type_indexEPN8pybind116detail9type_infoEEELi0EEEvPT_, symObjAddr: 0x1D930, symBinAddr: 0x1E7E0, symSize: 0x20 }
  - { offsetInCU: 0x4A0A1, offset: 0x4A0A1, size: 0x8, addend: 0x0, symName: __ZNSt3__112__destroy_atB7v160006INS_4pairIKNS_10type_indexEPN8pybind116detail9type_infoEEELi0EEEvPT_, symObjAddr: 0x1D950, symBinAddr: 0x1E800, symSize: 0x10 }
  - { offsetInCU: 0x4A0D8, offset: 0x4A0D8, size: 0x8, addend: 0x0, symName: __ZNSt3__17launderB7v160006INS_4pairIKNS_10type_indexEPN8pybind116detail9type_infoEEEEEPT_SA_, symObjAddr: 0x1D980, symBinAddr: 0x1E830, symSize: 0x20 }
  - { offsetInCU: 0x4A10F, offset: 0x4A10F, size: 0x8, addend: 0x0, symName: __ZNSt3__19__launderB7v160006INS_4pairIKNS_10type_indexEPN8pybind116detail9type_infoEEEEEPT_SA_, symObjAddr: 0x1D9A0, symBinAddr: 0x1E850, symSize: 0x10 }
  - { offsetInCU: 0x4A146, offset: 0x4A146, size: 0x8, addend: 0x0, symName: __ZNSt3__17launderB7v160006IKNS_4pairIKNS_10type_indexEPN8pybind116detail9type_infoEEEEEPT_SB_, symObjAddr: 0x1E1A0, symBinAddr: 0x1F050, symSize: 0x20 }
  - { offsetInCU: 0x4A17D, offset: 0x4A17D, size: 0x8, addend: 0x0, symName: __ZNSt3__19__launderB7v160006IKNS_4pairIKNS_10type_indexEPN8pybind116detail9type_infoEEEEEPT_SB_, symObjAddr: 0x1E1C0, symBinAddr: 0x1F070, symSize: 0x10 }
  - { offsetInCU: 0x4A1B4, offset: 0x4A1B4, size: 0x8, addend: 0x0, symName: __ZNSt3__1neB7v160006ERKNS_15__hash_iteratorIPNS_11__hash_nodeINS_17__hash_value_typeINS_10type_indexEPN8pybind116detail9type_infoEEEPvEEEESE_, symObjAddr: 0x1E210, symBinAddr: 0x1F0C0, symSize: 0x30 }
  - { offsetInCU: 0x4A1F1, offset: 0x4A1F1, size: 0x8, addend: 0x0, symName: __ZNSt3__1eqB7v160006ERKNS_15__hash_iteratorIPNS_11__hash_nodeINS_17__hash_value_typeINS_10type_indexEPN8pybind116detail9type_infoEEEPvEEEESE_, symObjAddr: 0x1E240, symBinAddr: 0x1F0F0, symSize: 0x30 }
  - { offsetInCU: 0x4A294, offset: 0x4A294, size: 0x8, addend: 0x0, symName: __ZNSt3__119__allocate_at_leastB7v160006INS_9allocatorIN8pybind116detail15argument_recordEEEEENS_19__allocation_resultINS_16allocator_traitsIT_E7pointerEEERS8_m, symObjAddr: 0x1E870, symBinAddr: 0x1F720, symSize: 0x40 }
  - { offsetInCU: 0x4A2D7, offset: 0x4A2D7, size: 0x8, addend: 0x0, symName: __ZNSt3__142__uninitialized_allocator_move_if_noexceptB7v160006INS_9allocatorIN8pybind116detail15argument_recordEEENS_16reverse_iteratorIPS4_EES8_S4_vEET1_RT_T0_SC_S9_, symObjAddr: 0x1EAE0, symBinAddr: 0x1F990, symSize: 0x70 }
  - { offsetInCU: 0x4A354, offset: 0x4A354, size: 0x8, addend: 0x0, symName: __ZNSt3__14swapB7v160006IPN8pybind116detail15argument_recordEEENS_9enable_ifIXaasr21is_move_constructibleIT_EE5valuesr18is_move_assignableIS6_EE5valueEvE4typeERS6_S9_, symObjAddr: 0x1EBA0, symBinAddr: 0x1FA50, symSize: 0x40 }
  - { offsetInCU: 0x4A3A5, offset: 0x4A3A5, size: 0x8, addend: 0x0, symName: __ZNSt3__125__debug_db_invalidate_allB7v160006INS_6vectorIN8pybind116detail15argument_recordENS_9allocatorIS4_EEEEEEvPT_, symObjAddr: 0x1ECB0, symBinAddr: 0x1FB60, symSize: 0x10 }
  - { offsetInCU: 0x4A3D6, offset: 0x4A3D6, size: 0x8, addend: 0x0, symName: __ZNSt3__112__to_addressB7v160006IN8pybind116detail15argument_recordEEEPT_S5_, symObjAddr: 0x1ED00, symBinAddr: 0x1FBB0, symSize: 0x10 }
  - { offsetInCU: 0x4A40B, offset: 0x4A40B, size: 0x8, addend: 0x0, symName: __ZNSt3__14moveB7v160006INS_16reverse_iteratorIPN8pybind116detail15argument_recordEEES6_EET0_T_S8_S7_, symObjAddr: 0x1ED10, symBinAddr: 0x1FBC0, symSize: 0x80 }
  - { offsetInCU: 0x4A465, offset: 0x4A465, size: 0x8, addend: 0x0, symName: __ZNSt3__16__moveB7v160006INS_17_ClassicAlgPolicyENS_16reverse_iteratorIPN8pybind116detail15argument_recordEEES7_S7_EENS_4pairIT0_T2_EES9_T1_SA_, symObjAddr: 0x1ED90, symBinAddr: 0x1FC40, symSize: 0x90 }
  - { offsetInCU: 0x4A4D1, offset: 0x4A4D1, size: 0x8, addend: 0x0, symName: __ZNSt3__123__dispatch_copy_or_moveB7v160006INS_17_ClassicAlgPolicyENS_11__move_loopIS1_EENS_14__move_trivialENS_16reverse_iteratorIPN8pybind116detail15argument_recordEEESA_SA_EENS_4pairIT2_T4_EESC_T3_SD_, symObjAddr: 0x1EE20, symBinAddr: 0x1FCD0, symSize: 0x90 }
  - { offsetInCU: 0x4A54F, offset: 0x4A54F, size: 0x8, addend: 0x0, symName: __ZNSt3__121__unwrap_and_dispatchB7v160006INS_10__overloadINS_11__move_loopINS_17_ClassicAlgPolicyEEENS_14__move_trivialEEENS_16reverse_iteratorIPN8pybind116detail15argument_recordEEESC_SC_Li0EEENS_4pairIT0_T2_EESE_T1_SF_, symObjAddr: 0x1EEB0, symBinAddr: 0x1FD60, symSize: 0x210 }
  - { offsetInCU: 0x4A5DE, offset: 0x4A5DE, size: 0x8, addend: 0x0, symName: __ZNSt3__114__unwrap_rangeB7v160006INS_16reverse_iteratorIPN8pybind116detail15argument_recordEEES6_EEDaT_T0_, symObjAddr: 0x1F0C0, symBinAddr: 0x1FF70, symSize: 0x60 }
  - { offsetInCU: 0x4A6FE, offset: 0x4A6FE, size: 0x8, addend: 0x0, symName: __ZNSt3__113__unwrap_iterB7v160006INS_16reverse_iteratorIPN8pybind116detail15argument_recordEEENS_18__unwrap_iter_implIS6_Lb0EEELi0EEEDTclsrT0_8__unwrapclsr3stdE7declvalIT_EEEESA_, symObjAddr: 0x1F1D0, symBinAddr: 0x20080, symSize: 0x40 }
  - { offsetInCU: 0x4A742, offset: 0x4A742, size: 0x8, addend: 0x0, symName: __ZNSt3__19make_pairB7v160006INS_16reverse_iteratorIPN8pybind116detail15argument_recordEEES6_EENS_4pairINS_18__unwrap_ref_decayIT_E4typeENS8_IT0_E4typeEEEOS9_OSC_, symObjAddr: 0x1F210, symBinAddr: 0x200C0, symSize: 0x30 }
  - { offsetInCU: 0x4A791, offset: 0x4A791, size: 0x8, addend: 0x0, symName: __ZNSt3__114__rewrap_rangeB7v160006INS_16reverse_iteratorIPN8pybind116detail15argument_recordEEES6_S6_EET0_S7_T1_, symObjAddr: 0x1F240, symBinAddr: 0x200F0, symSize: 0x60 }
  - { offsetInCU: 0x4A7E6, offset: 0x4A7E6, size: 0x8, addend: 0x0, symName: __ZNSt3__113__rewrap_iterB7v160006INS_16reverse_iteratorIPN8pybind116detail15argument_recordEEES6_NS_18__unwrap_iter_implIS6_Lb0EEEEET_S9_T0_, symObjAddr: 0x1F2A0, symBinAddr: 0x20150, symSize: 0x70 }
  - { offsetInCU: 0x4A88B, offset: 0x4A88B, size: 0x8, addend: 0x0, symName: __ZNSt3__1neB7v160006IPN8pybind116detail15argument_recordES4_EEbRKNS_16reverse_iteratorIT_EERKNS5_IT0_EE, symObjAddr: 0x1F410, symBinAddr: 0x202C0, symSize: 0x40 }
  - { offsetInCU: 0x4A944, offset: 0x4A944, size: 0x8, addend: 0x0, symName: __ZNSt3__110destroy_atB7v160006IN8pybind116detail15argument_recordELi0EEEvPT_, symObjAddr: 0x1F790, symBinAddr: 0x20640, symSize: 0x20 }
  - { offsetInCU: 0x4A97B, offset: 0x4A97B, size: 0x8, addend: 0x0, symName: __ZNSt3__112__destroy_atB7v160006IN8pybind116detail15argument_recordELi0EEEvPT_, symObjAddr: 0x1F7B0, symBinAddr: 0x20660, symSize: 0x10 }
  - { offsetInCU: 0x4A9B2, offset: 0x4A9B2, size: 0x8, addend: 0x0, symName: __ZNSt3__1neB7v160006IPN8pybind116detail13function_callEEEbRKNS_11__wrap_iterIT_EES9_, symObjAddr: 0x207E0, symBinAddr: 0x21690, symSize: 0x30 }
  - { offsetInCU: 0x4A9F5, offset: 0x4A9F5, size: 0x8, addend: 0x0, symName: __ZNSt3__119__debug_db_insert_cB7v160006INS_6vectorIN8pybind116detail13function_callENS_9allocatorIS4_EEEEEEvPT_, symObjAddr: 0x21080, symBinAddr: 0x21F30, symSize: 0x10 }
  - { offsetInCU: 0x4AA26, offset: 0x4AA26, size: 0x8, addend: 0x0, symName: __ZNSt3__119__debug_db_insert_cB7v160006INS_6vectorIN8pybind116handleENS_9allocatorIS3_EEEEEEvPT_, symObjAddr: 0x21520, symBinAddr: 0x223D0, symSize: 0x10 }
  - { offsetInCU: 0x4AA57, offset: 0x4AA57, size: 0x8, addend: 0x0, symName: __ZNSt3__119__allocate_at_leastB7v160006INS_9allocatorIN8pybind116handleEEEEENS_19__allocation_resultINS_16allocator_traitsIT_E7pointerEEERS7_m, symObjAddr: 0x21A30, symBinAddr: 0x228E0, symSize: 0x40 }
  - { offsetInCU: 0x4AA9A, offset: 0x4AA9A, size: 0x8, addend: 0x0, symName: __ZNSt3__142__uninitialized_allocator_move_if_noexceptB7v160006INS_9allocatorIN8pybind116handleEEENS_16reverse_iteratorIPS3_EES7_S3_vEET1_RT_T0_SB_S8_, symObjAddr: 0x21C80, symBinAddr: 0x22B30, symSize: 0x70 }
  - { offsetInCU: 0x4AB17, offset: 0x4AB17, size: 0x8, addend: 0x0, symName: __ZNSt3__14swapB7v160006IPN8pybind116handleEEENS_9enable_ifIXaasr21is_move_constructibleIT_EE5valuesr18is_move_assignableIS5_EE5valueEvE4typeERS5_S8_, symObjAddr: 0x21D40, symBinAddr: 0x22BF0, symSize: 0x40 }
  - { offsetInCU: 0x4AB68, offset: 0x4AB68, size: 0x8, addend: 0x0, symName: __ZNSt3__125__debug_db_invalidate_allB7v160006INS_6vectorIN8pybind116handleENS_9allocatorIS3_EEEEEEvPT_, symObjAddr: 0x21E50, symBinAddr: 0x22D00, symSize: 0x10 }
  - { offsetInCU: 0x4AB99, offset: 0x4AB99, size: 0x8, addend: 0x0, symName: __ZNSt3__112__to_addressB7v160006IN8pybind116handleEEEPT_S4_, symObjAddr: 0x21EA0, symBinAddr: 0x22D50, symSize: 0x10 }
  - { offsetInCU: 0x4ABCE, offset: 0x4ABCE, size: 0x8, addend: 0x0, symName: __ZNSt3__14moveB7v160006INS_16reverse_iteratorIPN8pybind116handleEEES5_EET0_T_S7_S6_, symObjAddr: 0x21EB0, symBinAddr: 0x22D60, symSize: 0x80 }
  - { offsetInCU: 0x4AC28, offset: 0x4AC28, size: 0x8, addend: 0x0, symName: __ZNSt3__16__moveB7v160006INS_17_ClassicAlgPolicyENS_16reverse_iteratorIPN8pybind116handleEEES6_S6_EENS_4pairIT0_T2_EES8_T1_S9_, symObjAddr: 0x21F30, symBinAddr: 0x22DE0, symSize: 0x90 }
  - { offsetInCU: 0x4AC94, offset: 0x4AC94, size: 0x8, addend: 0x0, symName: __ZNSt3__123__dispatch_copy_or_moveB7v160006INS_17_ClassicAlgPolicyENS_11__move_loopIS1_EENS_14__move_trivialENS_16reverse_iteratorIPN8pybind116handleEEES9_S9_EENS_4pairIT2_T4_EESB_T3_SC_, symObjAddr: 0x21FC0, symBinAddr: 0x22E70, symSize: 0x90 }
  - { offsetInCU: 0x4AD12, offset: 0x4AD12, size: 0x8, addend: 0x0, symName: __ZNSt3__121__unwrap_and_dispatchB7v160006INS_10__overloadINS_11__move_loopINS_17_ClassicAlgPolicyEEENS_14__move_trivialEEENS_16reverse_iteratorIPN8pybind116handleEEESB_SB_Li0EEENS_4pairIT0_T2_EESD_T1_SE_, symObjAddr: 0x22050, symBinAddr: 0x22F00, symSize: 0x210 }
  - { offsetInCU: 0x4ADA1, offset: 0x4ADA1, size: 0x8, addend: 0x0, symName: __ZNSt3__114__unwrap_rangeB7v160006INS_16reverse_iteratorIPN8pybind116handleEEES5_EEDaT_T0_, symObjAddr: 0x22260, symBinAddr: 0x23110, symSize: 0x60 }
  - { offsetInCU: 0x4AEC1, offset: 0x4AEC1, size: 0x8, addend: 0x0, symName: __ZNSt3__113__unwrap_iterB7v160006INS_16reverse_iteratorIPN8pybind116handleEEENS_18__unwrap_iter_implIS5_Lb0EEELi0EEEDTclsrT0_8__unwrapclsr3stdE7declvalIT_EEEES9_, symObjAddr: 0x22360, symBinAddr: 0x23210, symSize: 0x40 }
  - { offsetInCU: 0x4AF05, offset: 0x4AF05, size: 0x8, addend: 0x0, symName: __ZNSt3__19make_pairB7v160006INS_16reverse_iteratorIPN8pybind116handleEEES5_EENS_4pairINS_18__unwrap_ref_decayIT_E4typeENS7_IT0_E4typeEEEOS8_OSB_, symObjAddr: 0x223A0, symBinAddr: 0x23250, symSize: 0x30 }
  - { offsetInCU: 0x4AF54, offset: 0x4AF54, size: 0x8, addend: 0x0, symName: __ZNSt3__114__rewrap_rangeB7v160006INS_16reverse_iteratorIPN8pybind116handleEEES5_S5_EET0_S6_T1_, symObjAddr: 0x223D0, symBinAddr: 0x23280, symSize: 0x60 }
  - { offsetInCU: 0x4AFA9, offset: 0x4AFA9, size: 0x8, addend: 0x0, symName: __ZNSt3__113__rewrap_iterB7v160006INS_16reverse_iteratorIPN8pybind116handleEEES5_NS_18__unwrap_iter_implIS5_Lb0EEEEET_S8_T0_, symObjAddr: 0x22430, symBinAddr: 0x232E0, symSize: 0x70 }
  - { offsetInCU: 0x4B04E, offset: 0x4B04E, size: 0x8, addend: 0x0, symName: __ZNSt3__1neB7v160006IPN8pybind116handleES3_EEbRKNS_16reverse_iteratorIT_EERKNS4_IT0_EE, symObjAddr: 0x225A0, symBinAddr: 0x23450, symSize: 0x40 }
  - { offsetInCU: 0x4B107, offset: 0x4B107, size: 0x8, addend: 0x0, symName: __ZNSt3__110destroy_atB7v160006IN8pybind116handleELi0EEEvPT_, symObjAddr: 0x22920, symBinAddr: 0x237D0, symSize: 0x20 }
  - { offsetInCU: 0x4B13E, offset: 0x4B13E, size: 0x8, addend: 0x0, symName: __ZNSt3__112__destroy_atB7v160006IN8pybind116handleELi0EEEvPT_, symObjAddr: 0x22940, symBinAddr: 0x237F0, symSize: 0x10 }
  - { offsetInCU: 0x4B175, offset: 0x4B175, size: 0x8, addend: 0x0, symName: __ZNSt3__125__debug_db_invalidate_allB7v160006INS_6vectorIbNS_9allocatorIbEEEEEEvPT_, symObjAddr: 0x22D30, symBinAddr: 0x23BE0, symSize: 0x10 }
  - { offsetInCU: 0x4B1A6, offset: 0x4B1A6, size: 0x8, addend: 0x0, symName: __ZNSt3__119__allocate_at_leastB7v160006INS_9allocatorImEEEENS_19__allocation_resultINS_16allocator_traitsIT_E7pointerEEERS5_m, symObjAddr: 0x22FC0, symBinAddr: 0x23E70, symSize: 0x40 }
  - { offsetInCU: 0x4B1E9, offset: 0x4B1E9, size: 0x8, addend: 0x0, symName: __ZNSt3__18distanceB7v160006INS_14__bit_iteratorINS_6vectorIbNS_9allocatorIbEEEELb0ELm0EEEEENS_15iterator_traitsIT_E15difference_typeES8_S8_, symObjAddr: 0x23100, symBinAddr: 0x23FB0, symSize: 0x50 }
  - { offsetInCU: 0x4B22E, offset: 0x4B22E, size: 0x8, addend: 0x0, symName: __ZNSt3__14copyB7v160006INS_6vectorIbNS_9allocatorIbEEEELb0EEENS_14__bit_iteratorIT_Lb0EXLi0EEEENS5_IS6_XT0_EXLi0EEEES8_S7_, symObjAddr: 0x23180, symBinAddr: 0x24030, symSize: 0x100 }
  - { offsetInCU: 0x4B290, offset: 0x4B290, size: 0x8, addend: 0x0, symName: __ZNSt3__110__distanceB7v160006INS_14__bit_iteratorINS_6vectorIbNS_9allocatorIbEEEELb0ELm0EEEEENS_15iterator_traitsIT_E15difference_typeES8_S8_NS_26random_access_iterator_tagE, symObjAddr: 0x232D0, symBinAddr: 0x24180, symSize: 0x30 }
  - { offsetInCU: 0x4B2E0, offset: 0x4B2E0, size: 0x8, addend: 0x0, symName: __ZNSt3__1miB7v160006ERKNS_14__bit_iteratorINS_6vectorIbNS_9allocatorIbEEEELb0ELm0EEES7_, symObjAddr: 0x23300, symBinAddr: 0x241B0, symSize: 0x40 }
  - { offsetInCU: 0x4B31D, offset: 0x4B31D, size: 0x8, addend: 0x0, symName: __ZNSt3__13minB7v160006IlEERKT_S3_S3_, symObjAddr: 0x23AF0, symBinAddr: 0x249A0, symSize: 0x30 }
  - { offsetInCU: 0x4B360, offset: 0x4B360, size: 0x8, addend: 0x0, symName: __ZNSt3__112__to_addressB7v160006ImEEPT_S2_, symObjAddr: 0x23B60, symBinAddr: 0x24A10, symSize: 0x10 }
  - { offsetInCU: 0x4B395, offset: 0x4B395, size: 0x8, addend: 0x0, symName: __ZNSt3__13minB7v160006IlNS_6__lessIllEEEERKT_S5_S5_T0_, symObjAddr: 0x23B70, symBinAddr: 0x24A20, symSize: 0x50 }
  - { offsetInCU: 0x4B42A, offset: 0x4B42A, size: 0x8, addend: 0x0, symName: __ZNSt3__14copyB7v160006IPmS1_EET0_T_S3_S2_, symObjAddr: 0x23BF0, symBinAddr: 0x24AA0, symSize: 0x40 }
  - { offsetInCU: 0x4B484, offset: 0x4B484, size: 0x8, addend: 0x0, symName: __ZNSt3__16__copyB7v160006INS_17_ClassicAlgPolicyEPmS2_S2_EENS_4pairIT0_T2_EES4_T1_S5_, symObjAddr: 0x23C30, symBinAddr: 0x24AE0, symSize: 0x40 }
  - { offsetInCU: 0x4B4F0, offset: 0x4B4F0, size: 0x8, addend: 0x0, symName: __ZNSt3__123__dispatch_copy_or_moveB7v160006INS_17_ClassicAlgPolicyENS_11__copy_loopIS1_EENS_14__copy_trivialEPmS5_S5_EENS_4pairIT2_T4_EES7_T3_S8_, symObjAddr: 0x23C70, symBinAddr: 0x24B20, symSize: 0x40 }
  - { offsetInCU: 0x4B56E, offset: 0x4B56E, size: 0x8, addend: 0x0, symName: __ZNSt3__121__unwrap_and_dispatchB7v160006INS_10__overloadINS_11__copy_loopINS_17_ClassicAlgPolicyEEENS_14__copy_trivialEEEPmS7_S7_Li0EEENS_4pairIT0_T2_EES9_T1_SA_, symObjAddr: 0x23CB0, symBinAddr: 0x24B60, symSize: 0xB0 }
  - { offsetInCU: 0x4B5FD, offset: 0x4B5FD, size: 0x8, addend: 0x0, symName: __ZNSt3__114__unwrap_rangeB7v160006IPmS1_EEDaT_T0_, symObjAddr: 0x23D60, symBinAddr: 0x24C10, symSize: 0x40 }
  - { offsetInCU: 0x4B74C, offset: 0x4B74C, size: 0x8, addend: 0x0, symName: __ZNSt3__113__unwrap_iterB7v160006IPmNS_18__unwrap_iter_implIS1_Lb1EEELi0EEEDTclsrT0_8__unwrapclsr3stdE7declvalIT_EEEES5_, symObjAddr: 0x23DE0, symBinAddr: 0x24C90, symSize: 0x20 }
  - { offsetInCU: 0x4B790, offset: 0x4B790, size: 0x8, addend: 0x0, symName: __ZNSt3__19make_pairB7v160006IPmS1_EENS_4pairINS_18__unwrap_ref_decayIT_E4typeENS3_IT0_E4typeEEEOS4_OS7_, symObjAddr: 0x23E00, symBinAddr: 0x24CB0, symSize: 0x30 }
  - { offsetInCU: 0x4B7DF, offset: 0x4B7DF, size: 0x8, addend: 0x0, symName: __ZNSt3__114__rewrap_rangeB7v160006IPmS1_S1_EET0_S2_T1_, symObjAddr: 0x23E30, symBinAddr: 0x24CE0, symSize: 0x30 }
  - { offsetInCU: 0x4B834, offset: 0x4B834, size: 0x8, addend: 0x0, symName: __ZNSt3__113__rewrap_iterB7v160006IPmS1_NS_18__unwrap_iter_implIS1_Lb1EEEEET_S4_T0_, symObjAddr: 0x23E60, symBinAddr: 0x24D10, symSize: 0x40 }
  - { offsetInCU: 0x4B8D9, offset: 0x4B8D9, size: 0x8, addend: 0x0, symName: __ZNSt3__119__copy_trivial_implB7v160006ImmEENS_4pairIPT_PT0_EES3_S3_S5_, symObjAddr: 0x23F50, symBinAddr: 0x24E00, symSize: 0x70 }
  - { offsetInCU: 0x4B941, offset: 0x4B941, size: 0x8, addend: 0x0, symName: __ZNSt3__19make_pairB7v160006IRPmS1_EENS_4pairINS_18__unwrap_ref_decayIT_E4typeENS4_IT0_E4typeEEEOS5_OS8_, symObjAddr: 0x23FC0, symBinAddr: 0x24E70, symSize: 0x30 }
  - { offsetInCU: 0x4B9E4, offset: 0x4B9E4, size: 0x8, addend: 0x0, symName: __ZNSt3__118__debug_db_erase_cB7v160006INS_6vectorIN8pybind116handleENS_9allocatorIS3_EEEEEEvPT_, symObjAddr: 0x24270, symBinAddr: 0x25120, symSize: 0x10 }
  - { offsetInCU: 0x4BA3C, offset: 0x4BA3C, size: 0x8, addend: 0x0, symName: __ZNSt3__112construct_atB7v160006IN8pybind116handleEJP7_objectEPS2_EEPT_S7_DpOT0_, symObjAddr: 0x24580, symBinAddr: 0x25430, symSize: 0x40 }
  - { offsetInCU: 0x4BAAE, offset: 0x4BAAE, size: 0x8, addend: 0x0, symName: __ZNSt3__112construct_atB7v160006IN8pybind116handleEJRKS2_EPS2_EEPT_S7_DpOT0_, symObjAddr: 0x24970, symBinAddr: 0x25820, symSize: 0x30 }
  - { offsetInCU: 0x4BB20, offset: 0x4BB20, size: 0x8, addend: 0x0, symName: __ZNSt3__112construct_atB7v160006IN8pybind116handleEJS2_EPS2_EEPT_S5_DpOT0_, symObjAddr: 0x24BF0, symBinAddr: 0x25AA0, symSize: 0x30 }
  - { offsetInCU: 0x4BB92, offset: 0x4BB92, size: 0x8, addend: 0x0, symName: __ZNSt3__14copyB7v160006INS_6vectorIbNS_9allocatorIbEEEELb1EEENS_14__bit_iteratorIT_Lb0EXLi0EEEENS5_IS6_XT0_EXLi0EEEES8_S7_, symObjAddr: 0x25220, symBinAddr: 0x260D0, symSize: 0x100 }
  - { offsetInCU: 0x4BBF2, offset: 0x4BBF2, size: 0x8, addend: 0x0, symName: __ZNSt3__16fill_nB7v160006INS_6vectorIbNS_9allocatorIbEEEEEEvNS_14__bit_iteratorIT_Lb0EXLi0EEEENS6_9size_typeEb, symObjAddr: 0x25380, symBinAddr: 0x26230, symSize: 0x80 }
  - { offsetInCU: 0x4BC44, offset: 0x4BC44, size: 0x8, addend: 0x0, symName: __ZNSt3__1miB7v160006ERKNS_14__bit_iteratorINS_6vectorIbNS_9allocatorIbEEEELb1ELm0EEES7_, symObjAddr: 0x25B50, symBinAddr: 0x26A00, symSize: 0x40 }
  - { offsetInCU: 0x4BC81, offset: 0x4BC81, size: 0x8, addend: 0x0, symName: __ZNSt3__112__to_addressB7v160006IKmEEPT_S3_, symObjAddr: 0x25BD0, symBinAddr: 0x26A80, symSize: 0x10 }
  - { offsetInCU: 0x4BCB6, offset: 0x4BCB6, size: 0x8, addend: 0x0, symName: __ZNSt3__14copyB7v160006IPKmPmEET0_T_S5_S4_, symObjAddr: 0x25BE0, symBinAddr: 0x26A90, symSize: 0x40 }
  - { offsetInCU: 0x4BD10, offset: 0x4BD10, size: 0x8, addend: 0x0, symName: __ZNSt3__16__copyB7v160006INS_17_ClassicAlgPolicyEPKmS3_PmEENS_4pairIT0_T2_EES6_T1_S7_, symObjAddr: 0x25C20, symBinAddr: 0x26AD0, symSize: 0x40 }
  - { offsetInCU: 0x4BD7C, offset: 0x4BD7C, size: 0x8, addend: 0x0, symName: __ZNSt3__123__dispatch_copy_or_moveB7v160006INS_17_ClassicAlgPolicyENS_11__copy_loopIS1_EENS_14__copy_trivialEPKmS6_PmEENS_4pairIT2_T4_EES9_T3_SA_, symObjAddr: 0x25C60, symBinAddr: 0x26B10, symSize: 0x40 }
  - { offsetInCU: 0x4BDFA, offset: 0x4BDFA, size: 0x8, addend: 0x0, symName: __ZNSt3__121__unwrap_and_dispatchB7v160006INS_10__overloadINS_11__copy_loopINS_17_ClassicAlgPolicyEEENS_14__copy_trivialEEEPKmS8_PmLi0EEENS_4pairIT0_T2_EESB_T1_SC_, symObjAddr: 0x25CA0, symBinAddr: 0x26B50, symSize: 0xB0 }
  - { offsetInCU: 0x4BE89, offset: 0x4BE89, size: 0x8, addend: 0x0, symName: __ZNSt3__114__unwrap_rangeB7v160006IPKmS2_EEDaT_T0_, symObjAddr: 0x25D50, symBinAddr: 0x26C00, symSize: 0x40 }
  - { offsetInCU: 0x4BFD8, offset: 0x4BFD8, size: 0x8, addend: 0x0, symName: __ZNSt3__19make_pairB7v160006IPKmPmEENS_4pairINS_18__unwrap_ref_decayIT_E4typeENS5_IT0_E4typeEEEOS6_OS9_, symObjAddr: 0x25DD0, symBinAddr: 0x26C80, symSize: 0x30 }
  - { offsetInCU: 0x4C027, offset: 0x4C027, size: 0x8, addend: 0x0, symName: __ZNSt3__114__rewrap_rangeB7v160006IPKmS2_S2_EET0_S3_T1_, symObjAddr: 0x25E00, symBinAddr: 0x26CB0, symSize: 0x30 }
  - { offsetInCU: 0x4C198, offset: 0x4C198, size: 0x8, addend: 0x0, symName: __ZNSt3__113__unwrap_iterB7v160006IPKmNS_18__unwrap_iter_implIS2_Lb1EEELi0EEEDTclsrT0_8__unwrapclsr3stdE7declvalIT_EEEES6_, symObjAddr: 0x25E80, symBinAddr: 0x26D30, symSize: 0x20 }
  - { offsetInCU: 0x4C230, offset: 0x4C230, size: 0x8, addend: 0x0, symName: __ZNSt3__119__copy_trivial_implB7v160006IKmmEENS_4pairIPT_PT0_EES4_S4_S6_, symObjAddr: 0x25F20, symBinAddr: 0x26DD0, symSize: 0x70 }
  - { offsetInCU: 0x4C298, offset: 0x4C298, size: 0x8, addend: 0x0, symName: __ZNSt3__19make_pairB7v160006IRPKmPmEENS_4pairINS_18__unwrap_ref_decayIT_E4typeENS6_IT0_E4typeEEEOS7_OSA_, symObjAddr: 0x25F90, symBinAddr: 0x26E40, symSize: 0x30 }
  - { offsetInCU: 0x4C2E7, offset: 0x4C2E7, size: 0x8, addend: 0x0, symName: __ZNSt3__113__rewrap_iterB7v160006IPKmS2_NS_18__unwrap_iter_implIS2_Lb1EEEEET_S5_T0_, symObjAddr: 0x260B0, symBinAddr: 0x26F60, symSize: 0x40 }
  - { offsetInCU: 0x4C33C, offset: 0x4C33C, size: 0x8, addend: 0x0, symName: __ZNSt3__16fill_nB7v160006IPmmmEET_S2_T0_RKT1_, symObjAddr: 0x26470, symBinAddr: 0x27320, symSize: 0x40 }
  - { offsetInCU: 0x4C39F, offset: 0x4C39F, size: 0x8, addend: 0x0, symName: __ZNSt3__18__fill_nB7v160006IPmmmEET_S2_T0_RKT1_, symObjAddr: 0x264B0, symBinAddr: 0x27360, symSize: 0x50 }
  - { offsetInCU: 0x4C402, offset: 0x4C402, size: 0x8, addend: 0x0, symName: __ZNSt3__16fill_nB7v160006IPmmiEET_S2_T0_RKT1_, symObjAddr: 0x26500, symBinAddr: 0x273B0, symSize: 0x40 }
  - { offsetInCU: 0x4C465, offset: 0x4C465, size: 0x8, addend: 0x0, symName: __ZNSt3__18__fill_nB7v160006IPmmiEET_S2_T0_RKT1_, symObjAddr: 0x26540, symBinAddr: 0x273F0, symSize: 0x50 }
  - { offsetInCU: 0x4C4C8, offset: 0x4C4C8, size: 0x8, addend: 0x0, symName: __ZNSt3__14swapB7v160006IPmEENS_9enable_ifIXaasr21is_move_constructibleIT_EE5valuesr18is_move_assignableIS3_EE5valueEvE4typeERS3_S6_, symObjAddr: 0x26590, symBinAddr: 0x27440, symSize: 0x40 }
  - { offsetInCU: 0x4C519, offset: 0x4C519, size: 0x8, addend: 0x0, symName: __ZNSt3__116__swap_allocatorB7v160006INS_9allocatorImEEEEvRT_S4_NS_17integral_constantIbLb0EEE, symObjAddr: 0x265D0, symBinAddr: 0x27480, symSize: 0x10 }
  - { offsetInCU: 0x4C55D, offset: 0x4C55D, size: 0x8, addend: 0x0, symName: __ZNSt3__119__debug_db_insert_cB7v160006INS_13unordered_setIP7_objectNS_4hashIS3_EENS_8equal_toIS3_EENS_9allocatorIS3_EEEEEEvPT_, symObjAddr: 0x26740, symBinAddr: 0x275F0, symSize: 0x10 }
  - { offsetInCU: 0x4C58E, offset: 0x4C58E, size: 0x8, addend: 0x0, symName: __ZNSt3__118__debug_db_erase_cB7v160006INS_12__hash_tableIP7_objectNS_4hashIS3_EENS_8equal_toIS3_EENS_9allocatorIS3_EEEEEEvPT_, symObjAddr: 0x26D40, symBinAddr: 0x27BF0, symSize: 0x10 }
  - { offsetInCU: 0x4C5F2, offset: 0x4C5F2, size: 0x8, addend: 0x0, symName: __ZNSt3__110destroy_atB7v160006IP7_objectLi0EEEvPT_, symObjAddr: 0x26E50, symBinAddr: 0x27D00, symSize: 0x20 }
  - { offsetInCU: 0x4C629, offset: 0x4C629, size: 0x8, addend: 0x0, symName: __ZNSt3__112__destroy_atB7v160006IP7_objectLi0EEEvPT_, symObjAddr: 0x26E70, symBinAddr: 0x27D20, symSize: 0x10 }
  - { offsetInCU: 0x4C660, offset: 0x4C660, size: 0x8, addend: 0x0, symName: __ZNSt3__1neB7v160006ERKNS_21__hash_const_iteratorIPNS_11__hash_nodeIP7_objectPvEEEES9_, symObjAddr: 0x27270, symBinAddr: 0x28120, symSize: 0x30 }
  - { offsetInCU: 0x4C69D, offset: 0x4C69D, size: 0x8, addend: 0x0, symName: __ZNSt3__1eqB7v160006ERKNS_21__hash_const_iteratorIPNS_11__hash_nodeIP7_objectPvEEEES9_, symObjAddr: 0x27400, symBinAddr: 0x282B0, symSize: 0x30 }
  - { offsetInCU: 0x4C6DA, offset: 0x4C6DA, size: 0x8, addend: 0x0, symName: __ZNSt3__112__to_addressB7v160006IN8pybind116detail13function_callEEEPT_S5_, symObjAddr: 0x27660, symBinAddr: 0x28510, symSize: 0x10 }
  - { offsetInCU: 0x4C736, offset: 0x4C736, size: 0x8, addend: 0x0, symName: __ZNSt3__112construct_atB7v160006IN8pybind116detail13function_callEJS3_EPS3_EEPT_S6_DpOT0_, symObjAddr: 0x276D0, symBinAddr: 0x28580, symSize: 0x40 }
  - { offsetInCU: 0x4C7A8, offset: 0x4C7A8, size: 0x8, addend: 0x0, symName: __ZNSt3__115__debug_db_swapB7v160006INS_6vectorIN8pybind116handleENS_9allocatorIS3_EEEEEEvPT_S8_, symObjAddr: 0x27940, symBinAddr: 0x287F0, symSize: 0x10 }
  - { offsetInCU: 0x4C7E7, offset: 0x4C7E7, size: 0x8, addend: 0x0, symName: __ZNSt3__119__allocate_at_leastB7v160006INS_9allocatorIN8pybind116detail13function_callEEEEENS_19__allocation_resultINS_16allocator_traitsIT_E7pointerEEERS8_m, symObjAddr: 0x27F40, symBinAddr: 0x28DF0, symSize: 0x40 }
  - { offsetInCU: 0x4C82A, offset: 0x4C82A, size: 0x8, addend: 0x0, symName: __ZNSt3__142__uninitialized_allocator_move_if_noexceptB7v160006INS_9allocatorIN8pybind116detail13function_callEEENS_16reverse_iteratorIPS4_EES8_S8_EET2_RT_T0_T1_S9_, symObjAddr: 0x28180, symBinAddr: 0x29030, symSize: 0x180 }
  - { offsetInCU: 0x4C8C9, offset: 0x4C8C9, size: 0x8, addend: 0x0, symName: __ZNSt3__14swapB7v160006IPN8pybind116detail13function_callEEENS_9enable_ifIXaasr21is_move_constructibleIT_EE5valuesr18is_move_assignableIS6_EE5valueEvE4typeERS6_S9_, symObjAddr: 0x28350, symBinAddr: 0x29200, symSize: 0x40 }
  - { offsetInCU: 0x4C91A, offset: 0x4C91A, size: 0x8, addend: 0x0, symName: __ZNSt3__125__debug_db_invalidate_allB7v160006INS_6vectorIN8pybind116detail13function_callENS_9allocatorIS4_EEEEEEvPT_, symObjAddr: 0x28430, symBinAddr: 0x292E0, symSize: 0x10 }
  - { offsetInCU: 0x4C94B, offset: 0x4C94B, size: 0x8, addend: 0x0, symName: __ZNSt3__122__make_exception_guardB7v160006INS_29_AllocatorDestroyRangeReverseINS_9allocatorIN8pybind116detail13function_callEEENS_16reverse_iteratorIPS5_EEEEEENS_28__exception_guard_exceptionsIT_EESC_, symObjAddr: 0x28480, symBinAddr: 0x29330, symSize: 0x60 }
  - { offsetInCU: 0x4C980, offset: 0x4C980, size: 0x8, addend: 0x0, symName: __ZNSt3__1neB7v160006IPN8pybind116detail13function_callES4_EEbRKNS_16reverse_iteratorIT_EERKNS5_IT0_EE, symObjAddr: 0x28520, symBinAddr: 0x293D0, symSize: 0x40 }
  - { offsetInCU: 0x4C9CC, offset: 0x4C9CC, size: 0x8, addend: 0x0, symName: __ZNSt3__112__to_addressB7v160006INS_16reverse_iteratorIPN8pybind116detail13function_callEEEvEENS_5decayIDTclsr19__to_address_helperIT_EE6__callclsr3stdE7declvalIRKS8_EEEEE4typeESA_, symObjAddr: 0x28560, symBinAddr: 0x29410, symSize: 0x20 }
  - { offsetInCU: 0x4CA2C, offset: 0x4CA2C, size: 0x8, addend: 0x0, symName: __ZNSt3__14prevB7v160006IPN8pybind116detail13function_callEEENS_9enable_ifIXsr25__is_cpp17_input_iteratorIT_EE5valueES6_E4typeES6_NS_15iterator_traitsIS6_E15difference_typeE, symObjAddr: 0x28730, symBinAddr: 0x295E0, symSize: 0x50 }
  - { offsetInCU: 0x4CA6F, offset: 0x4CA6F, size: 0x8, addend: 0x0, symName: __ZNSt3__121__convert_to_integralB7v160006El, symObjAddr: 0x287D0, symBinAddr: 0x29680, symSize: 0x10 }
  - { offsetInCU: 0x4CA9B, offset: 0x4CA9B, size: 0x8, addend: 0x0, symName: __ZNSt3__19__advanceB7v160006IPN8pybind116detail13function_callEEEvRT_NS_15iterator_traitsIS5_E15difference_typeENS_26random_access_iterator_tagE, symObjAddr: 0x287E0, symBinAddr: 0x29690, symSize: 0x20 }
  - { offsetInCU: 0x4CAE5, offset: 0x4CAE5, size: 0x8, addend: 0x0, symName: __ZNSt3__119__allocator_destroyB7v160006INS_9allocatorIN8pybind116detail13function_callEEENS_16reverse_iteratorINS6_IPS4_EEEES9_EEvRT_T0_T1_, symObjAddr: 0x28930, symBinAddr: 0x297E0, symSize: 0x70 }
  - { offsetInCU: 0x4CB48, offset: 0x4CB48, size: 0x8, addend: 0x0, symName: __ZNSt3__1neB7v160006INS_16reverse_iteratorIPN8pybind116detail13function_callEEES6_EEbRKNS1_IT_EERKNS1_IT0_EE, symObjAddr: 0x289D0, symBinAddr: 0x29880, symSize: 0x50 }
  - { offsetInCU: 0x4CB94, offset: 0x4CB94, size: 0x8, addend: 0x0, symName: __ZNSt3__112__to_addressB7v160006INS_16reverse_iteratorINS1_IPN8pybind116detail13function_callEEEEEvEENS_5decayIDTclsr19__to_address_helperIT_EE6__callclsr3stdE7declvalIRKS9_EEEEE4typeESB_, symObjAddr: 0x28A40, symBinAddr: 0x298F0, symSize: 0x20 }
  - { offsetInCU: 0x4CBCA, offset: 0x4CBCA, size: 0x8, addend: 0x0, symName: __ZNSt3__110destroy_atB7v160006IN8pybind116detail13function_callELi0EEEvPT_, symObjAddr: 0x28AB0, symBinAddr: 0x29960, symSize: 0x20 }
  - { offsetInCU: 0x4CC01, offset: 0x4CC01, size: 0x8, addend: 0x0, symName: __ZNSt3__112__destroy_atB7v160006IN8pybind116detail13function_callELi0EEEvPT_, symObjAddr: 0x28AD0, symBinAddr: 0x29980, symSize: 0x20 }
  - { offsetInCU: 0x4CC62, offset: 0x4CC62, size: 0x8, addend: 0x0, symName: __ZNSt3__14prevB7v160006INS_16reverse_iteratorIPN8pybind116detail13function_callEEEEENS_9enable_ifIXsr25__is_cpp17_input_iteratorIT_EE5valueES8_E4typeES8_NS_15iterator_traitsIS8_E15difference_typeE, symObjAddr: 0x28B80, symBinAddr: 0x29A30, symSize: 0x60 }
  - { offsetInCU: 0x4CCA5, offset: 0x4CCA5, size: 0x8, addend: 0x0, symName: __ZNSt3__19__advanceB7v160006INS_16reverse_iteratorIPN8pybind116detail13function_callEEEEEvRT_NS_15iterator_traitsIS7_E15difference_typeENS_26random_access_iterator_tagE, symObjAddr: 0x28C30, symBinAddr: 0x29AE0, symSize: 0x30 }
  - { offsetInCU: 0x4CCEF, offset: 0x4CCEF, size: 0x8, addend: 0x0, symName: __ZNSt3__125__debug_db_invalidate_allB7v160006INS_6vectorIbNS_9allocatorIbEEE16__destroy_vectorEEEvPT_, symObjAddr: 0x29080, symBinAddr: 0x29F30, symSize: 0x10 }
  - { offsetInCU: 0x4CD20, offset: 0x4CD20, size: 0x8, addend: 0x0, symName: __ZNSt3__1eqB7v160006IPN8pybind116detail13function_callEEEbRKNS_11__wrap_iterIT_EES9_, symObjAddr: 0x291A0, symBinAddr: 0x2A050, symSize: 0x40 }
  - { offsetInCU: 0x4CD63, offset: 0x4CD63, size: 0x8, addend: 0x0, symName: __ZNSt3__118__debug_db_erase_cB7v160006INS_6vectorIN8pybind116detail13function_callENS_9allocatorIS4_EEEEEEvPT_, symObjAddr: 0x29320, symBinAddr: 0x2A1D0, symSize: 0x10 }
  - { offsetInCU: 0x4CD94, offset: 0x4CD94, size: 0x8, addend: 0x0, symName: __ZNSt3__1neB7v160006ERKNS_23__forward_list_iteratorIPNS_19__forward_list_nodeIPFvSt13exception_ptrEPvEEEESA_, symObjAddr: 0x29430, symBinAddr: 0x2A2E0, symSize: 0x30 }
  - { offsetInCU: 0x4CDD1, offset: 0x4CDD1, size: 0x8, addend: 0x0, symName: __ZNSt3__1eqB7v160006ERKNS_23__forward_list_iteratorIPNS_19__forward_list_nodeIPFvSt13exception_ptrEPvEEEESA_, symObjAddr: 0x29590, symBinAddr: 0x2A440, symSize: 0x30 }
  - { offsetInCU: 0x4CE0E, offset: 0x4CE0E, size: 0x8, addend: 0x0, symName: __ZNSt3__111__str_rfindB7v160006IcmNS_11char_traitsIcEELm18446744073709551615EEET0_PKT_S3_S6_S3_S3_, symObjAddr: 0x295E0, symBinAddr: 0x2A490, symSize: 0x100 }
  - { offsetInCU: 0x4CEB5, offset: 0x4CEB5, size: 0x8, addend: 0x0, symName: __ZNSt3__118__find_end_classicB7v160006IPKcS2_DoFbccEEET_S4_S4_T0_S5_RT1_, symObjAddr: 0x296E0, symBinAddr: 0x2A590, symSize: 0x60 }
  - { offsetInCU: 0x4CF42, offset: 0x4CF42, size: 0x8, addend: 0x0, symName: __ZNSt3__115__find_end_implB7v160006INS_17_ClassicAlgPolicyEPKcS3_S3_S3_DoFbccENS_10__identityES5_EENS_4pairIT0_S7_EES7_T1_T2_T3_RT4_RT5_RT6_NS_20forward_iterator_tagESI_, symObjAddr: 0x29770, symBinAddr: 0x2A620, symSize: 0x1E0 }
  - { offsetInCU: 0x4D06C, offset: 0x4D06C, size: 0x8, addend: 0x0, symName: __ZNSt3__18__invokeB7v160006IRDoFbccEJRKcS4_EEEDTclclsr3stdE7declvalIT_EEspclsr3stdE7declvalIT0_EEEEOS5_DpOS6_, symObjAddr: 0x299A0, symBinAddr: 0x2A850, symSize: 0x40 }
  - { offsetInCU: 0x4D0D1, offset: 0x4D0D1, size: 0x8, addend: 0x0, symName: __ZNSt3__18__invokeB7v160006IRNS_10__identityEJRKcEEEDTclclsr3stdE7declvalIT_EEspclsr3stdE7declvalIT0_EEEEOS5_DpOS6_, symObjAddr: 0x299E0, symBinAddr: 0x2A890, symSize: 0x30 }
  - { offsetInCU: 0x4D427, offset: 0x4D427, size: 0x8, addend: 0x0, symName: __ZNSt3__118__debug_db_erase_cB7v160006INS_6vectorIN8pybind116detail15argument_recordENS_9allocatorIS4_EEEEEEvPT_, symObjAddr: 0x2AF60, symBinAddr: 0x2BE10, symSize: 0x10 }
  - { offsetInCU: 0x4D458, offset: 0x4D458, size: 0x8, addend: 0x0, symName: __ZNSt3__1neB7v160006IPPcEEbRKNS_11__wrap_iterIT_EES7_, symObjAddr: 0x2B690, symBinAddr: 0x2C540, symSize: 0x30 }
  - { offsetInCU: 0x4D49B, offset: 0x4D49B, size: 0x8, addend: 0x0, symName: __ZNSt3__1eqB7v160006IPPcEEbRKNS_11__wrap_iterIT_EES7_, symObjAddr: 0x2B7A0, symBinAddr: 0x2C650, symSize: 0x40 }
  - { offsetInCU: 0x4D4DE, offset: 0x4D4DE, size: 0x8, addend: 0x0, symName: __ZNSt3__118__debug_db_erase_cB7v160006INS_6vectorIPcNS_9allocatorIS2_EEEEEEvPT_, symObjAddr: 0x2B920, symBinAddr: 0x2C7D0, symSize: 0x10 }
  - { offsetInCU: 0x4D50F, offset: 0x4D50F, size: 0x8, addend: 0x0, symName: __ZNSt3__1neB7v160006ERKNS_25__hash_map_const_iteratorINS_21__hash_const_iteratorIPNS_11__hash_nodeINS_17__hash_value_typeIP11_typeobjectNS_6vectorIPN8pybind116detail9type_infoENS_9allocatorISA_EEEEEEPvEEEEEESL_, symObjAddr: 0x2BDA0, symBinAddr: 0x2CC50, symSize: 0x30 }
  - { offsetInCU: 0x4D54C, offset: 0x4D54C, size: 0x8, addend: 0x0, symName: __ZNSt3__1neB7v160006IPKPN8pybind116detail9type_infoEEEbRKNS_11__wrap_iterIT_EESB_, symObjAddr: 0x2BE90, symBinAddr: 0x2CD40, symSize: 0x30 }
  - { offsetInCU: 0x4D58F, offset: 0x4D58F, size: 0x8, addend: 0x0, symName: __ZNSt3__1neB7v160006IPPN8pybind116detail9type_infoEEEbRKNS_11__wrap_iterIT_EESA_, symObjAddr: 0x2BF40, symBinAddr: 0x2CDF0, symSize: 0x30 }
  - { offsetInCU: 0x4D5D2, offset: 0x4D5D2, size: 0x8, addend: 0x0, symName: __ZNSt3__119__debug_db_insert_cB7v160006INS_6vectorIP11_typeobjectNS_9allocatorIS3_EEEEEEvPT_, symObjAddr: 0x2C180, symBinAddr: 0x2D030, symSize: 0x10 }
  - { offsetInCU: 0x4D603, offset: 0x4D603, size: 0x8, addend: 0x0, symName: __ZNSt3__112__to_addressB7v160006IP11_typeobjectEEPT_S4_, symObjAddr: 0x2C600, symBinAddr: 0x2D4B0, symSize: 0x10 }
  - { offsetInCU: 0x4D65F, offset: 0x4D65F, size: 0x8, addend: 0x0, symName: __ZNSt3__112construct_atB7v160006IP11_typeobjectJS2_EPS2_EEPT_S5_DpOT0_, symObjAddr: 0x2C670, symBinAddr: 0x2D520, symSize: 0x30 }
  - { offsetInCU: 0x4D6D1, offset: 0x4D6D1, size: 0x8, addend: 0x0, symName: __ZNSt3__119__allocate_at_leastB7v160006INS_9allocatorIP11_typeobjectEEEENS_19__allocation_resultINS_16allocator_traitsIT_E7pointerEEERS7_m, symObjAddr: 0x2CB90, symBinAddr: 0x2DA40, symSize: 0x40 }
  - { offsetInCU: 0x4D714, offset: 0x4D714, size: 0x8, addend: 0x0, symName: __ZNSt3__142__uninitialized_allocator_move_if_noexceptB7v160006INS_9allocatorIP11_typeobjectEENS_16reverse_iteratorIPS3_EES7_S3_vEET1_RT_T0_SB_S8_, symObjAddr: 0x2CDD0, symBinAddr: 0x2DC80, symSize: 0x70 }
  - { offsetInCU: 0x4D791, offset: 0x4D791, size: 0x8, addend: 0x0, symName: __ZNSt3__14swapB7v160006IPP11_typeobjectEENS_9enable_ifIXaasr21is_move_constructibleIT_EE5valuesr18is_move_assignableIS5_EE5valueEvE4typeERS5_S8_, symObjAddr: 0x2CE90, symBinAddr: 0x2DD40, symSize: 0x40 }
  - { offsetInCU: 0x4D7E2, offset: 0x4D7E2, size: 0x8, addend: 0x0, symName: __ZNSt3__125__debug_db_invalidate_allB7v160006INS_6vectorIP11_typeobjectNS_9allocatorIS3_EEEEEEvPT_, symObjAddr: 0x2CF80, symBinAddr: 0x2DE30, symSize: 0x10 }
  - { offsetInCU: 0x4D813, offset: 0x4D813, size: 0x8, addend: 0x0, symName: __ZNSt3__14moveB7v160006INS_16reverse_iteratorIPP11_typeobjectEES5_EET0_T_S7_S6_, symObjAddr: 0x2CFD0, symBinAddr: 0x2DE80, symSize: 0x80 }
  - { offsetInCU: 0x4D86D, offset: 0x4D86D, size: 0x8, addend: 0x0, symName: __ZNSt3__16__moveB7v160006INS_17_ClassicAlgPolicyENS_16reverse_iteratorIPP11_typeobjectEES6_S6_EENS_4pairIT0_T2_EES8_T1_S9_, symObjAddr: 0x2D050, symBinAddr: 0x2DF00, symSize: 0x90 }
  - { offsetInCU: 0x4D8D9, offset: 0x4D8D9, size: 0x8, addend: 0x0, symName: __ZNSt3__123__dispatch_copy_or_moveB7v160006INS_17_ClassicAlgPolicyENS_11__move_loopIS1_EENS_14__move_trivialENS_16reverse_iteratorIPP11_typeobjectEES9_S9_EENS_4pairIT2_T4_EESB_T3_SC_, symObjAddr: 0x2D0E0, symBinAddr: 0x2DF90, symSize: 0x90 }
  - { offsetInCU: 0x4D957, offset: 0x4D957, size: 0x8, addend: 0x0, symName: __ZNSt3__121__unwrap_and_dispatchB7v160006INS_10__overloadINS_11__move_loopINS_17_ClassicAlgPolicyEEENS_14__move_trivialEEENS_16reverse_iteratorIPP11_typeobjectEESB_SB_Li0EEENS_4pairIT0_T2_EESD_T1_SE_, symObjAddr: 0x2D170, symBinAddr: 0x2E020, symSize: 0x210 }
  - { offsetInCU: 0x4D9E6, offset: 0x4D9E6, size: 0x8, addend: 0x0, symName: __ZNSt3__114__unwrap_rangeB7v160006INS_16reverse_iteratorIPP11_typeobjectEES5_EEDaT_T0_, symObjAddr: 0x2D380, symBinAddr: 0x2E230, symSize: 0x60 }
  - { offsetInCU: 0x4DB06, offset: 0x4DB06, size: 0x8, addend: 0x0, symName: __ZNSt3__113__unwrap_iterB7v160006INS_16reverse_iteratorIPP11_typeobjectEENS_18__unwrap_iter_implIS5_Lb0EEELi0EEEDTclsrT0_8__unwrapclsr3stdE7declvalIT_EEEES9_, symObjAddr: 0x2D480, symBinAddr: 0x2E330, symSize: 0x40 }
  - { offsetInCU: 0x4DB4A, offset: 0x4DB4A, size: 0x8, addend: 0x0, symName: __ZNSt3__19make_pairB7v160006INS_16reverse_iteratorIPP11_typeobjectEES5_EENS_4pairINS_18__unwrap_ref_decayIT_E4typeENS7_IT0_E4typeEEEOS8_OSB_, symObjAddr: 0x2D4C0, symBinAddr: 0x2E370, symSize: 0x30 }
  - { offsetInCU: 0x4DB99, offset: 0x4DB99, size: 0x8, addend: 0x0, symName: __ZNSt3__114__rewrap_rangeB7v160006INS_16reverse_iteratorIPP11_typeobjectEES5_S5_EET0_S6_T1_, symObjAddr: 0x2D4F0, symBinAddr: 0x2E3A0, symSize: 0x60 }
  - { offsetInCU: 0x4DBEE, offset: 0x4DBEE, size: 0x8, addend: 0x0, symName: __ZNSt3__113__rewrap_iterB7v160006INS_16reverse_iteratorIPP11_typeobjectEES5_NS_18__unwrap_iter_implIS5_Lb0EEEEET_S8_T0_, symObjAddr: 0x2D550, symBinAddr: 0x2E400, symSize: 0x70 }
  - { offsetInCU: 0x4DC93, offset: 0x4DC93, size: 0x8, addend: 0x0, symName: __ZNSt3__1neB7v160006IPP11_typeobjectS3_EEbRKNS_16reverse_iteratorIT_EERKNS4_IT0_EE, symObjAddr: 0x2D6C0, symBinAddr: 0x2E570, symSize: 0x40 }
  - { offsetInCU: 0x4DD4C, offset: 0x4DD4C, size: 0x8, addend: 0x0, symName: __ZNSt3__110destroy_atB7v160006IP11_typeobjectLi0EEEvPT_, symObjAddr: 0x2DA20, symBinAddr: 0x2E8D0, symSize: 0x20 }
  - { offsetInCU: 0x4DD83, offset: 0x4DD83, size: 0x8, addend: 0x0, symName: __ZNSt3__112__destroy_atB7v160006IP11_typeobjectLi0EEEvPT_, symObjAddr: 0x2DA40, symBinAddr: 0x2E8F0, symSize: 0x10 }
  - { offsetInCU: 0x4DDBA, offset: 0x4DDBA, size: 0x8, addend: 0x0, symName: __ZNSt3__1neB7v160006ERKNS_21__hash_const_iteratorIPNS_11__hash_nodeINS_17__hash_value_typeIP11_typeobjectNS_6vectorIPN8pybind116detail9type_infoENS_9allocatorIS9_EEEEEEPvEEEESJ_, symObjAddr: 0x2DDF0, symBinAddr: 0x2ECA0, symSize: 0x30 }
  - { offsetInCU: 0x4DDF7, offset: 0x4DDF7, size: 0x8, addend: 0x0, symName: __ZNSt3__1eqB7v160006ERKNS_21__hash_const_iteratorIPNS_11__hash_nodeINS_17__hash_value_typeIP11_typeobjectNS_6vectorIPN8pybind116detail9type_infoENS_9allocatorIS9_EEEEEEPvEEEESJ_, symObjAddr: 0x2DE20, symBinAddr: 0x2ECD0, symSize: 0x30 }
  - { offsetInCU: 0x4DE9A, offset: 0x4DE9A, size: 0x8, addend: 0x0, symName: __ZNSt3__1eqB7v160006IPKPN8pybind116detail9type_infoEEEbRKNS_11__wrap_iterIT_EESB_, symObjAddr: 0x2DF20, symBinAddr: 0x2EDD0, symSize: 0x40 }
  - { offsetInCU: 0x4DEDD, offset: 0x4DEDD, size: 0x8, addend: 0x0, symName: __ZNSt3__1eqB7v160006IPPN8pybind116detail9type_infoEEEbRKNS_11__wrap_iterIT_EESA_, symObjAddr: 0x2E000, symBinAddr: 0x2EEB0, symSize: 0x40 }
  - { offsetInCU: 0x4DF20, offset: 0x4DF20, size: 0x8, addend: 0x0, symName: __ZNSt3__1miB7v160006IPKPN8pybind116detail9type_infoEPS4_EEDTmicldtfp_4baseEcldtfp0_4baseEERKNS_11__wrap_iterIT_EERKNS9_IT0_EE, symObjAddr: 0x2E320, symBinAddr: 0x2F1D0, symSize: 0x40 }
  - { offsetInCU: 0x4DFC6, offset: 0x4DFC6, size: 0x8, addend: 0x0, symName: __ZNSt3__112construct_atB7v160006IPN8pybind116detail9type_infoEJRKS4_EPS4_EEPT_S9_DpOT0_, symObjAddr: 0x2EB40, symBinAddr: 0x2F9F0, symSize: 0x30 }
  - { offsetInCU: 0x4E038, offset: 0x4E038, size: 0x8, addend: 0x0, symName: __ZNSt3__113move_backwardB7v160006IPPN8pybind116detail9type_infoES5_EET0_T_S7_S6_, symObjAddr: 0x2EBC0, symBinAddr: 0x2FA70, symSize: 0x40 }
  - { offsetInCU: 0x4E092, offset: 0x4E092, size: 0x8, addend: 0x0, symName: __ZNSt3__112construct_atB7v160006IPN8pybind116detail9type_infoEJS4_EPS4_EEPT_S7_DpOT0_, symObjAddr: 0x2EC00, symBinAddr: 0x2FAB0, symSize: 0x30 }
  - { offsetInCU: 0x4E104, offset: 0x4E104, size: 0x8, addend: 0x0, symName: __ZNSt3__115__move_backwardB7v160006INS_17_ClassicAlgPolicyEPPN8pybind116detail9type_infoES6_S6_EENS_4pairIT0_T2_EES8_T1_S9_, symObjAddr: 0x2EC30, symBinAddr: 0x2FAE0, symSize: 0x40 }
  - { offsetInCU: 0x4E170, offset: 0x4E170, size: 0x8, addend: 0x0, symName: __ZNSt3__123__dispatch_copy_or_moveB7v160006INS_17_ClassicAlgPolicyENS_20__move_backward_loopIS1_EENS_23__move_backward_trivialEPPN8pybind116detail9type_infoES9_S9_EENS_4pairIT2_T4_EESB_T3_SC_, symObjAddr: 0x2EC70, symBinAddr: 0x2FB20, symSize: 0x40 }
  - { offsetInCU: 0x4E1EE, offset: 0x4E1EE, size: 0x8, addend: 0x0, symName: __ZNSt3__121__unwrap_and_dispatchB7v160006INS_10__overloadINS_20__move_backward_loopINS_17_ClassicAlgPolicyEEENS_23__move_backward_trivialEEEPPN8pybind116detail9type_infoESB_SB_Li0EEENS_4pairIT0_T2_EESD_T1_SE_, symObjAddr: 0x2ECB0, symBinAddr: 0x2FB60, symSize: 0xB0 }
  - { offsetInCU: 0x4E27D, offset: 0x4E27D, size: 0x8, addend: 0x0, symName: __ZNSt3__114__unwrap_rangeB7v160006IPPN8pybind116detail9type_infoES5_EEDaT_T0_, symObjAddr: 0x2ED60, symBinAddr: 0x2FC10, symSize: 0x40 }
  - { offsetInCU: 0x4E441, offset: 0x4E441, size: 0x8, addend: 0x0, symName: __ZNSt3__113__unwrap_iterB7v160006IPPN8pybind116detail9type_infoENS_18__unwrap_iter_implIS5_Lb1EEELi0EEEDTclsrT0_8__unwrapclsr3stdE7declvalIT_EEEES9_, symObjAddr: 0x2EDE0, symBinAddr: 0x2FC90, symSize: 0x20 }
  - { offsetInCU: 0x4E485, offset: 0x4E485, size: 0x8, addend: 0x0, symName: __ZNSt3__19make_pairB7v160006IPPN8pybind116detail9type_infoES5_EENS_4pairINS_18__unwrap_ref_decayIT_E4typeENS7_IT0_E4typeEEEOS8_OSB_, symObjAddr: 0x2EE00, symBinAddr: 0x2FCB0, symSize: 0x30 }
  - { offsetInCU: 0x4E4D4, offset: 0x4E4D4, size: 0x8, addend: 0x0, symName: __ZNSt3__114__rewrap_rangeB7v160006IPPN8pybind116detail9type_infoES5_S5_EET0_S6_T1_, symObjAddr: 0x2EE30, symBinAddr: 0x2FCE0, symSize: 0x30 }
  - { offsetInCU: 0x4E529, offset: 0x4E529, size: 0x8, addend: 0x0, symName: __ZNSt3__113__rewrap_iterB7v160006IPPN8pybind116detail9type_infoES5_NS_18__unwrap_iter_implIS5_Lb1EEEEET_S8_T0_, symObjAddr: 0x2EE60, symBinAddr: 0x2FD10, symSize: 0x40 }
  - { offsetInCU: 0x4E5CE, offset: 0x4E5CE, size: 0x8, addend: 0x0, symName: __ZNSt3__128__copy_backward_trivial_implB7v160006IPN8pybind116detail9type_infoES4_EENS_4pairIPT_PT0_EES7_S7_S9_, symObjAddr: 0x2EF50, symBinAddr: 0x2FE00, symSize: 0x80 }
  - { offsetInCU: 0x4E636, offset: 0x4E636, size: 0x8, addend: 0x0, symName: __ZNSt3__19make_pairB7v160006IRPPN8pybind116detail9type_infoES6_EENS_4pairINS_18__unwrap_ref_decayIT_E4typeENS8_IT0_E4typeEEEOS9_OSC_, symObjAddr: 0x2EFD0, symBinAddr: 0x2FE80, symSize: 0x30 }
  - { offsetInCU: 0x4E6D9, offset: 0x4E6D9, size: 0x8, addend: 0x0, symName: __ZNSt3__119__allocate_at_leastB7v160006INS_9allocatorIPN8pybind116detail9type_infoEEEEENS_19__allocation_resultINS_16allocator_traitsIT_E7pointerEEERS9_m, symObjAddr: 0x2F2F0, symBinAddr: 0x301A0, symSize: 0x40 }
  - { offsetInCU: 0x4E71C, offset: 0x4E71C, size: 0x8, addend: 0x0, symName: __ZNSt3__14moveB7v160006IPPN8pybind116detail9type_infoES5_EET0_T_S7_S6_, symObjAddr: 0x2F480, symBinAddr: 0x30330, symSize: 0x40 }
  - { offsetInCU: 0x4E776, offset: 0x4E776, size: 0x8, addend: 0x0, symName: __ZNSt3__14swapB7v160006IPPN8pybind116detail9type_infoEEENS_9enable_ifIXaasr21is_move_constructibleIT_EE5valuesr18is_move_assignableIS7_EE5valueEvE4typeERS7_SA_, symObjAddr: 0x2F5F0, symBinAddr: 0x304A0, symSize: 0x40 }
  - { offsetInCU: 0x4E7C7, offset: 0x4E7C7, size: 0x8, addend: 0x0, symName: __ZNSt3__16__moveB7v160006INS_17_ClassicAlgPolicyEPPN8pybind116detail9type_infoES6_S6_EENS_4pairIT0_T2_EES8_T1_S9_, symObjAddr: 0x2F630, symBinAddr: 0x304E0, symSize: 0x40 }
  - { offsetInCU: 0x4E833, offset: 0x4E833, size: 0x8, addend: 0x0, symName: __ZNSt3__123__dispatch_copy_or_moveB7v160006INS_17_ClassicAlgPolicyENS_11__move_loopIS1_EENS_14__move_trivialEPPN8pybind116detail9type_infoES9_S9_EENS_4pairIT2_T4_EESB_T3_SC_, symObjAddr: 0x2F670, symBinAddr: 0x30520, symSize: 0x40 }
  - { offsetInCU: 0x4E8B1, offset: 0x4E8B1, size: 0x8, addend: 0x0, symName: __ZNSt3__121__unwrap_and_dispatchB7v160006INS_10__overloadINS_11__move_loopINS_17_ClassicAlgPolicyEEENS_14__move_trivialEEEPPN8pybind116detail9type_infoESB_SB_Li0EEENS_4pairIT0_T2_EESD_T1_SE_, symObjAddr: 0x2F6B0, symBinAddr: 0x30560, symSize: 0xB0 }
  - { offsetInCU: 0x4E986, offset: 0x4E986, size: 0x8, addend: 0x0, symName: __ZNSt3__119__copy_trivial_implB7v160006IPN8pybind116detail9type_infoES4_EENS_4pairIPT_PT0_EES7_S7_S9_, symObjAddr: 0x2F7A0, symBinAddr: 0x30650, symSize: 0x70 }
  - { offsetInCU: 0x4E9EE, offset: 0x4E9EE, size: 0x8, addend: 0x0, symName: __ZNSt3__19make_pairB7v160006IRPPN8pybind116detail9type_infoES5_EENS_4pairINS_18__unwrap_ref_decayIT_E4typeENS8_IT0_E4typeEEEOS9_OSC_, symObjAddr: 0x2F810, symBinAddr: 0x306C0, symSize: 0x30 }
  - { offsetInCU: 0x4EA3D, offset: 0x4EA3D, size: 0x8, addend: 0x0, symName: __ZNSt3__18distanceB7v160006INS_13move_iteratorIPPN8pybind116detail9type_infoEEEEENS_15iterator_traitsIT_E15difference_typeES9_S9_, symObjAddr: 0x2F8A0, symBinAddr: 0x30750, symSize: 0x40 }
  - { offsetInCU: 0x4EA80, offset: 0x4EA80, size: 0x8, addend: 0x0, symName: __ZNSt3__110__distanceB7v160006INS_13move_iteratorIPPN8pybind116detail9type_infoEEEEENS_15iterator_traitsIT_E15difference_typeES9_S9_NS_26random_access_iterator_tagE, symObjAddr: 0x2F980, symBinAddr: 0x30830, symSize: 0x30 }
  - { offsetInCU: 0x4EACE, offset: 0x4EACE, size: 0x8, addend: 0x0, symName: __ZNSt3__1miB7v160006IPPN8pybind116detail9type_infoES5_EEDTmicldtfp_4baseEcldtfp0_4baseEERKNS_13move_iteratorIT_EERKNS7_IT0_EE, symObjAddr: 0x2F9B0, symBinAddr: 0x30860, symSize: 0x40 }
  - { offsetInCU: 0x4EB1D, offset: 0x4EB1D, size: 0x8, addend: 0x0, symName: __ZNSt3__142__uninitialized_allocator_move_if_noexceptB7v160006INS_9allocatorIPN8pybind116detail9type_infoEEENS_16reverse_iteratorIPS5_EES9_S5_vEET1_RT_T0_SD_SA_, symObjAddr: 0x2FAA0, symBinAddr: 0x30950, symSize: 0x70 }
  - { offsetInCU: 0x4EB9A, offset: 0x4EB9A, size: 0x8, addend: 0x0, symName: __ZNSt3__142__uninitialized_allocator_move_if_noexceptB7v160006INS_9allocatorIPN8pybind116detail9type_infoEEEPS5_S7_S5_vEET1_RT_T0_SB_S8_, symObjAddr: 0x2FB60, symBinAddr: 0x30A10, symSize: 0x30 }
  - { offsetInCU: 0x4EC17, offset: 0x4EC17, size: 0x8, addend: 0x0, symName: __ZNSt3__125__debug_db_invalidate_allB7v160006INS_6vectorIPN8pybind116detail9type_infoENS_9allocatorIS5_EEEEEEvPT_, symObjAddr: 0x2FC40, symBinAddr: 0x30AF0, symSize: 0x10 }
  - { offsetInCU: 0x4EC48, offset: 0x4EC48, size: 0x8, addend: 0x0, symName: __ZNSt3__14moveB7v160006INS_16reverse_iteratorIPPN8pybind116detail9type_infoEEES7_EET0_T_S9_S8_, symObjAddr: 0x2FC50, symBinAddr: 0x30B00, symSize: 0x80 }
  - { offsetInCU: 0x4ECA2, offset: 0x4ECA2, size: 0x8, addend: 0x0, symName: __ZNSt3__16__moveB7v160006INS_17_ClassicAlgPolicyENS_16reverse_iteratorIPPN8pybind116detail9type_infoEEES8_S8_EENS_4pairIT0_T2_EESA_T1_SB_, symObjAddr: 0x2FCD0, symBinAddr: 0x30B80, symSize: 0x90 }
  - { offsetInCU: 0x4ED0E, offset: 0x4ED0E, size: 0x8, addend: 0x0, symName: __ZNSt3__123__dispatch_copy_or_moveB7v160006INS_17_ClassicAlgPolicyENS_11__move_loopIS1_EENS_14__move_trivialENS_16reverse_iteratorIPPN8pybind116detail9type_infoEEESB_SB_EENS_4pairIT2_T4_EESD_T3_SE_, symObjAddr: 0x2FD60, symBinAddr: 0x30C10, symSize: 0x90 }
  - { offsetInCU: 0x4ED8C, offset: 0x4ED8C, size: 0x8, addend: 0x0, symName: __ZNSt3__121__unwrap_and_dispatchB7v160006INS_10__overloadINS_11__move_loopINS_17_ClassicAlgPolicyEEENS_14__move_trivialEEENS_16reverse_iteratorIPPN8pybind116detail9type_infoEEESD_SD_Li0EEENS_4pairIT0_T2_EESF_T1_SG_, symObjAddr: 0x2FDF0, symBinAddr: 0x30CA0, symSize: 0x210 }
  - { offsetInCU: 0x4EE1B, offset: 0x4EE1B, size: 0x8, addend: 0x0, symName: __ZNSt3__114__unwrap_rangeB7v160006INS_16reverse_iteratorIPPN8pybind116detail9type_infoEEES7_EEDaT_T0_, symObjAddr: 0x30000, symBinAddr: 0x30EB0, symSize: 0x60 }
  - { offsetInCU: 0x4EF3B, offset: 0x4EF3B, size: 0x8, addend: 0x0, symName: __ZNSt3__113__unwrap_iterB7v160006INS_16reverse_iteratorIPPN8pybind116detail9type_infoEEENS_18__unwrap_iter_implIS7_Lb0EEELi0EEEDTclsrT0_8__unwrapclsr3stdE7declvalIT_EEEESB_, symObjAddr: 0x30100, symBinAddr: 0x30FB0, symSize: 0x40 }
  - { offsetInCU: 0x4EF7F, offset: 0x4EF7F, size: 0x8, addend: 0x0, symName: __ZNSt3__19make_pairB7v160006INS_16reverse_iteratorIPPN8pybind116detail9type_infoEEES7_EENS_4pairINS_18__unwrap_ref_decayIT_E4typeENS9_IT0_E4typeEEEOSA_OSD_, symObjAddr: 0x30140, symBinAddr: 0x30FF0, symSize: 0x30 }
  - { offsetInCU: 0x4EFCE, offset: 0x4EFCE, size: 0x8, addend: 0x0, symName: __ZNSt3__114__rewrap_rangeB7v160006INS_16reverse_iteratorIPPN8pybind116detail9type_infoEEES7_S7_EET0_S8_T1_, symObjAddr: 0x30170, symBinAddr: 0x31020, symSize: 0x60 }
  - { offsetInCU: 0x4F023, offset: 0x4F023, size: 0x8, addend: 0x0, symName: __ZNSt3__113__rewrap_iterB7v160006INS_16reverse_iteratorIPPN8pybind116detail9type_infoEEES7_NS_18__unwrap_iter_implIS7_Lb0EEEEET_SA_T0_, symObjAddr: 0x301D0, symBinAddr: 0x31080, symSize: 0x70 }
  - { offsetInCU: 0x4F0C8, offset: 0x4F0C8, size: 0x8, addend: 0x0, symName: __ZNSt3__1neB7v160006IPPN8pybind116detail9type_infoES5_EEbRKNS_16reverse_iteratorIT_EERKNS6_IT0_EE, symObjAddr: 0x30340, symBinAddr: 0x311F0, symSize: 0x40 }
  - { offsetInCU: 0x4F181, offset: 0x4F181, size: 0x8, addend: 0x0, symName: __ZNSt3__118__debug_db_erase_cB7v160006INS_6vectorIP11_typeobjectNS_9allocatorIS3_EEEEEEvPT_, symObjAddr: 0x30B80, symBinAddr: 0x31A30, symSize: 0x10 }
  - { offsetInCU: 0x4F218, offset: 0x4F218, size: 0x8, addend: 0x0, symName: __ZNSt3__1neB7v160006ERKNS_19__hash_map_iteratorINS_15__hash_iteratorIPNS_11__hash_nodeINS_17__hash_value_typeIP11_typeobjectNS_6vectorIPN8pybind116detail9type_infoENS_9allocatorISA_EEEEEEPvEEEEEESL_, symObjAddr: 0x30E50, symBinAddr: 0x31D00, symSize: 0x30 }
  - { offsetInCU: 0x4F255, offset: 0x4F255, size: 0x8, addend: 0x0, symName: __ZNSt3__1neB7v160006ERKNS_15__hash_iteratorIPNS_11__hash_nodeINS_17__hash_value_typeIP11_typeobjectNS_6vectorIPN8pybind116detail9type_infoENS_9allocatorIS9_EEEEEEPvEEEESJ_, symObjAddr: 0x30F50, symBinAddr: 0x31E00, symSize: 0x30 }
  - { offsetInCU: 0x4F292, offset: 0x4F292, size: 0x8, addend: 0x0, symName: __ZNSt3__1eqB7v160006ERKNS_15__hash_iteratorIPNS_11__hash_nodeINS_17__hash_value_typeINS_10type_indexENS_6vectorIPFbP7_objectRPvENS_9allocatorISA_EEEEEES7_EEEESJ_, symObjAddr: 0x31190, symBinAddr: 0x32040, symSize: 0x30 }
  - { offsetInCU: 0x4F2CF, offset: 0x4F2CF, size: 0x8, addend: 0x0, symName: __ZNSt3__17launderB7v160006IKNS_4pairIKNS_10type_indexENS_6vectorIPFbP7_objectRPvENS_9allocatorISA_EEEEEEEEPT_SH_, symObjAddr: 0x31550, symBinAddr: 0x32400, symSize: 0x20 }
  - { offsetInCU: 0x4F306, offset: 0x4F306, size: 0x8, addend: 0x0, symName: __ZNSt3__19__launderB7v160006IKNS_4pairIKNS_10type_indexENS_6vectorIPFbP7_objectRPvENS_9allocatorISA_EEEEEEEEPT_SH_, symObjAddr: 0x31570, symBinAddr: 0x32420, symSize: 0x10 }
  - { offsetInCU: 0x4F38E, offset: 0x4F38E, size: 0x8, addend: 0x0, symName: __ZNSt3__110destroy_atB7v160006INS_4pairIKNS_10type_indexENS_6vectorIPFbP7_objectRPvENS_9allocatorISA_EEEEEELi0EEEvPT_, symObjAddr: 0x31C50, symBinAddr: 0x32B00, symSize: 0x20 }
  - { offsetInCU: 0x4F3C5, offset: 0x4F3C5, size: 0x8, addend: 0x0, symName: __ZNSt3__112__destroy_atB7v160006INS_4pairIKNS_10type_indexENS_6vectorIPFbP7_objectRPvENS_9allocatorISA_EEEEEELi0EEEvPT_, symObjAddr: 0x31C70, symBinAddr: 0x32B20, symSize: 0x20 }
  - { offsetInCU: 0x4F3FC, offset: 0x4F3FC, size: 0x8, addend: 0x0, symName: __ZNSt3__118__debug_db_erase_cB7v160006INS_6vectorIPFbP7_objectRPvENS_9allocatorIS7_EEEEEEvPT_, symObjAddr: 0x31EC0, symBinAddr: 0x32D70, symSize: 0x10 }
  - { offsetInCU: 0x4F42D, offset: 0x4F42D, size: 0x8, addend: 0x0, symName: __ZNSt3__112__to_addressB7v160006IPFbP7_objectRPvEEEPT_S8_, symObjAddr: 0x31FD0, symBinAddr: 0x32E80, symSize: 0x10 }
  - { offsetInCU: 0x4F462, offset: 0x4F462, size: 0x8, addend: 0x0, symName: __ZNSt3__110destroy_atB7v160006IPFbP7_objectRPvELi0EEEvPT_, symObjAddr: 0x32080, symBinAddr: 0x32F30, symSize: 0x20 }
  - { offsetInCU: 0x4F499, offset: 0x4F499, size: 0x8, addend: 0x0, symName: __ZNSt3__112__destroy_atB7v160006IPFbP7_objectRPvELi0EEEvPT_, symObjAddr: 0x320A0, symBinAddr: 0x32F50, symSize: 0x10 }
  - { offsetInCU: 0x4F4D0, offset: 0x4F4D0, size: 0x8, addend: 0x0, symName: __ZNSt3__17launderB7v160006INS_4pairIKNS_10type_indexENS_6vectorIPFbP7_objectRPvENS_9allocatorISA_EEEEEEEEPT_SG_, symObjAddr: 0x32190, symBinAddr: 0x33040, symSize: 0x20 }
  - { offsetInCU: 0x4F507, offset: 0x4F507, size: 0x8, addend: 0x0, symName: __ZNSt3__19__launderB7v160006INS_4pairIKNS_10type_indexENS_6vectorIPFbP7_objectRPvENS_9allocatorISA_EEEEEEEEPT_SG_, symObjAddr: 0x321B0, symBinAddr: 0x33060, symSize: 0x10 }
  - { offsetInCU: 0x4F55C, offset: 0x4F55C, size: 0x8, addend: 0x0, symName: __ZNSt3__118__debug_db_erase_cB7v160006INS_6vectorINS_4pairIPKSt9type_infoPFPvS6_EEENS_9allocatorIS9_EEEEEEvPT_, symObjAddr: 0x32B70, symBinAddr: 0x33A20, symSize: 0x10 }
  - { offsetInCU: 0x4F58D, offset: 0x4F58D, size: 0x8, addend: 0x0, symName: __ZNSt3__112__to_addressB7v160006INS_4pairIPKSt9type_infoPFPvS5_EEEEEPT_SA_, symObjAddr: 0x32C80, symBinAddr: 0x33B30, symSize: 0x10 }
  - { offsetInCU: 0x4F5C2, offset: 0x4F5C2, size: 0x8, addend: 0x0, symName: __ZNSt3__110destroy_atB7v160006INS_4pairIPKSt9type_infoPFPvS5_EEELi0EEEvPT_, symObjAddr: 0x32D30, symBinAddr: 0x33BE0, symSize: 0x20 }
  - { offsetInCU: 0x4F5F9, offset: 0x4F5F9, size: 0x8, addend: 0x0, symName: __ZNSt3__112__destroy_atB7v160006INS_4pairIPKSt9type_infoPFPvS5_EEELi0EEEvPT_, symObjAddr: 0x32D50, symBinAddr: 0x33C00, symSize: 0x10 }
  - { offsetInCU: 0x4F630, offset: 0x4F630, size: 0x8, addend: 0x0, symName: __ZNSt3__118__debug_db_erase_cB7v160006INS_6vectorIPFP7_objectS3_P11_typeobjectENS_9allocatorIS7_EEEEEEvPT_, symObjAddr: 0x32FF0, symBinAddr: 0x33EA0, symSize: 0x10 }
  - { offsetInCU: 0x4F661, offset: 0x4F661, size: 0x8, addend: 0x0, symName: __ZNSt3__112__to_addressB7v160006IPFP7_objectS2_P11_typeobjectEEEPT_S8_, symObjAddr: 0x33100, symBinAddr: 0x33FB0, symSize: 0x10 }
  - { offsetInCU: 0x4F696, offset: 0x4F696, size: 0x8, addend: 0x0, symName: __ZNSt3__110destroy_atB7v160006IPFP7_objectS2_P11_typeobjectELi0EEEvPT_, symObjAddr: 0x331B0, symBinAddr: 0x34060, symSize: 0x20 }
  - { offsetInCU: 0x4F6CD, offset: 0x4F6CD, size: 0x8, addend: 0x0, symName: __ZNSt3__112__destroy_atB7v160006IPFP7_objectS2_P11_typeobjectELi0EEEvPT_, symObjAddr: 0x331D0, symBinAddr: 0x34080, symSize: 0x10 }
  - { offsetInCU: 0x4F704, offset: 0x4F704, size: 0x8, addend: 0x0, symName: __ZNSt3__1neB7v160006ERKNS_19__hash_map_iteratorINS_15__hash_iteratorIPNS_11__hash_nodeINS_17__hash_value_typeIPKvPN8pybind116detail8instanceEEEPvEEEEEESH_, symObjAddr: 0x33ED0, symBinAddr: 0x34D80, symSize: 0x30 }
  - { offsetInCU: 0x4F815, offset: 0x4F815, size: 0x8, addend: 0x0, symName: __ZNSt3__1neB7v160006ERKNS_15__hash_iteratorIPNS_11__hash_nodeINS_17__hash_value_typeIPKvPN8pybind116detail8instanceEEEPvEEEESF_, symObjAddr: 0x34250, symBinAddr: 0x35100, symSize: 0x30 }
  - { offsetInCU: 0x4F885, offset: 0x4F885, size: 0x8, addend: 0x0, symName: __ZNSt3__1eqB7v160006ERKNS_15__hash_iteratorIPNS_11__hash_nodeINS_17__hash_value_typeIPKvPN8pybind116detail8instanceEEEPvEEEESF_, symObjAddr: 0x34620, symBinAddr: 0x354D0, symSize: 0x30 }
  - { offsetInCU: 0x4F8C2, offset: 0x4F8C2, size: 0x8, addend: 0x0, symName: __ZNSt3__17launderB7v160006IKNS_4pairIKPKvPN8pybind116detail8instanceEEEEEPT_SC_, symObjAddr: 0x346D0, symBinAddr: 0x35580, symSize: 0x20 }
  - { offsetInCU: 0x4F8F9, offset: 0x4F8F9, size: 0x8, addend: 0x0, symName: __ZNSt3__19__launderB7v160006IKNS_4pairIKPKvPN8pybind116detail8instanceEEEEEPT_SC_, symObjAddr: 0x346F0, symBinAddr: 0x355A0, symSize: 0x10 }
  - { offsetInCU: 0x4F996, offset: 0x4F996, size: 0x8, addend: 0x0, symName: __ZNSt3__17launderB7v160006INS_4pairIKPKvPN8pybind116detail8instanceEEEEEPT_SB_, symObjAddr: 0x34840, symBinAddr: 0x356F0, symSize: 0x20 }
  - { offsetInCU: 0x4F9CD, offset: 0x4F9CD, size: 0x8, addend: 0x0, symName: __ZNSt3__19__launderB7v160006INS_4pairIKPKvPN8pybind116detail8instanceEEEEEPT_SB_, symObjAddr: 0x34860, symBinAddr: 0x35710, symSize: 0x10 }
  - { offsetInCU: 0x4FA22, offset: 0x4FA22, size: 0x8, addend: 0x0, symName: __ZNSt3__110destroy_atB7v160006INS_4pairIKPKvPN8pybind116detail8instanceEEELi0EEEvPT_, symObjAddr: 0x34F90, symBinAddr: 0x35E40, symSize: 0x20 }
  - { offsetInCU: 0x4FA59, offset: 0x4FA59, size: 0x8, addend: 0x0, symName: __ZNSt3__112__destroy_atB7v160006INS_4pairIKPKvPN8pybind116detail8instanceEEELi0EEEvPT_, symObjAddr: 0x34FB0, symBinAddr: 0x35E60, symSize: 0x10 }
  - { offsetInCU: 0x4FA90, offset: 0x4FA90, size: 0x8, addend: 0x0, symName: __ZNSt3__1neB7v160006IPNS_4pairIPKSt9type_infoPFPvS5_EEEEEbRKNS_11__wrap_iterIT_EESE_, symObjAddr: 0x35080, symBinAddr: 0x35F30, symSize: 0x30 }
  - { offsetInCU: 0x4FAD3, offset: 0x4FAD3, size: 0x8, addend: 0x0, symName: __ZNSt3__1eqB7v160006IPNS_4pairIPKSt9type_infoPFPvS5_EEEEEbRKNS_11__wrap_iterIT_EESE_, symObjAddr: 0x35170, symBinAddr: 0x36020, symSize: 0x40 }
  - { offsetInCU: 0x4FB16, offset: 0x4FB16, size: 0x8, addend: 0x0, symName: __ZNSt3__1neB7v160006ERKNS_19__hash_map_iteratorINS_15__hash_iteratorIPNS_11__hash_nodeINS_17__hash_value_typeIPK7_objectNS_6vectorIPS4_NS_9allocatorIS8_EEEEEEPvEEEEEESJ_, symObjAddr: 0x35210, symBinAddr: 0x360C0, symSize: 0x30 }
  - { offsetInCU: 0x4FB53, offset: 0x4FB53, size: 0x8, addend: 0x0, symName: __ZNSt3__1neB7v160006IPP7_objectEEbRKNS_11__wrap_iterIT_EES8_, symObjAddr: 0x35380, symBinAddr: 0x36230, symSize: 0x30 }
  - { offsetInCU: 0x4FB96, offset: 0x4FB96, size: 0x8, addend: 0x0, symName: __ZNSt3__17launderB7v160006IKNS_4pairIKPK7_objectNS_6vectorIPS2_NS_9allocatorIS7_EEEEEEEEPT_SE_, symObjAddr: 0x35930, symBinAddr: 0x367E0, symSize: 0x20 }
  - { offsetInCU: 0x4FBCD, offset: 0x4FBCD, size: 0x8, addend: 0x0, symName: __ZNSt3__19__launderB7v160006IKNS_4pairIKPK7_objectNS_6vectorIPS2_NS_9allocatorIS7_EEEEEEEEPT_SE_, symObjAddr: 0x35950, symBinAddr: 0x36800, symSize: 0x10 }
  - { offsetInCU: 0x4FC37, offset: 0x4FC37, size: 0x8, addend: 0x0, symName: __ZNSt3__1neB7v160006ERKNS_15__hash_iteratorIPNS_11__hash_nodeINS_17__hash_value_typeIPK7_objectNS_6vectorIPS3_NS_9allocatorIS7_EEEEEEPvEEEESH_, symObjAddr: 0x359B0, symBinAddr: 0x36860, symSize: 0x30 }
  - { offsetInCU: 0x4FC74, offset: 0x4FC74, size: 0x8, addend: 0x0, symName: __ZNSt3__1eqB7v160006ERKNS_15__hash_iteratorIPNS_11__hash_nodeINS_17__hash_value_typeIPK7_objectNS_6vectorIPS3_NS_9allocatorIS7_EEEEEEPvEEEESH_, symObjAddr: 0x359E0, symBinAddr: 0x36890, symSize: 0x30 }
  - { offsetInCU: 0x4FD17, offset: 0x4FD17, size: 0x8, addend: 0x0, symName: __ZNSt3__17launderB7v160006INS_4pairIKPK7_objectNS_6vectorIPS2_NS_9allocatorIS7_EEEEEEEEPT_SD_, symObjAddr: 0x35A80, symBinAddr: 0x36930, symSize: 0x20 }
  - { offsetInCU: 0x4FD4E, offset: 0x4FD4E, size: 0x8, addend: 0x0, symName: __ZNSt3__19__launderB7v160006INS_4pairIKPK7_objectNS_6vectorIPS2_NS_9allocatorIS7_EEEEEEEEPT_SD_, symObjAddr: 0x35AA0, symBinAddr: 0x36950, symSize: 0x10 }
  - { offsetInCU: 0x4FD85, offset: 0x4FD85, size: 0x8, addend: 0x0, symName: __ZNSt3__115__debug_db_swapB7v160006INS_6vectorIP7_objectNS_9allocatorIS3_EEEEEEvPT_S8_, symObjAddr: 0x35BE0, symBinAddr: 0x36A90, symSize: 0x10 }
  - { offsetInCU: 0x4FDE2, offset: 0x4FDE2, size: 0x8, addend: 0x0, symName: __ZNSt3__110destroy_atB7v160006INS_4pairIKPK7_objectNS_6vectorIPS2_NS_9allocatorIS7_EEEEEELi0EEEvPT_, symObjAddr: 0x36400, symBinAddr: 0x372B0, symSize: 0x20 }
  - { offsetInCU: 0x4FE19, offset: 0x4FE19, size: 0x8, addend: 0x0, symName: __ZNSt3__112__destroy_atB7v160006INS_4pairIKPK7_objectNS_6vectorIPS2_NS_9allocatorIS7_EEEEEELi0EEEvPT_, symObjAddr: 0x36420, symBinAddr: 0x372D0, symSize: 0x20 }
  - { offsetInCU: 0x4FE50, offset: 0x4FE50, size: 0x8, addend: 0x0, symName: __ZNSt3__1eqB7v160006IPP7_objectEEbRKNS_11__wrap_iterIT_EES8_, symObjAddr: 0x36570, symBinAddr: 0x37420, symSize: 0x40 }
  - { offsetInCU: 0x4FE93, offset: 0x4FE93, size: 0x8, addend: 0x0, symName: __ZNSt3__118__debug_db_erase_cB7v160006INS_6vectorIP7_objectNS_9allocatorIS3_EEEEEEvPT_, symObjAddr: 0x367A0, symBinAddr: 0x37650, symSize: 0x10 }
  - { offsetInCU: 0x4FEC4, offset: 0x4FEC4, size: 0x8, addend: 0x0, symName: __ZNSt3__112__to_addressB7v160006IP7_objectEEPT_S4_, symObjAddr: 0x36890, symBinAddr: 0x37740, symSize: 0x10 }
  - { offsetInCU: 0x4FEF9, offset: 0x4FEF9, size: 0x8, addend: 0x0, symName: __ZNSt3__119__debug_db_insert_cB7v160006INS_6vectorI10GameObjectNS_9allocatorIS2_EEEEEEvPT_, symObjAddr: 0x36C30, symBinAddr: 0x37AE0, symSize: 0x10 }
  - { offsetInCU: 0x4FF2A, offset: 0x4FF2A, size: 0x8, addend: 0x0, symName: __ZNSt3__118__debug_db_erase_cB7v160006INS_6vectorI10GameObjectNS_9allocatorIS2_EEEEEEvPT_, symObjAddr: 0x36EC0, symBinAddr: 0x37D70, symSize: 0x10 }
  - { offsetInCU: 0x4FF5B, offset: 0x4FF5B, size: 0x8, addend: 0x0, symName: __ZNSt3__112__to_addressB7v160006I10GameObjectEEPT_S3_, symObjAddr: 0x36FF0, symBinAddr: 0x37EA0, symSize: 0x10 }
  - { offsetInCU: 0x4FF90, offset: 0x4FF90, size: 0x8, addend: 0x0, symName: __ZNSt3__110destroy_atB7v160006I10GameObjectLi0EEEvPT_, symObjAddr: 0x370A0, symBinAddr: 0x37F50, symSize: 0x20 }
  - { offsetInCU: 0x4FFC7, offset: 0x4FFC7, size: 0x8, addend: 0x0, symName: __ZNSt3__112__destroy_atB7v160006I10GameObjectLi0EEEvPT_, symObjAddr: 0x370C0, symBinAddr: 0x37F70, symSize: 0x20 }
  - { offsetInCU: 0x50025, offset: 0x50025, size: 0x8, addend: 0x0, symName: __ZNSt3__112construct_atB7v160006I10GameObjectJRKS1_EPS1_EEPT_S6_DpOT0_, symObjAddr: 0x37C00, symBinAddr: 0x38AB0, symSize: 0x40 }
  - { offsetInCU: 0x50097, offset: 0x50097, size: 0x8, addend: 0x0, symName: __ZNSt3__119__allocate_at_leastB7v160006INS_9allocatorI10GameObjectEEEENS_19__allocation_resultINS_16allocator_traitsIT_E7pointerEEERS6_m, symObjAddr: 0x381C0, symBinAddr: 0x39070, symSize: 0x40 }
  - { offsetInCU: 0x500DA, offset: 0x500DA, size: 0x8, addend: 0x0, symName: __ZNSt3__142__uninitialized_allocator_move_if_noexceptB7v160006INS_9allocatorI10GameObjectEENS_16reverse_iteratorIPS2_EES6_S6_EET2_RT_T0_T1_S7_, symObjAddr: 0x38350, symBinAddr: 0x39200, symSize: 0x180 }
  - { offsetInCU: 0x50179, offset: 0x50179, size: 0x8, addend: 0x0, symName: __ZNSt3__14swapB7v160006IP10GameObjectEENS_9enable_ifIXaasr21is_move_constructibleIT_EE5valuesr18is_move_assignableIS4_EE5valueEvE4typeERS4_S7_, symObjAddr: 0x38520, symBinAddr: 0x393D0, symSize: 0x40 }
  - { offsetInCU: 0x501CA, offset: 0x501CA, size: 0x8, addend: 0x0, symName: __ZNSt3__125__debug_db_invalidate_allB7v160006INS_6vectorI10GameObjectNS_9allocatorIS2_EEEEEEvPT_, symObjAddr: 0x38600, symBinAddr: 0x394B0, symSize: 0x10 }
  - { offsetInCU: 0x501FB, offset: 0x501FB, size: 0x8, addend: 0x0, symName: __ZNSt3__122__make_exception_guardB7v160006INS_29_AllocatorDestroyRangeReverseINS_9allocatorI10GameObjectEENS_16reverse_iteratorIPS3_EEEEEENS_28__exception_guard_exceptionsIT_EESA_, symObjAddr: 0x38610, symBinAddr: 0x394C0, symSize: 0x60 }
  - { offsetInCU: 0x50230, offset: 0x50230, size: 0x8, addend: 0x0, symName: __ZNSt3__1neB7v160006IP10GameObjectS2_EEbRKNS_16reverse_iteratorIT_EERKNS3_IT0_EE, symObjAddr: 0x386B0, symBinAddr: 0x39560, symSize: 0x40 }
  - { offsetInCU: 0x5027C, offset: 0x5027C, size: 0x8, addend: 0x0, symName: __ZNSt3__112__to_addressB7v160006INS_16reverse_iteratorIP10GameObjectEEvEENS_5decayIDTclsr19__to_address_helperIT_EE6__callclsr3stdE7declvalIRKS6_EEEEE4typeES8_, symObjAddr: 0x38720, symBinAddr: 0x395D0, symSize: 0x20 }
  - { offsetInCU: 0x502B2, offset: 0x502B2, size: 0x8, addend: 0x0, symName: __ZNSt3__112construct_atB7v160006I10GameObjectJS1_EPS1_EEPT_S4_DpOT0_, symObjAddr: 0x38880, symBinAddr: 0x39730, symSize: 0x40 }
  - { offsetInCU: 0x5034E, offset: 0x5034E, size: 0x8, addend: 0x0, symName: __ZNSt3__14prevB7v160006IP10GameObjectEENS_9enable_ifIXsr25__is_cpp17_input_iteratorIT_EE5valueES4_E4typeES4_NS_15iterator_traitsIS4_E15difference_typeE, symObjAddr: 0x38A10, symBinAddr: 0x398C0, symSize: 0x50 }
  - { offsetInCU: 0x50391, offset: 0x50391, size: 0x8, addend: 0x0, symName: __ZNSt3__19__advanceB7v160006IP10GameObjectEEvRT_NS_15iterator_traitsIS3_E15difference_typeENS_26random_access_iterator_tagE, symObjAddr: 0x38AB0, symBinAddr: 0x39960, symSize: 0x20 }
  - { offsetInCU: 0x503DB, offset: 0x503DB, size: 0x8, addend: 0x0, symName: __ZNSt3__119__allocator_destroyB7v160006INS_9allocatorI10GameObjectEENS_16reverse_iteratorINS4_IPS2_EEEES7_EEvRT_T0_T1_, symObjAddr: 0x38C00, symBinAddr: 0x39AB0, symSize: 0x70 }
  - { offsetInCU: 0x5043E, offset: 0x5043E, size: 0x8, addend: 0x0, symName: __ZNSt3__1neB7v160006INS_16reverse_iteratorIP10GameObjectEES4_EEbRKNS1_IT_EERKNS1_IT0_EE, symObjAddr: 0x38CA0, symBinAddr: 0x39B50, symSize: 0x50 }
  - { offsetInCU: 0x5048A, offset: 0x5048A, size: 0x8, addend: 0x0, symName: __ZNSt3__112__to_addressB7v160006INS_16reverse_iteratorINS1_IP10GameObjectEEEEvEENS_5decayIDTclsr19__to_address_helperIT_EE6__callclsr3stdE7declvalIRKS7_EEEEE4typeES9_, symObjAddr: 0x38CF0, symBinAddr: 0x39BA0, symSize: 0x20 }
  - { offsetInCU: 0x504EA, offset: 0x504EA, size: 0x8, addend: 0x0, symName: __ZNSt3__14prevB7v160006INS_16reverse_iteratorIP10GameObjectEEEENS_9enable_ifIXsr25__is_cpp17_input_iteratorIT_EE5valueES6_E4typeES6_NS_15iterator_traitsIS6_E15difference_typeE, symObjAddr: 0x38DF0, symBinAddr: 0x39CA0, symSize: 0x60 }
  - { offsetInCU: 0x5052D, offset: 0x5052D, size: 0x8, addend: 0x0, symName: __ZNSt3__19__advanceB7v160006INS_16reverse_iteratorIP10GameObjectEEEEvRT_NS_15iterator_traitsIS5_E15difference_typeENS_26random_access_iterator_tagE, symObjAddr: 0x38EA0, symBinAddr: 0x39D50, symSize: 0x30 }
  - { offsetInCU: 0x50577, offset: 0x50577, size: 0x8, addend: 0x0, symName: __ZNSt3__1eqB7v160006IP10GameObjectEEbRKNS_11__wrap_iterIT_EES7_, symObjAddr: 0x39200, symBinAddr: 0x3A0B0, symSize: 0x40 }
  - { offsetInCU: 0x505BA, offset: 0x505BA, size: 0x8, addend: 0x0, symName: __ZNSt3__134__libcpp_atomic_refcount_decrementB7v160006IlEET_RS1_, symObjAddr: 0x39650, symBinAddr: 0x3A500, symSize: 0x30 }
  - { offsetInCU: 0x505EF, offset: 0x505EF, size: 0x8, addend: 0x0, symName: __ZNSt3__17getlineB7v160006IcNS_11char_traitsIcEENS_9allocatorIcEEEERNS_13basic_istreamIT_T0_EES9_RNS_12basic_stringIS6_S7_T1_EES6_, symObjAddr: 0x39850, symBinAddr: 0x3A700, symSize: 0x220 }
  - { offsetInCU: 0x506AD, offset: 0x506AD, size: 0x8, addend: 0x0, symName: __ZNSt3__19use_facetB7v160006INS_5ctypeIcEEEERKT_RKNS_6localeE, symObjAddr: 0x39C80, symBinAddr: 0x3AB30, symSize: 0x30 }
  - { offsetInCU: 0x50B7D, offset: 0x50B7D, size: 0x8, addend: 0x0, symName: __ZNSt3__116__pad_and_outputB7v160006IcNS_11char_traitsIcEEEENS_19ostreambuf_iteratorIT_T0_EES6_PKS4_S8_S8_RNS_8ios_baseES4_, symObjAddr: 0x39F30, symBinAddr: 0x3ADE0, symSize: 0x220 }
  - { offsetInCU: 0x51C0A, offset: 0x51C0A, size: 0x8, addend: 0x0, symName: __ZSt28__throw_bad_array_new_lengthB7v160006v, symObjAddr: 0x3FE0, symBinAddr: 0x4E90, symSize: 0x40 }
  - { offsetInCU: 0x51C23, offset: 0x51C23, size: 0x8, addend: 0x0, symName: __ZStneB7v160006RKSt13exception_ptrS1_, symObjAddr: 0xD140, symBinAddr: 0xDFF0, symSize: 0x30 }
  - { offsetInCU: 0x51C5D, offset: 0x51C5D, size: 0x8, addend: 0x0, symName: __ZSteqB7v160006RKSt13exception_ptrS1_, symObjAddr: 0xD1A0, symBinAddr: 0xE050, symSize: 0x30 }
  - { offsetInCU: 0x55FCE, offset: 0x55FCE, size: 0x8, addend: 0x0, symName: __ZN8pybind116handle15inc_ref_counterEm, symObjAddr: 0x3310, symBinAddr: 0x41C0, symSize: 0x40 }
  - { offsetInCU: 0x565CF, offset: 0x565CF, size: 0x8, addend: 0x0, symName: __ZN8pybind1112cpp_function10initializeIZNS_6detail23all_type_info_get_cacheEP11_typeobjectEUlNS_6handleEE_vJS5_EJEEEvOT_PFT0_DpT1_EDpRKT2_, symObjAddr: 0x11800, symBinAddr: 0x126B0, symSize: 0x110 }
  - { offsetInCU: 0x565F3, offset: 0x565F3, size: 0x8, addend: 0x0, symName: __ZZN8pybind1112cpp_function10initializeIZNS_6detail23all_type_info_get_cacheEP11_typeobjectEUlNS_6handleEE_vJS5_EJEEEvOT_PFT0_DpT1_EDpRKT2_E9signature, symObjAddr: 0x3DBBC, symBinAddr: 0x55904, symSize: 0x0 }
  - { offsetInCU: 0x56609, offset: 0x56609, size: 0x8, addend: 0x0, symName: __ZZN8pybind1112cpp_function10initializeIZNS_6detail23all_type_info_get_cacheEP11_typeobjectEUlNS_6handleEE_vJS5_EJEEEvOT_PFT0_DpT1_EDpRKT2_E5types, symObjAddr: 0x3DBD0, symBinAddr: 0x55918, symSize: 0x0 }
  - { offsetInCU: 0x567EB, offset: 0x567EB, size: 0x8, addend: 0x0, symName: __ZN8pybind117options12global_stateEv, symObjAddr: 0x2B580, symBinAddr: 0x2C430, symSize: 0x10 }
  - { offsetInCU: 0x5680B, offset: 0x5680B, size: 0x8, addend: 0x0, symName: __ZZN8pybind117options12global_stateEvE8instance, symObjAddr: 0x3DC78, symBinAddr: 0x5A650, symSize: 0x0 }
  - { offsetInCU: 0x57963, offset: 0x57963, size: 0x8, addend: 0x0, symName: __ZNSt3__16vectorIPcNS_9allocatorIS1_EEE26__swap_out_circular_bufferERNS_14__split_bufferIS1_RS3_EE, symObjAddr: 0x198C0, symBinAddr: 0x1A770, symSize: 0x130 }
  - { offsetInCU: 0x57A23, offset: 0x57A23, size: 0x8, addend: 0x0, symName: __ZNSt3__16vectorIN8pybind116detail15argument_recordENS_9allocatorIS3_EEE26__swap_out_circular_bufferERNS_14__split_bufferIS3_RS5_EE, symObjAddr: 0x1E5A0, symBinAddr: 0x1F450, symSize: 0x130 }
  - { offsetInCU: 0x57B25, offset: 0x57B25, size: 0x8, addend: 0x0, symName: __ZNSt3__16vectorIN8pybind116handleENS_9allocatorIS2_EEE26__swap_out_circular_bufferERNS_14__split_bufferIS2_RS4_EE, symObjAddr: 0x216F0, symBinAddr: 0x225A0, symSize: 0x130 }
  - { offsetInCU: 0x5822E, offset: 0x5822E, size: 0x8, addend: 0x0, symName: __ZNSt3__16vectorIN8pybind116detail13function_callENS_9allocatorIS3_EEE26__swap_out_circular_bufferERNS_14__split_bufferIS3_RS5_EE, symObjAddr: 0x27B70, symBinAddr: 0x28A20, symSize: 0x130 }
  - { offsetInCU: 0x58500, offset: 0x58500, size: 0x8, addend: 0x0, symName: __ZNSt3__16vectorIP11_typeobjectNS_9allocatorIS2_EEE26__swap_out_circular_bufferERNS_14__split_bufferIS2_RS4_EE, symObjAddr: 0x2C7D0, symBinAddr: 0x2D680, symSize: 0x130 }
  - { offsetInCU: 0x58573, offset: 0x58573, size: 0x8, addend: 0x0, symName: __ZNSt3__16vectorIPN8pybind116detail9type_infoENS_9allocatorIS4_EEE26__swap_out_circular_bufferERNS_14__split_bufferIS4_RS6_EEPS4_, symObjAddr: 0x2E8C0, symBinAddr: 0x2F770, symSize: 0x170 }
  - { offsetInCU: 0x585E9, offset: 0x585E9, size: 0x8, addend: 0x0, symName: __ZNSt3__16vectorIPN8pybind116detail9type_infoENS_9allocatorIS4_EEE26__swap_out_circular_bufferERNS_14__split_bufferIS4_RS6_EE, symObjAddr: 0x307A0, symBinAddr: 0x31650, symSize: 0x130 }
  - { offsetInCU: 0x5897F, offset: 0x5897F, size: 0x8, addend: 0x0, symName: __ZNSt3__16vectorI10GameObjectNS_9allocatorIS1_EEE26__swap_out_circular_bufferERNS_14__split_bufferIS1_RS3_EE, symObjAddr: 0x37E80, symBinAddr: 0x38D30, symSize: 0x130 }
  - { offsetInCU: 0x5ACF8, offset: 0x5ACF8, size: 0x8, addend: 0x0, symName: __ZNK8pybind1117error_already_set4whatEv, symObjAddr: 0x0, symBinAddr: 0xEB0, symSize: 0x80 }
  - { offsetInCU: 0x5AD55, offset: 0x5AD55, size: 0x8, addend: 0x0, symName: __ZN8pybind1118gil_scoped_acquireC1Ev, symObjAddr: 0x80, symBinAddr: 0xF30, symSize: 0x20 }
  - { offsetInCU: 0x5AD95, offset: 0x5AD95, size: 0x8, addend: 0x0, symName: __ZN8pybind1111error_scopeC1Ev, symObjAddr: 0xB0, symBinAddr: 0xF60, symSize: 0x20 }
  - { offsetInCU: 0x5ADBF, offset: 0x5ADBF, size: 0x8, addend: 0x0, symName: __ZNKSt3__110shared_ptrIN8pybind116detail25error_fetch_and_normalizeEEptB7v160006Ev, symObjAddr: 0xD0, symBinAddr: 0xF80, symSize: 0x20 }
  - { offsetInCU: 0x5ADE5, offset: 0x5ADE5, size: 0x8, addend: 0x0, symName: __ZNK8pybind116detail25error_fetch_and_normalize12error_stringEv, symObjAddr: 0xF0, symBinAddr: 0xFA0, symSize: 0xD0 }
  - { offsetInCU: 0x5AE0B, offset: 0x5AE0B, size: 0x8, addend: 0x0, symName: __ZNKSt3__112basic_stringIcNS_11char_traitsIcEENS_9allocatorIcEEE5c_strB7v160006Ev, symObjAddr: 0x1C0, symBinAddr: 0x1070, symSize: 0x20 }
  - { offsetInCU: 0x5AE31, offset: 0x5AE31, size: 0x8, addend: 0x0, symName: __ZN8pybind1111error_scopeD1Ev, symObjAddr: 0x1E0, symBinAddr: 0x1090, symSize: 0x20 }
  - { offsetInCU: 0x5AE5B, offset: 0x5AE5B, size: 0x8, addend: 0x0, symName: __ZN8pybind1118gil_scoped_acquireD1Ev, symObjAddr: 0x200, symBinAddr: 0x10B0, symSize: 0x20 }
  - { offsetInCU: 0x5B191, offset: 0x5B191, size: 0x8, addend: 0x0, symName: __ZN7GameAppC2Ev, symObjAddr: 0x220, symBinAddr: 0x10D0, symSize: 0x60 }
  - { offsetInCU: 0x5B1BD, offset: 0x5B1BD, size: 0x8, addend: 0x0, symName: __ZNSt3__16vectorI10GameObjectNS_9allocatorIS1_EEEC1B7v160006Ev, symObjAddr: 0x280, symBinAddr: 0x1130, symSize: 0x20 }
  - { offsetInCU: 0x5B1E7, offset: 0x5B1E7, size: 0x8, addend: 0x0, symName: __ZNSt3__16vectorI10GameObjectNS_9allocatorIS1_EEED1B7v160006Ev, symObjAddr: 0x2A0, symBinAddr: 0x1150, symSize: 0x20 }
  - { offsetInCU: 0x5B211, offset: 0x5B211, size: 0x8, addend: 0x0, symName: __ZN7GameAppC1Ev, symObjAddr: 0x2C0, symBinAddr: 0x1170, symSize: 0x20 }
  - { offsetInCU: 0x5B23D, offset: 0x5B23D, size: 0x8, addend: 0x0, symName: __ZN7GameApp7StartUpENSt3__112basic_stringIcNS0_11char_traitsIcEENS0_9allocatorIcEEEE, symObjAddr: 0x2E0, symBinAddr: 0x1190, symSize: 0x280 }
  - { offsetInCU: 0x5B3C5, offset: 0x5B3C5, size: 0x8, addend: 0x0, symName: __ZNSt3__114basic_ifstreamIcNS_11char_traitsIcEEEC1ERKNS_12basic_stringIcS2_NS_9allocatorIcEEEEj, symObjAddr: 0x560, symBinAddr: 0x1410, symSize: 0x160 }
  - { offsetInCU: 0x5B40F, offset: 0x5B40F, size: 0x8, addend: 0x0, symName: __ZNSt3__112basic_stringIcNS_11char_traitsIcEENS_9allocatorIcEEEC1B7v160006Ev, symObjAddr: 0x6C0, symBinAddr: 0x1570, symSize: 0x20 }
  - { offsetInCU: 0x5B439, offset: 0x5B439, size: 0x8, addend: 0x0, symName: __ZNKSt3__114basic_ifstreamIcNS_11char_traitsIcEEE7is_openEv, symObjAddr: 0x6E0, symBinAddr: 0x1590, symSize: 0x30 }
  - { offsetInCU: 0x5B461, offset: 0x5B461, size: 0x8, addend: 0x0, symName: __ZNKSt3__19basic_iosIcNS_11char_traitsIcEEEcvbB7v160006Ev, symObjAddr: 0x760, symBinAddr: 0x1610, symSize: 0x30 }
  - { offsetInCU: 0x5B487, offset: 0x5B487, size: 0x8, addend: 0x0, symName: __ZN8pybind113strC1EPKc, symObjAddr: 0x830, symBinAddr: 0x16E0, symSize: 0x30 }
  - { offsetInCU: 0x5B4C0, offset: 0x5B4C0, size: 0x8, addend: 0x0, symName: __ZN8pybind116objectC1EOS0_, symObjAddr: 0x9F0, symBinAddr: 0x18A0, symSize: 0x30 }
  - { offsetInCU: 0x5B4F9, offset: 0x5B4F9, size: 0x8, addend: 0x0, symName: __ZN8pybind116objectC1Ev, symObjAddr: 0xA20, symBinAddr: 0x18D0, symSize: 0x20 }
  - { offsetInCU: 0x5B523, offset: 0x5B523, size: 0x8, addend: 0x0, symName: __ZN8pybind116objectD1Ev, symObjAddr: 0xA40, symBinAddr: 0x18F0, symSize: 0x20 }
  - { offsetInCU: 0x5B54D, offset: 0x5B54D, size: 0x8, addend: 0x0, symName: __ZN8pybind114dictD1Ev, symObjAddr: 0xA60, symBinAddr: 0x1910, symSize: 0x20 }
  - { offsetInCU: 0x5B57A, offset: 0x5B57A, size: 0x8, addend: 0x0, symName: __ZN8pybind113strD1Ev, symObjAddr: 0xA80, symBinAddr: 0x1930, symSize: 0x20 }
  - { offsetInCU: 0x5B5A7, offset: 0x5B5A7, size: 0x8, addend: 0x0, symName: __ZNSt3__114basic_ifstreamIcNS_11char_traitsIcEEE5closeEv, symObjAddr: 0xAA0, symBinAddr: 0x1950, symSize: 0x50 }
  - { offsetInCU: 0x5B5D4, offset: 0x5B5D4, size: 0x8, addend: 0x0, symName: __ZNSt3__114basic_ifstreamIcNS_11char_traitsIcEEED1Ev, symObjAddr: 0xAF0, symBinAddr: 0x19A0, symSize: 0x40 }
  - { offsetInCU: 0x5B601, offset: 0x5B601, size: 0x8, addend: 0x0, symName: __ZN7GameApp8ShutDownEv, symObjAddr: 0xB30, symBinAddr: 0x19E0, symSize: 0x10 }
  - { offsetInCU: 0x5B629, offset: 0x5B629, size: 0x8, addend: 0x0, symName: __ZN7GameApp16CreateGameObjectENSt3__112basic_stringIcNS0_11char_traitsIcEENS0_9allocatorIcEEEES6_, symObjAddr: 0xB40, symBinAddr: 0x19F0, symSize: 0xD0 }
  - { offsetInCU: 0x5B67E, offset: 0x5B67E, size: 0x8, addend: 0x0, symName: __ZN15ScriptComponent10LoadScriptENSt3__112basic_stringIcNS0_11char_traitsIcEENS0_9allocatorIcEEEE, symObjAddr: 0xC10, symBinAddr: 0x1AC0, symSize: 0x2D0 }
  - { offsetInCU: 0x5B6B3, offset: 0x5B6B3, size: 0x8, addend: 0x0, symName: __ZNSt3__16vectorI10GameObjectNS_9allocatorIS1_EEE9push_backB7v160006ERKS1_, symObjAddr: 0xEE0, symBinAddr: 0x1D90, symSize: 0x60 }
  - { offsetInCU: 0x5B6EA, offset: 0x5B6EA, size: 0x8, addend: 0x0, symName: __ZN10GameObjectD1Ev, symObjAddr: 0xF40, symBinAddr: 0x1DF0, symSize: 0x20 }
  - { offsetInCU: 0x5B716, offset: 0x5B716, size: 0x8, addend: 0x0, symName: __ZN7GameApp5InputEv, symObjAddr: 0xF60, symBinAddr: 0x1E10, symSize: 0x80 }
  - { offsetInCU: 0x5B78C, offset: 0x5B78C, size: 0x8, addend: 0x0, symName: __ZNSt3__16vectorI10GameObjectNS_9allocatorIS1_EEE5beginB7v160006Ev, symObjAddr: 0xFE0, symBinAddr: 0x1E90, symSize: 0x30 }
  - { offsetInCU: 0x5B7B4, offset: 0x5B7B4, size: 0x8, addend: 0x0, symName: __ZNSt3__16vectorI10GameObjectNS_9allocatorIS1_EEE3endB7v160006Ev, symObjAddr: 0x1010, symBinAddr: 0x1EC0, symSize: 0x30 }
  - { offsetInCU: 0x5B7DC, offset: 0x5B7DC, size: 0x8, addend: 0x0, symName: __ZNKSt3__111__wrap_iterIP10GameObjectEdeB7v160006Ev, symObjAddr: 0x1070, symBinAddr: 0x1F20, symSize: 0x20 }
  - { offsetInCU: 0x5B802, offset: 0x5B802, size: 0x8, addend: 0x0, symName: __ZN10GameObject5InputEv, symObjAddr: 0x1090, symBinAddr: 0x1F40, symSize: 0x10 }
  - { offsetInCU: 0x5B828, offset: 0x5B828, size: 0x8, addend: 0x0, symName: __ZNSt3__111__wrap_iterIP10GameObjectEppB7v160006Ev, symObjAddr: 0x10A0, symBinAddr: 0x1F50, symSize: 0x20 }
  - { offsetInCU: 0x5B84E, offset: 0x5B84E, size: 0x8, addend: 0x0, symName: __ZN7GameApp6UpdateEv, symObjAddr: 0x10C0, symBinAddr: 0x1F70, symSize: 0x80 }
  - { offsetInCU: 0x5B8C4, offset: 0x5B8C4, size: 0x8, addend: 0x0, symName: __ZN10GameObject6UpdateEv, symObjAddr: 0x1140, symBinAddr: 0x1FF0, symSize: 0x20 }
  - { offsetInCU: 0x5B8EA, offset: 0x5B8EA, size: 0x8, addend: 0x0, symName: __ZN7GameApp6RenderEv, symObjAddr: 0x1160, symBinAddr: 0x2010, symSize: 0x30 }
  - { offsetInCU: 0x5B912, offset: 0x5B912, size: 0x8, addend: 0x0, symName: __ZN7GameApp4LoopEv, symObjAddr: 0x1190, symBinAddr: 0x2040, symSize: 0xA0 }
  - { offsetInCU: 0x5B948, offset: 0x5B948, size: 0x8, addend: 0x0, symName: __ZNSt3__113basic_ostreamIcNS_11char_traitsIcEEElsB7v160006EPFRS3_S4_E, symObjAddr: 0x1270, symBinAddr: 0x2120, symSize: 0x20 }
  - { offsetInCU: 0x5B97C, offset: 0x5B97C, size: 0x8, addend: 0x0, symName: __ZN8pybind1117error_already_setD1Ev, symObjAddr: 0x12E0, symBinAddr: 0x2190, symSize: 0x20 }
  - { offsetInCU: 0x5B9A9, offset: 0x5B9A9, size: 0x8, addend: 0x0, symName: __ZN8pybind1117error_already_setD0Ev, symObjAddr: 0x1300, symBinAddr: 0x21B0, symSize: 0x30 }
  - { offsetInCU: 0x5B9D6, offset: 0x5B9D6, size: 0x8, addend: 0x0, symName: __ZN8pybind1118gil_scoped_acquireC2Ev, symObjAddr: 0x1330, symBinAddr: 0x21E0, symSize: 0x110 }
  - { offsetInCU: 0x5BA1C, offset: 0x5BA1C, size: 0x8, addend: 0x0, symName: __ZN8pybind1118gil_scoped_acquire7inc_refEv, symObjAddr: 0x1A20, symBinAddr: 0x28D0, symSize: 0x20 }
  - { offsetInCU: 0x5BA68, offset: 0x5BA68, size: 0x8, addend: 0x0, symName: __ZZN8pybind116detail13get_internalsEvEN24gil_scoped_acquire_localC1Ev, symObjAddr: 0x1A50, symBinAddr: 0x2900, symSize: 0x20 }
  - { offsetInCU: 0x5BA92, offset: 0x5BA92, size: 0x8, addend: 0x0, symName: __ZN8pybind114dictC1EONS_6objectE, symObjAddr: 0x1BC0, symBinAddr: 0x2A70, symSize: 0x30 }
  - { offsetInCU: 0x5BACB, offset: 0x5BACB, size: 0x8, addend: 0x0, symName: __ZNK8pybind116handlecvbEv, symObjAddr: 0x1C50, symBinAddr: 0x2B00, symSize: 0x20 }
  - { offsetInCU: 0x5BAF1, offset: 0x5BAF1, size: 0x8, addend: 0x0, symName: __ZNSt3__112forward_listIPFvSt13exception_ptrENS_9allocatorIS3_EEE10push_frontEOS3_, symObjAddr: 0x1D20, symBinAddr: 0x2BD0, symSize: 0x110 }
  - { offsetInCU: 0x5BB46, offset: 0x5BB46, size: 0x8, addend: 0x0, symName: __ZN8pybind116detail9internalsC1Ev, symObjAddr: 0x1F50, symBinAddr: 0x2E00, symSize: 0x20 }
  - { offsetInCU: 0x5BB70, offset: 0x5BB70, size: 0x8, addend: 0x0, symName: __ZN8pybind117capsuleC1EPKvPKcPFvP7_objectE, symObjAddr: 0x1F70, symBinAddr: 0x2E20, symSize: 0x40 }
  - { offsetInCU: 0x5BBC7, offset: 0x5BBC7, size: 0x8, addend: 0x0, symName: __ZNK8pybind116detail10object_apiINS_6handleEEixEPKc, symObjAddr: 0x1FB0, symBinAddr: 0x2E60, symSize: 0xB0 }
  - { offsetInCU: 0x5BC03, offset: 0x5BC03, size: 0x8, addend: 0x0, symName: __ZNO8pybind116detail8accessorINS0_17accessor_policies12generic_itemEEaSINS_7capsuleEEEvOT_, symObjAddr: 0x2060, symBinAddr: 0x2F10, symSize: 0x50 }
  - { offsetInCU: 0x5BC41, offset: 0x5BC41, size: 0x8, addend: 0x0, symName: __ZN8pybind116detail8accessorINS0_17accessor_policies12generic_itemEED1Ev, symObjAddr: 0x20B0, symBinAddr: 0x2F60, symSize: 0x20 }
  - { offsetInCU: 0x5BC6D, offset: 0x5BC6D, size: 0x8, addend: 0x0, symName: __ZN8pybind117capsuleD1Ev, symObjAddr: 0x20D0, symBinAddr: 0x2F80, symSize: 0x20 }
  - { offsetInCU: 0x5BC9A, offset: 0x5BC9A, size: 0x8, addend: 0x0, symName: __ZZN8pybind116detail13get_internalsEvEN24gil_scoped_acquire_localD1Ev, symObjAddr: 0x2F30, symBinAddr: 0x3DE0, symSize: 0x20 }
  - { offsetInCU: 0x5BCC4, offset: 0x5BCC4, size: 0x8, addend: 0x0, symName: __ZZN8pybind116detail13get_internalsEvEN24gil_scoped_acquire_localC2Ev, symObjAddr: 0x2F50, symBinAddr: 0x3E00, symSize: 0x30 }
  - { offsetInCU: 0x5BCEE, offset: 0x5BCEE, size: 0x8, addend: 0x0, symName: __ZN8pybind116handleC1IP7_objectLi0EEET_, symObjAddr: 0x2FC0, symBinAddr: 0x3E70, symSize: 0x30 }
  - { offsetInCU: 0x5BD35, offset: 0x5BD35, size: 0x8, addend: 0x0, symName: __ZN8pybind116objectaSEOS0_, symObjAddr: 0x2FF0, symBinAddr: 0x3EA0, symSize: 0x80 }
  - { offsetInCU: 0x5BD7F, offset: 0x5BD7F, size: 0x8, addend: 0x0, symName: __ZN8pybind1117error_already_setC1Ev, symObjAddr: 0x31E0, symBinAddr: 0x4090, symSize: 0x20 }
  - { offsetInCU: 0x5BDA9, offset: 0x5BDA9, size: 0x8, addend: 0x0, symName: __ZN8pybind116objectC1ENS_6handleENS0_10borrowed_tE, symObjAddr: 0x3200, symBinAddr: 0x40B0, symSize: 0x30 }
  - { offsetInCU: 0x5BDEE, offset: 0x5BDEE, size: 0x8, addend: 0x0, symName: __ZN8pybind116objectC2ENS_6handleENS0_10borrowed_tE, symObjAddr: 0x3230, symBinAddr: 0x40E0, symSize: 0x30 }
  - { offsetInCU: 0x5BE33, offset: 0x5BE33, size: 0x8, addend: 0x0, symName: __ZNKR8pybind116handle7inc_refEv, symObjAddr: 0x3260, symBinAddr: 0x4110, symSize: 0xB0 }
  - { offsetInCU: 0x5BE59, offset: 0x5BE59, size: 0x8, addend: 0x0, symName: __ZNK8pybind116handle20throw_gilstate_errorERKNSt3__112basic_stringIcNS1_11char_traitsIcEENS1_9allocatorIcEEEE, symObjAddr: 0x3350, symBinAddr: 0x4200, symSize: 0x180 }
  - { offsetInCU: 0x5BE93, offset: 0x5BE93, size: 0x8, addend: 0x0, symName: __ZNSt3__112basic_stringIcNS_11char_traitsIcEENS_9allocatorIcEEEC1B7v160006IDnEEPKc, symObjAddr: 0x34D0, symBinAddr: 0x4380, symSize: 0x30 }
  - { offsetInCU: 0x5BED1, offset: 0x5BED1, size: 0x8, addend: 0x0, symName: __ZL10Py_XINCREFP7_object, symObjAddr: 0x3500, symBinAddr: 0x43B0, symSize: 0x30 }
  - { offsetInCU: 0x5BEFB, offset: 0x5BEFB, size: 0x8, addend: 0x0, symName: __ZL7Py_TYPEP7_object, symObjAddr: 0x3530, symBinAddr: 0x43E0, symSize: 0x20 }
  - { offsetInCU: 0x5BF28, offset: 0x5BF28, size: 0x8, addend: 0x0, symName: __ZNKSt3__112basic_stringIcNS_11char_traitsIcEENS_9allocatorIcEEE4sizeB7v160006Ev, symObjAddr: 0x3650, symBinAddr: 0x4500, symSize: 0x50 }
  - { offsetInCU: 0x5BF4E, offset: 0x5BF4E, size: 0x8, addend: 0x0, symName: __ZNSt3__111char_traitsIcE6lengthEPKc, symObjAddr: 0x36A0, symBinAddr: 0x4550, symSize: 0x30 }
  - { offsetInCU: 0x5BF7C, offset: 0x5BF7C, size: 0x8, addend: 0x0, symName: __ZNSt3__116allocator_traitsINS_9allocatorIcEEE37select_on_container_copy_constructionB7v160006IS2_vvEES2_RKS2_, symObjAddr: 0x36D0, symBinAddr: 0x4580, symSize: 0x10 }
  - { offsetInCU: 0x5BFAB, offset: 0x5BFAB, size: 0x8, addend: 0x0, symName: __ZNKSt3__112basic_stringIcNS_11char_traitsIcEENS_9allocatorIcEEE13get_allocatorB7v160006Ev, symObjAddr: 0x36E0, symBinAddr: 0x4590, symSize: 0x20 }
  - { offsetInCU: 0x5BFD1, offset: 0x5BFD1, size: 0x8, addend: 0x0, symName: __ZNSt3__112basic_stringIcNS_11char_traitsIcEENS_9allocatorIcEEEC1B7v160006ENS_24__uninitialized_size_tagEmRKS4_, symObjAddr: 0x3700, symBinAddr: 0x45B0, symSize: 0x30 }
  - { offsetInCU: 0x5C025, offset: 0x5C025, size: 0x8, addend: 0x0, symName: __ZNSt3__112basic_stringIcNS_11char_traitsIcEENS_9allocatorIcEEE13__get_pointerB7v160006Ev, symObjAddr: 0x3740, symBinAddr: 0x45F0, symSize: 0x50 }
  - { offsetInCU: 0x5C04B, offset: 0x5C04B, size: 0x8, addend: 0x0, symName: __ZNSt3__111char_traitsIcE4copyEPcPKcm, symObjAddr: 0x3790, symBinAddr: 0x4640, symSize: 0x70 }
  - { offsetInCU: 0x5C08A, offset: 0x5C08A, size: 0x8, addend: 0x0, symName: __ZNKSt3__112basic_stringIcNS_11char_traitsIcEENS_9allocatorIcEEE4dataB7v160006Ev, symObjAddr: 0x3800, symBinAddr: 0x46B0, symSize: 0x30 }
  - { offsetInCU: 0x5C0B0, offset: 0x5C0B0, size: 0x8, addend: 0x0, symName: __ZNSt3__111char_traitsIcE6assignEPcmc, symObjAddr: 0x3830, symBinAddr: 0x46E0, symSize: 0x40 }
  - { offsetInCU: 0x5C0EF, offset: 0x5C0EF, size: 0x8, addend: 0x0, symName: __ZNKSt3__112basic_stringIcNS_11char_traitsIcEENS_9allocatorIcEEE9__is_longB7v160006Ev, symObjAddr: 0x3870, symBinAddr: 0x4720, symSize: 0x30 }
  - { offsetInCU: 0x5C115, offset: 0x5C115, size: 0x8, addend: 0x0, symName: __ZNKSt3__112basic_stringIcNS_11char_traitsIcEENS_9allocatorIcEEE15__get_long_sizeB7v160006Ev, symObjAddr: 0x38A0, symBinAddr: 0x4750, symSize: 0x20 }
  - { offsetInCU: 0x5C13B, offset: 0x5C13B, size: 0x8, addend: 0x0, symName: __ZNKSt3__112basic_stringIcNS_11char_traitsIcEENS_9allocatorIcEEE16__get_short_sizeB7v160006Ev, symObjAddr: 0x38C0, symBinAddr: 0x4770, symSize: 0x30 }
  - { offsetInCU: 0x5C161, offset: 0x5C161, size: 0x8, addend: 0x0, symName: __ZNKSt3__117__compressed_pairINS_12basic_stringIcNS_11char_traitsIcEENS_9allocatorIcEEE5__repES5_E5firstB7v160006Ev, symObjAddr: 0x38F0, symBinAddr: 0x47A0, symSize: 0x20 }
  - { offsetInCU: 0x5C187, offset: 0x5C187, size: 0x8, addend: 0x0, symName: __ZNKSt3__122__compressed_pair_elemINS_12basic_stringIcNS_11char_traitsIcEENS_9allocatorIcEEE5__repELi0ELb0EE5__getB7v160006Ev, symObjAddr: 0x3910, symBinAddr: 0x47C0, symSize: 0x10 }
  - { offsetInCU: 0x5C1AD, offset: 0x5C1AD, size: 0x8, addend: 0x0, symName: __ZNKSt3__112basic_stringIcNS_11char_traitsIcEENS_9allocatorIcEEE7__allocB7v160006Ev, symObjAddr: 0x3940, symBinAddr: 0x47F0, symSize: 0x20 }
  - { offsetInCU: 0x5C1D3, offset: 0x5C1D3, size: 0x8, addend: 0x0, symName: __ZNKSt3__117__compressed_pairINS_12basic_stringIcNS_11char_traitsIcEENS_9allocatorIcEEE5__repES5_E6secondB7v160006Ev, symObjAddr: 0x3960, symBinAddr: 0x4810, symSize: 0x20 }
  - { offsetInCU: 0x5C1F9, offset: 0x5C1F9, size: 0x8, addend: 0x0, symName: __ZNKSt3__122__compressed_pair_elemINS_9allocatorIcEELi1ELb1EE5__getB7v160006Ev, symObjAddr: 0x3980, symBinAddr: 0x4830, symSize: 0x10 }
  - { offsetInCU: 0x5C21F, offset: 0x5C21F, size: 0x8, addend: 0x0, symName: __ZNSt3__112basic_stringIcNS_11char_traitsIcEENS_9allocatorIcEEEC2B7v160006ENS_24__uninitialized_size_tagEmRKS4_, symObjAddr: 0x3990, symBinAddr: 0x4840, symSize: 0x120 }
  - { offsetInCU: 0x5C2A7, offset: 0x5C2A7, size: 0x8, addend: 0x0, symName: __ZNSt3__117__compressed_pairINS_12basic_stringIcNS_11char_traitsIcEENS_9allocatorIcEEE5__repES5_EC1B7v160006INS_18__default_init_tagERKS5_EEOT_OT0_, symObjAddr: 0x3AB0, symBinAddr: 0x4960, symSize: 0x30 }
  - { offsetInCU: 0x5C2FF, offset: 0x5C2FF, size: 0x8, addend: 0x0, symName: __ZNKSt3__112basic_stringIcNS_11char_traitsIcEENS_9allocatorIcEEE8max_sizeB7v160006Ev, symObjAddr: 0x3AE0, symBinAddr: 0x4990, symSize: 0xA0 }
  - { offsetInCU: 0x5C351, offset: 0x5C351, size: 0x8, addend: 0x0, symName: __ZNKSt3__112basic_stringIcNS_11char_traitsIcEENS_9allocatorIcEEE20__throw_length_errorB7v160006Ev, symObjAddr: 0x3B80, symBinAddr: 0x4A30, symSize: 0x20 }
  - { offsetInCU: 0x5C377, offset: 0x5C377, size: 0x8, addend: 0x0, symName: __ZNSt3__112basic_stringIcNS_11char_traitsIcEENS_9allocatorIcEEE13__fits_in_ssoB7v160006Em, symObjAddr: 0x3BA0, symBinAddr: 0x4A50, symSize: 0x20 }
  - { offsetInCU: 0x5C39B, offset: 0x5C39B, size: 0x8, addend: 0x0, symName: __ZNSt3__117__compressed_pairINS_12basic_stringIcNS_11char_traitsIcEENS_9allocatorIcEEE5__repES5_E5firstB7v160006Ev, symObjAddr: 0x3BC0, symBinAddr: 0x4A70, symSize: 0x20 }
  - { offsetInCU: 0x5C3C1, offset: 0x5C3C1, size: 0x8, addend: 0x0, symName: __ZNSt3__112basic_stringIcNS_11char_traitsIcEENS_9allocatorIcEEE16__set_short_sizeB7v160006Em, symObjAddr: 0x3BE0, symBinAddr: 0x4A90, symSize: 0x50 }
  - { offsetInCU: 0x5C3F6, offset: 0x5C3F6, size: 0x8, addend: 0x0, symName: __ZNSt3__112basic_stringIcNS_11char_traitsIcEENS_9allocatorIcEEE11__recommendB7v160006Em, symObjAddr: 0x3C30, symBinAddr: 0x4AE0, symSize: 0x70 }
  - { offsetInCU: 0x5C429, offset: 0x5C429, size: 0x8, addend: 0x0, symName: __ZNSt3__116allocator_traitsINS_9allocatorIcEEE8allocateB7v160006ERS2_m, symObjAddr: 0x3CA0, symBinAddr: 0x4B50, symSize: 0x30 }
  - { offsetInCU: 0x5C45C, offset: 0x5C45C, size: 0x8, addend: 0x0, symName: __ZNSt3__112basic_stringIcNS_11char_traitsIcEENS_9allocatorIcEEE7__allocB7v160006Ev, symObjAddr: 0x3CD0, symBinAddr: 0x4B80, symSize: 0x20 }
  - { offsetInCU: 0x5C482, offset: 0x5C482, size: 0x8, addend: 0x0, symName: __ZNSt3__112basic_stringIcNS_11char_traitsIcEENS_9allocatorIcEEE16__begin_lifetimeB7v160006EPcm, symObjAddr: 0x3CF0, symBinAddr: 0x4BA0, symSize: 0x10 }
  - { offsetInCU: 0x5C4B5, offset: 0x5C4B5, size: 0x8, addend: 0x0, symName: __ZNSt3__112basic_stringIcNS_11char_traitsIcEENS_9allocatorIcEEE14__set_long_capB7v160006Em, symObjAddr: 0x3D00, symBinAddr: 0x4BB0, symSize: 0x70 }
  - { offsetInCU: 0x5C4EA, offset: 0x5C4EA, size: 0x8, addend: 0x0, symName: __ZNSt3__112basic_stringIcNS_11char_traitsIcEENS_9allocatorIcEEE18__set_long_pointerB7v160006EPc, symObjAddr: 0x3D70, symBinAddr: 0x4C20, symSize: 0x30 }
  - { offsetInCU: 0x5C51F, offset: 0x5C51F, size: 0x8, addend: 0x0, symName: __ZNSt3__112basic_stringIcNS_11char_traitsIcEENS_9allocatorIcEEE15__set_long_sizeB7v160006Em, symObjAddr: 0x3DA0, symBinAddr: 0x4C50, symSize: 0x30 }
  - { offsetInCU: 0x5C554, offset: 0x5C554, size: 0x8, addend: 0x0, symName: __ZNSt3__117__compressed_pairINS_12basic_stringIcNS_11char_traitsIcEENS_9allocatorIcEEE5__repES5_EC2B7v160006INS_18__default_init_tagERKS5_EEOT_OT0_, symObjAddr: 0x3DE0, symBinAddr: 0x4C90, symSize: 0x40 }
  - { offsetInCU: 0x5C5AC, offset: 0x5C5AC, size: 0x8, addend: 0x0, symName: __ZNSt3__122__compressed_pair_elemINS_12basic_stringIcNS_11char_traitsIcEENS_9allocatorIcEEE5__repELi0ELb0EEC2B7v160006ENS_18__default_init_tagE, symObjAddr: 0x3E20, symBinAddr: 0x4CD0, symSize: 0x10 }
  - { offsetInCU: 0x5C5E1, offset: 0x5C5E1, size: 0x8, addend: 0x0, symName: __ZNSt3__122__compressed_pair_elemINS_9allocatorIcEELi1ELb1EEC2B7v160006IRKS2_vEEOT_, symObjAddr: 0x3E30, symBinAddr: 0x4CE0, symSize: 0x10 }
  - { offsetInCU: 0x5C623, offset: 0x5C623, size: 0x8, addend: 0x0, symName: __ZNSt3__116allocator_traitsINS_9allocatorIcEEE8max_sizeB7v160006IS2_vvEEmRKS2_, symObjAddr: 0x3E40, symBinAddr: 0x4CF0, symSize: 0x20 }
  - { offsetInCU: 0x5C64F, offset: 0x5C64F, size: 0x8, addend: 0x0, symName: __ZNSt3__114numeric_limitsImE3maxB7v160006Ev, symObjAddr: 0x3E60, symBinAddr: 0x4D10, symSize: 0x10 }
  - { offsetInCU: 0x5C663, offset: 0x5C663, size: 0x8, addend: 0x0, symName: __ZNSt3__123__libcpp_numeric_limitsImLb1EE3maxB7v160006Ev, symObjAddr: 0x3E70, symBinAddr: 0x4D20, symSize: 0x10 }
  - { offsetInCU: 0x5C677, offset: 0x5C677, size: 0x8, addend: 0x0, symName: __ZNSt12length_errorC1B7v160006EPKc, symObjAddr: 0x3EF0, symBinAddr: 0x4DA0, symSize: 0x30 }
  - { offsetInCU: 0x5C6AF, offset: 0x5C6AF, size: 0x8, addend: 0x0, symName: __ZNSt12length_errorC2B7v160006EPKc, symObjAddr: 0x3F20, symBinAddr: 0x4DD0, symSize: 0x40 }
  - { offsetInCU: 0x5C6E7, offset: 0x5C6E7, size: 0x8, addend: 0x0, symName: __ZNSt3__122__compressed_pair_elemINS_12basic_stringIcNS_11char_traitsIcEENS_9allocatorIcEEE5__repELi0ELb0EE5__getB7v160006Ev, symObjAddr: 0x3F60, symBinAddr: 0x4E10, symSize: 0x10 }
  - { offsetInCU: 0x5C70D, offset: 0x5C70D, size: 0x8, addend: 0x0, symName: __ZNSt3__112basic_stringIcNS_11char_traitsIcEENS_9allocatorIcEEE10__align_itB7v160006ILm16EEEmm, symObjAddr: 0x3F70, symBinAddr: 0x4E20, symSize: 0x20 }
  - { offsetInCU: 0x5C73B, offset: 0x5C73B, size: 0x8, addend: 0x0, symName: __ZNSt3__19allocatorIcE8allocateB7v160006Em, symObjAddr: 0x3F90, symBinAddr: 0x4E40, symSize: 0x50 }
  - { offsetInCU: 0x5C76F, offset: 0x5C76F, size: 0x8, addend: 0x0, symName: __ZNSt3__117__compressed_pairINS_12basic_stringIcNS_11char_traitsIcEENS_9allocatorIcEEE5__repES5_E6secondB7v160006Ev, symObjAddr: 0x40F0, symBinAddr: 0x4FA0, symSize: 0x20 }
  - { offsetInCU: 0x5C795, offset: 0x5C795, size: 0x8, addend: 0x0, symName: __ZNSt3__122__compressed_pair_elemINS_9allocatorIcEELi1ELb1EE5__getB7v160006Ev, symObjAddr: 0x4110, symBinAddr: 0x4FC0, symSize: 0x10 }
  - { offsetInCU: 0x5C7BB, offset: 0x5C7BB, size: 0x8, addend: 0x0, symName: __ZNSt3__112basic_stringIcNS_11char_traitsIcEENS_9allocatorIcEEE18__get_long_pointerB7v160006Ev, symObjAddr: 0x4120, symBinAddr: 0x4FD0, symSize: 0x20 }
  - { offsetInCU: 0x5C7E1, offset: 0x5C7E1, size: 0x8, addend: 0x0, symName: __ZNSt3__112basic_stringIcNS_11char_traitsIcEENS_9allocatorIcEEE19__get_short_pointerB7v160006Ev, symObjAddr: 0x4140, symBinAddr: 0x4FF0, symSize: 0x30 }
  - { offsetInCU: 0x5C807, offset: 0x5C807, size: 0x8, addend: 0x0, symName: __ZNSt3__114pointer_traitsIPcE10pointer_toB7v160006ERc, symObjAddr: 0x4170, symBinAddr: 0x5020, symSize: 0x10 }
  - { offsetInCU: 0x5C850, offset: 0x5C850, size: 0x8, addend: 0x0, symName: __ZNKSt3__114__copy_trivialclB7v160006IKccLi0EEENS_4pairIPT_PT0_EES5_S5_S7_, symObjAddr: 0x4370, symBinAddr: 0x5220, symSize: 0x40 }
  - { offsetInCU: 0x5C8D4, offset: 0x5C8D4, size: 0x8, addend: 0x0, symName: __ZNSt3__119__unwrap_range_implIPKcS2_E8__unwrapB7v160006ES2_S2_, symObjAddr: 0x4470, symBinAddr: 0x5320, symSize: 0x50 }
  - { offsetInCU: 0x5C90B, offset: 0x5C90B, size: 0x8, addend: 0x0, symName: __ZNSt3__14pairIPKcS2_EC1B7v160006IS2_S2_LPv0EEEOT_OT0_, symObjAddr: 0x44E0, symBinAddr: 0x5390, symSize: 0x30 }
  - { offsetInCU: 0x5C969, offset: 0x5C969, size: 0x8, addend: 0x0, symName: __ZNSt3__118__unwrap_iter_implIPKcLb1EE8__unwrapB7v160006ES2_, symObjAddr: 0x4510, symBinAddr: 0x53C0, symSize: 0x20 }
  - { offsetInCU: 0x5C98C, offset: 0x5C98C, size: 0x8, addend: 0x0, symName: __ZNSt3__14pairIPKcS2_EC2B7v160006IS2_S2_LPv0EEEOT_OT0_, symObjAddr: 0x4540, symBinAddr: 0x53F0, symSize: 0x30 }
  - { offsetInCU: 0x5C9F6, offset: 0x5C9F6, size: 0x8, addend: 0x0, symName: __ZNSt3__14pairIPKcPcEC1B7v160006IRS2_S3_LPv0EEEOT_OT0_, symObjAddr: 0x4610, symBinAddr: 0x54C0, symSize: 0x30 }
  - { offsetInCU: 0x5CA54, offset: 0x5CA54, size: 0x8, addend: 0x0, symName: __ZNSt3__14pairIPKcPcEC2B7v160006IRS2_S3_LPv0EEEOT_OT0_, symObjAddr: 0x4640, symBinAddr: 0x54F0, symSize: 0x30 }
  - { offsetInCU: 0x5CAB2, offset: 0x5CAB2, size: 0x8, addend: 0x0, symName: __ZNSt3__118__unwrap_iter_implIPcLb1EE8__unwrapB7v160006ES1_, symObjAddr: 0x4670, symBinAddr: 0x5520, symSize: 0x20 }
  - { offsetInCU: 0x5CAD5, offset: 0x5CAD5, size: 0x8, addend: 0x0, symName: __ZNSt3__14pairIPKcPcEC1B7v160006IS2_S3_LPv0EEEOT_OT0_, symObjAddr: 0x4690, symBinAddr: 0x5540, symSize: 0x30 }
  - { offsetInCU: 0x5CB33, offset: 0x5CB33, size: 0x8, addend: 0x0, symName: __ZNSt3__14pairIPKcPcEC2B7v160006IS2_S3_LPv0EEEOT_OT0_, symObjAddr: 0x46C0, symBinAddr: 0x5570, symSize: 0x30 }
  - { offsetInCU: 0x5CB91, offset: 0x5CB91, size: 0x8, addend: 0x0, symName: __ZNSt3__119__unwrap_range_implIPKcS2_E8__rewrapB7v160006ES2_S2_, symObjAddr: 0x46F0, symBinAddr: 0x55A0, symSize: 0x30 }
  - { offsetInCU: 0x5CBC2, offset: 0x5CBC2, size: 0x8, addend: 0x0, symName: __ZNSt3__118__unwrap_iter_implIPKcLb1EE8__rewrapB7v160006ES2_S2_, symObjAddr: 0x4760, symBinAddr: 0x5610, symSize: 0x40 }
  - { offsetInCU: 0x5CBF3, offset: 0x5CBF3, size: 0x8, addend: 0x0, symName: __ZNSt3__118__unwrap_iter_implIPcLb1EE8__rewrapB7v160006ES1_S1_, symObjAddr: 0x47A0, symBinAddr: 0x5650, symSize: 0x40 }
  - { offsetInCU: 0x5CC24, offset: 0x5CC24, size: 0x8, addend: 0x0, symName: __ZNKSt3__112basic_stringIcNS_11char_traitsIcEENS_9allocatorIcEEE13__get_pointerB7v160006Ev, symObjAddr: 0x47E0, symBinAddr: 0x5690, symSize: 0x50 }
  - { offsetInCU: 0x5CC4A, offset: 0x5CC4A, size: 0x8, addend: 0x0, symName: __ZNKSt3__112basic_stringIcNS_11char_traitsIcEENS_9allocatorIcEEE18__get_long_pointerB7v160006Ev, symObjAddr: 0x4830, symBinAddr: 0x56E0, symSize: 0x20 }
  - { offsetInCU: 0x5CC70, offset: 0x5CC70, size: 0x8, addend: 0x0, symName: __ZNKSt3__112basic_stringIcNS_11char_traitsIcEENS_9allocatorIcEEE19__get_short_pointerB7v160006Ev, symObjAddr: 0x4850, symBinAddr: 0x5700, symSize: 0x30 }
  - { offsetInCU: 0x5CC96, offset: 0x5CC96, size: 0x8, addend: 0x0, symName: __ZNSt3__114pointer_traitsIPKcE10pointer_toB7v160006ERS1_, symObjAddr: 0x4880, symBinAddr: 0x5730, symSize: 0x10 }
  - { offsetInCU: 0x5CCB9, offset: 0x5CCB9, size: 0x8, addend: 0x0, symName: __ZNSt3__112basic_stringIcNS_11char_traitsIcEENS_9allocatorIcEEEC2B7v160006IDnEEPKc, symObjAddr: 0x4930, symBinAddr: 0x57E0, symSize: 0x60 }
  - { offsetInCU: 0x5CCF7, offset: 0x5CCF7, size: 0x8, addend: 0x0, symName: __ZNSt3__117__compressed_pairINS_12basic_stringIcNS_11char_traitsIcEENS_9allocatorIcEEE5__repES5_EC1B7v160006INS_18__default_init_tagESA_EEOT_OT0_, symObjAddr: 0x4990, symBinAddr: 0x5840, symSize: 0x30 }
  - { offsetInCU: 0x5CD4F, offset: 0x5CD4F, size: 0x8, addend: 0x0, symName: __ZNSt3__117__compressed_pairINS_12basic_stringIcNS_11char_traitsIcEENS_9allocatorIcEEE5__repES5_EC2B7v160006INS_18__default_init_tagESA_EEOT_OT0_, symObjAddr: 0x49C0, symBinAddr: 0x5870, symSize: 0x30 }
  - { offsetInCU: 0x5CDA7, offset: 0x5CDA7, size: 0x8, addend: 0x0, symName: __ZNSt3__122__compressed_pair_elemINS_9allocatorIcEELi1ELb1EEC2B7v160006ENS_18__default_init_tagE, symObjAddr: 0x49F0, symBinAddr: 0x58A0, symSize: 0x20 }
  - { offsetInCU: 0x5CDDC, offset: 0x5CDDC, size: 0x8, addend: 0x0, symName: __ZNSt3__19allocatorIcEC2B7v160006Ev, symObjAddr: 0x4A10, symBinAddr: 0x58C0, symSize: 0x20 }
  - { offsetInCU: 0x5CE06, offset: 0x5CE06, size: 0x8, addend: 0x0, symName: __ZNSt3__116__non_trivial_ifILb1ENS_9allocatorIcEEEC2B7v160006Ev, symObjAddr: 0x4A30, symBinAddr: 0x58E0, symSize: 0x10 }
  - { offsetInCU: 0x5CE30, offset: 0x5CE30, size: 0x8, addend: 0x0, symName: __ZL9Py_INCREFP7_object, symObjAddr: 0x4A40, symBinAddr: 0x58F0, symSize: 0x20 }
  - { offsetInCU: 0x5CE5B, offset: 0x5CE5B, size: 0x8, addend: 0x0, symName: __ZN8pybind116handleC2IP7_objectLi0EEET_, symObjAddr: 0x4A60, symBinAddr: 0x5910, symSize: 0x20 }
  - { offsetInCU: 0x5CEA2, offset: 0x5CEA2, size: 0x8, addend: 0x0, symName: __ZNKR8pybind116handle7dec_refEv, symObjAddr: 0x4A80, symBinAddr: 0x5930, symSize: 0xA0 }
  - { offsetInCU: 0x5CEC8, offset: 0x5CEC8, size: 0x8, addend: 0x0, symName: __ZL10Py_XDECREFP7_object, symObjAddr: 0x4B20, symBinAddr: 0x59D0, symSize: 0x30 }
  - { offsetInCU: 0x5CEF3, offset: 0x5CEF3, size: 0x8, addend: 0x0, symName: __ZL9Py_DECREFP7_object, symObjAddr: 0x4B50, symBinAddr: 0x5A00, symSize: 0x40 }
  - { offsetInCU: 0x5CF1E, offset: 0x5CF1E, size: 0x8, addend: 0x0, symName: __ZN8pybind1117error_already_setC2Ev, symObjAddr: 0x4B90, symBinAddr: 0x5A40, symSize: 0xC0 }
  - { offsetInCU: 0x5CF48, offset: 0x5CF48, size: 0x8, addend: 0x0, symName: __ZNSt9exceptionC2B7v160006Ev, symObjAddr: 0x4C50, symBinAddr: 0x5B00, symSize: 0x20 }
  - { offsetInCU: 0x5CF72, offset: 0x5CF72, size: 0x8, addend: 0x0, symName: __ZN8pybind116detail25error_fetch_and_normalizeC1EPKc, symObjAddr: 0x4C70, symBinAddr: 0x5B20, symSize: 0x30 }
  - { offsetInCU: 0x5CFAB, offset: 0x5CFAB, size: 0x8, addend: 0x0, symName: __ZN8pybind1117error_already_set23m_fetched_error_deleterEPNS_6detail25error_fetch_and_normalizeE, symObjAddr: 0x4CA0, symBinAddr: 0x5B50, symSize: 0x80 }
  - { offsetInCU: 0x5CFFD, offset: 0x5CFFD, size: 0x8, addend: 0x0, symName: __ZNSt3__110shared_ptrIN8pybind116detail25error_fetch_and_normalizeEEC1B7v160006IS3_PFvPS3_EvEEPT_T0_, symObjAddr: 0x4D20, symBinAddr: 0x5BD0, symSize: 0x30 }
  - { offsetInCU: 0x5D058, offset: 0x5D058, size: 0x8, addend: 0x0, symName: __ZN8pybind116detail25error_fetch_and_normalizeC2EPKc, symObjAddr: 0x4D50, symBinAddr: 0x5C00, symSize: 0x740 }
  - { offsetInCU: 0x5D0D5, offset: 0x5D0D5, size: 0x8, addend: 0x0, symName: __ZN8pybind116handle3ptrEv, symObjAddr: 0x5490, symBinAddr: 0x6340, symSize: 0x10 }
  - { offsetInCU: 0x5D0FB, offset: 0x5D0FB, size: 0x8, addend: 0x0, symName: __ZNSt3__112basic_stringIcNS_11char_traitsIcEENS_9allocatorIcEEEaSB7v160006EPKc, symObjAddr: 0x5640, symBinAddr: 0x64F0, symSize: 0x30 }
  - { offsetInCU: 0x5D130, offset: 0x5D130, size: 0x8, addend: 0x0, symName: __ZNSt3__112basic_stringIcNS_11char_traitsIcEENS_9allocatorIcEEEpLB7v160006EPKc, symObjAddr: 0x56D0, symBinAddr: 0x6580, symSize: 0x30 }
  - { offsetInCU: 0x5D165, offset: 0x5D165, size: 0x8, addend: 0x0, symName: __ZNSt3__112basic_stringIcNS_11char_traitsIcEENS_9allocatorIcEEEpLB7v160006ERKS5_, symObjAddr: 0x5700, symBinAddr: 0x65B0, symSize: 0x30 }
  - { offsetInCU: 0x5D19A, offset: 0x5D19A, size: 0x8, addend: 0x0, symName: __ZNK8pybind116detail25error_fetch_and_normalize22format_value_and_traceEv, symObjAddr: 0x5730, symBinAddr: 0x65E0, symSize: 0xF80 }
  - { offsetInCU: 0x5D355, offset: 0x5D355, size: 0x8, addend: 0x0, symName: __ZNSt3__112basic_stringIcNS_11char_traitsIcEENS_9allocatorIcEEEC1B7v160006EOS5_, symObjAddr: 0x66B0, symBinAddr: 0x7560, symSize: 0x30 }
  - { offsetInCU: 0x5D38E, offset: 0x5D38E, size: 0x8, addend: 0x0, symName: __ZNSt3__112basic_stringIcNS_11char_traitsIcEENS_9allocatorIcEEEC2B7v160006EOS5_, symObjAddr: 0x66E0, symBinAddr: 0x7590, symSize: 0x80 }
  - { offsetInCU: 0x5D3C7, offset: 0x5D3C7, size: 0x8, addend: 0x0, symName: __ZNSt3__112basic_stringIcNS_11char_traitsIcEENS_9allocatorIcEEE14__default_initB7v160006Ev, symObjAddr: 0x6760, symBinAddr: 0x7610, symSize: 0x50 }
  - { offsetInCU: 0x5D3EC, offset: 0x5D3EC, size: 0x8, addend: 0x0, symName: __ZL12PyType_CheckP7_object, symObjAddr: 0x67C0, symBinAddr: 0x7670, symSize: 0x30 }
  - { offsetInCU: 0x5D41A, offset: 0x5D41A, size: 0x8, addend: 0x0, symName: __ZL17PyType_HasFeatureP11_typeobjectm, symObjAddr: 0x67F0, symBinAddr: 0x76A0, symSize: 0x40 }
  - { offsetInCU: 0x5D467, offset: 0x5D467, size: 0x8, addend: 0x0, symName: __ZNKSt3__112basic_stringIcNS_11char_traitsIcEENS_9allocatorIcEEEcvNS_17basic_string_viewIcS2_EEB7v160006Ev, symObjAddr: 0x68C0, symBinAddr: 0x7770, symSize: 0x50 }
  - { offsetInCU: 0x5D48D, offset: 0x5D48D, size: 0x8, addend: 0x0, symName: __ZNSt3__117basic_string_viewIcNS_11char_traitsIcEEEC1B7v160006EPKc, symObjAddr: 0x6910, symBinAddr: 0x77C0, symSize: 0x30 }
  - { offsetInCU: 0x5D4C6, offset: 0x5D4C6, size: 0x8, addend: 0x0, symName: __ZNKSt3__117basic_string_viewIcNS_11char_traitsIcEEE4sizeB7v160006Ev, symObjAddr: 0x6940, symBinAddr: 0x77F0, symSize: 0x20 }
  - { offsetInCU: 0x5D4EC, offset: 0x5D4EC, size: 0x8, addend: 0x0, symName: __ZNKSt3__117basic_string_viewIcNS_11char_traitsIcEEE7compareES3_, symObjAddr: 0x6960, symBinAddr: 0x7810, symSize: 0x100 }
  - { offsetInCU: 0x5D53F, offset: 0x5D53F, size: 0x8, addend: 0x0, symName: __ZNSt3__111char_traitsIcE7compareEPKcS3_m, symObjAddr: 0x6A90, symBinAddr: 0x7940, symSize: 0x60 }
  - { offsetInCU: 0x5D57E, offset: 0x5D57E, size: 0x8, addend: 0x0, symName: __ZNKSt3__117basic_string_viewIcNS_11char_traitsIcEEE4dataB7v160006Ev, symObjAddr: 0x6AF0, symBinAddr: 0x79A0, symSize: 0x20 }
  - { offsetInCU: 0x5D5AE, offset: 0x5D5AE, size: 0x8, addend: 0x0, symName: __ZNKSt3__16__lessImmEclB7v160006ERKmS3_, symObjAddr: 0x6B60, symBinAddr: 0x7A10, symSize: 0x30 }
  - { offsetInCU: 0x5D5F0, offset: 0x5D5F0, size: 0x8, addend: 0x0, symName: __ZNSt3__117basic_string_viewIcNS_11char_traitsIcEEEC1B7v160006EPKcm, symObjAddr: 0x6BC0, symBinAddr: 0x7A70, symSize: 0x30 }
  - { offsetInCU: 0x5D638, offset: 0x5D638, size: 0x8, addend: 0x0, symName: __ZNSt3__117basic_string_viewIcNS_11char_traitsIcEEEC2B7v160006EPKcm, symObjAddr: 0x6BF0, symBinAddr: 0x7AA0, symSize: 0x50 }
  - { offsetInCU: 0x5D680, offset: 0x5D680, size: 0x8, addend: 0x0, symName: __ZNSt3__117basic_string_viewIcNS_11char_traitsIcEEEC2B7v160006EPKc, symObjAddr: 0x6C40, symBinAddr: 0x7AF0, symSize: 0x40 }
  - { offsetInCU: 0x5D6B9, offset: 0x5D6B9, size: 0x8, addend: 0x0, symName: __ZNSt3__112basic_stringIcNS_11char_traitsIcEENS_9allocatorIcEEE6appendB7v160006ERKS5_, symObjAddr: 0x6CA0, symBinAddr: 0x7B50, symSize: 0x50 }
  - { offsetInCU: 0x5D6EE, offset: 0x5D6EE, size: 0x8, addend: 0x0, symName: __ZNK8pybind116handle3ptrEv, symObjAddr: 0x6D30, symBinAddr: 0x7BE0, symSize: 0x20 }
  - { offsetInCU: 0x5D714, offset: 0x5D714, size: 0x8, addend: 0x0, symName: __ZNSt3__112basic_stringIcNS_11char_traitsIcEENS_9allocatorIcEEEaSB7v160006EOS5_, symObjAddr: 0x6DD0, symBinAddr: 0x7C80, symSize: 0x30 }
  - { offsetInCU: 0x5D749, offset: 0x5D749, size: 0x8, addend: 0x0, symName: __ZNSt3__112basic_stringIcNS_11char_traitsIcEENS_9allocatorIcEEEC1B7v160006EPKcm, symObjAddr: 0x6E00, symBinAddr: 0x7CB0, symSize: 0x30 }
  - { offsetInCU: 0x5D791, offset: 0x5D791, size: 0x8, addend: 0x0, symName: __ZNSt3__112basic_stringIcNS_11char_traitsIcEENS_9allocatorIcEEEpLB7v160006Ec, symObjAddr: 0x6E80, symBinAddr: 0x7D30, symSize: 0x30 }
  - { offsetInCU: 0x5D7C6, offset: 0x5D7C6, size: 0x8, addend: 0x0, symName: __ZNKSt3__112basic_stringIcNS_11char_traitsIcEENS_9allocatorIcEEE5emptyB7v160006Ev, symObjAddr: 0x6EB0, symBinAddr: 0x7D60, symSize: 0x30 }
  - { offsetInCU: 0x5D7EC, offset: 0x5D7EC, size: 0x8, addend: 0x0, symName: __ZNK8pybind116handle4castINSt3__112basic_stringIcNS2_11char_traitsIcEENS2_9allocatorIcEEEEEET_v, symObjAddr: 0x6EE0, symBinAddr: 0x7D90, symSize: 0x30 }
  - { offsetInCU: 0x5D81E, offset: 0x5D81E, size: 0x8, addend: 0x0, symName: __ZN8pybind116objectC1ENS_6handleENS0_8stolen_tE, symObjAddr: 0x6F10, symBinAddr: 0x7DC0, symSize: 0x30 }
  - { offsetInCU: 0x5D863, offset: 0x5D863, size: 0x8, addend: 0x0, symName: __ZN8pybind116objectC2ENS_6handleENS0_8stolen_tE, symObjAddr: 0x6F40, symBinAddr: 0x7DF0, symSize: 0x20 }
  - { offsetInCU: 0x5D8A8, offset: 0x5D8A8, size: 0x8, addend: 0x0, symName: __ZN8pybind116detail25error_fetch_and_normalizeD1Ev, symObjAddr: 0x6F60, symBinAddr: 0x7E10, symSize: 0x20 }
  - { offsetInCU: 0x5D8D5, offset: 0x5D8D5, size: 0x8, addend: 0x0, symName: __ZN8pybind116detail25error_fetch_and_normalizeD2Ev, symObjAddr: 0x6F80, symBinAddr: 0x7E30, symSize: 0x50 }
  - { offsetInCU: 0x5D902, offset: 0x5D902, size: 0x8, addend: 0x0, symName: __ZNSt3__112basic_stringIcNS_11char_traitsIcEENS_9allocatorIcEEE13__move_assignB7v160006ERS5_NS_17integral_constantIbLb1EEE, symObjAddr: 0x6FD0, symBinAddr: 0x7E80, symSize: 0xD0 }
  - { offsetInCU: 0x5D945, offset: 0x5D945, size: 0x8, addend: 0x0, symName: __ZNSt3__116allocator_traitsINS_9allocatorIcEEE10deallocateB7v160006ERS2_Pcm, symObjAddr: 0x70A0, symBinAddr: 0x7F50, symSize: 0x30 }
  - { offsetInCU: 0x5D987, offset: 0x5D987, size: 0x8, addend: 0x0, symName: __ZNKSt3__112basic_stringIcNS_11char_traitsIcEENS_9allocatorIcEEE14__get_long_capB7v160006Ev, symObjAddr: 0x70D0, symBinAddr: 0x7F80, symSize: 0x30 }
  - { offsetInCU: 0x5D9AD, offset: 0x5D9AD, size: 0x8, addend: 0x0, symName: __ZNSt3__112basic_stringIcNS_11char_traitsIcEENS_9allocatorIcEEE19__move_assign_allocB7v160006ERS5_, symObjAddr: 0x7100, symBinAddr: 0x7FB0, symSize: 0x30 }
  - { offsetInCU: 0x5D9E2, offset: 0x5D9E2, size: 0x8, addend: 0x0, symName: __ZNSt3__111char_traitsIcE6assignERcRKc, symObjAddr: 0x7130, symBinAddr: 0x7FE0, symSize: 0x20 }
  - { offsetInCU: 0x5DA13, offset: 0x5DA13, size: 0x8, addend: 0x0, symName: __ZNSt3__19allocatorIcE10deallocateB7v160006EPcm, symObjAddr: 0x7150, symBinAddr: 0x8000, symSize: 0x40 }
  - { offsetInCU: 0x5DA55, offset: 0x5DA55, size: 0x8, addend: 0x0, symName: __ZNSt3__112basic_stringIcNS_11char_traitsIcEENS_9allocatorIcEEE19__move_assign_allocB7v160006ERS5_NS_17integral_constantIbLb1EEE, symObjAddr: 0x7290, symBinAddr: 0x8140, symSize: 0x30 }
  - { offsetInCU: 0x5DA96, offset: 0x5DA96, size: 0x8, addend: 0x0, symName: __ZNSt3__112basic_stringIcNS_11char_traitsIcEENS_9allocatorIcEEEC2B7v160006EPKcm, symObjAddr: 0x72C0, symBinAddr: 0x8170, symSize: 0x70 }
  - { offsetInCU: 0x5DAE3, offset: 0x5DAE3, size: 0x8, addend: 0x0, symName: __ZN8pybind116detail11type_casterINSt3__112basic_stringIcNS2_11char_traitsIcEENS2_9allocatorIcEEEEvED1Ev, symObjAddr: 0x7450, symBinAddr: 0x8300, symSize: 0x20 }
  - { offsetInCU: 0x5DB10, offset: 0x5DB10, size: 0x8, addend: 0x0, symName: __ZNO8pybind116detail13string_casterINSt3__112basic_stringIcNS2_11char_traitsIcEENS2_9allocatorIcEEEELb0EEcvOS8_Ev, symObjAddr: 0x7470, symBinAddr: 0x8320, symSize: 0x10 }
  - { offsetInCU: 0x5DB36, offset: 0x5DB36, size: 0x8, addend: 0x0, symName: __ZN8pybind116detail11type_casterINSt3__112basic_stringIcNS2_11char_traitsIcEENS2_9allocatorIcEEEEvEC1Ev, symObjAddr: 0x7480, symBinAddr: 0x8330, symSize: 0x20 }
  - { offsetInCU: 0x5DB63, offset: 0x5DB63, size: 0x8, addend: 0x0, symName: __ZN8pybind116detail11type_casterINSt3__112basic_stringIcNS2_11char_traitsIcEENS2_9allocatorIcEEEEvEC2Ev, symObjAddr: 0x7740, symBinAddr: 0x85F0, symSize: 0x20 }
  - { offsetInCU: 0x5DB90, offset: 0x5DB90, size: 0x8, addend: 0x0, symName: __ZN8pybind116detail13string_casterINSt3__112basic_stringIcNS2_11char_traitsIcEENS2_9allocatorIcEEEELb0EEC2Ev, symObjAddr: 0x7760, symBinAddr: 0x8610, symSize: 0x20 }
  - { offsetInCU: 0x5DBBD, offset: 0x5DBBD, size: 0x8, addend: 0x0, symName: __ZN8pybind116detail13string_casterINSt3__112basic_stringIcNS2_11char_traitsIcEENS2_9allocatorIcEEEELb0EE4loadENS_6handleEb, symObjAddr: 0x7780, symBinAddr: 0x8630, symSize: 0x100 }
  - { offsetInCU: 0x5DC48, offset: 0x5DC48, size: 0x8, addend: 0x0, symName: __ZN8pybind114type9handle_ofENS_6handleE, symObjAddr: 0x7880, symBinAddr: 0x8730, symSize: 0x40 }
  - { offsetInCU: 0x5DC6C, offset: 0x5DC6C, size: 0x8, addend: 0x0, symName: __ZN8pybind113strC1ENS_6handleE, symObjAddr: 0x78C0, symBinAddr: 0x8770, symSize: 0x30 }
  - { offsetInCU: 0x5DCA5, offset: 0x5DCA5, size: 0x8, addend: 0x0, symName: __ZNO8pybind116object4castINSt3__112basic_stringIcNS2_11char_traitsIcEENS2_9allocatorIcEEEEEET_v, symObjAddr: 0x78F0, symBinAddr: 0x87A0, symSize: 0x30 }
  - { offsetInCU: 0x5DCD7, offset: 0x5DCD7, size: 0x8, addend: 0x0, symName: __ZN8pybind1110cast_errorCI1St13runtime_errorERKNSt3__112basic_stringIcNS1_11char_traitsIcEENS1_9allocatorIcEEEE, symObjAddr: 0x7960, symBinAddr: 0x8810, symSize: 0x30 }
  - { offsetInCU: 0x5DD0D, offset: 0x5DD0D, size: 0x8, addend: 0x0, symName: __ZN8pybind1110cast_errorD1Ev, symObjAddr: 0x7990, symBinAddr: 0x8840, symSize: 0x20 }
  - { offsetInCU: 0x5DD3A, offset: 0x5DD3A, size: 0x8, addend: 0x0, symName: __ZN8pybind116detail13string_casterINSt3__112basic_stringIcNS2_11char_traitsIcEENS2_9allocatorIcEEEELb0EE8load_rawIcEEbNS2_9enable_ifIXsr3std7is_sameIT_cEE5valueENS_6handleEE4typeE, symObjAddr: 0x79B0, symBinAddr: 0x8860, symSize: 0x160 }
  - { offsetInCU: 0x5DDB1, offset: 0x5DDB1, size: 0x8, addend: 0x0, symName: __ZL18PyObject_TypeCheckP7_objectP11_typeobject, symObjAddr: 0x7B10, symBinAddr: 0x89C0, symSize: 0x60 }
  - { offsetInCU: 0x5DDEE, offset: 0x5DDEE, size: 0x8, addend: 0x0, symName: __ZL10Py_IS_TYPEP7_objectP11_typeobject, symObjAddr: 0x7B70, symBinAddr: 0x8A20, symSize: 0x30 }
  - { offsetInCU: 0x5DE29, offset: 0x5DE29, size: 0x8, addend: 0x0, symName: __ZN8pybind113strC2ENS_6handleE, symObjAddr: 0x7BA0, symBinAddr: 0x8A50, symSize: 0xD0 }
  - { offsetInCU: 0x5DE62, offset: 0x5DE62, size: 0x8, addend: 0x0, symName: __ZN8pybind113str7raw_strEP7_object, symObjAddr: 0x7C70, symBinAddr: 0x8B20, symSize: 0x30 }
  - { offsetInCU: 0x5DE95, offset: 0x5DE95, size: 0x8, addend: 0x0, symName: __ZN8pybind116objectD2Ev, symObjAddr: 0x7CA0, symBinAddr: 0x8B50, symSize: 0x30 }
  - { offsetInCU: 0x5DEBF, offset: 0x5DEBF, size: 0x8, addend: 0x0, symName: __ZNK8pybind116detail10object_apiINS_6handleEE9ref_countEv, symObjAddr: 0x7D30, symBinAddr: 0x8BE0, symSize: 0x30 }
  - { offsetInCU: 0x5DEE4, offset: 0x5DEE4, size: 0x8, addend: 0x0, symName: __ZL9Py_REFCNTP7_object, symObjAddr: 0x80A0, symBinAddr: 0x8F50, symSize: 0x20 }
  - { offsetInCU: 0x5DF11, offset: 0x5DF11, size: 0x8, addend: 0x0, symName: __ZNK8pybind116detail10object_apiINS_6handleEE7derivedEv, symObjAddr: 0x80C0, symBinAddr: 0x8F70, symSize: 0x10 }
  - { offsetInCU: 0x5DF37, offset: 0x5DF37, size: 0x8, addend: 0x0, symName: __ZN8pybind116detail13string_casterINSt3__112basic_stringIcNS2_11char_traitsIcEENS2_9allocatorIcEEEELb0EEcvRS8_Ev, symObjAddr: 0x80D0, symBinAddr: 0x8F80, symSize: 0x10 }
  - { offsetInCU: 0x5DF71, offset: 0x5DF71, size: 0x8, addend: 0x0, symName: __ZNKSt9type_info4nameB7v160006Ev, symObjAddr: 0x8160, symBinAddr: 0x9010, symSize: 0x20 }
  - { offsetInCU: 0x5E042, offset: 0x5E042, size: 0x8, addend: 0x0, symName: __ZNSt3__110unique_ptrIcPFvPvEEC1B7v160006ILb1EvEEPcNS_16__dependent_typeINS_27__unique_ptr_deleter_sfinaeIS3_EEXT_EE20__good_rval_ref_typeE, symObjAddr: 0x8280, symBinAddr: 0x9130, symSize: 0x30 }
  - { offsetInCU: 0x5E093, offset: 0x5E093, size: 0x8, addend: 0x0, symName: __ZNKSt3__110unique_ptrIcPFvPvEE3getB7v160006Ev, symObjAddr: 0x82B0, symBinAddr: 0x9160, symSize: 0x20 }
  - { offsetInCU: 0x5E0B9, offset: 0x5E0B9, size: 0x8, addend: 0x0, symName: __ZNSt3__110unique_ptrIcPFvPvEED1B7v160006Ev, symObjAddr: 0x8350, symBinAddr: 0x9200, symSize: 0x20 }
  - { offsetInCU: 0x5E0E3, offset: 0x5E0E3, size: 0x8, addend: 0x0, symName: __ZNSt3__110unique_ptrIcPFvPvEEC2B7v160006ILb1EvEEPcNS_16__dependent_typeINS_27__unique_ptr_deleter_sfinaeIS3_EEXT_EE20__good_rval_ref_typeE, symObjAddr: 0x8370, symBinAddr: 0x9220, symSize: 0x40 }
  - { offsetInCU: 0x5E134, offset: 0x5E134, size: 0x8, addend: 0x0, symName: __ZNSt3__117__compressed_pairIPcPFvPvEEC1B7v160006IRS1_S4_EEOT_OT0_, symObjAddr: 0x83B0, symBinAddr: 0x9260, symSize: 0x30 }
  - { offsetInCU: 0x5E18C, offset: 0x5E18C, size: 0x8, addend: 0x0, symName: __ZNSt3__117__compressed_pairIPcPFvPvEEC2B7v160006IRS1_S4_EEOT_OT0_, symObjAddr: 0x83E0, symBinAddr: 0x9290, symSize: 0x40 }
  - { offsetInCU: 0x5E1E4, offset: 0x5E1E4, size: 0x8, addend: 0x0, symName: __ZNSt3__122__compressed_pair_elemIPcLi0ELb0EEC2B7v160006IRS1_vEEOT_, symObjAddr: 0x8420, symBinAddr: 0x92D0, symSize: 0x20 }
  - { offsetInCU: 0x5E226, offset: 0x5E226, size: 0x8, addend: 0x0, symName: __ZNSt3__122__compressed_pair_elemIPFvPvELi1ELb0EEC2B7v160006IS3_vEEOT_, symObjAddr: 0x8440, symBinAddr: 0x92F0, symSize: 0x20 }
  - { offsetInCU: 0x5E268, offset: 0x5E268, size: 0x8, addend: 0x0, symName: __ZNKSt3__117__compressed_pairIPcPFvPvEE5firstB7v160006Ev, symObjAddr: 0x8460, symBinAddr: 0x9310, symSize: 0x20 }
  - { offsetInCU: 0x5E28E, offset: 0x5E28E, size: 0x8, addend: 0x0, symName: __ZNKSt3__122__compressed_pair_elemIPcLi0ELb0EE5__getB7v160006Ev, symObjAddr: 0x8480, symBinAddr: 0x9330, symSize: 0x10 }
  - { offsetInCU: 0x5E2B4, offset: 0x5E2B4, size: 0x8, addend: 0x0, symName: __ZNKSt3__112basic_stringIcNS_11char_traitsIcEENS_9allocatorIcEEE4findB7v160006ERKS5_m, symObjAddr: 0x8490, symBinAddr: 0x9340, symSize: 0x70 }
  - { offsetInCU: 0x5E2FA, offset: 0x5E2FA, size: 0x8, addend: 0x0, symName: __ZNKSt3__112basic_stringIcNS_11char_traitsIcEENS_9allocatorIcEEE6lengthB7v160006Ev, symObjAddr: 0x8500, symBinAddr: 0x93B0, symSize: 0x20 }
  - { offsetInCU: 0x5E320, offset: 0x5E320, size: 0x8, addend: 0x0, symName: __ZNSt3__111char_traitsIcE4findEPKcmRS2_, symObjAddr: 0x86F0, symBinAddr: 0x95A0, symSize: 0x70 }
  - { offsetInCU: 0x5E35F, offset: 0x5E35F, size: 0x8, addend: 0x0, symName: __ZNSt3__110unique_ptrIcPFvPvEED2B7v160006Ev, symObjAddr: 0x8790, symBinAddr: 0x9640, symSize: 0x20 }
  - { offsetInCU: 0x5E389, offset: 0x5E389, size: 0x8, addend: 0x0, symName: __ZNSt3__110unique_ptrIcPFvPvEE5resetB7v160006EPc, symObjAddr: 0x87B0, symBinAddr: 0x9660, symSize: 0x80 }
  - { offsetInCU: 0x5E3CD, offset: 0x5E3CD, size: 0x8, addend: 0x0, symName: __ZNSt3__117__compressed_pairIPcPFvPvEE5firstB7v160006Ev, symObjAddr: 0x8830, symBinAddr: 0x96E0, symSize: 0x20 }
  - { offsetInCU: 0x5E3F3, offset: 0x5E3F3, size: 0x8, addend: 0x0, symName: __ZNSt3__117__compressed_pairIPcPFvPvEE6secondB7v160006Ev, symObjAddr: 0x8850, symBinAddr: 0x9700, symSize: 0x20 }
  - { offsetInCU: 0x5E419, offset: 0x5E419, size: 0x8, addend: 0x0, symName: __ZNSt3__122__compressed_pair_elemIPcLi0ELb0EE5__getB7v160006Ev, symObjAddr: 0x8870, symBinAddr: 0x9720, symSize: 0x10 }
  - { offsetInCU: 0x5E43F, offset: 0x5E43F, size: 0x8, addend: 0x0, symName: __ZNSt3__122__compressed_pair_elemIPFvPvELi1ELb0EE5__getB7v160006Ev, symObjAddr: 0x8880, symBinAddr: 0x9730, symSize: 0x10 }
  - { offsetInCU: 0x5E465, offset: 0x5E465, size: 0x8, addend: 0x0, symName: __ZN8pybind1110cast_errorCI2St13runtime_errorERKNSt3__112basic_stringIcNS1_11char_traitsIcEENS1_9allocatorIcEEEE, symObjAddr: 0x8890, symBinAddr: 0x9740, symSize: 0x40 }
  - { offsetInCU: 0x5E4A0, offset: 0x5E4A0, size: 0x8, addend: 0x0, symName: __ZN8pybind1117builtin_exceptionCI2St13runtime_errorERKNSt3__112basic_stringIcNS1_11char_traitsIcEENS1_9allocatorIcEEEE, symObjAddr: 0x88D0, symBinAddr: 0x9780, symSize: 0x40 }
  - { offsetInCU: 0x5E4D6, offset: 0x5E4D6, size: 0x8, addend: 0x0, symName: __ZN8pybind1110cast_errorD0Ev, symObjAddr: 0x8910, symBinAddr: 0x97C0, symSize: 0x30 }
  - { offsetInCU: 0x5E503, offset: 0x5E503, size: 0x8, addend: 0x0, symName: __ZNK8pybind1110cast_error9set_errorEv, symObjAddr: 0x8940, symBinAddr: 0x97F0, symSize: 0x40 }
  - { offsetInCU: 0x5E529, offset: 0x5E529, size: 0x8, addend: 0x0, symName: __ZN8pybind1117builtin_exceptionD1Ev, symObjAddr: 0x8980, symBinAddr: 0x9830, symSize: 0x10 }
  - { offsetInCU: 0x5E556, offset: 0x5E556, size: 0x8, addend: 0x0, symName: __ZN8pybind1117builtin_exceptionD0Ev, symObjAddr: 0x8990, symBinAddr: 0x9840, symSize: 0x10 }
  - { offsetInCU: 0x5E583, offset: 0x5E583, size: 0x8, addend: 0x0, symName: __ZN8pybind1110cast_errorD2Ev, symObjAddr: 0x89A0, symBinAddr: 0x9850, symSize: 0x20 }
  - { offsetInCU: 0x5E5B0, offset: 0x5E5B0, size: 0x8, addend: 0x0, symName: __ZN8pybind1117builtin_exceptionD2Ev, symObjAddr: 0x89C0, symBinAddr: 0x9870, symSize: 0x20 }
  - { offsetInCU: 0x5E5DD, offset: 0x5E5DD, size: 0x8, addend: 0x0, symName: __ZN8pybind116detail11type_casterINSt3__112basic_stringIcNS2_11char_traitsIcEENS2_9allocatorIcEEEEvED2Ev, symObjAddr: 0x89E0, symBinAddr: 0x9890, symSize: 0x20 }
  - { offsetInCU: 0x5E60A, offset: 0x5E60A, size: 0x8, addend: 0x0, symName: __ZN8pybind116detail13string_casterINSt3__112basic_stringIcNS2_11char_traitsIcEENS2_9allocatorIcEEEELb0EED2Ev, symObjAddr: 0x8A00, symBinAddr: 0x98B0, symSize: 0x20 }
  - { offsetInCU: 0x5E637, offset: 0x5E637, size: 0x8, addend: 0x0, symName: __ZNSt3__110shared_ptrIN8pybind116detail25error_fetch_and_normalizeEEC2B7v160006IS3_PFvPS3_EvEEPT_T0_, symObjAddr: 0x8A20, symBinAddr: 0x98D0, symSize: 0x110 }
  - { offsetInCU: 0x5E69C, offset: 0x5E69C, size: 0x8, addend: 0x0, symName: __ZNSt3__19allocatorIN8pybind116detail25error_fetch_and_normalizeEEC1B7v160006Ev, symObjAddr: 0x8B30, symBinAddr: 0x99E0, symSize: 0x20 }
  - { offsetInCU: 0x5E792, offset: 0x5E792, size: 0x8, addend: 0x0, symName: __ZNSt3__120__shared_ptr_pointerIPN8pybind116detail25error_fetch_and_normalizeEPFvS4_ENS_9allocatorIS3_EEEC1B7v160006ES4_S6_S8_, symObjAddr: 0x8B50, symBinAddr: 0x9A00, symSize: 0x30 }
  - { offsetInCU: 0x5E7E6, offset: 0x5E7E6, size: 0x8, addend: 0x0, symName: __ZNSt3__110shared_ptrIN8pybind116detail25error_fetch_and_normalizeEE18__enable_weak_thisB7v160006Ez, symObjAddr: 0x8B80, symBinAddr: 0x9A30, symSize: 0x10 }
  - { offsetInCU: 0x5E80E, offset: 0x5E80E, size: 0x8, addend: 0x0, symName: __ZNSt3__19allocatorIN8pybind116detail25error_fetch_and_normalizeEEC2B7v160006Ev, symObjAddr: 0x8B90, symBinAddr: 0x9A40, symSize: 0x20 }
  - { offsetInCU: 0x5E838, offset: 0x5E838, size: 0x8, addend: 0x0, symName: __ZNSt3__116__non_trivial_ifILb1ENS_9allocatorIN8pybind116detail25error_fetch_and_normalizeEEEEC2B7v160006Ev, symObjAddr: 0x8BB0, symBinAddr: 0x9A60, symSize: 0x10 }
  - { offsetInCU: 0x5E862, offset: 0x5E862, size: 0x8, addend: 0x0, symName: __ZNSt3__120__shared_ptr_pointerIPN8pybind116detail25error_fetch_and_normalizeEPFvS4_ENS_9allocatorIS3_EEEC2B7v160006ES4_S6_S8_, symObjAddr: 0x8BC0, symBinAddr: 0x9A70, symSize: 0x90 }
  - { offsetInCU: 0x5E8B6, offset: 0x5E8B6, size: 0x8, addend: 0x0, symName: __ZNSt3__119__shared_weak_countC2B7v160006El, symObjAddr: 0x8C50, symBinAddr: 0x9B00, symSize: 0x50 }
  - { offsetInCU: 0x5E8F4, offset: 0x5E8F4, size: 0x8, addend: 0x0, symName: __ZNSt3__117__compressed_pairIPN8pybind116detail25error_fetch_and_normalizeEPFvS4_EEC1B7v160006IRS4_S6_EEOT_OT0_, symObjAddr: 0x8CA0, symBinAddr: 0x9B50, symSize: 0x30 }
  - { offsetInCU: 0x5E958, offset: 0x5E958, size: 0x8, addend: 0x0, symName: __ZNSt3__117__compressed_pairINS0_IPN8pybind116detail25error_fetch_and_normalizeEPFvS4_EEENS_9allocatorIS3_EEEC1B7v160006IS7_S9_EEOT_OT0_, symObjAddr: 0x8CD0, symBinAddr: 0x9B80, symSize: 0x30 }
  - { offsetInCU: 0x5E9B0, offset: 0x5E9B0, size: 0x8, addend: 0x0, symName: __ZNSt3__120__shared_ptr_pointerIPN8pybind116detail25error_fetch_and_normalizeEPFvS4_ENS_9allocatorIS3_EEED1Ev, symObjAddr: 0x8D00, symBinAddr: 0x9BB0, symSize: 0x20 }
  - { offsetInCU: 0x5E9DC, offset: 0x5E9DC, size: 0x8, addend: 0x0, symName: __ZNSt3__120__shared_ptr_pointerIPN8pybind116detail25error_fetch_and_normalizeEPFvS4_ENS_9allocatorIS3_EEED0Ev, symObjAddr: 0x8D20, symBinAddr: 0x9BD0, symSize: 0x30 }
  - { offsetInCU: 0x5EA08, offset: 0x5EA08, size: 0x8, addend: 0x0, symName: __ZNSt3__120__shared_ptr_pointerIPN8pybind116detail25error_fetch_and_normalizeEPFvS4_ENS_9allocatorIS3_EEE16__on_zero_sharedEv, symObjAddr: 0x8D50, symBinAddr: 0x9C00, symSize: 0x80 }
  - { offsetInCU: 0x5EA2F, offset: 0x5EA2F, size: 0x8, addend: 0x0, symName: __ZNKSt3__120__shared_ptr_pointerIPN8pybind116detail25error_fetch_and_normalizeEPFvS4_ENS_9allocatorIS3_EEE13__get_deleterERKSt9type_info, symObjAddr: 0x8DD0, symBinAddr: 0x9C80, symSize: 0x70 }
  - { offsetInCU: 0x5EA64, offset: 0x5EA64, size: 0x8, addend: 0x0, symName: __ZNSt3__120__shared_ptr_pointerIPN8pybind116detail25error_fetch_and_normalizeEPFvS4_ENS_9allocatorIS3_EEE21__on_zero_shared_weakEv, symObjAddr: 0x8E40, symBinAddr: 0x9CF0, symSize: 0x60 }
  - { offsetInCU: 0x5EAA5, offset: 0x5EAA5, size: 0x8, addend: 0x0, symName: __ZNSt3__114__shared_countC2B7v160006El, symObjAddr: 0x8EA0, symBinAddr: 0x9D50, symSize: 0x30 }
  - { offsetInCU: 0x5EADD, offset: 0x5EADD, size: 0x8, addend: 0x0, symName: __ZNSt3__117__compressed_pairIPN8pybind116detail25error_fetch_and_normalizeEPFvS4_EEC2B7v160006IRS4_S6_EEOT_OT0_, symObjAddr: 0x8ED0, symBinAddr: 0x9D80, symSize: 0x40 }
  - { offsetInCU: 0x5EB35, offset: 0x5EB35, size: 0x8, addend: 0x0, symName: __ZNSt3__122__compressed_pair_elemIPN8pybind116detail25error_fetch_and_normalizeELi0ELb0EEC2B7v160006IRS4_vEEOT_, symObjAddr: 0x8F10, symBinAddr: 0x9DC0, symSize: 0x20 }
  - { offsetInCU: 0x5EB77, offset: 0x5EB77, size: 0x8, addend: 0x0, symName: __ZNSt3__122__compressed_pair_elemIPFvPN8pybind116detail25error_fetch_and_normalizeEELi1ELb0EEC2B7v160006IS6_vEEOT_, symObjAddr: 0x8F30, symBinAddr: 0x9DE0, symSize: 0x20 }
  - { offsetInCU: 0x5EBB9, offset: 0x5EBB9, size: 0x8, addend: 0x0, symName: __ZNSt3__117__compressed_pairINS0_IPN8pybind116detail25error_fetch_and_normalizeEPFvS4_EEENS_9allocatorIS3_EEEC2B7v160006IS7_S9_EEOT_OT0_, symObjAddr: 0x8F50, symBinAddr: 0x9E00, symSize: 0x40 }
  - { offsetInCU: 0x5EC11, offset: 0x5EC11, size: 0x8, addend: 0x0, symName: __ZNSt3__122__compressed_pair_elemINS_17__compressed_pairIPN8pybind116detail25error_fetch_and_normalizeEPFvS5_EEELi0ELb0EEC2B7v160006IS8_vEEOT_, symObjAddr: 0x8F90, symBinAddr: 0x9E40, symSize: 0x30 }
  - { offsetInCU: 0x5EC53, offset: 0x5EC53, size: 0x8, addend: 0x0, symName: __ZNSt3__122__compressed_pair_elemINS_9allocatorIN8pybind116detail25error_fetch_and_normalizeEEELi1ELb1EEC2B7v160006IS5_vEEOT_, symObjAddr: 0x8FC0, symBinAddr: 0x9E70, symSize: 0x10 }
  - { offsetInCU: 0x5EC95, offset: 0x5EC95, size: 0x8, addend: 0x0, symName: __ZNSt3__120__shared_ptr_pointerIPN8pybind116detail25error_fetch_and_normalizeEPFvS4_ENS_9allocatorIS3_EEED2Ev, symObjAddr: 0x8FD0, symBinAddr: 0x9E80, symSize: 0x20 }
  - { offsetInCU: 0x5ECC1, offset: 0x5ECC1, size: 0x8, addend: 0x0, symName: __ZNSt3__117__compressed_pairINS0_IPN8pybind116detail25error_fetch_and_normalizeEPFvS4_EEENS_9allocatorIS3_EEE5firstB7v160006Ev, symObjAddr: 0x8FF0, symBinAddr: 0x9EA0, symSize: 0x20 }
  - { offsetInCU: 0x5ECE7, offset: 0x5ECE7, size: 0x8, addend: 0x0, symName: __ZNSt3__117__compressed_pairIPN8pybind116detail25error_fetch_and_normalizeEPFvS4_EE6secondB7v160006Ev, symObjAddr: 0x9010, symBinAddr: 0x9EC0, symSize: 0x20 }
  - { offsetInCU: 0x5ED0D, offset: 0x5ED0D, size: 0x8, addend: 0x0, symName: __ZNSt3__117__compressed_pairIPN8pybind116detail25error_fetch_and_normalizeEPFvS4_EE5firstB7v160006Ev, symObjAddr: 0x9030, symBinAddr: 0x9EE0, symSize: 0x20 }
  - { offsetInCU: 0x5ED33, offset: 0x5ED33, size: 0x8, addend: 0x0, symName: __ZNSt3__122__compressed_pair_elemINS_17__compressed_pairIPN8pybind116detail25error_fetch_and_normalizeEPFvS5_EEELi0ELb0EE5__getB7v160006Ev, symObjAddr: 0x9050, symBinAddr: 0x9F00, symSize: 0x10 }
  - { offsetInCU: 0x5ED59, offset: 0x5ED59, size: 0x8, addend: 0x0, symName: __ZNSt3__122__compressed_pair_elemIPFvPN8pybind116detail25error_fetch_and_normalizeEELi1ELb0EE5__getB7v160006Ev, symObjAddr: 0x9060, symBinAddr: 0x9F10, symSize: 0x10 }
  - { offsetInCU: 0x5ED7F, offset: 0x5ED7F, size: 0x8, addend: 0x0, symName: __ZNSt3__122__compressed_pair_elemIPN8pybind116detail25error_fetch_and_normalizeELi0ELb0EE5__getB7v160006Ev, symObjAddr: 0x9070, symBinAddr: 0x9F20, symSize: 0x10 }
  - { offsetInCU: 0x5EDC5, offset: 0x5EDC5, size: 0x8, addend: 0x0, symName: __ZNKSt9type_infoeqB7v160006ERKS_, symObjAddr: 0x9080, symBinAddr: 0x9F30, symSize: 0x40 }
  - { offsetInCU: 0x5EE23, offset: 0x5EE23, size: 0x8, addend: 0x0, symName: __ZNKSt3__117__compressed_pairINS0_IPN8pybind116detail25error_fetch_and_normalizeEPFvS4_EEENS_9allocatorIS3_EEE5firstB7v160006Ev, symObjAddr: 0x90C0, symBinAddr: 0x9F70, symSize: 0x20 }
  - { offsetInCU: 0x5EE49, offset: 0x5EE49, size: 0x8, addend: 0x0, symName: __ZNKSt3__117__compressed_pairIPN8pybind116detail25error_fetch_and_normalizeEPFvS4_EE6secondB7v160006Ev, symObjAddr: 0x90E0, symBinAddr: 0x9F90, symSize: 0x20 }
  - { offsetInCU: 0x5EE6F, offset: 0x5EE6F, size: 0x8, addend: 0x0, symName: __ZNKSt3__122__compressed_pair_elemINS_17__compressed_pairIPN8pybind116detail25error_fetch_and_normalizeEPFvS5_EEELi0ELb0EE5__getB7v160006Ev, symObjAddr: 0x9100, symBinAddr: 0x9FB0, symSize: 0x10 }
  - { offsetInCU: 0x5EE95, offset: 0x5EE95, size: 0x8, addend: 0x0, symName: __ZNKSt3__122__compressed_pair_elemIPFvPN8pybind116detail25error_fetch_and_normalizeEELi1ELb0EE5__getB7v160006Ev, symObjAddr: 0x9110, symBinAddr: 0x9FC0, symSize: 0x10 }
  - { offsetInCU: 0x5EEBB, offset: 0x5EEBB, size: 0x8, addend: 0x0, symName: __ZNSt3__117__compressed_pairINS0_IPN8pybind116detail25error_fetch_and_normalizeEPFvS4_EEENS_9allocatorIS3_EEE6secondB7v160006Ev, symObjAddr: 0x9120, symBinAddr: 0x9FD0, symSize: 0x20 }
  - { offsetInCU: 0x5EEF0, offset: 0x5EEF0, size: 0x8, addend: 0x0, symName: __ZNSt3__19allocatorINS_20__shared_ptr_pointerIPN8pybind116detail25error_fetch_and_normalizeEPFvS5_ENS0_IS4_EEEEEC1B7v160006IS4_EERKNS0_IT_EE, symObjAddr: 0x9140, symBinAddr: 0x9FF0, symSize: 0x30 }
  - { offsetInCU: 0x5EF2E, offset: 0x5EF2E, size: 0x8, addend: 0x0, symName: __ZNSt3__19allocatorINS_20__shared_ptr_pointerIPN8pybind116detail25error_fetch_and_normalizeEPFvS5_ENS0_IS4_EEEEE10deallocateB7v160006EPS9_m, symObjAddr: 0x9170, symBinAddr: 0xA020, symSize: 0x50 }
  - { offsetInCU: 0x5EF76, offset: 0x5EF76, size: 0x8, addend: 0x0, symName: __ZNSt3__114pointer_traitsIPNS_20__shared_ptr_pointerIPN8pybind116detail25error_fetch_and_normalizeEPFvS5_ENS_9allocatorIS4_EEEEE10pointer_toB7v160006ERSA_, symObjAddr: 0x91C0, symBinAddr: 0xA070, symSize: 0x10 }
  - { offsetInCU: 0x5EF99, offset: 0x5EF99, size: 0x8, addend: 0x0, symName: __ZNSt3__122__compressed_pair_elemINS_9allocatorIN8pybind116detail25error_fetch_and_normalizeEEELi1ELb1EE5__getB7v160006Ev, symObjAddr: 0x91D0, symBinAddr: 0xA080, symSize: 0x10 }
  - { offsetInCU: 0x5EFBF, offset: 0x5EFBF, size: 0x8, addend: 0x0, symName: __ZNSt3__19allocatorINS_20__shared_ptr_pointerIPN8pybind116detail25error_fetch_and_normalizeEPFvS5_ENS0_IS4_EEEEEC2B7v160006IS4_EERKNS0_IT_EE, symObjAddr: 0x91E0, symBinAddr: 0xA090, symSize: 0x20 }
  - { offsetInCU: 0x5EFFD, offset: 0x5EFFD, size: 0x8, addend: 0x0, symName: __ZNSt3__116__non_trivial_ifILb1ENS_9allocatorINS_20__shared_ptr_pointerIPN8pybind116detail25error_fetch_and_normalizeEPFvS6_ENS1_IS5_EEEEEEEC2B7v160006Ev, symObjAddr: 0x9200, symBinAddr: 0xA0B0, symSize: 0x10 }
  - { offsetInCU: 0x5F027, offset: 0x5F027, size: 0x8, addend: 0x0, symName: __ZN8pybind114dictC2EONS_6objectE, symObjAddr: 0x9210, symBinAddr: 0xA0C0, symSize: 0x120 }
  - { offsetInCU: 0x5F060, offset: 0x5F060, size: 0x8, addend: 0x0, symName: __ZN8pybind114dict6check_ENS_6handleE, symObjAddr: 0x9330, symBinAddr: 0xA1E0, symSize: 0x60 }
  - { offsetInCU: 0x5F084, offset: 0x5F084, size: 0x8, addend: 0x0, symName: __ZN8pybind116object7releaseEv, symObjAddr: 0x9390, symBinAddr: 0xA240, symSize: 0x40 }
  - { offsetInCU: 0x5F0B9, offset: 0x5F0B9, size: 0x8, addend: 0x0, symName: __ZN8pybind114dict8raw_dictEP7_object, symObjAddr: 0x93D0, symBinAddr: 0xA280, symSize: 0x80 }
  - { offsetInCU: 0x5F0DD, offset: 0x5F0DD, size: 0x8, addend: 0x0, symName: __ZNSt3__119__forward_list_baseIPFvSt13exception_ptrENS_9allocatorIS3_EEE7__allocB7v160006Ev, symObjAddr: 0x9570, symBinAddr: 0xA420, symSize: 0x20 }
  - { offsetInCU: 0x5F109, offset: 0x5F109, size: 0x8, addend: 0x0, symName: __ZNSt3__116allocator_traitsINS_9allocatorINS_19__forward_list_nodeIPFvSt13exception_ptrEPvEEEEE8allocateB7v160006ERS8_m, symObjAddr: 0x9590, symBinAddr: 0xA440, symSize: 0x30 }
  - { offsetInCU: 0x5F141, offset: 0x5F141, size: 0x8, addend: 0x0, symName: __ZNSt3__122__allocator_destructorINS_9allocatorINS_19__forward_list_nodeIPFvSt13exception_ptrEPvEEEEEC1B7v160006ERS8_m, symObjAddr: 0x95C0, symBinAddr: 0xA470, symSize: 0x30 }
  - { offsetInCU: 0x5F21D, offset: 0x5F21D, size: 0x8, addend: 0x0, symName: __ZNSt3__110unique_ptrINS_19__forward_list_nodeIPFvSt13exception_ptrEPvEENS_22__allocator_destructorINS_9allocatorIS6_EEEEEC1B7v160006ILb1EvEEPS6_NS_16__dependent_typeINS_27__unique_ptr_deleter_sfinaeISA_EEXT_EE20__good_rval_ref_typeE, symObjAddr: 0x95F0, symBinAddr: 0xA4A0, symSize: 0x30 }
  - { offsetInCU: 0x5F274, offset: 0x5F274, size: 0x8, addend: 0x0, symName: __ZNSt3__116allocator_traitsINS_9allocatorINS_19__forward_list_nodeIPFvSt13exception_ptrEPvEEEEE9constructB7v160006IS5_JS5_EvvEEvRS8_PT_DpOT0_, symObjAddr: 0x9620, symBinAddr: 0xA4D0, symSize: 0x30 }
  - { offsetInCU: 0x5F2C9, offset: 0x5F2C9, size: 0x8, addend: 0x0, symName: __ZNKSt3__110unique_ptrINS_19__forward_list_nodeIPFvSt13exception_ptrEPvEENS_22__allocator_destructorINS_9allocatorIS6_EEEEEptB7v160006Ev, symObjAddr: 0x9650, symBinAddr: 0xA500, symSize: 0x20 }
  - { offsetInCU: 0x5F2EF, offset: 0x5F2EF, size: 0x8, addend: 0x0, symName: __ZNSt3__119__forward_list_baseIPFvSt13exception_ptrENS_9allocatorIS3_EEE14__before_beginB7v160006Ev, symObjAddr: 0x9670, symBinAddr: 0xA520, symSize: 0x30 }
  - { offsetInCU: 0x5F315, offset: 0x5F315, size: 0x8, addend: 0x0, symName: __ZNSt3__110unique_ptrINS_19__forward_list_nodeIPFvSt13exception_ptrEPvEENS_22__allocator_destructorINS_9allocatorIS6_EEEEE7releaseB7v160006Ev, symObjAddr: 0x96A0, symBinAddr: 0xA550, symSize: 0x40 }
  - { offsetInCU: 0x5F34A, offset: 0x5F34A, size: 0x8, addend: 0x0, symName: __ZNSt3__110unique_ptrINS_19__forward_list_nodeIPFvSt13exception_ptrEPvEENS_22__allocator_destructorINS_9allocatorIS6_EEEEED1B7v160006Ev, symObjAddr: 0x96E0, symBinAddr: 0xA590, symSize: 0x20 }
  - { offsetInCU: 0x5F374, offset: 0x5F374, size: 0x8, addend: 0x0, symName: __ZNSt3__117__compressed_pairINS_20__forward_begin_nodeIPNS_19__forward_list_nodeIPFvSt13exception_ptrEPvEEEENS_9allocatorIS7_EEE6secondB7v160006Ev, symObjAddr: 0x9700, symBinAddr: 0xA5B0, symSize: 0x20 }
  - { offsetInCU: 0x5F39A, offset: 0x5F39A, size: 0x8, addend: 0x0, symName: __ZNSt3__122__compressed_pair_elemINS_9allocatorINS_19__forward_list_nodeIPFvSt13exception_ptrEPvEEEELi1ELb1EE5__getB7v160006Ev, symObjAddr: 0x9720, symBinAddr: 0xA5D0, symSize: 0x10 }
  - { offsetInCU: 0x5F3C0, offset: 0x5F3C0, size: 0x8, addend: 0x0, symName: __ZNSt3__19allocatorINS_19__forward_list_nodeIPFvSt13exception_ptrEPvEEE8allocateB7v160006Em, symObjAddr: 0x9730, symBinAddr: 0xA5E0, symSize: 0x50 }
  - { offsetInCU: 0x5F3FF, offset: 0x5F3FF, size: 0x8, addend: 0x0, symName: __ZNSt3__116allocator_traitsINS_9allocatorINS_19__forward_list_nodeIPFvSt13exception_ptrEPvEEEEE8max_sizeB7v160006IS8_vvEEmRKS8_, symObjAddr: 0x9780, symBinAddr: 0xA630, symSize: 0x20 }
  - { offsetInCU: 0x5F42B, offset: 0x5F42B, size: 0x8, addend: 0x0, symName: __ZNSt3__122__allocator_destructorINS_9allocatorINS_19__forward_list_nodeIPFvSt13exception_ptrEPvEEEEEC2B7v160006ERS8_m, symObjAddr: 0x97A0, symBinAddr: 0xA650, symSize: 0x30 }
  - { offsetInCU: 0x5F471, offset: 0x5F471, size: 0x8, addend: 0x0, symName: __ZNSt3__110unique_ptrINS_19__forward_list_nodeIPFvSt13exception_ptrEPvEENS_22__allocator_destructorINS_9allocatorIS6_EEEEEC2B7v160006ILb1EvEEPS6_NS_16__dependent_typeINS_27__unique_ptr_deleter_sfinaeISA_EEXT_EE20__good_rval_ref_typeE, symObjAddr: 0x97D0, symBinAddr: 0xA680, symSize: 0x40 }
  - { offsetInCU: 0x5F4C2, offset: 0x5F4C2, size: 0x8, addend: 0x0, symName: __ZNSt3__117__compressed_pairIPNS_19__forward_list_nodeIPFvSt13exception_ptrEPvEENS_22__allocator_destructorINS_9allocatorIS6_EEEEEC1B7v160006IRS7_SB_EEOT_OT0_, symObjAddr: 0x9810, symBinAddr: 0xA6C0, symSize: 0x30 }
  - { offsetInCU: 0x5F51A, offset: 0x5F51A, size: 0x8, addend: 0x0, symName: __ZNSt3__117__compressed_pairIPNS_19__forward_list_nodeIPFvSt13exception_ptrEPvEENS_22__allocator_destructorINS_9allocatorIS6_EEEEEC2B7v160006IRS7_SB_EEOT_OT0_, symObjAddr: 0x9840, symBinAddr: 0xA6F0, symSize: 0x40 }
  - { offsetInCU: 0x5F572, offset: 0x5F572, size: 0x8, addend: 0x0, symName: __ZNSt3__122__compressed_pair_elemIPNS_19__forward_list_nodeIPFvSt13exception_ptrEPvEELi0ELb0EEC2B7v160006IRS7_vEEOT_, symObjAddr: 0x9880, symBinAddr: 0xA730, symSize: 0x20 }
  - { offsetInCU: 0x5F5B4, offset: 0x5F5B4, size: 0x8, addend: 0x0, symName: __ZNSt3__122__compressed_pair_elemINS_22__allocator_destructorINS_9allocatorINS_19__forward_list_nodeIPFvSt13exception_ptrEPvEEEEEELi1ELb0EEC2B7v160006ISA_vEEOT_, symObjAddr: 0x98A0, symBinAddr: 0xA750, symSize: 0x30 }
  - { offsetInCU: 0x5F5FC, offset: 0x5F5FC, size: 0x8, addend: 0x0, symName: __ZNKSt3__117__compressed_pairIPNS_19__forward_list_nodeIPFvSt13exception_ptrEPvEENS_22__allocator_destructorINS_9allocatorIS6_EEEEE5firstB7v160006Ev, symObjAddr: 0x9900, symBinAddr: 0xA7B0, symSize: 0x20 }
  - { offsetInCU: 0x5F622, offset: 0x5F622, size: 0x8, addend: 0x0, symName: __ZNKSt3__122__compressed_pair_elemIPNS_19__forward_list_nodeIPFvSt13exception_ptrEPvEELi0ELb0EE5__getB7v160006Ev, symObjAddr: 0x9920, symBinAddr: 0xA7D0, symSize: 0x10 }
  - { offsetInCU: 0x5F648, offset: 0x5F648, size: 0x8, addend: 0x0, symName: __ZNSt3__114pointer_traitsIPNS_20__forward_begin_nodeIPNS_19__forward_list_nodeIPFvSt13exception_ptrEPvEEEEE10pointer_toB7v160006ERS9_, symObjAddr: 0x9930, symBinAddr: 0xA7E0, symSize: 0x10 }
  - { offsetInCU: 0x5F66B, offset: 0x5F66B, size: 0x8, addend: 0x0, symName: __ZNSt3__117__compressed_pairINS_20__forward_begin_nodeIPNS_19__forward_list_nodeIPFvSt13exception_ptrEPvEEEENS_9allocatorIS7_EEE5firstB7v160006Ev, symObjAddr: 0x9940, symBinAddr: 0xA7F0, symSize: 0x20 }
  - { offsetInCU: 0x5F691, offset: 0x5F691, size: 0x8, addend: 0x0, symName: __ZNSt3__122__compressed_pair_elemINS_20__forward_begin_nodeIPNS_19__forward_list_nodeIPFvSt13exception_ptrEPvEEEELi0ELb0EE5__getB7v160006Ev, symObjAddr: 0x9960, symBinAddr: 0xA810, symSize: 0x10 }
  - { offsetInCU: 0x5F6B7, offset: 0x5F6B7, size: 0x8, addend: 0x0, symName: __ZNSt3__117__compressed_pairIPNS_19__forward_list_nodeIPFvSt13exception_ptrEPvEENS_22__allocator_destructorINS_9allocatorIS6_EEEEE5firstB7v160006Ev, symObjAddr: 0x9970, symBinAddr: 0xA820, symSize: 0x20 }
  - { offsetInCU: 0x5F6DD, offset: 0x5F6DD, size: 0x8, addend: 0x0, symName: __ZNSt3__122__compressed_pair_elemIPNS_19__forward_list_nodeIPFvSt13exception_ptrEPvEELi0ELb0EE5__getB7v160006Ev, symObjAddr: 0x9990, symBinAddr: 0xA840, symSize: 0x10 }
  - { offsetInCU: 0x5F703, offset: 0x5F703, size: 0x8, addend: 0x0, symName: __ZNSt3__110unique_ptrINS_19__forward_list_nodeIPFvSt13exception_ptrEPvEENS_22__allocator_destructorINS_9allocatorIS6_EEEEED2B7v160006Ev, symObjAddr: 0x99A0, symBinAddr: 0xA850, symSize: 0x20 }
  - { offsetInCU: 0x5F72D, offset: 0x5F72D, size: 0x8, addend: 0x0, symName: __ZNSt3__110unique_ptrINS_19__forward_list_nodeIPFvSt13exception_ptrEPvEENS_22__allocator_destructorINS_9allocatorIS6_EEEEE5resetB7v160006EPS6_, symObjAddr: 0x99C0, symBinAddr: 0xA870, symSize: 0x70 }
  - { offsetInCU: 0x5F771, offset: 0x5F771, size: 0x8, addend: 0x0, symName: __ZNSt3__117__compressed_pairIPNS_19__forward_list_nodeIPFvSt13exception_ptrEPvEENS_22__allocator_destructorINS_9allocatorIS6_EEEEE6secondB7v160006Ev, symObjAddr: 0x9A30, symBinAddr: 0xA8E0, symSize: 0x20 }
  - { offsetInCU: 0x5F797, offset: 0x5F797, size: 0x8, addend: 0x0, symName: __ZNSt3__122__allocator_destructorINS_9allocatorINS_19__forward_list_nodeIPFvSt13exception_ptrEPvEEEEEclB7v160006EPS7_, symObjAddr: 0x9A50, symBinAddr: 0xA900, symSize: 0x30 }
  - { offsetInCU: 0x5F7CB, offset: 0x5F7CB, size: 0x8, addend: 0x0, symName: __ZNSt3__122__compressed_pair_elemINS_22__allocator_destructorINS_9allocatorINS_19__forward_list_nodeIPFvSt13exception_ptrEPvEEEEEELi1ELb0EE5__getB7v160006Ev, symObjAddr: 0x9A80, symBinAddr: 0xA930, symSize: 0x10 }
  - { offsetInCU: 0x5F7F1, offset: 0x5F7F1, size: 0x8, addend: 0x0, symName: __ZNSt3__116allocator_traitsINS_9allocatorINS_19__forward_list_nodeIPFvSt13exception_ptrEPvEEEEE10deallocateB7v160006ERS8_PS7_m, symObjAddr: 0x9A90, symBinAddr: 0xA940, symSize: 0x30 }
  - { offsetInCU: 0x5F833, offset: 0x5F833, size: 0x8, addend: 0x0, symName: __ZNSt3__19allocatorINS_19__forward_list_nodeIPFvSt13exception_ptrEPvEEE10deallocateB7v160006EPS6_m, symObjAddr: 0x9AC0, symBinAddr: 0xA970, symSize: 0x40 }
  - { offsetInCU: 0x5F875, offset: 0x5F875, size: 0x8, addend: 0x0, symName: __ZNKSt13exception_ptrcvbB7v160006Ev, symObjAddr: 0x9B00, symBinAddr: 0xA9B0, symSize: 0x20 }
  - { offsetInCU: 0x5F89B, offset: 0x5F89B, size: 0x8, addend: 0x0, symName: __ZN8pybind1117error_already_set7restoreEv, symObjAddr: 0x9B20, symBinAddr: 0xA9D0, symSize: 0x30 }
  - { offsetInCU: 0x5F8C1, offset: 0x5F8C1, size: 0x8, addend: 0x0, symName: __ZN8pybind116detail25error_fetch_and_normalize7restoreEv, symObjAddr: 0x9B50, symBinAddr: 0xAA00, symSize: 0xE0 }
  - { offsetInCU: 0x5F8E7, offset: 0x5F8E7, size: 0x8, addend: 0x0, symName: __ZN8pybind116detail9internalsC2Ev, symObjAddr: 0x9C30, symBinAddr: 0xAAE0, symSize: 0xC0 }
  - { offsetInCU: 0x5F911, offset: 0x5F911, size: 0x8, addend: 0x0, symName: __ZNSt3__113unordered_mapINS_10type_indexEPN8pybind116detail9type_infoENS3_9type_hashENS3_13type_equal_toENS_9allocatorINS_4pairIKS1_S5_EEEEEC1B7v160006Ev, symObjAddr: 0x9CF0, symBinAddr: 0xABA0, symSize: 0x20 }
  - { offsetInCU: 0x5F93B, offset: 0x5F93B, size: 0x8, addend: 0x0, symName: __ZNSt3__113unordered_mapIP11_typeobjectNS_6vectorIPN8pybind116detail9type_infoENS_9allocatorIS7_EEEENS_4hashIS2_EENS_8equal_toIS2_EENS8_INS_4pairIKS2_SA_EEEEEC1B7v160006Ev, symObjAddr: 0x9D10, symBinAddr: 0xABC0, symSize: 0x20 }
  - { offsetInCU: 0x5F965, offset: 0x5F965, size: 0x8, addend: 0x0, symName: __ZNSt3__118unordered_multimapIPKvPN8pybind116detail8instanceENS_4hashIS2_EENS_8equal_toIS2_EENS_9allocatorINS_4pairIKS2_S6_EEEEEC1B7v160006Ev, symObjAddr: 0x9D30, symBinAddr: 0xABE0, symSize: 0x20 }
  - { offsetInCU: 0x5F98F, offset: 0x5F98F, size: 0x8, addend: 0x0, symName: __ZNSt3__113unordered_setINS_4pairIPK7_objectPKcEEN8pybind116detail13override_hashENS_8equal_toIS7_EENS_9allocatorIS7_EEEC1B7v160006Ev, symObjAddr: 0x9D50, symBinAddr: 0xAC00, symSize: 0x20 }
  - { offsetInCU: 0x5F9B9, offset: 0x5F9B9, size: 0x8, addend: 0x0, symName: __ZNSt3__113unordered_mapINS_10type_indexENS_6vectorIPFbP7_objectRPvENS_9allocatorIS8_EEEEN8pybind116detail9type_hashENSD_13type_equal_toENS9_INS_4pairIKS1_SB_EEEEEC1B7v160006Ev, symObjAddr: 0x9D70, symBinAddr: 0xAC20, symSize: 0x20 }
  - { offsetInCU: 0x5F9E3, offset: 0x5F9E3, size: 0x8, addend: 0x0, symName: __ZNSt3__113unordered_mapIPK7_objectNS_6vectorIPS1_NS_9allocatorIS5_EEEENS_4hashIS3_EENS_8equal_toIS3_EENS6_INS_4pairIKS3_S8_EEEEEC1B7v160006Ev, symObjAddr: 0x9D90, symBinAddr: 0xAC40, symSize: 0x20 }
  - { offsetInCU: 0x5FA0D, offset: 0x5FA0D, size: 0x8, addend: 0x0, symName: __ZNSt3__112forward_listIPFvSt13exception_ptrENS_9allocatorIS3_EEEC1B7v160006Ev, symObjAddr: 0x9DB0, symBinAddr: 0xAC60, symSize: 0x20 }
  - { offsetInCU: 0x5FA37, offset: 0x5FA37, size: 0x8, addend: 0x0, symName: __ZNSt3__113unordered_mapINS_12basic_stringIcNS_11char_traitsIcEENS_9allocatorIcEEEEPvNS_4hashIS6_EENS_8equal_toIS6_EENS4_INS_4pairIKS6_S7_EEEEEC1B7v160006Ev, symObjAddr: 0x9DD0, symBinAddr: 0xAC80, symSize: 0x20 }
  - { offsetInCU: 0x5FA61, offset: 0x5FA61, size: 0x8, addend: 0x0, symName: __ZNSt3__16vectorIP7_objectNS_9allocatorIS2_EEEC1B7v160006Ev, symObjAddr: 0x9DF0, symBinAddr: 0xACA0, symSize: 0x20 }
  - { offsetInCU: 0x5FA8B, offset: 0x5FA8B, size: 0x8, addend: 0x0, symName: __ZNSt3__112forward_listINS_12basic_stringIcNS_11char_traitsIcEENS_9allocatorIcEEEENS4_IS6_EEEC1B7v160006Ev, symObjAddr: 0x9E10, symBinAddr: 0xACC0, symSize: 0x20 }
  - { offsetInCU: 0x5FAB5, offset: 0x5FAB5, size: 0x8, addend: 0x0, symName: __ZNSt3__113unordered_mapINS_10type_indexEPN8pybind116detail9type_infoENS3_9type_hashENS3_13type_equal_toENS_9allocatorINS_4pairIKS1_S5_EEEEEC2B7v160006Ev, symObjAddr: 0x9E30, symBinAddr: 0xACE0, symSize: 0x40 }
  - { offsetInCU: 0x5FADF, offset: 0x5FADF, size: 0x8, addend: 0x0, symName: __ZNSt3__112__hash_tableINS_17__hash_value_typeINS_10type_indexEPN8pybind116detail9type_infoEEENS_22__unordered_map_hasherIS2_S7_NS4_9type_hashENS4_13type_equal_toELb1EEENS_21__unordered_map_equalIS2_S7_SA_S9_Lb1EEENS_9allocatorIS7_EEEC1Ev, symObjAddr: 0x9E70, symBinAddr: 0xAD20, symSize: 0x20 }
  - { offsetInCU: 0x5FB0B, offset: 0x5FB0B, size: 0x8, addend: 0x0, symName: __ZNSt3__112__hash_tableINS_17__hash_value_typeINS_10type_indexEPN8pybind116detail9type_infoEEENS_22__unordered_map_hasherIS2_S7_NS4_9type_hashENS4_13type_equal_toELb1EEENS_21__unordered_map_equalIS2_S7_SA_S9_Lb1EEENS_9allocatorIS7_EEEC2Ev, symObjAddr: 0x9EA0, symBinAddr: 0xAD50, symSize: 0x80 }
  - { offsetInCU: 0x5FB37, offset: 0x5FB37, size: 0x8, addend: 0x0, symName: __ZNSt3__110unique_ptrIA_PNS_16__hash_node_baseIPNS_11__hash_nodeINS_17__hash_value_typeINS_10type_indexEPN8pybind116detail9type_infoEEEPvEEEENS_25__bucket_list_deallocatorINS_9allocatorISE_EEEEEC1B7v160006ILb1EvEEv, symObjAddr: 0x9F20, symBinAddr: 0xADD0, symSize: 0x20 }
  - { offsetInCU: 0x5FB6C, offset: 0x5FB6C, size: 0x8, addend: 0x0, symName: __ZNSt3__117__compressed_pairINS_16__hash_node_baseIPNS_11__hash_nodeINS_17__hash_value_typeINS_10type_indexEPN8pybind116detail9type_infoEEEPvEEEENS_9allocatorISB_EEEC1B7v160006ILb1EvEEv, symObjAddr: 0x9F40, symBinAddr: 0xADF0, symSize: 0x20 }
  - { offsetInCU: 0x5FBA7, offset: 0x5FBA7, size: 0x8, addend: 0x0, symName: __ZNSt3__117__compressed_pairImNS_22__unordered_map_hasherINS_10type_indexENS_17__hash_value_typeIS2_PN8pybind116detail9type_infoEEENS5_9type_hashENS5_13type_equal_toELb1EEEEC1B7v160006IiNS_18__default_init_tagEEEOT_OT0_, symObjAddr: 0x9F60, symBinAddr: 0xAE10, symSize: 0x30 }
  - { offsetInCU: 0x5FC05, offset: 0x5FC05, size: 0x8, addend: 0x0, symName: __ZNSt3__117__compressed_pairIfNS_21__unordered_map_equalINS_10type_indexENS_17__hash_value_typeIS2_PN8pybind116detail9type_infoEEENS5_13type_equal_toENS5_9type_hashELb1EEEEC1B7v160006IfNS_18__default_init_tagEEEOT_OT0_, symObjAddr: 0x9F90, symBinAddr: 0xAE40, symSize: 0x30 }
  - { offsetInCU: 0x5FC5D, offset: 0x5FC5D, size: 0x8, addend: 0x0, symName: __ZNSt3__110unique_ptrIA_PNS_16__hash_node_baseIPNS_11__hash_nodeINS_17__hash_value_typeINS_10type_indexEPN8pybind116detail9type_infoEEEPvEEEENS_25__bucket_list_deallocatorINS_9allocatorISE_EEEEEC2B7v160006ILb1EvEEv, symObjAddr: 0x9FC0, symBinAddr: 0xAE70, symSize: 0x30 }
  - { offsetInCU: 0x5FC98, offset: 0x5FC98, size: 0x8, addend: 0x0, symName: __ZNSt3__117__compressed_pairIPPNS_16__hash_node_baseIPNS_11__hash_nodeINS_17__hash_value_typeINS_10type_indexEPN8pybind116detail9type_infoEEEPvEEEENS_25__bucket_list_deallocatorINS_9allocatorISE_EEEEEC1B7v160006INS_16__value_init_tagESM_EEOT_OT0_, symObjAddr: 0x9FF0, symBinAddr: 0xAEA0, symSize: 0x30 }
  - { offsetInCU: 0x5FCF0, offset: 0x5FCF0, size: 0x8, addend: 0x0, symName: __ZNSt3__117__compressed_pairIPPNS_16__hash_node_baseIPNS_11__hash_nodeINS_17__hash_value_typeINS_10type_indexEPN8pybind116detail9type_infoEEEPvEEEENS_25__bucket_list_deallocatorINS_9allocatorISE_EEEEEC2B7v160006INS_16__value_init_tagESM_EEOT_OT0_, symObjAddr: 0xA020, symBinAddr: 0xAED0, symSize: 0x40 }
  - { offsetInCU: 0x5FD48, offset: 0x5FD48, size: 0x8, addend: 0x0, symName: __ZNSt3__122__compressed_pair_elemIPPNS_16__hash_node_baseIPNS_11__hash_nodeINS_17__hash_value_typeINS_10type_indexEPN8pybind116detail9type_infoEEEPvEEEELi0ELb0EEC2B7v160006ENS_16__value_init_tagE, symObjAddr: 0xA060, symBinAddr: 0xAF10, symSize: 0x20 }
  - { offsetInCU: 0x5FD7D, offset: 0x5FD7D, size: 0x8, addend: 0x0, symName: __ZNSt3__122__compressed_pair_elemINS_25__bucket_list_deallocatorINS_9allocatorIPNS_16__hash_node_baseIPNS_11__hash_nodeINS_17__hash_value_typeINS_10type_indexEPN8pybind116detail9type_infoEEEPvEEEEEEEELi1ELb0EEC2B7v160006ENS_16__value_init_tagE, symObjAddr: 0xA080, symBinAddr: 0xAF30, symSize: 0x20 }
  - { offsetInCU: 0x5FDB2, offset: 0x5FDB2, size: 0x8, addend: 0x0, symName: __ZNSt3__125__bucket_list_deallocatorINS_9allocatorIPNS_16__hash_node_baseIPNS_11__hash_nodeINS_17__hash_value_typeINS_10type_indexEPN8pybind116detail9type_infoEEEPvEEEEEEEC1B7v160006Ev, symObjAddr: 0xA0A0, symBinAddr: 0xAF50, symSize: 0x20 }
  - { offsetInCU: 0x5FDDC, offset: 0x5FDDC, size: 0x8, addend: 0x0, symName: __ZNSt3__125__bucket_list_deallocatorINS_9allocatorIPNS_16__hash_node_baseIPNS_11__hash_nodeINS_17__hash_value_typeINS_10type_indexEPN8pybind116detail9type_infoEEEPvEEEEEEEC2B7v160006Ev, symObjAddr: 0xA0C0, symBinAddr: 0xAF70, symSize: 0x40 }
  - { offsetInCU: 0x5FE06, offset: 0x5FE06, size: 0x8, addend: 0x0, symName: __ZNSt3__117__compressed_pairImNS_9allocatorIPNS_16__hash_node_baseIPNS_11__hash_nodeINS_17__hash_value_typeINS_10type_indexEPN8pybind116detail9type_infoEEEPvEEEEEEEC1B7v160006IiNS_18__default_init_tagEEEOT_OT0_, symObjAddr: 0xA100, symBinAddr: 0xAFB0, symSize: 0x30 }
  - { offsetInCU: 0x5FE5E, offset: 0x5FE5E, size: 0x8, addend: 0x0, symName: __ZNSt3__117__compressed_pairImNS_9allocatorIPNS_16__hash_node_baseIPNS_11__hash_nodeINS_17__hash_value_typeINS_10type_indexEPN8pybind116detail9type_infoEEEPvEEEEEEEC2B7v160006IiNS_18__default_init_tagEEEOT_OT0_, symObjAddr: 0xA130, symBinAddr: 0xAFE0, symSize: 0x40 }
  - { offsetInCU: 0x5FEB6, offset: 0x5FEB6, size: 0x8, addend: 0x0, symName: __ZNSt3__122__compressed_pair_elemImLi0ELb0EEC2B7v160006IivEEOT_, symObjAddr: 0xA170, symBinAddr: 0xB020, symSize: 0x20 }
  - { offsetInCU: 0x5FEF8, offset: 0x5FEF8, size: 0x8, addend: 0x0, symName: __ZNSt3__122__compressed_pair_elemINS_9allocatorIPNS_16__hash_node_baseIPNS_11__hash_nodeINS_17__hash_value_typeINS_10type_indexEPN8pybind116detail9type_infoEEEPvEEEEEELi1ELb1EEC2B7v160006ENS_18__default_init_tagE, symObjAddr: 0xA190, symBinAddr: 0xB040, symSize: 0x20 }
  - { offsetInCU: 0x5FF2D, offset: 0x5FF2D, size: 0x8, addend: 0x0, symName: __ZNSt3__19allocatorIPNS_16__hash_node_baseIPNS_11__hash_nodeINS_17__hash_value_typeINS_10type_indexEPN8pybind116detail9type_infoEEEPvEEEEEC2B7v160006Ev, symObjAddr: 0xA1B0, symBinAddr: 0xB060, symSize: 0x20 }
  - { offsetInCU: 0x5FF57, offset: 0x5FF57, size: 0x8, addend: 0x0, symName: __ZNSt3__116__non_trivial_ifILb1ENS_9allocatorIPNS_16__hash_node_baseIPNS_11__hash_nodeINS_17__hash_value_typeINS_10type_indexEPN8pybind116detail9type_infoEEEPvEEEEEEEC2B7v160006Ev, symObjAddr: 0xA1D0, symBinAddr: 0xB080, symSize: 0x10 }
  - { offsetInCU: 0x5FF81, offset: 0x5FF81, size: 0x8, addend: 0x0, symName: __ZNSt3__117__compressed_pairINS_16__hash_node_baseIPNS_11__hash_nodeINS_17__hash_value_typeINS_10type_indexEPN8pybind116detail9type_infoEEEPvEEEENS_9allocatorISB_EEEC2B7v160006ILb1EvEEv, symObjAddr: 0xA1E0, symBinAddr: 0xB090, symSize: 0x30 }
  - { offsetInCU: 0x5FFB6, offset: 0x5FFB6, size: 0x8, addend: 0x0, symName: __ZNSt3__122__compressed_pair_elemINS_16__hash_node_baseIPNS_11__hash_nodeINS_17__hash_value_typeINS_10type_indexEPN8pybind116detail9type_infoEEEPvEEEELi0ELb0EEC2B7v160006ENS_16__value_init_tagE, symObjAddr: 0xA210, symBinAddr: 0xB0C0, symSize: 0x20 }
  - { offsetInCU: 0x5FFEB, offset: 0x5FFEB, size: 0x8, addend: 0x0, symName: __ZNSt3__122__compressed_pair_elemINS_9allocatorINS_11__hash_nodeINS_17__hash_value_typeINS_10type_indexEPN8pybind116detail9type_infoEEEPvEEEELi1ELb1EEC2B7v160006ENS_16__value_init_tagE, symObjAddr: 0xA230, symBinAddr: 0xB0E0, symSize: 0x20 }
  - { offsetInCU: 0x60020, offset: 0x60020, size: 0x8, addend: 0x0, symName: __ZNSt3__116__hash_node_baseIPNS_11__hash_nodeINS_17__hash_value_typeINS_10type_indexEPN8pybind116detail9type_infoEEEPvEEEC1B7v160006Ev, symObjAddr: 0xA250, symBinAddr: 0xB100, symSize: 0x20 }
  - { offsetInCU: 0x6004A, offset: 0x6004A, size: 0x8, addend: 0x0, symName: __ZNSt3__116__hash_node_baseIPNS_11__hash_nodeINS_17__hash_value_typeINS_10type_indexEPN8pybind116detail9type_infoEEEPvEEEC2B7v160006Ev, symObjAddr: 0xA270, symBinAddr: 0xB120, symSize: 0x20 }
  - { offsetInCU: 0x60074, offset: 0x60074, size: 0x8, addend: 0x0, symName: __ZNSt3__19allocatorINS_11__hash_nodeINS_17__hash_value_typeINS_10type_indexEPN8pybind116detail9type_infoEEEPvEEEC2B7v160006Ev, symObjAddr: 0xA290, symBinAddr: 0xB140, symSize: 0x20 }
  - { offsetInCU: 0x6009E, offset: 0x6009E, size: 0x8, addend: 0x0, symName: __ZNSt3__116__non_trivial_ifILb1ENS_9allocatorINS_11__hash_nodeINS_17__hash_value_typeINS_10type_indexEPN8pybind116detail9type_infoEEEPvEEEEEC2B7v160006Ev, symObjAddr: 0xA2B0, symBinAddr: 0xB160, symSize: 0x10 }
  - { offsetInCU: 0x600C8, offset: 0x600C8, size: 0x8, addend: 0x0, symName: __ZNSt3__117__compressed_pairImNS_22__unordered_map_hasherINS_10type_indexENS_17__hash_value_typeIS2_PN8pybind116detail9type_infoEEENS5_9type_hashENS5_13type_equal_toELb1EEEEC2B7v160006IiNS_18__default_init_tagEEEOT_OT0_, symObjAddr: 0xA2C0, symBinAddr: 0xB170, symSize: 0x40 }
  - { offsetInCU: 0x60120, offset: 0x60120, size: 0x8, addend: 0x0, symName: __ZNSt3__122__compressed_pair_elemINS_22__unordered_map_hasherINS_10type_indexENS_17__hash_value_typeIS2_PN8pybind116detail9type_infoEEENS5_9type_hashENS5_13type_equal_toELb1EEELi1ELb1EEC2B7v160006ENS_18__default_init_tagE, symObjAddr: 0xA300, symBinAddr: 0xB1B0, symSize: 0x20 }
  - { offsetInCU: 0x60155, offset: 0x60155, size: 0x8, addend: 0x0, symName: __ZNSt3__122__unordered_map_hasherINS_10type_indexENS_17__hash_value_typeIS1_PN8pybind116detail9type_infoEEENS4_9type_hashENS4_13type_equal_toELb1EEC2B7v160006Ev, symObjAddr: 0xA320, symBinAddr: 0xB1D0, symSize: 0x10 }
  - { offsetInCU: 0x6017F, offset: 0x6017F, size: 0x8, addend: 0x0, symName: __ZNSt3__117__compressed_pairIfNS_21__unordered_map_equalINS_10type_indexENS_17__hash_value_typeIS2_PN8pybind116detail9type_infoEEENS5_13type_equal_toENS5_9type_hashELb1EEEEC2B7v160006IfNS_18__default_init_tagEEEOT_OT0_, symObjAddr: 0xA330, symBinAddr: 0xB1E0, symSize: 0x40 }
  - { offsetInCU: 0x601D7, offset: 0x601D7, size: 0x8, addend: 0x0, symName: __ZNSt3__122__compressed_pair_elemIfLi0ELb0EEC2B7v160006IfvEEOT_, symObjAddr: 0xA370, symBinAddr: 0xB220, symSize: 0x20 }
  - { offsetInCU: 0x60219, offset: 0x60219, size: 0x8, addend: 0x0, symName: __ZNSt3__122__compressed_pair_elemINS_21__unordered_map_equalINS_10type_indexENS_17__hash_value_typeIS2_PN8pybind116detail9type_infoEEENS5_13type_equal_toENS5_9type_hashELb1EEELi1ELb1EEC2B7v160006ENS_18__default_init_tagE, symObjAddr: 0xA390, symBinAddr: 0xB240, symSize: 0x20 }
  - { offsetInCU: 0x6024E, offset: 0x6024E, size: 0x8, addend: 0x0, symName: __ZNSt3__121__unordered_map_equalINS_10type_indexENS_17__hash_value_typeIS1_PN8pybind116detail9type_infoEEENS4_13type_equal_toENS4_9type_hashELb1EEC2B7v160006Ev, symObjAddr: 0xA3B0, symBinAddr: 0xB260, symSize: 0x10 }
  - { offsetInCU: 0x60278, offset: 0x60278, size: 0x8, addend: 0x0, symName: __ZNSt3__113unordered_mapIP11_typeobjectNS_6vectorIPN8pybind116detail9type_infoENS_9allocatorIS7_EEEENS_4hashIS2_EENS_8equal_toIS2_EENS8_INS_4pairIKS2_SA_EEEEEC2B7v160006Ev, symObjAddr: 0xA3C0, symBinAddr: 0xB270, symSize: 0x40 }
  - { offsetInCU: 0x602A2, offset: 0x602A2, size: 0x8, addend: 0x0, symName: __ZNSt3__112__hash_tableINS_17__hash_value_typeIP11_typeobjectNS_6vectorIPN8pybind116detail9type_infoENS_9allocatorIS8_EEEEEENS_22__unordered_map_hasherIS3_SC_NS_4hashIS3_EENS_8equal_toIS3_EELb1EEENS_21__unordered_map_equalIS3_SC_SH_SF_Lb1EEENS9_ISC_EEEC1Ev, symObjAddr: 0xA400, symBinAddr: 0xB2B0, symSize: 0x20 }
  - { offsetInCU: 0x602CE, offset: 0x602CE, size: 0x8, addend: 0x0, symName: __ZNSt3__112__hash_tableINS_17__hash_value_typeIP11_typeobjectNS_6vectorIPN8pybind116detail9type_infoENS_9allocatorIS8_EEEEEENS_22__unordered_map_hasherIS3_SC_NS_4hashIS3_EENS_8equal_toIS3_EELb1EEENS_21__unordered_map_equalIS3_SC_SH_SF_Lb1EEENS9_ISC_EEEC2Ev, symObjAddr: 0xA430, symBinAddr: 0xB2E0, symSize: 0x80 }
  - { offsetInCU: 0x602FA, offset: 0x602FA, size: 0x8, addend: 0x0, symName: __ZNSt3__110unique_ptrIA_PNS_16__hash_node_baseIPNS_11__hash_nodeINS_17__hash_value_typeIP11_typeobjectNS_6vectorIPN8pybind116detail9type_infoENS_9allocatorISA_EEEEEEPvEEEENS_25__bucket_list_deallocatorINSB_ISJ_EEEEEC1B7v160006ILb1EvEEv, symObjAddr: 0xA4B0, symBinAddr: 0xB360, symSize: 0x20 }
  - { offsetInCU: 0x6032F, offset: 0x6032F, size: 0x8, addend: 0x0, symName: __ZNSt3__117__compressed_pairINS_16__hash_node_baseIPNS_11__hash_nodeINS_17__hash_value_typeIP11_typeobjectNS_6vectorIPN8pybind116detail9type_infoENS_9allocatorISA_EEEEEEPvEEEENSB_ISG_EEEC1B7v160006ILb1EvEEv, symObjAddr: 0xA4D0, symBinAddr: 0xB380, symSize: 0x20 }
  - { offsetInCU: 0x60364, offset: 0x60364, size: 0x8, addend: 0x0, symName: __ZNSt3__117__compressed_pairImNS_22__unordered_map_hasherIP11_typeobjectNS_17__hash_value_typeIS3_NS_6vectorIPN8pybind116detail9type_infoENS_9allocatorIS9_EEEEEENS_4hashIS3_EENS_8equal_toIS3_EELb1EEEEC1B7v160006IiNS_18__default_init_tagEEEOT_OT0_, symObjAddr: 0xA4F0, symBinAddr: 0xB3A0, symSize: 0x30 }
  - { offsetInCU: 0x603BC, offset: 0x603BC, size: 0x8, addend: 0x0, symName: __ZNSt3__117__compressed_pairIfNS_21__unordered_map_equalIP11_typeobjectNS_17__hash_value_typeIS3_NS_6vectorIPN8pybind116detail9type_infoENS_9allocatorIS9_EEEEEENS_8equal_toIS3_EENS_4hashIS3_EELb1EEEEC1B7v160006IfNS_18__default_init_tagEEEOT_OT0_, symObjAddr: 0xA520, symBinAddr: 0xB3D0, symSize: 0x30 }
  - { offsetInCU: 0x60414, offset: 0x60414, size: 0x8, addend: 0x0, symName: __ZNSt3__110unique_ptrIA_PNS_16__hash_node_baseIPNS_11__hash_nodeINS_17__hash_value_typeIP11_typeobjectNS_6vectorIPN8pybind116detail9type_infoENS_9allocatorISA_EEEEEEPvEEEENS_25__bucket_list_deallocatorINSB_ISJ_EEEEEC2B7v160006ILb1EvEEv, symObjAddr: 0xA550, symBinAddr: 0xB400, symSize: 0x30 }
  - { offsetInCU: 0x60449, offset: 0x60449, size: 0x8, addend: 0x0, symName: __ZNSt3__117__compressed_pairIPPNS_16__hash_node_baseIPNS_11__hash_nodeINS_17__hash_value_typeIP11_typeobjectNS_6vectorIPN8pybind116detail9type_infoENS_9allocatorISA_EEEEEEPvEEEENS_25__bucket_list_deallocatorINSB_ISJ_EEEEEC1B7v160006INS_16__value_init_tagESQ_EEOT_OT0_, symObjAddr: 0xA580, symBinAddr: 0xB430, symSize: 0x30 }
  - { offsetInCU: 0x604A1, offset: 0x604A1, size: 0x8, addend: 0x0, symName: __ZNSt3__117__compressed_pairIPPNS_16__hash_node_baseIPNS_11__hash_nodeINS_17__hash_value_typeIP11_typeobjectNS_6vectorIPN8pybind116detail9type_infoENS_9allocatorISA_EEEEEEPvEEEENS_25__bucket_list_deallocatorINSB_ISJ_EEEEEC2B7v160006INS_16__value_init_tagESQ_EEOT_OT0_, symObjAddr: 0xA5B0, symBinAddr: 0xB460, symSize: 0x40 }
  - { offsetInCU: 0x604F9, offset: 0x604F9, size: 0x8, addend: 0x0, symName: __ZNSt3__122__compressed_pair_elemIPPNS_16__hash_node_baseIPNS_11__hash_nodeINS_17__hash_value_typeIP11_typeobjectNS_6vectorIPN8pybind116detail9type_infoENS_9allocatorISA_EEEEEEPvEEEELi0ELb0EEC2B7v160006ENS_16__value_init_tagE, symObjAddr: 0xA5F0, symBinAddr: 0xB4A0, symSize: 0x20 }
  - { offsetInCU: 0x6052E, offset: 0x6052E, size: 0x8, addend: 0x0, symName: __ZNSt3__122__compressed_pair_elemINS_25__bucket_list_deallocatorINS_9allocatorIPNS_16__hash_node_baseIPNS_11__hash_nodeINS_17__hash_value_typeIP11_typeobjectNS_6vectorIPN8pybind116detail9type_infoENS2_ISC_EEEEEEPvEEEEEEEELi1ELb0EEC2B7v160006ENS_16__value_init_tagE, symObjAddr: 0xA610, symBinAddr: 0xB4C0, symSize: 0x20 }
  - { offsetInCU: 0x60563, offset: 0x60563, size: 0x8, addend: 0x0, symName: __ZNSt3__125__bucket_list_deallocatorINS_9allocatorIPNS_16__hash_node_baseIPNS_11__hash_nodeINS_17__hash_value_typeIP11_typeobjectNS_6vectorIPN8pybind116detail9type_infoENS1_ISB_EEEEEEPvEEEEEEEC1B7v160006Ev, symObjAddr: 0xA630, symBinAddr: 0xB4E0, symSize: 0x20 }
  - { offsetInCU: 0x6058D, offset: 0x6058D, size: 0x8, addend: 0x0, symName: __ZNSt3__125__bucket_list_deallocatorINS_9allocatorIPNS_16__hash_node_baseIPNS_11__hash_nodeINS_17__hash_value_typeIP11_typeobjectNS_6vectorIPN8pybind116detail9type_infoENS1_ISB_EEEEEEPvEEEEEEEC2B7v160006Ev, symObjAddr: 0xA650, symBinAddr: 0xB500, symSize: 0x40 }
  - { offsetInCU: 0x605B7, offset: 0x605B7, size: 0x8, addend: 0x0, symName: __ZNSt3__117__compressed_pairImNS_9allocatorIPNS_16__hash_node_baseIPNS_11__hash_nodeINS_17__hash_value_typeIP11_typeobjectNS_6vectorIPN8pybind116detail9type_infoENS1_ISB_EEEEEEPvEEEEEEEC1B7v160006IiNS_18__default_init_tagEEEOT_OT0_, symObjAddr: 0xA690, symBinAddr: 0xB540, symSize: 0x30 }
  - { offsetInCU: 0x6060F, offset: 0x6060F, size: 0x8, addend: 0x0, symName: __ZNSt3__117__compressed_pairImNS_9allocatorIPNS_16__hash_node_baseIPNS_11__hash_nodeINS_17__hash_value_typeIP11_typeobjectNS_6vectorIPN8pybind116detail9type_infoENS1_ISB_EEEEEEPvEEEEEEEC2B7v160006IiNS_18__default_init_tagEEEOT_OT0_, symObjAddr: 0xA6C0, symBinAddr: 0xB570, symSize: 0x40 }
  - { offsetInCU: 0x60667, offset: 0x60667, size: 0x8, addend: 0x0, symName: __ZNSt3__122__compressed_pair_elemINS_9allocatorIPNS_16__hash_node_baseIPNS_11__hash_nodeINS_17__hash_value_typeIP11_typeobjectNS_6vectorIPN8pybind116detail9type_infoENS1_ISB_EEEEEEPvEEEEEELi1ELb1EEC2B7v160006ENS_18__default_init_tagE, symObjAddr: 0xA700, symBinAddr: 0xB5B0, symSize: 0x20 }
  - { offsetInCU: 0x6069C, offset: 0x6069C, size: 0x8, addend: 0x0, symName: __ZNSt3__19allocatorIPNS_16__hash_node_baseIPNS_11__hash_nodeINS_17__hash_value_typeIP11_typeobjectNS_6vectorIPN8pybind116detail9type_infoENS0_ISA_EEEEEEPvEEEEEC2B7v160006Ev, symObjAddr: 0xA720, symBinAddr: 0xB5D0, symSize: 0x20 }
  - { offsetInCU: 0x606C6, offset: 0x606C6, size: 0x8, addend: 0x0, symName: __ZNSt3__116__non_trivial_ifILb1ENS_9allocatorIPNS_16__hash_node_baseIPNS_11__hash_nodeINS_17__hash_value_typeIP11_typeobjectNS_6vectorIPN8pybind116detail9type_infoENS1_ISB_EEEEEEPvEEEEEEEC2B7v160006Ev, symObjAddr: 0xA740, symBinAddr: 0xB5F0, symSize: 0x10 }
  - { offsetInCU: 0x606F0, offset: 0x606F0, size: 0x8, addend: 0x0, symName: __ZNSt3__117__compressed_pairINS_16__hash_node_baseIPNS_11__hash_nodeINS_17__hash_value_typeIP11_typeobjectNS_6vectorIPN8pybind116detail9type_infoENS_9allocatorISA_EEEEEEPvEEEENSB_ISG_EEEC2B7v160006ILb1EvEEv, symObjAddr: 0xA750, symBinAddr: 0xB600, symSize: 0x30 }
  - { offsetInCU: 0x60725, offset: 0x60725, size: 0x8, addend: 0x0, symName: __ZNSt3__122__compressed_pair_elemINS_16__hash_node_baseIPNS_11__hash_nodeINS_17__hash_value_typeIP11_typeobjectNS_6vectorIPN8pybind116detail9type_infoENS_9allocatorISA_EEEEEEPvEEEELi0ELb0EEC2B7v160006ENS_16__value_init_tagE, symObjAddr: 0xA780, symBinAddr: 0xB630, symSize: 0x20 }
  - { offsetInCU: 0x6075A, offset: 0x6075A, size: 0x8, addend: 0x0, symName: __ZNSt3__122__compressed_pair_elemINS_9allocatorINS_11__hash_nodeINS_17__hash_value_typeIP11_typeobjectNS_6vectorIPN8pybind116detail9type_infoENS1_ISA_EEEEEEPvEEEELi1ELb1EEC2B7v160006ENS_16__value_init_tagE, symObjAddr: 0xA7A0, symBinAddr: 0xB650, symSize: 0x20 }
  - { offsetInCU: 0x6078F, offset: 0x6078F, size: 0x8, addend: 0x0, symName: __ZNSt3__116__hash_node_baseIPNS_11__hash_nodeINS_17__hash_value_typeIP11_typeobjectNS_6vectorIPN8pybind116detail9type_infoENS_9allocatorIS9_EEEEEEPvEEEC1B7v160006Ev, symObjAddr: 0xA7C0, symBinAddr: 0xB670, symSize: 0x20 }
  - { offsetInCU: 0x607B9, offset: 0x607B9, size: 0x8, addend: 0x0, symName: __ZNSt3__116__hash_node_baseIPNS_11__hash_nodeINS_17__hash_value_typeIP11_typeobjectNS_6vectorIPN8pybind116detail9type_infoENS_9allocatorIS9_EEEEEEPvEEEC2B7v160006Ev, symObjAddr: 0xA7E0, symBinAddr: 0xB690, symSize: 0x20 }
  - { offsetInCU: 0x607E3, offset: 0x607E3, size: 0x8, addend: 0x0, symName: __ZNSt3__19allocatorINS_11__hash_nodeINS_17__hash_value_typeIP11_typeobjectNS_6vectorIPN8pybind116detail9type_infoENS0_IS9_EEEEEEPvEEEC2B7v160006Ev, symObjAddr: 0xA800, symBinAddr: 0xB6B0, symSize: 0x20 }
  - { offsetInCU: 0x6080D, offset: 0x6080D, size: 0x8, addend: 0x0, symName: __ZNSt3__116__non_trivial_ifILb1ENS_9allocatorINS_11__hash_nodeINS_17__hash_value_typeIP11_typeobjectNS_6vectorIPN8pybind116detail9type_infoENS1_ISA_EEEEEEPvEEEEEC2B7v160006Ev, symObjAddr: 0xA820, symBinAddr: 0xB6D0, symSize: 0x10 }
  - { offsetInCU: 0x60837, offset: 0x60837, size: 0x8, addend: 0x0, symName: __ZNSt3__117__compressed_pairImNS_22__unordered_map_hasherIP11_typeobjectNS_17__hash_value_typeIS3_NS_6vectorIPN8pybind116detail9type_infoENS_9allocatorIS9_EEEEEENS_4hashIS3_EENS_8equal_toIS3_EELb1EEEEC2B7v160006IiNS_18__default_init_tagEEEOT_OT0_, symObjAddr: 0xA830, symBinAddr: 0xB6E0, symSize: 0x40 }
  - { offsetInCU: 0x6088F, offset: 0x6088F, size: 0x8, addend: 0x0, symName: __ZNSt3__122__compressed_pair_elemINS_22__unordered_map_hasherIP11_typeobjectNS_17__hash_value_typeIS3_NS_6vectorIPN8pybind116detail9type_infoENS_9allocatorIS9_EEEEEENS_4hashIS3_EENS_8equal_toIS3_EELb1EEELi1ELb1EEC2B7v160006ENS_18__default_init_tagE, symObjAddr: 0xA870, symBinAddr: 0xB720, symSize: 0x20 }
  - { offsetInCU: 0x608C4, offset: 0x608C4, size: 0x8, addend: 0x0, symName: __ZNSt3__122__unordered_map_hasherIP11_typeobjectNS_17__hash_value_typeIS2_NS_6vectorIPN8pybind116detail9type_infoENS_9allocatorIS8_EEEEEENS_4hashIS2_EENS_8equal_toIS2_EELb1EEC2B7v160006Ev, symObjAddr: 0xA890, symBinAddr: 0xB740, symSize: 0x10 }
  - { offsetInCU: 0x608EE, offset: 0x608EE, size: 0x8, addend: 0x0, symName: __ZNSt3__117__compressed_pairIfNS_21__unordered_map_equalIP11_typeobjectNS_17__hash_value_typeIS3_NS_6vectorIPN8pybind116detail9type_infoENS_9allocatorIS9_EEEEEENS_8equal_toIS3_EENS_4hashIS3_EELb1EEEEC2B7v160006IfNS_18__default_init_tagEEEOT_OT0_, symObjAddr: 0xA8A0, symBinAddr: 0xB750, symSize: 0x40 }
  - { offsetInCU: 0x60946, offset: 0x60946, size: 0x8, addend: 0x0, symName: __ZNSt3__122__compressed_pair_elemINS_21__unordered_map_equalIP11_typeobjectNS_17__hash_value_typeIS3_NS_6vectorIPN8pybind116detail9type_infoENS_9allocatorIS9_EEEEEENS_8equal_toIS3_EENS_4hashIS3_EELb1EEELi1ELb1EEC2B7v160006ENS_18__default_init_tagE, symObjAddr: 0xA8E0, symBinAddr: 0xB790, symSize: 0x20 }
  - { offsetInCU: 0x6097B, offset: 0x6097B, size: 0x8, addend: 0x0, symName: __ZNSt3__121__unordered_map_equalIP11_typeobjectNS_17__hash_value_typeIS2_NS_6vectorIPN8pybind116detail9type_infoENS_9allocatorIS8_EEEEEENS_8equal_toIS2_EENS_4hashIS2_EELb1EEC2B7v160006Ev, symObjAddr: 0xA900, symBinAddr: 0xB7B0, symSize: 0x10 }
  - { offsetInCU: 0x609A5, offset: 0x609A5, size: 0x8, addend: 0x0, symName: __ZNSt3__118unordered_multimapIPKvPN8pybind116detail8instanceENS_4hashIS2_EENS_8equal_toIS2_EENS_9allocatorINS_4pairIKS2_S6_EEEEEC2B7v160006Ev, symObjAddr: 0xA910, symBinAddr: 0xB7C0, symSize: 0x40 }
  - { offsetInCU: 0x609CF, offset: 0x609CF, size: 0x8, addend: 0x0, symName: __ZNSt3__112__hash_tableINS_17__hash_value_typeIPKvPN8pybind116detail8instanceEEENS_22__unordered_map_hasherIS3_S8_NS_4hashIS3_EENS_8equal_toIS3_EELb1EEENS_21__unordered_map_equalIS3_S8_SD_SB_Lb1EEENS_9allocatorIS8_EEEC1Ev, symObjAddr: 0xA950, symBinAddr: 0xB800, symSize: 0x20 }
  - { offsetInCU: 0x609FB, offset: 0x609FB, size: 0x8, addend: 0x0, symName: __ZNSt3__112__hash_tableINS_17__hash_value_typeIPKvPN8pybind116detail8instanceEEENS_22__unordered_map_hasherIS3_S8_NS_4hashIS3_EENS_8equal_toIS3_EELb1EEENS_21__unordered_map_equalIS3_S8_SD_SB_Lb1EEENS_9allocatorIS8_EEEC2Ev, symObjAddr: 0xA980, symBinAddr: 0xB830, symSize: 0x80 }
  - { offsetInCU: 0x60A27, offset: 0x60A27, size: 0x8, addend: 0x0, symName: __ZNSt3__110unique_ptrIA_PNS_16__hash_node_baseIPNS_11__hash_nodeINS_17__hash_value_typeIPKvPN8pybind116detail8instanceEEEPvEEEENS_25__bucket_list_deallocatorINS_9allocatorISF_EEEEEC1B7v160006ILb1EvEEv, symObjAddr: 0xAA00, symBinAddr: 0xB8B0, symSize: 0x20 }
  - { offsetInCU: 0x60A5C, offset: 0x60A5C, size: 0x8, addend: 0x0, symName: __ZNSt3__117__compressed_pairINS_16__hash_node_baseIPNS_11__hash_nodeINS_17__hash_value_typeIPKvPN8pybind116detail8instanceEEEPvEEEENS_9allocatorISC_EEEC1B7v160006ILb1EvEEv, symObjAddr: 0xAA20, symBinAddr: 0xB8D0, symSize: 0x20 }
  - { offsetInCU: 0x60A91, offset: 0x60A91, size: 0x8, addend: 0x0, symName: __ZNSt3__117__compressed_pairImNS_22__unordered_map_hasherIPKvNS_17__hash_value_typeIS3_PN8pybind116detail8instanceEEENS_4hashIS3_EENS_8equal_toIS3_EELb1EEEEC1B7v160006IiNS_18__default_init_tagEEEOT_OT0_, symObjAddr: 0xAA40, symBinAddr: 0xB8F0, symSize: 0x30 }
  - { offsetInCU: 0x60AE9, offset: 0x60AE9, size: 0x8, addend: 0x0, symName: __ZNSt3__117__compressed_pairIfNS_21__unordered_map_equalIPKvNS_17__hash_value_typeIS3_PN8pybind116detail8instanceEEENS_8equal_toIS3_EENS_4hashIS3_EELb1EEEEC1B7v160006IfNS_18__default_init_tagEEEOT_OT0_, symObjAddr: 0xAA70, symBinAddr: 0xB920, symSize: 0x30 }
  - { offsetInCU: 0x60B41, offset: 0x60B41, size: 0x8, addend: 0x0, symName: __ZNSt3__110unique_ptrIA_PNS_16__hash_node_baseIPNS_11__hash_nodeINS_17__hash_value_typeIPKvPN8pybind116detail8instanceEEEPvEEEENS_25__bucket_list_deallocatorINS_9allocatorISF_EEEEEC2B7v160006ILb1EvEEv, symObjAddr: 0xAAA0, symBinAddr: 0xB950, symSize: 0x30 }
  - { offsetInCU: 0x60B76, offset: 0x60B76, size: 0x8, addend: 0x0, symName: __ZNSt3__117__compressed_pairIPPNS_16__hash_node_baseIPNS_11__hash_nodeINS_17__hash_value_typeIPKvPN8pybind116detail8instanceEEEPvEEEENS_25__bucket_list_deallocatorINS_9allocatorISF_EEEEEC1B7v160006INS_16__value_init_tagESN_EEOT_OT0_, symObjAddr: 0xAAD0, symBinAddr: 0xB980, symSize: 0x30 }
  - { offsetInCU: 0x60BCE, offset: 0x60BCE, size: 0x8, addend: 0x0, symName: __ZNSt3__117__compressed_pairIPPNS_16__hash_node_baseIPNS_11__hash_nodeINS_17__hash_value_typeIPKvPN8pybind116detail8instanceEEEPvEEEENS_25__bucket_list_deallocatorINS_9allocatorISF_EEEEEC2B7v160006INS_16__value_init_tagESN_EEOT_OT0_, symObjAddr: 0xAB00, symBinAddr: 0xB9B0, symSize: 0x40 }
  - { offsetInCU: 0x60C26, offset: 0x60C26, size: 0x8, addend: 0x0, symName: __ZNSt3__122__compressed_pair_elemIPPNS_16__hash_node_baseIPNS_11__hash_nodeINS_17__hash_value_typeIPKvPN8pybind116detail8instanceEEEPvEEEELi0ELb0EEC2B7v160006ENS_16__value_init_tagE, symObjAddr: 0xAB40, symBinAddr: 0xB9F0, symSize: 0x20 }
  - { offsetInCU: 0x60C5B, offset: 0x60C5B, size: 0x8, addend: 0x0, symName: __ZNSt3__122__compressed_pair_elemINS_25__bucket_list_deallocatorINS_9allocatorIPNS_16__hash_node_baseIPNS_11__hash_nodeINS_17__hash_value_typeIPKvPN8pybind116detail8instanceEEEPvEEEEEEEELi1ELb0EEC2B7v160006ENS_16__value_init_tagE, symObjAddr: 0xAB60, symBinAddr: 0xBA10, symSize: 0x20 }
  - { offsetInCU: 0x60C90, offset: 0x60C90, size: 0x8, addend: 0x0, symName: __ZNSt3__125__bucket_list_deallocatorINS_9allocatorIPNS_16__hash_node_baseIPNS_11__hash_nodeINS_17__hash_value_typeIPKvPN8pybind116detail8instanceEEEPvEEEEEEEC1B7v160006Ev, symObjAddr: 0xAB80, symBinAddr: 0xBA30, symSize: 0x20 }
  - { offsetInCU: 0x60CBA, offset: 0x60CBA, size: 0x8, addend: 0x0, symName: __ZNSt3__125__bucket_list_deallocatorINS_9allocatorIPNS_16__hash_node_baseIPNS_11__hash_nodeINS_17__hash_value_typeIPKvPN8pybind116detail8instanceEEEPvEEEEEEEC2B7v160006Ev, symObjAddr: 0xABA0, symBinAddr: 0xBA50, symSize: 0x40 }
  - { offsetInCU: 0x60CE4, offset: 0x60CE4, size: 0x8, addend: 0x0, symName: __ZNSt3__117__compressed_pairImNS_9allocatorIPNS_16__hash_node_baseIPNS_11__hash_nodeINS_17__hash_value_typeIPKvPN8pybind116detail8instanceEEEPvEEEEEEEC1B7v160006IiNS_18__default_init_tagEEEOT_OT0_, symObjAddr: 0xABE0, symBinAddr: 0xBA90, symSize: 0x30 }
  - { offsetInCU: 0x60D3C, offset: 0x60D3C, size: 0x8, addend: 0x0, symName: __ZNSt3__117__compressed_pairImNS_9allocatorIPNS_16__hash_node_baseIPNS_11__hash_nodeINS_17__hash_value_typeIPKvPN8pybind116detail8instanceEEEPvEEEEEEEC2B7v160006IiNS_18__default_init_tagEEEOT_OT0_, symObjAddr: 0xAC10, symBinAddr: 0xBAC0, symSize: 0x40 }
  - { offsetInCU: 0x60D94, offset: 0x60D94, size: 0x8, addend: 0x0, symName: __ZNSt3__122__compressed_pair_elemINS_9allocatorIPNS_16__hash_node_baseIPNS_11__hash_nodeINS_17__hash_value_typeIPKvPN8pybind116detail8instanceEEEPvEEEEEELi1ELb1EEC2B7v160006ENS_18__default_init_tagE, symObjAddr: 0xAC50, symBinAddr: 0xBB00, symSize: 0x20 }
  - { offsetInCU: 0x60DC9, offset: 0x60DC9, size: 0x8, addend: 0x0, symName: __ZNSt3__19allocatorIPNS_16__hash_node_baseIPNS_11__hash_nodeINS_17__hash_value_typeIPKvPN8pybind116detail8instanceEEEPvEEEEEC2B7v160006Ev, symObjAddr: 0xAC70, symBinAddr: 0xBB20, symSize: 0x20 }
  - { offsetInCU: 0x60DF3, offset: 0x60DF3, size: 0x8, addend: 0x0, symName: __ZNSt3__116__non_trivial_ifILb1ENS_9allocatorIPNS_16__hash_node_baseIPNS_11__hash_nodeINS_17__hash_value_typeIPKvPN8pybind116detail8instanceEEEPvEEEEEEEC2B7v160006Ev, symObjAddr: 0xAC90, symBinAddr: 0xBB40, symSize: 0x10 }
  - { offsetInCU: 0x60E1D, offset: 0x60E1D, size: 0x8, addend: 0x0, symName: __ZNSt3__117__compressed_pairINS_16__hash_node_baseIPNS_11__hash_nodeINS_17__hash_value_typeIPKvPN8pybind116detail8instanceEEEPvEEEENS_9allocatorISC_EEEC2B7v160006ILb1EvEEv, symObjAddr: 0xACA0, symBinAddr: 0xBB50, symSize: 0x30 }
  - { offsetInCU: 0x60E52, offset: 0x60E52, size: 0x8, addend: 0x0, symName: __ZNSt3__122__compressed_pair_elemINS_16__hash_node_baseIPNS_11__hash_nodeINS_17__hash_value_typeIPKvPN8pybind116detail8instanceEEEPvEEEELi0ELb0EEC2B7v160006ENS_16__value_init_tagE, symObjAddr: 0xACD0, symBinAddr: 0xBB80, symSize: 0x20 }
  - { offsetInCU: 0x60E87, offset: 0x60E87, size: 0x8, addend: 0x0, symName: __ZNSt3__122__compressed_pair_elemINS_9allocatorINS_11__hash_nodeINS_17__hash_value_typeIPKvPN8pybind116detail8instanceEEEPvEEEELi1ELb1EEC2B7v160006ENS_16__value_init_tagE, symObjAddr: 0xACF0, symBinAddr: 0xBBA0, symSize: 0x20 }
  - { offsetInCU: 0x60EBC, offset: 0x60EBC, size: 0x8, addend: 0x0, symName: __ZNSt3__116__hash_node_baseIPNS_11__hash_nodeINS_17__hash_value_typeIPKvPN8pybind116detail8instanceEEEPvEEEC1B7v160006Ev, symObjAddr: 0xAD10, symBinAddr: 0xBBC0, symSize: 0x20 }
  - { offsetInCU: 0x60EE6, offset: 0x60EE6, size: 0x8, addend: 0x0, symName: __ZNSt3__116__hash_node_baseIPNS_11__hash_nodeINS_17__hash_value_typeIPKvPN8pybind116detail8instanceEEEPvEEEC2B7v160006Ev, symObjAddr: 0xAD30, symBinAddr: 0xBBE0, symSize: 0x20 }
  - { offsetInCU: 0x60F10, offset: 0x60F10, size: 0x8, addend: 0x0, symName: __ZNSt3__19allocatorINS_11__hash_nodeINS_17__hash_value_typeIPKvPN8pybind116detail8instanceEEEPvEEEC2B7v160006Ev, symObjAddr: 0xAD50, symBinAddr: 0xBC00, symSize: 0x20 }
  - { offsetInCU: 0x60F3A, offset: 0x60F3A, size: 0x8, addend: 0x0, symName: __ZNSt3__116__non_trivial_ifILb1ENS_9allocatorINS_11__hash_nodeINS_17__hash_value_typeIPKvPN8pybind116detail8instanceEEEPvEEEEEC2B7v160006Ev, symObjAddr: 0xAD70, symBinAddr: 0xBC20, symSize: 0x10 }
  - { offsetInCU: 0x60F64, offset: 0x60F64, size: 0x8, addend: 0x0, symName: __ZNSt3__117__compressed_pairImNS_22__unordered_map_hasherIPKvNS_17__hash_value_typeIS3_PN8pybind116detail8instanceEEENS_4hashIS3_EENS_8equal_toIS3_EELb1EEEEC2B7v160006IiNS_18__default_init_tagEEEOT_OT0_, symObjAddr: 0xAD80, symBinAddr: 0xBC30, symSize: 0x40 }
  - { offsetInCU: 0x60FBC, offset: 0x60FBC, size: 0x8, addend: 0x0, symName: __ZNSt3__122__compressed_pair_elemINS_22__unordered_map_hasherIPKvNS_17__hash_value_typeIS3_PN8pybind116detail8instanceEEENS_4hashIS3_EENS_8equal_toIS3_EELb1EEELi1ELb1EEC2B7v160006ENS_18__default_init_tagE, symObjAddr: 0xADC0, symBinAddr: 0xBC70, symSize: 0x20 }
  - { offsetInCU: 0x60FF1, offset: 0x60FF1, size: 0x8, addend: 0x0, symName: __ZNSt3__122__unordered_map_hasherIPKvNS_17__hash_value_typeIS2_PN8pybind116detail8instanceEEENS_4hashIS2_EENS_8equal_toIS2_EELb1EEC2B7v160006Ev, symObjAddr: 0xADE0, symBinAddr: 0xBC90, symSize: 0x10 }
  - { offsetInCU: 0x6101B, offset: 0x6101B, size: 0x8, addend: 0x0, symName: __ZNSt3__117__compressed_pairIfNS_21__unordered_map_equalIPKvNS_17__hash_value_typeIS3_PN8pybind116detail8instanceEEENS_8equal_toIS3_EENS_4hashIS3_EELb1EEEEC2B7v160006IfNS_18__default_init_tagEEEOT_OT0_, symObjAddr: 0xADF0, symBinAddr: 0xBCA0, symSize: 0x40 }
  - { offsetInCU: 0x61073, offset: 0x61073, size: 0x8, addend: 0x0, symName: __ZNSt3__122__compressed_pair_elemINS_21__unordered_map_equalIPKvNS_17__hash_value_typeIS3_PN8pybind116detail8instanceEEENS_8equal_toIS3_EENS_4hashIS3_EELb1EEELi1ELb1EEC2B7v160006ENS_18__default_init_tagE, symObjAddr: 0xAE30, symBinAddr: 0xBCE0, symSize: 0x20 }
  - { offsetInCU: 0x610A8, offset: 0x610A8, size: 0x8, addend: 0x0, symName: __ZNSt3__121__unordered_map_equalIPKvNS_17__hash_value_typeIS2_PN8pybind116detail8instanceEEENS_8equal_toIS2_EENS_4hashIS2_EELb1EEC2B7v160006Ev, symObjAddr: 0xAE50, symBinAddr: 0xBD00, symSize: 0x10 }
  - { offsetInCU: 0x610D2, offset: 0x610D2, size: 0x8, addend: 0x0, symName: __ZNSt3__113unordered_setINS_4pairIPK7_objectPKcEEN8pybind116detail13override_hashENS_8equal_toIS7_EENS_9allocatorIS7_EEEC2B7v160006Ev, symObjAddr: 0xAE60, symBinAddr: 0xBD10, symSize: 0x40 }
  - { offsetInCU: 0x610FC, offset: 0x610FC, size: 0x8, addend: 0x0, symName: __ZNSt3__112__hash_tableINS_4pairIPK7_objectPKcEEN8pybind116detail13override_hashENS_8equal_toIS7_EENS_9allocatorIS7_EEEC1Ev, symObjAddr: 0xAEA0, symBinAddr: 0xBD50, symSize: 0x20 }
  - { offsetInCU: 0x61128, offset: 0x61128, size: 0x8, addend: 0x0, symName: __ZNSt3__112__hash_tableINS_4pairIPK7_objectPKcEEN8pybind116detail13override_hashENS_8equal_toIS7_EENS_9allocatorIS7_EEEC2Ev, symObjAddr: 0xAED0, symBinAddr: 0xBD80, symSize: 0x80 }
  - { offsetInCU: 0x61154, offset: 0x61154, size: 0x8, addend: 0x0, symName: __ZNSt3__110unique_ptrIA_PNS_16__hash_node_baseIPNS_11__hash_nodeINS_4pairIPK7_objectPKcEEPvEEEENS_25__bucket_list_deallocatorINS_9allocatorISE_EEEEEC1B7v160006ILb1EvEEv, symObjAddr: 0xAF50, symBinAddr: 0xBE00, symSize: 0x20 }
  - { offsetInCU: 0x61189, offset: 0x61189, size: 0x8, addend: 0x0, symName: __ZNSt3__117__compressed_pairINS_16__hash_node_baseIPNS_11__hash_nodeINS_4pairIPK7_objectPKcEEPvEEEENS_9allocatorISB_EEEC1B7v160006ILb1EvEEv, symObjAddr: 0xAF70, symBinAddr: 0xBE20, symSize: 0x20 }
  - { offsetInCU: 0x611BE, offset: 0x611BE, size: 0x8, addend: 0x0, symName: __ZNSt3__117__compressed_pairImN8pybind116detail13override_hashEEC1B7v160006IiNS_18__default_init_tagEEEOT_OT0_, symObjAddr: 0xAF90, symBinAddr: 0xBE40, symSize: 0x30 }
  - { offsetInCU: 0x61216, offset: 0x61216, size: 0x8, addend: 0x0, symName: __ZNSt3__117__compressed_pairIfNS_8equal_toINS_4pairIPK7_objectPKcEEEEEC1B7v160006IfNS_18__default_init_tagEEEOT_OT0_, symObjAddr: 0xAFC0, symBinAddr: 0xBE70, symSize: 0x30 }
  - { offsetInCU: 0x6126E, offset: 0x6126E, size: 0x8, addend: 0x0, symName: __ZNSt3__110unique_ptrIA_PNS_16__hash_node_baseIPNS_11__hash_nodeINS_4pairIPK7_objectPKcEEPvEEEENS_25__bucket_list_deallocatorINS_9allocatorISE_EEEEEC2B7v160006ILb1EvEEv, symObjAddr: 0xAFF0, symBinAddr: 0xBEA0, symSize: 0x30 }
  - { offsetInCU: 0x612A3, offset: 0x612A3, size: 0x8, addend: 0x0, symName: __ZNSt3__117__compressed_pairIPPNS_16__hash_node_baseIPNS_11__hash_nodeINS_4pairIPK7_objectPKcEEPvEEEENS_25__bucket_list_deallocatorINS_9allocatorISE_EEEEEC1B7v160006INS_16__value_init_tagESM_EEOT_OT0_, symObjAddr: 0xB020, symBinAddr: 0xBED0, symSize: 0x30 }
  - { offsetInCU: 0x612FB, offset: 0x612FB, size: 0x8, addend: 0x0, symName: __ZNSt3__117__compressed_pairIPPNS_16__hash_node_baseIPNS_11__hash_nodeINS_4pairIPK7_objectPKcEEPvEEEENS_25__bucket_list_deallocatorINS_9allocatorISE_EEEEEC2B7v160006INS_16__value_init_tagESM_EEOT_OT0_, symObjAddr: 0xB050, symBinAddr: 0xBF00, symSize: 0x40 }
  - { offsetInCU: 0x61353, offset: 0x61353, size: 0x8, addend: 0x0, symName: __ZNSt3__122__compressed_pair_elemIPPNS_16__hash_node_baseIPNS_11__hash_nodeINS_4pairIPK7_objectPKcEEPvEEEELi0ELb0EEC2B7v160006ENS_16__value_init_tagE, symObjAddr: 0xB090, symBinAddr: 0xBF40, symSize: 0x20 }
  - { offsetInCU: 0x61388, offset: 0x61388, size: 0x8, addend: 0x0, symName: __ZNSt3__122__compressed_pair_elemINS_25__bucket_list_deallocatorINS_9allocatorIPNS_16__hash_node_baseIPNS_11__hash_nodeINS_4pairIPK7_objectPKcEEPvEEEEEEEELi1ELb0EEC2B7v160006ENS_16__value_init_tagE, symObjAddr: 0xB0B0, symBinAddr: 0xBF60, symSize: 0x20 }
  - { offsetInCU: 0x613BD, offset: 0x613BD, size: 0x8, addend: 0x0, symName: __ZNSt3__125__bucket_list_deallocatorINS_9allocatorIPNS_16__hash_node_baseIPNS_11__hash_nodeINS_4pairIPK7_objectPKcEEPvEEEEEEEC1B7v160006Ev, symObjAddr: 0xB0D0, symBinAddr: 0xBF80, symSize: 0x20 }
  - { offsetInCU: 0x613E7, offset: 0x613E7, size: 0x8, addend: 0x0, symName: __ZNSt3__125__bucket_list_deallocatorINS_9allocatorIPNS_16__hash_node_baseIPNS_11__hash_nodeINS_4pairIPK7_objectPKcEEPvEEEEEEEC2B7v160006Ev, symObjAddr: 0xB0F0, symBinAddr: 0xBFA0, symSize: 0x40 }
  - { offsetInCU: 0x61411, offset: 0x61411, size: 0x8, addend: 0x0, symName: __ZNSt3__117__compressed_pairImNS_9allocatorIPNS_16__hash_node_baseIPNS_11__hash_nodeINS_4pairIPK7_objectPKcEEPvEEEEEEEC1B7v160006IiNS_18__default_init_tagEEEOT_OT0_, symObjAddr: 0xB130, symBinAddr: 0xBFE0, symSize: 0x30 }
  - { offsetInCU: 0x61469, offset: 0x61469, size: 0x8, addend: 0x0, symName: __ZNSt3__117__compressed_pairImNS_9allocatorIPNS_16__hash_node_baseIPNS_11__hash_nodeINS_4pairIPK7_objectPKcEEPvEEEEEEEC2B7v160006IiNS_18__default_init_tagEEEOT_OT0_, symObjAddr: 0xB160, symBinAddr: 0xC010, symSize: 0x40 }
  - { offsetInCU: 0x614C1, offset: 0x614C1, size: 0x8, addend: 0x0, symName: __ZNSt3__122__compressed_pair_elemINS_9allocatorIPNS_16__hash_node_baseIPNS_11__hash_nodeINS_4pairIPK7_objectPKcEEPvEEEEEELi1ELb1EEC2B7v160006ENS_18__default_init_tagE, symObjAddr: 0xB1A0, symBinAddr: 0xC050, symSize: 0x20 }
  - { offsetInCU: 0x614F6, offset: 0x614F6, size: 0x8, addend: 0x0, symName: __ZNSt3__19allocatorIPNS_16__hash_node_baseIPNS_11__hash_nodeINS_4pairIPK7_objectPKcEEPvEEEEEC2B7v160006Ev, symObjAddr: 0xB1C0, symBinAddr: 0xC070, symSize: 0x20 }
  - { offsetInCU: 0x61520, offset: 0x61520, size: 0x8, addend: 0x0, symName: __ZNSt3__116__non_trivial_ifILb1ENS_9allocatorIPNS_16__hash_node_baseIPNS_11__hash_nodeINS_4pairIPK7_objectPKcEEPvEEEEEEEC2B7v160006Ev, symObjAddr: 0xB1E0, symBinAddr: 0xC090, symSize: 0x10 }
  - { offsetInCU: 0x6154A, offset: 0x6154A, size: 0x8, addend: 0x0, symName: __ZNSt3__117__compressed_pairINS_16__hash_node_baseIPNS_11__hash_nodeINS_4pairIPK7_objectPKcEEPvEEEENS_9allocatorISB_EEEC2B7v160006ILb1EvEEv, symObjAddr: 0xB1F0, symBinAddr: 0xC0A0, symSize: 0x30 }
  - { offsetInCU: 0x6157F, offset: 0x6157F, size: 0x8, addend: 0x0, symName: __ZNSt3__122__compressed_pair_elemINS_16__hash_node_baseIPNS_11__hash_nodeINS_4pairIPK7_objectPKcEEPvEEEELi0ELb0EEC2B7v160006ENS_16__value_init_tagE, symObjAddr: 0xB220, symBinAddr: 0xC0D0, symSize: 0x20 }
  - { offsetInCU: 0x615B4, offset: 0x615B4, size: 0x8, addend: 0x0, symName: __ZNSt3__122__compressed_pair_elemINS_9allocatorINS_11__hash_nodeINS_4pairIPK7_objectPKcEEPvEEEELi1ELb1EEC2B7v160006ENS_16__value_init_tagE, symObjAddr: 0xB240, symBinAddr: 0xC0F0, symSize: 0x20 }
  - { offsetInCU: 0x615E9, offset: 0x615E9, size: 0x8, addend: 0x0, symName: __ZNSt3__116__hash_node_baseIPNS_11__hash_nodeINS_4pairIPK7_objectPKcEEPvEEEC1B7v160006Ev, symObjAddr: 0xB260, symBinAddr: 0xC110, symSize: 0x20 }
  - { offsetInCU: 0x61613, offset: 0x61613, size: 0x8, addend: 0x0, symName: __ZNSt3__116__hash_node_baseIPNS_11__hash_nodeINS_4pairIPK7_objectPKcEEPvEEEC2B7v160006Ev, symObjAddr: 0xB280, symBinAddr: 0xC130, symSize: 0x20 }
  - { offsetInCU: 0x6163D, offset: 0x6163D, size: 0x8, addend: 0x0, symName: __ZNSt3__19allocatorINS_11__hash_nodeINS_4pairIPK7_objectPKcEEPvEEEC2B7v160006Ev, symObjAddr: 0xB2A0, symBinAddr: 0xC150, symSize: 0x20 }
  - { offsetInCU: 0x61667, offset: 0x61667, size: 0x8, addend: 0x0, symName: __ZNSt3__116__non_trivial_ifILb1ENS_9allocatorINS_11__hash_nodeINS_4pairIPK7_objectPKcEEPvEEEEEC2B7v160006Ev, symObjAddr: 0xB2C0, symBinAddr: 0xC170, symSize: 0x10 }
  - { offsetInCU: 0x61691, offset: 0x61691, size: 0x8, addend: 0x0, symName: __ZNSt3__117__compressed_pairImN8pybind116detail13override_hashEEC2B7v160006IiNS_18__default_init_tagEEEOT_OT0_, symObjAddr: 0xB2D0, symBinAddr: 0xC180, symSize: 0x40 }
  - { offsetInCU: 0x616E9, offset: 0x616E9, size: 0x8, addend: 0x0, symName: __ZNSt3__122__compressed_pair_elemIN8pybind116detail13override_hashELi1ELb1EEC2B7v160006ENS_18__default_init_tagE, symObjAddr: 0xB310, symBinAddr: 0xC1C0, symSize: 0x10 }
  - { offsetInCU: 0x6171E, offset: 0x6171E, size: 0x8, addend: 0x0, symName: __ZNSt3__117__compressed_pairIfNS_8equal_toINS_4pairIPK7_objectPKcEEEEEC2B7v160006IfNS_18__default_init_tagEEEOT_OT0_, symObjAddr: 0xB320, symBinAddr: 0xC1D0, symSize: 0x40 }
  - { offsetInCU: 0x61776, offset: 0x61776, size: 0x8, addend: 0x0, symName: __ZNSt3__122__compressed_pair_elemINS_8equal_toINS_4pairIPK7_objectPKcEEEELi1ELb1EEC2B7v160006ENS_18__default_init_tagE, symObjAddr: 0xB360, symBinAddr: 0xC210, symSize: 0x10 }
  - { offsetInCU: 0x617AB, offset: 0x617AB, size: 0x8, addend: 0x0, symName: __ZNSt3__113unordered_mapINS_10type_indexENS_6vectorIPFbP7_objectRPvENS_9allocatorIS8_EEEEN8pybind116detail9type_hashENSD_13type_equal_toENS9_INS_4pairIKS1_SB_EEEEEC2B7v160006Ev, symObjAddr: 0xB370, symBinAddr: 0xC220, symSize: 0x40 }
  - { offsetInCU: 0x617D5, offset: 0x617D5, size: 0x8, addend: 0x0, symName: __ZNSt3__112__hash_tableINS_17__hash_value_typeINS_10type_indexENS_6vectorIPFbP7_objectRPvENS_9allocatorIS9_EEEEEENS_22__unordered_map_hasherIS2_SD_N8pybind116detail9type_hashENSG_13type_equal_toELb1EEENS_21__unordered_map_equalIS2_SD_SI_SH_Lb1EEENSA_ISD_EEEC1Ev, symObjAddr: 0xB3B0, symBinAddr: 0xC260, symSize: 0x20 }
  - { offsetInCU: 0x61801, offset: 0x61801, size: 0x8, addend: 0x0, symName: __ZNSt3__112__hash_tableINS_17__hash_value_typeINS_10type_indexENS_6vectorIPFbP7_objectRPvENS_9allocatorIS9_EEEEEENS_22__unordered_map_hasherIS2_SD_N8pybind116detail9type_hashENSG_13type_equal_toELb1EEENS_21__unordered_map_equalIS2_SD_SI_SH_Lb1EEENSA_ISD_EEEC2Ev, symObjAddr: 0xB3E0, symBinAddr: 0xC290, symSize: 0x80 }
  - { offsetInCU: 0x6182D, offset: 0x6182D, size: 0x8, addend: 0x0, symName: __ZNSt3__110unique_ptrIA_PNS_16__hash_node_baseIPNS_11__hash_nodeINS_17__hash_value_typeINS_10type_indexENS_6vectorIPFbP7_objectRPvENS_9allocatorISB_EEEEEES8_EEEENS_25__bucket_list_deallocatorINSC_ISJ_EEEEEC1B7v160006ILb1EvEEv, symObjAddr: 0xB460, symBinAddr: 0xC310, symSize: 0x20 }
  - { offsetInCU: 0x61862, offset: 0x61862, size: 0x8, addend: 0x0, symName: __ZNSt3__117__compressed_pairINS_16__hash_node_baseIPNS_11__hash_nodeINS_17__hash_value_typeINS_10type_indexENS_6vectorIPFbP7_objectRPvENS_9allocatorISB_EEEEEES8_EEEENSC_ISG_EEEC1B7v160006ILb1EvEEv, symObjAddr: 0xB480, symBinAddr: 0xC330, symSize: 0x20 }
  - { offsetInCU: 0x61897, offset: 0x61897, size: 0x8, addend: 0x0, symName: __ZNSt3__117__compressed_pairImNS_22__unordered_map_hasherINS_10type_indexENS_17__hash_value_typeIS2_NS_6vectorIPFbP7_objectRPvENS_9allocatorISA_EEEEEEN8pybind116detail9type_hashENSG_13type_equal_toELb1EEEEC1B7v160006IiNS_18__default_init_tagEEEOT_OT0_, symObjAddr: 0xB4A0, symBinAddr: 0xC350, symSize: 0x30 }
  - { offsetInCU: 0x618EF, offset: 0x618EF, size: 0x8, addend: 0x0, symName: __ZNSt3__117__compressed_pairIfNS_21__unordered_map_equalINS_10type_indexENS_17__hash_value_typeIS2_NS_6vectorIPFbP7_objectRPvENS_9allocatorISA_EEEEEEN8pybind116detail13type_equal_toENSG_9type_hashELb1EEEEC1B7v160006IfNS_18__default_init_tagEEEOT_OT0_, symObjAddr: 0xB4D0, symBinAddr: 0xC380, symSize: 0x30 }
  - { offsetInCU: 0x61947, offset: 0x61947, size: 0x8, addend: 0x0, symName: __ZNSt3__110unique_ptrIA_PNS_16__hash_node_baseIPNS_11__hash_nodeINS_17__hash_value_typeINS_10type_indexENS_6vectorIPFbP7_objectRPvENS_9allocatorISB_EEEEEES8_EEEENS_25__bucket_list_deallocatorINSC_ISJ_EEEEEC2B7v160006ILb1EvEEv, symObjAddr: 0xB500, symBinAddr: 0xC3B0, symSize: 0x30 }
  - { offsetInCU: 0x6197C, offset: 0x6197C, size: 0x8, addend: 0x0, symName: __ZNSt3__117__compressed_pairIPPNS_16__hash_node_baseIPNS_11__hash_nodeINS_17__hash_value_typeINS_10type_indexENS_6vectorIPFbP7_objectRPvENS_9allocatorISB_EEEEEES8_EEEENS_25__bucket_list_deallocatorINSC_ISJ_EEEEEC1B7v160006INS_16__value_init_tagESQ_EEOT_OT0_, symObjAddr: 0xB530, symBinAddr: 0xC3E0, symSize: 0x30 }
  - { offsetInCU: 0x619D4, offset: 0x619D4, size: 0x8, addend: 0x0, symName: __ZNSt3__117__compressed_pairIPPNS_16__hash_node_baseIPNS_11__hash_nodeINS_17__hash_value_typeINS_10type_indexENS_6vectorIPFbP7_objectRPvENS_9allocatorISB_EEEEEES8_EEEENS_25__bucket_list_deallocatorINSC_ISJ_EEEEEC2B7v160006INS_16__value_init_tagESQ_EEOT_OT0_, symObjAddr: 0xB560, symBinAddr: 0xC410, symSize: 0x40 }
  - { offsetInCU: 0x61A2C, offset: 0x61A2C, size: 0x8, addend: 0x0, symName: __ZNSt3__122__compressed_pair_elemIPPNS_16__hash_node_baseIPNS_11__hash_nodeINS_17__hash_value_typeINS_10type_indexENS_6vectorIPFbP7_objectRPvENS_9allocatorISB_EEEEEES8_EEEELi0ELb0EEC2B7v160006ENS_16__value_init_tagE, symObjAddr: 0xB5A0, symBinAddr: 0xC450, symSize: 0x20 }
  - { offsetInCU: 0x61A61, offset: 0x61A61, size: 0x8, addend: 0x0, symName: __ZNSt3__122__compressed_pair_elemINS_25__bucket_list_deallocatorINS_9allocatorIPNS_16__hash_node_baseIPNS_11__hash_nodeINS_17__hash_value_typeINS_10type_indexENS_6vectorIPFbP7_objectRPvENS2_ISD_EEEEEESA_EEEEEEEELi1ELb0EEC2B7v160006ENS_16__value_init_tagE, symObjAddr: 0xB5C0, symBinAddr: 0xC470, symSize: 0x20 }
  - { offsetInCU: 0x61A96, offset: 0x61A96, size: 0x8, addend: 0x0, symName: __ZNSt3__125__bucket_list_deallocatorINS_9allocatorIPNS_16__hash_node_baseIPNS_11__hash_nodeINS_17__hash_value_typeINS_10type_indexENS_6vectorIPFbP7_objectRPvENS1_ISC_EEEEEES9_EEEEEEEC1B7v160006Ev, symObjAddr: 0xB5E0, symBinAddr: 0xC490, symSize: 0x20 }
  - { offsetInCU: 0x61AC0, offset: 0x61AC0, size: 0x8, addend: 0x0, symName: __ZNSt3__125__bucket_list_deallocatorINS_9allocatorIPNS_16__hash_node_baseIPNS_11__hash_nodeINS_17__hash_value_typeINS_10type_indexENS_6vectorIPFbP7_objectRPvENS1_ISC_EEEEEES9_EEEEEEEC2B7v160006Ev, symObjAddr: 0xB600, symBinAddr: 0xC4B0, symSize: 0x40 }
  - { offsetInCU: 0x61AEA, offset: 0x61AEA, size: 0x8, addend: 0x0, symName: __ZNSt3__117__compressed_pairImNS_9allocatorIPNS_16__hash_node_baseIPNS_11__hash_nodeINS_17__hash_value_typeINS_10type_indexENS_6vectorIPFbP7_objectRPvENS1_ISC_EEEEEES9_EEEEEEEC1B7v160006IiNS_18__default_init_tagEEEOT_OT0_, symObjAddr: 0xB640, symBinAddr: 0xC4F0, symSize: 0x30 }
  - { offsetInCU: 0x61B42, offset: 0x61B42, size: 0x8, addend: 0x0, symName: __ZNSt3__117__compressed_pairImNS_9allocatorIPNS_16__hash_node_baseIPNS_11__hash_nodeINS_17__hash_value_typeINS_10type_indexENS_6vectorIPFbP7_objectRPvENS1_ISC_EEEEEES9_EEEEEEEC2B7v160006IiNS_18__default_init_tagEEEOT_OT0_, symObjAddr: 0xB670, symBinAddr: 0xC520, symSize: 0x40 }
  - { offsetInCU: 0x61B9A, offset: 0x61B9A, size: 0x8, addend: 0x0, symName: __ZNSt3__122__compressed_pair_elemINS_9allocatorIPNS_16__hash_node_baseIPNS_11__hash_nodeINS_17__hash_value_typeINS_10type_indexENS_6vectorIPFbP7_objectRPvENS1_ISC_EEEEEES9_EEEEEELi1ELb1EEC2B7v160006ENS_18__default_init_tagE, symObjAddr: 0xB6B0, symBinAddr: 0xC560, symSize: 0x20 }
  - { offsetInCU: 0x61BCF, offset: 0x61BCF, size: 0x8, addend: 0x0, symName: __ZNSt3__19allocatorIPNS_16__hash_node_baseIPNS_11__hash_nodeINS_17__hash_value_typeINS_10type_indexENS_6vectorIPFbP7_objectRPvENS0_ISB_EEEEEES8_EEEEEC2B7v160006Ev, symObjAddr: 0xB6D0, symBinAddr: 0xC580, symSize: 0x20 }
  - { offsetInCU: 0x61BF9, offset: 0x61BF9, size: 0x8, addend: 0x0, symName: __ZNSt3__116__non_trivial_ifILb1ENS_9allocatorIPNS_16__hash_node_baseIPNS_11__hash_nodeINS_17__hash_value_typeINS_10type_indexENS_6vectorIPFbP7_objectRPvENS1_ISC_EEEEEES9_EEEEEEEC2B7v160006Ev, symObjAddr: 0xB6F0, symBinAddr: 0xC5A0, symSize: 0x10 }
  - { offsetInCU: 0x61C23, offset: 0x61C23, size: 0x8, addend: 0x0, symName: __ZNSt3__117__compressed_pairINS_16__hash_node_baseIPNS_11__hash_nodeINS_17__hash_value_typeINS_10type_indexENS_6vectorIPFbP7_objectRPvENS_9allocatorISB_EEEEEES8_EEEENSC_ISG_EEEC2B7v160006ILb1EvEEv, symObjAddr: 0xB700, symBinAddr: 0xC5B0, symSize: 0x30 }
  - { offsetInCU: 0x61C58, offset: 0x61C58, size: 0x8, addend: 0x0, symName: __ZNSt3__122__compressed_pair_elemINS_16__hash_node_baseIPNS_11__hash_nodeINS_17__hash_value_typeINS_10type_indexENS_6vectorIPFbP7_objectRPvENS_9allocatorISB_EEEEEES8_EEEELi0ELb0EEC2B7v160006ENS_16__value_init_tagE, symObjAddr: 0xB730, symBinAddr: 0xC5E0, symSize: 0x20 }
  - { offsetInCU: 0x61C8D, offset: 0x61C8D, size: 0x8, addend: 0x0, symName: __ZNSt3__122__compressed_pair_elemINS_9allocatorINS_11__hash_nodeINS_17__hash_value_typeINS_10type_indexENS_6vectorIPFbP7_objectRPvENS1_ISB_EEEEEES8_EEEELi1ELb1EEC2B7v160006ENS_16__value_init_tagE, symObjAddr: 0xB750, symBinAddr: 0xC600, symSize: 0x20 }
  - { offsetInCU: 0x61CC2, offset: 0x61CC2, size: 0x8, addend: 0x0, symName: __ZNSt3__116__hash_node_baseIPNS_11__hash_nodeINS_17__hash_value_typeINS_10type_indexENS_6vectorIPFbP7_objectRPvENS_9allocatorISA_EEEEEES7_EEEC1B7v160006Ev, symObjAddr: 0xB770, symBinAddr: 0xC620, symSize: 0x20 }
  - { offsetInCU: 0x61CEC, offset: 0x61CEC, size: 0x8, addend: 0x0, symName: __ZNSt3__116__hash_node_baseIPNS_11__hash_nodeINS_17__hash_value_typeINS_10type_indexENS_6vectorIPFbP7_objectRPvENS_9allocatorISA_EEEEEES7_EEEC2B7v160006Ev, symObjAddr: 0xB790, symBinAddr: 0xC640, symSize: 0x20 }
  - { offsetInCU: 0x61D16, offset: 0x61D16, size: 0x8, addend: 0x0, symName: __ZNSt3__19allocatorINS_11__hash_nodeINS_17__hash_value_typeINS_10type_indexENS_6vectorIPFbP7_objectRPvENS0_ISA_EEEEEES7_EEEC2B7v160006Ev, symObjAddr: 0xB7B0, symBinAddr: 0xC660, symSize: 0x20 }
  - { offsetInCU: 0x61D40, offset: 0x61D40, size: 0x8, addend: 0x0, symName: __ZNSt3__116__non_trivial_ifILb1ENS_9allocatorINS_11__hash_nodeINS_17__hash_value_typeINS_10type_indexENS_6vectorIPFbP7_objectRPvENS1_ISB_EEEEEES8_EEEEEC2B7v160006Ev, symObjAddr: 0xB7D0, symBinAddr: 0xC680, symSize: 0x10 }
  - { offsetInCU: 0x61D6A, offset: 0x61D6A, size: 0x8, addend: 0x0, symName: __ZNSt3__117__compressed_pairImNS_22__unordered_map_hasherINS_10type_indexENS_17__hash_value_typeIS2_NS_6vectorIPFbP7_objectRPvENS_9allocatorISA_EEEEEEN8pybind116detail9type_hashENSG_13type_equal_toELb1EEEEC2B7v160006IiNS_18__default_init_tagEEEOT_OT0_, symObjAddr: 0xB7E0, symBinAddr: 0xC690, symSize: 0x40 }
  - { offsetInCU: 0x61DC2, offset: 0x61DC2, size: 0x8, addend: 0x0, symName: __ZNSt3__122__compressed_pair_elemINS_22__unordered_map_hasherINS_10type_indexENS_17__hash_value_typeIS2_NS_6vectorIPFbP7_objectRPvENS_9allocatorISA_EEEEEEN8pybind116detail9type_hashENSG_13type_equal_toELb1EEELi1ELb1EEC2B7v160006ENS_18__default_init_tagE, symObjAddr: 0xB820, symBinAddr: 0xC6D0, symSize: 0x20 }
  - { offsetInCU: 0x61DF7, offset: 0x61DF7, size: 0x8, addend: 0x0, symName: __ZNSt3__122__unordered_map_hasherINS_10type_indexENS_17__hash_value_typeIS1_NS_6vectorIPFbP7_objectRPvENS_9allocatorIS9_EEEEEEN8pybind116detail9type_hashENSF_13type_equal_toELb1EEC2B7v160006Ev, symObjAddr: 0xB840, symBinAddr: 0xC6F0, symSize: 0x10 }
  - { offsetInCU: 0x61E21, offset: 0x61E21, size: 0x8, addend: 0x0, symName: __ZNSt3__117__compressed_pairIfNS_21__unordered_map_equalINS_10type_indexENS_17__hash_value_typeIS2_NS_6vectorIPFbP7_objectRPvENS_9allocatorISA_EEEEEEN8pybind116detail13type_equal_toENSG_9type_hashELb1EEEEC2B7v160006IfNS_18__default_init_tagEEEOT_OT0_, symObjAddr: 0xB850, symBinAddr: 0xC700, symSize: 0x40 }
  - { offsetInCU: 0x61E79, offset: 0x61E79, size: 0x8, addend: 0x0, symName: __ZNSt3__122__compressed_pair_elemINS_21__unordered_map_equalINS_10type_indexENS_17__hash_value_typeIS2_NS_6vectorIPFbP7_objectRPvENS_9allocatorISA_EEEEEEN8pybind116detail13type_equal_toENSG_9type_hashELb1EEELi1ELb1EEC2B7v160006ENS_18__default_init_tagE, symObjAddr: 0xB890, symBinAddr: 0xC740, symSize: 0x20 }
  - { offsetInCU: 0x61EAE, offset: 0x61EAE, size: 0x8, addend: 0x0, symName: __ZNSt3__121__unordered_map_equalINS_10type_indexENS_17__hash_value_typeIS1_NS_6vectorIPFbP7_objectRPvENS_9allocatorIS9_EEEEEEN8pybind116detail13type_equal_toENSF_9type_hashELb1EEC2B7v160006Ev, symObjAddr: 0xB8B0, symBinAddr: 0xC760, symSize: 0x10 }
  - { offsetInCU: 0x61ED8, offset: 0x61ED8, size: 0x8, addend: 0x0, symName: __ZNSt3__113unordered_mapIPK7_objectNS_6vectorIPS1_NS_9allocatorIS5_EEEENS_4hashIS3_EENS_8equal_toIS3_EENS6_INS_4pairIKS3_S8_EEEEEC2B7v160006Ev, symObjAddr: 0xB8C0, symBinAddr: 0xC770, symSize: 0x40 }
  - { offsetInCU: 0x61F02, offset: 0x61F02, size: 0x8, addend: 0x0, symName: __ZNSt3__112__hash_tableINS_17__hash_value_typeIPK7_objectNS_6vectorIPS2_NS_9allocatorIS6_EEEEEENS_22__unordered_map_hasherIS4_SA_NS_4hashIS4_EENS_8equal_toIS4_EELb1EEENS_21__unordered_map_equalIS4_SA_SF_SD_Lb1EEENS7_ISA_EEEC1Ev, symObjAddr: 0xB900, symBinAddr: 0xC7B0, symSize: 0x20 }
  - { offsetInCU: 0x61F2E, offset: 0x61F2E, size: 0x8, addend: 0x0, symName: __ZNSt3__112__hash_tableINS_17__hash_value_typeIPK7_objectNS_6vectorIPS2_NS_9allocatorIS6_EEEEEENS_22__unordered_map_hasherIS4_SA_NS_4hashIS4_EENS_8equal_toIS4_EELb1EEENS_21__unordered_map_equalIS4_SA_SF_SD_Lb1EEENS7_ISA_EEEC2Ev, symObjAddr: 0xB930, symBinAddr: 0xC7E0, symSize: 0x80 }
  - { offsetInCU: 0x61F5A, offset: 0x61F5A, size: 0x8, addend: 0x0, symName: __ZNSt3__110unique_ptrIA_PNS_16__hash_node_baseIPNS_11__hash_nodeINS_17__hash_value_typeIPK7_objectNS_6vectorIPS4_NS_9allocatorIS8_EEEEEEPvEEEENS_25__bucket_list_deallocatorINS9_ISH_EEEEEC1B7v160006ILb1EvEEv, symObjAddr: 0xB9B0, symBinAddr: 0xC860, symSize: 0x20 }
  - { offsetInCU: 0x61F8F, offset: 0x61F8F, size: 0x8, addend: 0x0, symName: __ZNSt3__117__compressed_pairINS_16__hash_node_baseIPNS_11__hash_nodeINS_17__hash_value_typeIPK7_objectNS_6vectorIPS4_NS_9allocatorIS8_EEEEEEPvEEEENS9_ISE_EEEC1B7v160006ILb1EvEEv, symObjAddr: 0xB9D0, symBinAddr: 0xC880, symSize: 0x20 }
  - { offsetInCU: 0x61FC4, offset: 0x61FC4, size: 0x8, addend: 0x0, symName: __ZNSt3__117__compressed_pairImNS_22__unordered_map_hasherIPK7_objectNS_17__hash_value_typeIS4_NS_6vectorIPS2_NS_9allocatorIS7_EEEEEENS_4hashIS4_EENS_8equal_toIS4_EELb1EEEEC1B7v160006IiNS_18__default_init_tagEEEOT_OT0_, symObjAddr: 0xB9F0, symBinAddr: 0xC8A0, symSize: 0x30 }
  - { offsetInCU: 0x6201C, offset: 0x6201C, size: 0x8, addend: 0x0, symName: __ZNSt3__117__compressed_pairIfNS_21__unordered_map_equalIPK7_objectNS_17__hash_value_typeIS4_NS_6vectorIPS2_NS_9allocatorIS7_EEEEEENS_8equal_toIS4_EENS_4hashIS4_EELb1EEEEC1B7v160006IfNS_18__default_init_tagEEEOT_OT0_, symObjAddr: 0xBA20, symBinAddr: 0xC8D0, symSize: 0x30 }
  - { offsetInCU: 0x62074, offset: 0x62074, size: 0x8, addend: 0x0, symName: __ZNSt3__110unique_ptrIA_PNS_16__hash_node_baseIPNS_11__hash_nodeINS_17__hash_value_typeIPK7_objectNS_6vectorIPS4_NS_9allocatorIS8_EEEEEEPvEEEENS_25__bucket_list_deallocatorINS9_ISH_EEEEEC2B7v160006ILb1EvEEv, symObjAddr: 0xBA50, symBinAddr: 0xC900, symSize: 0x30 }
  - { offsetInCU: 0x620A9, offset: 0x620A9, size: 0x8, addend: 0x0, symName: __ZNSt3__117__compressed_pairIPPNS_16__hash_node_baseIPNS_11__hash_nodeINS_17__hash_value_typeIPK7_objectNS_6vectorIPS4_NS_9allocatorIS8_EEEEEEPvEEEENS_25__bucket_list_deallocatorINS9_ISH_EEEEEC1B7v160006INS_16__value_init_tagESO_EEOT_OT0_, symObjAddr: 0xBA80, symBinAddr: 0xC930, symSize: 0x30 }
  - { offsetInCU: 0x62101, offset: 0x62101, size: 0x8, addend: 0x0, symName: __ZNSt3__117__compressed_pairIPPNS_16__hash_node_baseIPNS_11__hash_nodeINS_17__hash_value_typeIPK7_objectNS_6vectorIPS4_NS_9allocatorIS8_EEEEEEPvEEEENS_25__bucket_list_deallocatorINS9_ISH_EEEEEC2B7v160006INS_16__value_init_tagESO_EEOT_OT0_, symObjAddr: 0xBAB0, symBinAddr: 0xC960, symSize: 0x40 }
  - { offsetInCU: 0x62159, offset: 0x62159, size: 0x8, addend: 0x0, symName: __ZNSt3__122__compressed_pair_elemIPPNS_16__hash_node_baseIPNS_11__hash_nodeINS_17__hash_value_typeIPK7_objectNS_6vectorIPS4_NS_9allocatorIS8_EEEEEEPvEEEELi0ELb0EEC2B7v160006ENS_16__value_init_tagE, symObjAddr: 0xBAF0, symBinAddr: 0xC9A0, symSize: 0x20 }
  - { offsetInCU: 0x6218E, offset: 0x6218E, size: 0x8, addend: 0x0, symName: __ZNSt3__122__compressed_pair_elemINS_25__bucket_list_deallocatorINS_9allocatorIPNS_16__hash_node_baseIPNS_11__hash_nodeINS_17__hash_value_typeIPK7_objectNS_6vectorIPS6_NS2_ISA_EEEEEEPvEEEEEEEELi1ELb0EEC2B7v160006ENS_16__value_init_tagE, symObjAddr: 0xBB10, symBinAddr: 0xC9C0, symSize: 0x20 }
  - { offsetInCU: 0x621C3, offset: 0x621C3, size: 0x8, addend: 0x0, symName: __ZNSt3__125__bucket_list_deallocatorINS_9allocatorIPNS_16__hash_node_baseIPNS_11__hash_nodeINS_17__hash_value_typeIPK7_objectNS_6vectorIPS5_NS1_IS9_EEEEEEPvEEEEEEEC1B7v160006Ev, symObjAddr: 0xBB30, symBinAddr: 0xC9E0, symSize: 0x20 }
  - { offsetInCU: 0x621ED, offset: 0x621ED, size: 0x8, addend: 0x0, symName: __ZNSt3__125__bucket_list_deallocatorINS_9allocatorIPNS_16__hash_node_baseIPNS_11__hash_nodeINS_17__hash_value_typeIPK7_objectNS_6vectorIPS5_NS1_IS9_EEEEEEPvEEEEEEEC2B7v160006Ev, symObjAddr: 0xBB50, symBinAddr: 0xCA00, symSize: 0x40 }
  - { offsetInCU: 0x62217, offset: 0x62217, size: 0x8, addend: 0x0, symName: __ZNSt3__117__compressed_pairImNS_9allocatorIPNS_16__hash_node_baseIPNS_11__hash_nodeINS_17__hash_value_typeIPK7_objectNS_6vectorIPS5_NS1_IS9_EEEEEEPvEEEEEEEC1B7v160006IiNS_18__default_init_tagEEEOT_OT0_, symObjAddr: 0xBB90, symBinAddr: 0xCA40, symSize: 0x30 }
  - { offsetInCU: 0x6226F, offset: 0x6226F, size: 0x8, addend: 0x0, symName: __ZNSt3__117__compressed_pairImNS_9allocatorIPNS_16__hash_node_baseIPNS_11__hash_nodeINS_17__hash_value_typeIPK7_objectNS_6vectorIPS5_NS1_IS9_EEEEEEPvEEEEEEEC2B7v160006IiNS_18__default_init_tagEEEOT_OT0_, symObjAddr: 0xBBC0, symBinAddr: 0xCA70, symSize: 0x40 }
  - { offsetInCU: 0x622C7, offset: 0x622C7, size: 0x8, addend: 0x0, symName: __ZNSt3__122__compressed_pair_elemINS_9allocatorIPNS_16__hash_node_baseIPNS_11__hash_nodeINS_17__hash_value_typeIPK7_objectNS_6vectorIPS5_NS1_IS9_EEEEEEPvEEEEEELi1ELb1EEC2B7v160006ENS_18__default_init_tagE, symObjAddr: 0xBC00, symBinAddr: 0xCAB0, symSize: 0x20 }
  - { offsetInCU: 0x622FC, offset: 0x622FC, size: 0x8, addend: 0x0, symName: __ZNSt3__19allocatorIPNS_16__hash_node_baseIPNS_11__hash_nodeINS_17__hash_value_typeIPK7_objectNS_6vectorIPS4_NS0_IS8_EEEEEEPvEEEEEC2B7v160006Ev, symObjAddr: 0xBC20, symBinAddr: 0xCAD0, symSize: 0x20 }
  - { offsetInCU: 0x62326, offset: 0x62326, size: 0x8, addend: 0x0, symName: __ZNSt3__116__non_trivial_ifILb1ENS_9allocatorIPNS_16__hash_node_baseIPNS_11__hash_nodeINS_17__hash_value_typeIPK7_objectNS_6vectorIPS5_NS1_IS9_EEEEEEPvEEEEEEEC2B7v160006Ev, symObjAddr: 0xBC40, symBinAddr: 0xCAF0, symSize: 0x10 }
  - { offsetInCU: 0x62350, offset: 0x62350, size: 0x8, addend: 0x0, symName: __ZNSt3__117__compressed_pairINS_16__hash_node_baseIPNS_11__hash_nodeINS_17__hash_value_typeIPK7_objectNS_6vectorIPS4_NS_9allocatorIS8_EEEEEEPvEEEENS9_ISE_EEEC2B7v160006ILb1EvEEv, symObjAddr: 0xBC50, symBinAddr: 0xCB00, symSize: 0x30 }
  - { offsetInCU: 0x62385, offset: 0x62385, size: 0x8, addend: 0x0, symName: __ZNSt3__122__compressed_pair_elemINS_16__hash_node_baseIPNS_11__hash_nodeINS_17__hash_value_typeIPK7_objectNS_6vectorIPS4_NS_9allocatorIS8_EEEEEEPvEEEELi0ELb0EEC2B7v160006ENS_16__value_init_tagE, symObjAddr: 0xBC80, symBinAddr: 0xCB30, symSize: 0x20 }
  - { offsetInCU: 0x623BA, offset: 0x623BA, size: 0x8, addend: 0x0, symName: __ZNSt3__122__compressed_pair_elemINS_9allocatorINS_11__hash_nodeINS_17__hash_value_typeIPK7_objectNS_6vectorIPS4_NS1_IS8_EEEEEEPvEEEELi1ELb1EEC2B7v160006ENS_16__value_init_tagE, symObjAddr: 0xBCA0, symBinAddr: 0xCB50, symSize: 0x20 }
  - { offsetInCU: 0x623EF, offset: 0x623EF, size: 0x8, addend: 0x0, symName: __ZNSt3__116__hash_node_baseIPNS_11__hash_nodeINS_17__hash_value_typeIPK7_objectNS_6vectorIPS3_NS_9allocatorIS7_EEEEEEPvEEEC1B7v160006Ev, symObjAddr: 0xBCC0, symBinAddr: 0xCB70, symSize: 0x20 }
  - { offsetInCU: 0x62419, offset: 0x62419, size: 0x8, addend: 0x0, symName: __ZNSt3__116__hash_node_baseIPNS_11__hash_nodeINS_17__hash_value_typeIPK7_objectNS_6vectorIPS3_NS_9allocatorIS7_EEEEEEPvEEEC2B7v160006Ev, symObjAddr: 0xBCE0, symBinAddr: 0xCB90, symSize: 0x20 }
  - { offsetInCU: 0x62443, offset: 0x62443, size: 0x8, addend: 0x0, symName: __ZNSt3__19allocatorINS_11__hash_nodeINS_17__hash_value_typeIPK7_objectNS_6vectorIPS3_NS0_IS7_EEEEEEPvEEEC2B7v160006Ev, symObjAddr: 0xBD00, symBinAddr: 0xCBB0, symSize: 0x20 }
  - { offsetInCU: 0x6246D, offset: 0x6246D, size: 0x8, addend: 0x0, symName: __ZNSt3__116__non_trivial_ifILb1ENS_9allocatorINS_11__hash_nodeINS_17__hash_value_typeIPK7_objectNS_6vectorIPS4_NS1_IS8_EEEEEEPvEEEEEC2B7v160006Ev, symObjAddr: 0xBD20, symBinAddr: 0xCBD0, symSize: 0x10 }
  - { offsetInCU: 0x62497, offset: 0x62497, size: 0x8, addend: 0x0, symName: __ZNSt3__117__compressed_pairImNS_22__unordered_map_hasherIPK7_objectNS_17__hash_value_typeIS4_NS_6vectorIPS2_NS_9allocatorIS7_EEEEEENS_4hashIS4_EENS_8equal_toIS4_EELb1EEEEC2B7v160006IiNS_18__default_init_tagEEEOT_OT0_, symObjAddr: 0xBD30, symBinAddr: 0xCBE0, symSize: 0x40 }
  - { offsetInCU: 0x624EF, offset: 0x624EF, size: 0x8, addend: 0x0, symName: __ZNSt3__122__compressed_pair_elemINS_22__unordered_map_hasherIPK7_objectNS_17__hash_value_typeIS4_NS_6vectorIPS2_NS_9allocatorIS7_EEEEEENS_4hashIS4_EENS_8equal_toIS4_EELb1EEELi1ELb1EEC2B7v160006ENS_18__default_init_tagE, symObjAddr: 0xBD70, symBinAddr: 0xCC20, symSize: 0x20 }
  - { offsetInCU: 0x62524, offset: 0x62524, size: 0x8, addend: 0x0, symName: __ZNSt3__122__unordered_map_hasherIPK7_objectNS_17__hash_value_typeIS3_NS_6vectorIPS1_NS_9allocatorIS6_EEEEEENS_4hashIS3_EENS_8equal_toIS3_EELb1EEC2B7v160006Ev, symObjAddr: 0xBD90, symBinAddr: 0xCC40, symSize: 0x10 }
  - { offsetInCU: 0x6254E, offset: 0x6254E, size: 0x8, addend: 0x0, symName: __ZNSt3__117__compressed_pairIfNS_21__unordered_map_equalIPK7_objectNS_17__hash_value_typeIS4_NS_6vectorIPS2_NS_9allocatorIS7_EEEEEENS_8equal_toIS4_EENS_4hashIS4_EELb1EEEEC2B7v160006IfNS_18__default_init_tagEEEOT_OT0_, symObjAddr: 0xBDA0, symBinAddr: 0xCC50, symSize: 0x40 }
  - { offsetInCU: 0x625A6, offset: 0x625A6, size: 0x8, addend: 0x0, symName: __ZNSt3__122__compressed_pair_elemINS_21__unordered_map_equalIPK7_objectNS_17__hash_value_typeIS4_NS_6vectorIPS2_NS_9allocatorIS7_EEEEEENS_8equal_toIS4_EENS_4hashIS4_EELb1EEELi1ELb1EEC2B7v160006ENS_18__default_init_tagE, symObjAddr: 0xBDE0, symBinAddr: 0xCC90, symSize: 0x20 }
  - { offsetInCU: 0x625DB, offset: 0x625DB, size: 0x8, addend: 0x0, symName: __ZNSt3__121__unordered_map_equalIPK7_objectNS_17__hash_value_typeIS3_NS_6vectorIPS1_NS_9allocatorIS6_EEEEEENS_8equal_toIS3_EENS_4hashIS3_EELb1EEC2B7v160006Ev, symObjAddr: 0xBE00, symBinAddr: 0xCCB0, symSize: 0x10 }
  - { offsetInCU: 0x62605, offset: 0x62605, size: 0x8, addend: 0x0, symName: __ZNSt3__112forward_listIPFvSt13exception_ptrENS_9allocatorIS3_EEEC2B7v160006Ev, symObjAddr: 0xBE10, symBinAddr: 0xCCC0, symSize: 0x20 }
  - { offsetInCU: 0x6262F, offset: 0x6262F, size: 0x8, addend: 0x0, symName: __ZNSt3__119__forward_list_baseIPFvSt13exception_ptrENS_9allocatorIS3_EEEC2B7v160006Ev, symObjAddr: 0xBE30, symBinAddr: 0xCCE0, symSize: 0x50 }
  - { offsetInCU: 0x62659, offset: 0x62659, size: 0x8, addend: 0x0, symName: __ZNSt3__120__forward_begin_nodeIPNS_19__forward_list_nodeIPFvSt13exception_ptrEPvEEEC1B7v160006Ev, symObjAddr: 0xBE80, symBinAddr: 0xCD30, symSize: 0x20 }
  - { offsetInCU: 0x62689, offset: 0x62689, size: 0x8, addend: 0x0, symName: __ZNSt3__117__compressed_pairINS_20__forward_begin_nodeIPNS_19__forward_list_nodeIPFvSt13exception_ptrEPvEEEENS_9allocatorIS7_EEEC1B7v160006IS9_NS_18__default_init_tagEEEOT_OT0_, symObjAddr: 0xBEA0, symBinAddr: 0xCD50, symSize: 0x30 }
  - { offsetInCU: 0x626E1, offset: 0x626E1, size: 0x8, addend: 0x0, symName: __ZNSt3__120__forward_begin_nodeIPNS_19__forward_list_nodeIPFvSt13exception_ptrEPvEEEC2B7v160006Ev, symObjAddr: 0xBED0, symBinAddr: 0xCD80, symSize: 0x20 }
  - { offsetInCU: 0x6270B, offset: 0x6270B, size: 0x8, addend: 0x0, symName: __ZNSt3__117__compressed_pairINS_20__forward_begin_nodeIPNS_19__forward_list_nodeIPFvSt13exception_ptrEPvEEEENS_9allocatorIS7_EEEC2B7v160006IS9_NS_18__default_init_tagEEEOT_OT0_, symObjAddr: 0xBEF0, symBinAddr: 0xCDA0, symSize: 0x40 }
  - { offsetInCU: 0x62763, offset: 0x62763, size: 0x8, addend: 0x0, symName: __ZNSt3__122__compressed_pair_elemINS_20__forward_begin_nodeIPNS_19__forward_list_nodeIPFvSt13exception_ptrEPvEEEELi0ELb0EEC2B7v160006IS9_vEEOT_, symObjAddr: 0xBF30, symBinAddr: 0xCDE0, symSize: 0x20 }
  - { offsetInCU: 0x627A5, offset: 0x627A5, size: 0x8, addend: 0x0, symName: __ZNSt3__122__compressed_pair_elemINS_9allocatorINS_19__forward_list_nodeIPFvSt13exception_ptrEPvEEEELi1ELb1EEC2B7v160006ENS_18__default_init_tagE, symObjAddr: 0xBF50, symBinAddr: 0xCE00, symSize: 0x20 }
  - { offsetInCU: 0x627DA, offset: 0x627DA, size: 0x8, addend: 0x0, symName: __ZNSt3__19allocatorINS_19__forward_list_nodeIPFvSt13exception_ptrEPvEEEC2B7v160006Ev, symObjAddr: 0xBF70, symBinAddr: 0xCE20, symSize: 0x20 }
  - { offsetInCU: 0x62804, offset: 0x62804, size: 0x8, addend: 0x0, symName: __ZNSt3__116__non_trivial_ifILb1ENS_9allocatorINS_19__forward_list_nodeIPFvSt13exception_ptrEPvEEEEEC2B7v160006Ev, symObjAddr: 0xBF90, symBinAddr: 0xCE40, symSize: 0x10 }
  - { offsetInCU: 0x6282E, offset: 0x6282E, size: 0x8, addend: 0x0, symName: __ZNSt3__113unordered_mapINS_12basic_stringIcNS_11char_traitsIcEENS_9allocatorIcEEEEPvNS_4hashIS6_EENS_8equal_toIS6_EENS4_INS_4pairIKS6_S7_EEEEEC2B7v160006Ev, symObjAddr: 0xBFA0, symBinAddr: 0xCE50, symSize: 0x40 }
  - { offsetInCU: 0x62858, offset: 0x62858, size: 0x8, addend: 0x0, symName: __ZNSt3__112__hash_tableINS_17__hash_value_typeINS_12basic_stringIcNS_11char_traitsIcEENS_9allocatorIcEEEEPvEENS_22__unordered_map_hasherIS7_S9_NS_4hashIS7_EENS_8equal_toIS7_EELb1EEENS_21__unordered_map_equalIS7_S9_SE_SC_Lb1EEENS5_IS9_EEEC1Ev, symObjAddr: 0xBFE0, symBinAddr: 0xCE90, symSize: 0x20 }
  - { offsetInCU: 0x62884, offset: 0x62884, size: 0x8, addend: 0x0, symName: __ZNSt3__112__hash_tableINS_17__hash_value_typeINS_12basic_stringIcNS_11char_traitsIcEENS_9allocatorIcEEEEPvEENS_22__unordered_map_hasherIS7_S9_NS_4hashIS7_EENS_8equal_toIS7_EELb1EEENS_21__unordered_map_equalIS7_S9_SE_SC_Lb1EEENS5_IS9_EEEC2Ev, symObjAddr: 0xC010, symBinAddr: 0xCEC0, symSize: 0x80 }
  - { offsetInCU: 0x628B0, offset: 0x628B0, size: 0x8, addend: 0x0, symName: __ZNSt3__110unique_ptrIA_PNS_16__hash_node_baseIPNS_11__hash_nodeINS_17__hash_value_typeINS_12basic_stringIcNS_11char_traitsIcEENS_9allocatorIcEEEEPvEESA_EEEENS_25__bucket_list_deallocatorINS7_ISF_EEEEEC1B7v160006ILb1EvEEv, symObjAddr: 0xC090, symBinAddr: 0xCF40, symSize: 0x20 }
  - { offsetInCU: 0x628E5, offset: 0x628E5, size: 0x8, addend: 0x0, symName: __ZNSt3__117__compressed_pairINS_16__hash_node_baseIPNS_11__hash_nodeINS_17__hash_value_typeINS_12basic_stringIcNS_11char_traitsIcEENS_9allocatorIcEEEEPvEESA_EEEENS7_ISC_EEEC1B7v160006ILb1EvEEv, symObjAddr: 0xC0B0, symBinAddr: 0xCF60, symSize: 0x20 }
  - { offsetInCU: 0x6291A, offset: 0x6291A, size: 0x8, addend: 0x0, symName: __ZNSt3__117__compressed_pairImNS_22__unordered_map_hasherINS_12basic_stringIcNS_11char_traitsIcEENS_9allocatorIcEEEENS_17__hash_value_typeIS7_PvEENS_4hashIS7_EENS_8equal_toIS7_EELb1EEEEC1B7v160006IiNS_18__default_init_tagEEEOT_OT0_, symObjAddr: 0xC0D0, symBinAddr: 0xCF80, symSize: 0x30 }
  - { offsetInCU: 0x62972, offset: 0x62972, size: 0x8, addend: 0x0, symName: __ZNSt3__117__compressed_pairIfNS_21__unordered_map_equalINS_12basic_stringIcNS_11char_traitsIcEENS_9allocatorIcEEEENS_17__hash_value_typeIS7_PvEENS_8equal_toIS7_EENS_4hashIS7_EELb1EEEEC1B7v160006IfNS_18__default_init_tagEEEOT_OT0_, symObjAddr: 0xC100, symBinAddr: 0xCFB0, symSize: 0x30 }
  - { offsetInCU: 0x629CA, offset: 0x629CA, size: 0x8, addend: 0x0, symName: __ZNSt3__110unique_ptrIA_PNS_16__hash_node_baseIPNS_11__hash_nodeINS_17__hash_value_typeINS_12basic_stringIcNS_11char_traitsIcEENS_9allocatorIcEEEEPvEESA_EEEENS_25__bucket_list_deallocatorINS7_ISF_EEEEEC2B7v160006ILb1EvEEv, symObjAddr: 0xC130, symBinAddr: 0xCFE0, symSize: 0x30 }
  - { offsetInCU: 0x629FF, offset: 0x629FF, size: 0x8, addend: 0x0, symName: __ZNSt3__117__compressed_pairIPPNS_16__hash_node_baseIPNS_11__hash_nodeINS_17__hash_value_typeINS_12basic_stringIcNS_11char_traitsIcEENS_9allocatorIcEEEEPvEESA_EEEENS_25__bucket_list_deallocatorINS7_ISF_EEEEEC1B7v160006INS_16__value_init_tagESM_EEOT_OT0_, symObjAddr: 0xC160, symBinAddr: 0xD010, symSize: 0x30 }
  - { offsetInCU: 0x62A57, offset: 0x62A57, size: 0x8, addend: 0x0, symName: __ZNSt3__117__compressed_pairIPPNS_16__hash_node_baseIPNS_11__hash_nodeINS_17__hash_value_typeINS_12basic_stringIcNS_11char_traitsIcEENS_9allocatorIcEEEEPvEESA_EEEENS_25__bucket_list_deallocatorINS7_ISF_EEEEEC2B7v160006INS_16__value_init_tagESM_EEOT_OT0_, symObjAddr: 0xC190, symBinAddr: 0xD040, symSize: 0x40 }
  - { offsetInCU: 0x62AAF, offset: 0x62AAF, size: 0x8, addend: 0x0, symName: __ZNSt3__122__compressed_pair_elemIPPNS_16__hash_node_baseIPNS_11__hash_nodeINS_17__hash_value_typeINS_12basic_stringIcNS_11char_traitsIcEENS_9allocatorIcEEEEPvEESA_EEEELi0ELb0EEC2B7v160006ENS_16__value_init_tagE, symObjAddr: 0xC1D0, symBinAddr: 0xD080, symSize: 0x20 }
  - { offsetInCU: 0x62AE4, offset: 0x62AE4, size: 0x8, addend: 0x0, symName: __ZNSt3__122__compressed_pair_elemINS_25__bucket_list_deallocatorINS_9allocatorIPNS_16__hash_node_baseIPNS_11__hash_nodeINS_17__hash_value_typeINS_12basic_stringIcNS_11char_traitsIcEENS2_IcEEEEPvEESB_EEEEEEEELi1ELb0EEC2B7v160006ENS_16__value_init_tagE, symObjAddr: 0xC1F0, symBinAddr: 0xD0A0, symSize: 0x20 }
  - { offsetInCU: 0x62B19, offset: 0x62B19, size: 0x8, addend: 0x0, symName: __ZNSt3__125__bucket_list_deallocatorINS_9allocatorIPNS_16__hash_node_baseIPNS_11__hash_nodeINS_17__hash_value_typeINS_12basic_stringIcNS_11char_traitsIcEENS1_IcEEEEPvEESA_EEEEEEEC1B7v160006Ev, symObjAddr: 0xC210, symBinAddr: 0xD0C0, symSize: 0x20 }
  - { offsetInCU: 0x62B43, offset: 0x62B43, size: 0x8, addend: 0x0, symName: __ZNSt3__125__bucket_list_deallocatorINS_9allocatorIPNS_16__hash_node_baseIPNS_11__hash_nodeINS_17__hash_value_typeINS_12basic_stringIcNS_11char_traitsIcEENS1_IcEEEEPvEESA_EEEEEEEC2B7v160006Ev, symObjAddr: 0xC230, symBinAddr: 0xD0E0, symSize: 0x40 }
  - { offsetInCU: 0x62B6D, offset: 0x62B6D, size: 0x8, addend: 0x0, symName: __ZNSt3__117__compressed_pairImNS_9allocatorIPNS_16__hash_node_baseIPNS_11__hash_nodeINS_17__hash_value_typeINS_12basic_stringIcNS_11char_traitsIcEENS1_IcEEEEPvEESA_EEEEEEEC1B7v160006IiNS_18__default_init_tagEEEOT_OT0_, symObjAddr: 0xC270, symBinAddr: 0xD120, symSize: 0x30 }
  - { offsetInCU: 0x62BC5, offset: 0x62BC5, size: 0x8, addend: 0x0, symName: __ZNSt3__117__compressed_pairImNS_9allocatorIPNS_16__hash_node_baseIPNS_11__hash_nodeINS_17__hash_value_typeINS_12basic_stringIcNS_11char_traitsIcEENS1_IcEEEEPvEESA_EEEEEEEC2B7v160006IiNS_18__default_init_tagEEEOT_OT0_, symObjAddr: 0xC2A0, symBinAddr: 0xD150, symSize: 0x40 }
  - { offsetInCU: 0x62C1D, offset: 0x62C1D, size: 0x8, addend: 0x0, symName: __ZNSt3__122__compressed_pair_elemINS_9allocatorIPNS_16__hash_node_baseIPNS_11__hash_nodeINS_17__hash_value_typeINS_12basic_stringIcNS_11char_traitsIcEENS1_IcEEEEPvEESA_EEEEEELi1ELb1EEC2B7v160006ENS_18__default_init_tagE, symObjAddr: 0xC2E0, symBinAddr: 0xD190, symSize: 0x20 }
  - { offsetInCU: 0x62C52, offset: 0x62C52, size: 0x8, addend: 0x0, symName: __ZNSt3__19allocatorIPNS_16__hash_node_baseIPNS_11__hash_nodeINS_17__hash_value_typeINS_12basic_stringIcNS_11char_traitsIcEENS0_IcEEEEPvEES9_EEEEEC2B7v160006Ev, symObjAddr: 0xC300, symBinAddr: 0xD1B0, symSize: 0x20 }
  - { offsetInCU: 0x62C7C, offset: 0x62C7C, size: 0x8, addend: 0x0, symName: __ZNSt3__116__non_trivial_ifILb1ENS_9allocatorIPNS_16__hash_node_baseIPNS_11__hash_nodeINS_17__hash_value_typeINS_12basic_stringIcNS_11char_traitsIcEENS1_IcEEEEPvEESA_EEEEEEEC2B7v160006Ev, symObjAddr: 0xC320, symBinAddr: 0xD1D0, symSize: 0x10 }
  - { offsetInCU: 0x62CA6, offset: 0x62CA6, size: 0x8, addend: 0x0, symName: __ZNSt3__117__compressed_pairINS_16__hash_node_baseIPNS_11__hash_nodeINS_17__hash_value_typeINS_12basic_stringIcNS_11char_traitsIcEENS_9allocatorIcEEEEPvEESA_EEEENS7_ISC_EEEC2B7v160006ILb1EvEEv, symObjAddr: 0xC330, symBinAddr: 0xD1E0, symSize: 0x30 }
  - { offsetInCU: 0x62CDB, offset: 0x62CDB, size: 0x8, addend: 0x0, symName: __ZNSt3__122__compressed_pair_elemINS_16__hash_node_baseIPNS_11__hash_nodeINS_17__hash_value_typeINS_12basic_stringIcNS_11char_traitsIcEENS_9allocatorIcEEEEPvEESA_EEEELi0ELb0EEC2B7v160006ENS_16__value_init_tagE, symObjAddr: 0xC360, symBinAddr: 0xD210, symSize: 0x20 }
  - { offsetInCU: 0x62D10, offset: 0x62D10, size: 0x8, addend: 0x0, symName: __ZNSt3__122__compressed_pair_elemINS_9allocatorINS_11__hash_nodeINS_17__hash_value_typeINS_12basic_stringIcNS_11char_traitsIcEENS1_IcEEEEPvEES9_EEEELi1ELb1EEC2B7v160006ENS_16__value_init_tagE, symObjAddr: 0xC380, symBinAddr: 0xD230, symSize: 0x20 }
  - { offsetInCU: 0x62D45, offset: 0x62D45, size: 0x8, addend: 0x0, symName: __ZNSt3__116__hash_node_baseIPNS_11__hash_nodeINS_17__hash_value_typeINS_12basic_stringIcNS_11char_traitsIcEENS_9allocatorIcEEEEPvEES9_EEEC1B7v160006Ev, symObjAddr: 0xC3A0, symBinAddr: 0xD250, symSize: 0x20 }
  - { offsetInCU: 0x62D6F, offset: 0x62D6F, size: 0x8, addend: 0x0, symName: __ZNSt3__116__hash_node_baseIPNS_11__hash_nodeINS_17__hash_value_typeINS_12basic_stringIcNS_11char_traitsIcEENS_9allocatorIcEEEEPvEES9_EEEC2B7v160006Ev, symObjAddr: 0xC3C0, symBinAddr: 0xD270, symSize: 0x20 }
  - { offsetInCU: 0x62D99, offset: 0x62D99, size: 0x8, addend: 0x0, symName: __ZNSt3__19allocatorINS_11__hash_nodeINS_17__hash_value_typeINS_12basic_stringIcNS_11char_traitsIcEENS0_IcEEEEPvEES8_EEEC2B7v160006Ev, symObjAddr: 0xC3E0, symBinAddr: 0xD290, symSize: 0x20 }
  - { offsetInCU: 0x62DC3, offset: 0x62DC3, size: 0x8, addend: 0x0, symName: __ZNSt3__116__non_trivial_ifILb1ENS_9allocatorINS_11__hash_nodeINS_17__hash_value_typeINS_12basic_stringIcNS_11char_traitsIcEENS1_IcEEEEPvEES9_EEEEEC2B7v160006Ev, symObjAddr: 0xC400, symBinAddr: 0xD2B0, symSize: 0x10 }
  - { offsetInCU: 0x62DED, offset: 0x62DED, size: 0x8, addend: 0x0, symName: __ZNSt3__117__compressed_pairImNS_22__unordered_map_hasherINS_12basic_stringIcNS_11char_traitsIcEENS_9allocatorIcEEEENS_17__hash_value_typeIS7_PvEENS_4hashIS7_EENS_8equal_toIS7_EELb1EEEEC2B7v160006IiNS_18__default_init_tagEEEOT_OT0_, symObjAddr: 0xC410, symBinAddr: 0xD2C0, symSize: 0x40 }
  - { offsetInCU: 0x62E45, offset: 0x62E45, size: 0x8, addend: 0x0, symName: __ZNSt3__122__compressed_pair_elemINS_22__unordered_map_hasherINS_12basic_stringIcNS_11char_traitsIcEENS_9allocatorIcEEEENS_17__hash_value_typeIS7_PvEENS_4hashIS7_EENS_8equal_toIS7_EELb1EEELi1ELb1EEC2B7v160006ENS_18__default_init_tagE, symObjAddr: 0xC450, symBinAddr: 0xD300, symSize: 0x20 }
  - { offsetInCU: 0x62E7A, offset: 0x62E7A, size: 0x8, addend: 0x0, symName: __ZNSt3__122__unordered_map_hasherINS_12basic_stringIcNS_11char_traitsIcEENS_9allocatorIcEEEENS_17__hash_value_typeIS6_PvEENS_4hashIS6_EENS_8equal_toIS6_EELb1EEC2B7v160006Ev, symObjAddr: 0xC470, symBinAddr: 0xD320, symSize: 0x10 }
  - { offsetInCU: 0x62EA4, offset: 0x62EA4, size: 0x8, addend: 0x0, symName: __ZNSt3__117__compressed_pairIfNS_21__unordered_map_equalINS_12basic_stringIcNS_11char_traitsIcEENS_9allocatorIcEEEENS_17__hash_value_typeIS7_PvEENS_8equal_toIS7_EENS_4hashIS7_EELb1EEEEC2B7v160006IfNS_18__default_init_tagEEEOT_OT0_, symObjAddr: 0xC480, symBinAddr: 0xD330, symSize: 0x40 }
  - { offsetInCU: 0x62EFC, offset: 0x62EFC, size: 0x8, addend: 0x0, symName: __ZNSt3__122__compressed_pair_elemINS_21__unordered_map_equalINS_12basic_stringIcNS_11char_traitsIcEENS_9allocatorIcEEEENS_17__hash_value_typeIS7_PvEENS_8equal_toIS7_EENS_4hashIS7_EELb1EEELi1ELb1EEC2B7v160006ENS_18__default_init_tagE, symObjAddr: 0xC4C0, symBinAddr: 0xD370, symSize: 0x20 }
  - { offsetInCU: 0x62F31, offset: 0x62F31, size: 0x8, addend: 0x0, symName: __ZNSt3__121__unordered_map_equalINS_12basic_stringIcNS_11char_traitsIcEENS_9allocatorIcEEEENS_17__hash_value_typeIS6_PvEENS_8equal_toIS6_EENS_4hashIS6_EELb1EEC2B7v160006Ev, symObjAddr: 0xC4E0, symBinAddr: 0xD390, symSize: 0x10 }
  - { offsetInCU: 0x62F5B, offset: 0x62F5B, size: 0x8, addend: 0x0, symName: __ZNSt3__16vectorIP7_objectNS_9allocatorIS2_EEEC2B7v160006Ev, symObjAddr: 0xC4F0, symBinAddr: 0xD3A0, symSize: 0x60 }
  - { offsetInCU: 0x62F8B, offset: 0x62F8B, size: 0x8, addend: 0x0, symName: __ZNSt3__117__compressed_pairIPP7_objectNS_9allocatorIS2_EEEC1B7v160006IDnNS_18__default_init_tagEEEOT_OT0_, symObjAddr: 0xC550, symBinAddr: 0xD400, symSize: 0x30 }
  - { offsetInCU: 0x62FE3, offset: 0x62FE3, size: 0x8, addend: 0x0, symName: __ZNSt3__117__compressed_pairIPP7_objectNS_9allocatorIS2_EEEC2B7v160006IDnNS_18__default_init_tagEEEOT_OT0_, symObjAddr: 0xC590, symBinAddr: 0xD440, symSize: 0x40 }
  - { offsetInCU: 0x6303B, offset: 0x6303B, size: 0x8, addend: 0x0, symName: __ZNSt3__122__compressed_pair_elemIPP7_objectLi0ELb0EEC2B7v160006IDnvEEOT_, symObjAddr: 0xC5D0, symBinAddr: 0xD480, symSize: 0x20 }
  - { offsetInCU: 0x6307D, offset: 0x6307D, size: 0x8, addend: 0x0, symName: __ZNSt3__122__compressed_pair_elemINS_9allocatorIP7_objectEELi1ELb1EEC2B7v160006ENS_18__default_init_tagE, symObjAddr: 0xC5F0, symBinAddr: 0xD4A0, symSize: 0x20 }
  - { offsetInCU: 0x630B2, offset: 0x630B2, size: 0x8, addend: 0x0, symName: __ZNSt3__19allocatorIP7_objectEC2B7v160006Ev, symObjAddr: 0xC610, symBinAddr: 0xD4C0, symSize: 0x20 }
  - { offsetInCU: 0x630DC, offset: 0x630DC, size: 0x8, addend: 0x0, symName: __ZNSt3__116__non_trivial_ifILb1ENS_9allocatorIP7_objectEEEC2B7v160006Ev, symObjAddr: 0xC630, symBinAddr: 0xD4E0, symSize: 0x10 }
  - { offsetInCU: 0x63106, offset: 0x63106, size: 0x8, addend: 0x0, symName: __ZNSt3__112forward_listINS_12basic_stringIcNS_11char_traitsIcEENS_9allocatorIcEEEENS4_IS6_EEEC2B7v160006Ev, symObjAddr: 0xC640, symBinAddr: 0xD4F0, symSize: 0x20 }
  - { offsetInCU: 0x63130, offset: 0x63130, size: 0x8, addend: 0x0, symName: __ZNSt3__119__forward_list_baseINS_12basic_stringIcNS_11char_traitsIcEENS_9allocatorIcEEEENS4_IS6_EEEC2B7v160006Ev, symObjAddr: 0xC660, symBinAddr: 0xD510, symSize: 0x50 }
  - { offsetInCU: 0x6315A, offset: 0x6315A, size: 0x8, addend: 0x0, symName: __ZNSt3__120__forward_begin_nodeIPNS_19__forward_list_nodeINS_12basic_stringIcNS_11char_traitsIcEENS_9allocatorIcEEEEPvEEEC1B7v160006Ev, symObjAddr: 0xC6B0, symBinAddr: 0xD560, symSize: 0x20 }
  - { offsetInCU: 0x6318A, offset: 0x6318A, size: 0x8, addend: 0x0, symName: __ZNSt3__117__compressed_pairINS_20__forward_begin_nodeIPNS_19__forward_list_nodeINS_12basic_stringIcNS_11char_traitsIcEENS_9allocatorIcEEEEPvEEEENS6_ISA_EEEC1B7v160006ISC_NS_18__default_init_tagEEEOT_OT0_, symObjAddr: 0xC6D0, symBinAddr: 0xD580, symSize: 0x30 }
  - { offsetInCU: 0x631E2, offset: 0x631E2, size: 0x8, addend: 0x0, symName: __ZNSt3__120__forward_begin_nodeIPNS_19__forward_list_nodeINS_12basic_stringIcNS_11char_traitsIcEENS_9allocatorIcEEEEPvEEEC2B7v160006Ev, symObjAddr: 0xC700, symBinAddr: 0xD5B0, symSize: 0x20 }
  - { offsetInCU: 0x6320C, offset: 0x6320C, size: 0x8, addend: 0x0, symName: __ZNSt3__117__compressed_pairINS_20__forward_begin_nodeIPNS_19__forward_list_nodeINS_12basic_stringIcNS_11char_traitsIcEENS_9allocatorIcEEEEPvEEEENS6_ISA_EEEC2B7v160006ISC_NS_18__default_init_tagEEEOT_OT0_, symObjAddr: 0xC720, symBinAddr: 0xD5D0, symSize: 0x40 }
  - { offsetInCU: 0x63264, offset: 0x63264, size: 0x8, addend: 0x0, symName: __ZNSt3__122__compressed_pair_elemINS_20__forward_begin_nodeIPNS_19__forward_list_nodeINS_12basic_stringIcNS_11char_traitsIcEENS_9allocatorIcEEEEPvEEEELi0ELb0EEC2B7v160006ISC_vEEOT_, symObjAddr: 0xC760, symBinAddr: 0xD610, symSize: 0x20 }
  - { offsetInCU: 0x632A6, offset: 0x632A6, size: 0x8, addend: 0x0, symName: __ZNSt3__122__compressed_pair_elemINS_9allocatorINS_19__forward_list_nodeINS_12basic_stringIcNS_11char_traitsIcEENS1_IcEEEEPvEEEELi1ELb1EEC2B7v160006ENS_18__default_init_tagE, symObjAddr: 0xC780, symBinAddr: 0xD630, symSize: 0x20 }
  - { offsetInCU: 0x632DB, offset: 0x632DB, size: 0x8, addend: 0x0, symName: __ZNSt3__19allocatorINS_19__forward_list_nodeINS_12basic_stringIcNS_11char_traitsIcEENS0_IcEEEEPvEEEC2B7v160006Ev, symObjAddr: 0xC7A0, symBinAddr: 0xD650, symSize: 0x20 }
  - { offsetInCU: 0x63305, offset: 0x63305, size: 0x8, addend: 0x0, symName: __ZNSt3__116__non_trivial_ifILb1ENS_9allocatorINS_19__forward_list_nodeINS_12basic_stringIcNS_11char_traitsIcEENS1_IcEEEEPvEEEEEC2B7v160006Ev, symObjAddr: 0xC7C0, symBinAddr: 0xD670, symSize: 0x10 }
  - { offsetInCU: 0x6332F, offset: 0x6332F, size: 0x8, addend: 0x0, symName: __ZN8pybind117capsuleC2EPKvPKcPFvP7_objectE, symObjAddr: 0xC7D0, symBinAddr: 0xD680, symSize: 0xE0 }
  - { offsetInCU: 0x63386, offset: 0x63386, size: 0x8, addend: 0x0, symName: __ZN8pybind116detail8accessorINS0_17accessor_policies12generic_itemEEC1ENS_6handleENS_6objectE, symObjAddr: 0xC8B0, symBinAddr: 0xD760, symSize: 0x30 }
  - { offsetInCU: 0x633CF, offset: 0x633CF, size: 0x8, addend: 0x0, symName: __ZN8pybind116detail8accessorINS0_17accessor_policies12generic_itemEEC2ENS_6handleENS_6objectE, symObjAddr: 0xC8E0, symBinAddr: 0xD790, symSize: 0x50 }
  - { offsetInCU: 0x63418, offset: 0x63418, size: 0x8, addend: 0x0, symName: __ZN8pybind116detail17accessor_policies12generic_item3setENS_6handleES3_S3_, symObjAddr: 0xC930, symBinAddr: 0xD7E0, symSize: 0xC0 }
  - { offsetInCU: 0x6345A, offset: 0x6345A, size: 0x8, addend: 0x0, symName: __ZN8pybind116detail8accessorINS0_17accessor_policies12generic_itemEED2Ev, symObjAddr: 0xCA00, symBinAddr: 0xD8B0, symSize: 0x30 }
  - { offsetInCU: 0x63486, offset: 0x63486, size: 0x8, addend: 0x0, symName: __ZN8pybind117capsuleD2Ev, symObjAddr: 0xCA30, symBinAddr: 0xD8E0, symSize: 0x20 }
  - { offsetInCU: 0x634B3, offset: 0x634B3, size: 0x8, addend: 0x0, symName: __ZNKSt16nested_exception10nested_ptrB7v160006Ev, symObjAddr: 0xD110, symBinAddr: 0xDFC0, symSize: 0x30 }
  - { offsetInCU: 0x634D9, offset: 0x634D9, size: 0x8, addend: 0x0, symName: __ZNSt13exception_ptrC1B7v160006EDn, symObjAddr: 0xD170, symBinAddr: 0xE020, symSize: 0x30 }
  - { offsetInCU: 0x6350E, offset: 0x6350E, size: 0x8, addend: 0x0, symName: __ZNSt13exception_ptrC2B7v160006EDn, symObjAddr: 0xD1D0, symBinAddr: 0xE080, symSize: 0x20 }
  - { offsetInCU: 0x63543, offset: 0x63543, size: 0x8, addend: 0x0, symName: _pybind11_static_get, symObjAddr: 0xD210, symBinAddr: 0xE0C0, symSize: 0x40 }
  - { offsetInCU: 0x63585, offset: 0x63585, size: 0x8, addend: 0x0, symName: _pybind11_static_set, symObjAddr: 0xD250, symBinAddr: 0xE100, symSize: 0x70 }
  - { offsetInCU: 0x635D8, offset: 0x635D8, size: 0x8, addend: 0x0, symName: _pybind11_meta_call, symObjAddr: 0xD370, symBinAddr: 0xE220, symSize: 0x1B0 }
  - { offsetInCU: 0x6367A, offset: 0x6367A, size: 0x8, addend: 0x0, symName: _pybind11_meta_setattro, symObjAddr: 0xD520, symBinAddr: 0xE3D0, symSize: 0xF0 }
  - { offsetInCU: 0x636E9, offset: 0x636E9, size: 0x8, addend: 0x0, symName: _pybind11_meta_getattro, symObjAddr: 0xD610, symBinAddr: 0xE4C0, symSize: 0x90 }
  - { offsetInCU: 0x6372E, offset: 0x6372E, size: 0x8, addend: 0x0, symName: _pybind11_meta_dealloc, symObjAddr: 0xD6A0, symBinAddr: 0xE550, symSize: 0x230 }
  - { offsetInCU: 0x637E1, offset: 0x637E1, size: 0x8, addend: 0x0, symName: __ZN8pybind116detail18values_and_holdersC1EP7_object, symObjAddr: 0xD8D0, symBinAddr: 0xE780, symSize: 0x30 }
  - { offsetInCU: 0x6381A, offset: 0x6381A, size: 0x8, addend: 0x0, symName: __ZN8pybind116detail18values_and_holders5beginEv, symObjAddr: 0xD900, symBinAddr: 0xE7B0, symSize: 0x30 }
  - { offsetInCU: 0x63840, offset: 0x63840, size: 0x8, addend: 0x0, symName: __ZN8pybind116detail18values_and_holders3endEv, symObjAddr: 0xD930, symBinAddr: 0xE7E0, symSize: 0x40 }
  - { offsetInCU: 0x63866, offset: 0x63866, size: 0x8, addend: 0x0, symName: __ZNK8pybind116detail18values_and_holders8iteratorneERKS2_, symObjAddr: 0xD970, symBinAddr: 0xE820, symSize: 0x30 }
  - { offsetInCU: 0x6389B, offset: 0x6389B, size: 0x8, addend: 0x0, symName: __ZN8pybind116detail18values_and_holders8iteratordeEv, symObjAddr: 0xD9A0, symBinAddr: 0xE850, symSize: 0x20 }
  - { offsetInCU: 0x638C1, offset: 0x638C1, size: 0x8, addend: 0x0, symName: __ZNK8pybind116detail16value_and_holder18holder_constructedEv, symObjAddr: 0xD9C0, symBinAddr: 0xE870, symSize: 0x70 }
  - { offsetInCU: 0x638E7, offset: 0x638E7, size: 0x8, addend: 0x0, symName: __ZN8pybind116detail18values_and_holders29is_redundant_value_and_holderERKNS0_16value_and_holderE, symObjAddr: 0xDA30, symBinAddr: 0xE8E0, symSize: 0xB0 }
  - { offsetInCU: 0x63939, offset: 0x63939, size: 0x8, addend: 0x0, symName: __ZN8pybind116detail18values_and_holders8iteratorppEv, symObjAddr: 0xDB10, symBinAddr: 0xE9C0, symSize: 0xD0 }
  - { offsetInCU: 0x6395F, offset: 0x6395F, size: 0x8, addend: 0x0, symName: __ZN8pybind116detail18values_and_holdersC2EP7_object, symObjAddr: 0xDBE0, symBinAddr: 0xEA90, symSize: 0x60 }
  - { offsetInCU: 0x63998, offset: 0x63998, size: 0x8, addend: 0x0, symName: __ZNKSt3__16vectorIPN8pybind116detail9type_infoENS_9allocatorIS4_EEE5emptyB7v160006Ev, symObjAddr: 0xDCA0, symBinAddr: 0xEB50, symSize: 0x20 }
  - { offsetInCU: 0x639BE, offset: 0x639BE, size: 0x8, addend: 0x0, symName: __ZNKSt3__119__hash_map_iteratorINS_15__hash_iteratorIPNS_11__hash_nodeINS_17__hash_value_typeIP11_typeobjectNS_6vectorIPN8pybind116detail9type_infoENS_9allocatorISA_EEEEEEPvEEEEEptB7v160006Ev, symObjAddr: 0xE3A0, symBinAddr: 0xF250, symSize: 0x30 }
  - { offsetInCU: 0x639E4, offset: 0x639E4, size: 0x8, addend: 0x0, symName: __ZNSt3__113unordered_mapIP11_typeobjectNS_6vectorIPN8pybind116detail9type_infoENS_9allocatorIS7_EEEENS_4hashIS2_EENS_8equal_toIS2_EENS8_INS_4pairIKS2_SA_EEEEE11try_emplaceB7v160006IJEEENSF_INS_19__hash_map_iteratorINS_15__hash_iteratorIPNS_11__hash_nodeINS_17__hash_value_typeIS2_SA_EEPvEEEEEEbEERSG_DpOT_, symObjAddr: 0xE3D0, symBinAddr: 0xF280, symSize: 0x70 }
  - { offsetInCU: 0x63A1E, offset: 0x63A1E, size: 0x8, addend: 0x0, symName: __ZN8pybind1112cpp_functionC1IZNS_6detail23all_type_info_get_cacheEP11_typeobjectEUlNS_6handleEE_JEvEEOT_DpRKT0_, symObjAddr: 0xE440, symBinAddr: 0xF2F0, symSize: 0x30 }
  - { offsetInCU: 0x63A74, offset: 0x63A74, size: 0x8, addend: 0x0, symName: __ZN8pybind117weakrefC1ENS_6handleES1_, symObjAddr: 0xE470, symBinAddr: 0xF320, symSize: 0x30 }
  - { offsetInCU: 0x63ABC, offset: 0x63ABC, size: 0x8, addend: 0x0, symName: __ZN8pybind117weakrefD1Ev, symObjAddr: 0xE4A0, symBinAddr: 0xF350, symSize: 0x20 }
  - { offsetInCU: 0x63AE9, offset: 0x63AE9, size: 0x8, addend: 0x0, symName: __ZN8pybind1112cpp_functionD1Ev, symObjAddr: 0xE4C0, symBinAddr: 0xF370, symSize: 0x20 }
  - { offsetInCU: 0x63B2C, offset: 0x63B2C, size: 0x8, addend: 0x0, symName: __ZNSt3__112__hash_tableINS_17__hash_value_typeIP11_typeobjectNS_6vectorIPN8pybind116detail9type_infoENS_9allocatorIS8_EEEEEENS_22__unordered_map_hasherIS3_SC_NS_4hashIS3_EENS_8equal_toIS3_EELb1EEENS_21__unordered_map_equalIS3_SC_SH_SF_Lb1EEENS9_ISC_EEE25__emplace_unique_key_argsIS3_JRKNS_21piecewise_construct_tENS_5tupleIJRKS3_EEENSR_IJEEEEEENS_4pairINS_15__hash_iteratorIPNS_11__hash_nodeISC_PvEEEEbEERKT_DpOT0_, symObjAddr: 0xE4E0, symBinAddr: 0xF390, symSize: 0x650 }
  - { offsetInCU: 0x63C34, offset: 0x63C34, size: 0x8, addend: 0x0, symName: __ZNSt3__14pairINS_19__hash_map_iteratorINS_15__hash_iteratorIPNS_11__hash_nodeINS_17__hash_value_typeIP11_typeobjectNS_6vectorIPN8pybind116detail9type_infoENS_9allocatorISB_EEEEEEPvEEEEEEbEC1B7v160006ISJ_bLSG_0EEEONS0_IT_T0_EE, symObjAddr: 0xEB70, symBinAddr: 0xFA20, symSize: 0x30 }
  - { offsetInCU: 0x63C85, offset: 0x63C85, size: 0x8, addend: 0x0, symName: __ZNSt3__112__hash_tableINS_17__hash_value_typeIP11_typeobjectNS_6vectorIPN8pybind116detail9type_infoENS_9allocatorIS8_EEEEEENS_22__unordered_map_hasherIS3_SC_NS_4hashIS3_EENS_8equal_toIS3_EELb1EEENS_21__unordered_map_equalIS3_SC_SH_SF_Lb1EEENS9_ISC_EEE13hash_functionB7v160006Ev, symObjAddr: 0xEBA0, symBinAddr: 0xFA50, symSize: 0x20 }
  - { offsetInCU: 0x63CAB, offset: 0x63CAB, size: 0x8, addend: 0x0, symName: __ZNKSt3__122__unordered_map_hasherIP11_typeobjectNS_17__hash_value_typeIS2_NS_6vectorIPN8pybind116detail9type_infoENS_9allocatorIS8_EEEEEENS_4hashIS2_EENS_8equal_toIS2_EELb1EEclB7v160006ERKS2_, symObjAddr: 0xEBC0, symBinAddr: 0xFA70, symSize: 0x30 }
  - { offsetInCU: 0x63CE0, offset: 0x63CE0, size: 0x8, addend: 0x0, symName: __ZNKSt3__112__hash_tableINS_17__hash_value_typeIP11_typeobjectNS_6vectorIPN8pybind116detail9type_infoENS_9allocatorIS8_EEEEEENS_22__unordered_map_hasherIS3_SC_NS_4hashIS3_EENS_8equal_toIS3_EELb1EEENS_21__unordered_map_equalIS3_SC_SH_SF_Lb1EEENS9_ISC_EEE12bucket_countB7v160006Ev, symObjAddr: 0xEBF0, symBinAddr: 0xFAA0, symSize: 0x30 }
  - { offsetInCU: 0x63D06, offset: 0x63D06, size: 0x8, addend: 0x0, symName: __ZNKSt3__110unique_ptrIA_PNS_16__hash_node_baseIPNS_11__hash_nodeINS_17__hash_value_typeIP11_typeobjectNS_6vectorIPN8pybind116detail9type_infoENS_9allocatorISA_EEEEEEPvEEEENS_25__bucket_list_deallocatorINSB_ISJ_EEEEEixB7v160006Em, symObjAddr: 0xECA0, symBinAddr: 0xFB50, symSize: 0x30 }
  - { offsetInCU: 0x63D3B, offset: 0x63D3B, size: 0x8, addend: 0x0, symName: __ZNKSt3__116__hash_node_baseIPNS_11__hash_nodeINS_17__hash_value_typeIP11_typeobjectNS_6vectorIPN8pybind116detail9type_infoENS_9allocatorIS9_EEEEEEPvEEE6__hashB7v160006Ev, symObjAddr: 0xECD0, symBinAddr: 0xFB80, symSize: 0x20 }
  - { offsetInCU: 0x63D61, offset: 0x63D61, size: 0x8, addend: 0x0, symName: __ZNSt3__112__hash_tableINS_17__hash_value_typeIP11_typeobjectNS_6vectorIPN8pybind116detail9type_infoENS_9allocatorIS8_EEEEEENS_22__unordered_map_hasherIS3_SC_NS_4hashIS3_EENS_8equal_toIS3_EELb1EEENS_21__unordered_map_equalIS3_SC_SH_SF_Lb1EEENS9_ISC_EEE6key_eqB7v160006Ev, symObjAddr: 0xECF0, symBinAddr: 0xFBA0, symSize: 0x20 }
  - { offsetInCU: 0x63D87, offset: 0x63D87, size: 0x8, addend: 0x0, symName: __ZNKSt3__121__unordered_map_equalIP11_typeobjectNS_17__hash_value_typeIS2_NS_6vectorIPN8pybind116detail9type_infoENS_9allocatorIS8_EEEEEENS_8equal_toIS2_EENS_4hashIS2_EELb1EEclB7v160006ERKSC_RKS2_, symObjAddr: 0xED10, symBinAddr: 0xFBC0, symSize: 0x40 }
  - { offsetInCU: 0x63DCB, offset: 0x63DCB, size: 0x8, addend: 0x0, symName: __ZNSt3__116__hash_node_baseIPNS_11__hash_nodeINS_17__hash_value_typeIP11_typeobjectNS_6vectorIPN8pybind116detail9type_infoENS_9allocatorIS9_EEEEEEPvEEE8__upcastB7v160006Ev, symObjAddr: 0xED50, symBinAddr: 0xFC00, symSize: 0x20 }
  - { offsetInCU: 0x63DF1, offset: 0x63DF1, size: 0x8, addend: 0x0, symName: __ZNSt3__112__hash_tableINS_17__hash_value_typeIP11_typeobjectNS_6vectorIPN8pybind116detail9type_infoENS_9allocatorIS8_EEEEEENS_22__unordered_map_hasherIS3_SC_NS_4hashIS3_EENS_8equal_toIS3_EELb1EEENS_21__unordered_map_equalIS3_SC_SH_SF_Lb1EEENS9_ISC_EEE21__construct_node_hashIRKNS_21piecewise_construct_tEJNS_5tupleIJRKS3_EEENSR_IJEEEEEENS_10unique_ptrINS_11__hash_nodeISC_PvEENS_22__hash_node_destructorINS9_ISZ_EEEEEEmOT_DpOT0_, symObjAddr: 0xED70, symBinAddr: 0xFC20, symSize: 0x150 }
  - { offsetInCU: 0x63E8D, offset: 0x63E8D, size: 0x8, addend: 0x0, symName: __ZNSt3__112__hash_tableINS_17__hash_value_typeIP11_typeobjectNS_6vectorIPN8pybind116detail9type_infoENS_9allocatorIS8_EEEEEENS_22__unordered_map_hasherIS3_SC_NS_4hashIS3_EENS_8equal_toIS3_EELb1EEENS_21__unordered_map_equalIS3_SC_SH_SF_Lb1EEENS9_ISC_EEE4sizeB7v160006Ev, symObjAddr: 0xEEC0, symBinAddr: 0xFD70, symSize: 0x20 }
  - { offsetInCU: 0x63EB3, offset: 0x63EB3, size: 0x8, addend: 0x0, symName: __ZNSt3__112__hash_tableINS_17__hash_value_typeIP11_typeobjectNS_6vectorIPN8pybind116detail9type_infoENS_9allocatorIS8_EEEEEENS_22__unordered_map_hasherIS3_SC_NS_4hashIS3_EENS_8equal_toIS3_EELb1EEENS_21__unordered_map_equalIS3_SC_SH_SF_Lb1EEENS9_ISC_EEE15max_load_factorB7v160006Ev, symObjAddr: 0xEEE0, symBinAddr: 0xFD90, symSize: 0x20 }
  - { offsetInCU: 0x63ED9, offset: 0x63ED9, size: 0x8, addend: 0x0, symName: __ZNSt3__112__hash_tableINS_17__hash_value_typeIP11_typeobjectNS_6vectorIPN8pybind116detail9type_infoENS_9allocatorIS8_EEEEEENS_22__unordered_map_hasherIS3_SC_NS_4hashIS3_EENS_8equal_toIS3_EELb1EEENS_21__unordered_map_equalIS3_SC_SH_SF_Lb1EEENS9_ISC_EEE15__rehash_uniqueB7v160006Em, symObjAddr: 0xEF00, symBinAddr: 0xFDB0, symSize: 0x30 }
  - { offsetInCU: 0x63F0D, offset: 0x63F0D, size: 0x8, addend: 0x0, symName: __Z4ceilB7v160006f, symObjAddr: 0xEFA0, symBinAddr: 0xFE50, symSize: 0x20 }
  - { offsetInCU: 0x63F3C, offset: 0x63F3C, size: 0x8, addend: 0x0, symName: __ZNSt3__117__compressed_pairINS_16__hash_node_baseIPNS_11__hash_nodeINS_17__hash_value_typeIP11_typeobjectNS_6vectorIPN8pybind116detail9type_infoENS_9allocatorISA_EEEEEEPvEEEENSB_ISG_EEE5firstB7v160006Ev, symObjAddr: 0xEFC0, symBinAddr: 0xFE70, symSize: 0x20 }
  - { offsetInCU: 0x63F62, offset: 0x63F62, size: 0x8, addend: 0x0, symName: __ZNSt3__116__hash_node_baseIPNS_11__hash_nodeINS_17__hash_value_typeIP11_typeobjectNS_6vectorIPN8pybind116detail9type_infoENS_9allocatorIS9_EEEEEEPvEEE5__ptrB7v160006Ev, symObjAddr: 0xEFE0, symBinAddr: 0xFE90, symSize: 0x20 }
  - { offsetInCU: 0x63F88, offset: 0x63F88, size: 0x8, addend: 0x0, symName: __ZNKSt3__110unique_ptrINS_11__hash_nodeINS_17__hash_value_typeIP11_typeobjectNS_6vectorIPN8pybind116detail9type_infoENS_9allocatorIS9_EEEEEEPvEENS_22__hash_node_destructorINSA_ISF_EEEEEptB7v160006Ev, symObjAddr: 0xF000, symBinAddr: 0xFEB0, symSize: 0x20 }
  - { offsetInCU: 0x63FAE, offset: 0x63FAE, size: 0x8, addend: 0x0, symName: __ZNKSt3__110unique_ptrINS_11__hash_nodeINS_17__hash_value_typeIP11_typeobjectNS_6vectorIPN8pybind116detail9type_infoENS_9allocatorIS9_EEEEEEPvEENS_22__hash_node_destructorINSA_ISF_EEEEE3getB7v160006Ev, symObjAddr: 0xF020, symBinAddr: 0xFED0, symSize: 0x20 }
  - { offsetInCU: 0x63FD4, offset: 0x63FD4, size: 0x8, addend: 0x0, symName: __ZNSt3__110unique_ptrINS_11__hash_nodeINS_17__hash_value_typeIP11_typeobjectNS_6vectorIPN8pybind116detail9type_infoENS_9allocatorIS9_EEEEEEPvEENS_22__hash_node_destructorINSA_ISF_EEEEE7releaseB7v160006Ev, symObjAddr: 0xF040, symBinAddr: 0xFEF0, symSize: 0x40 }
  - { offsetInCU: 0x64009, offset: 0x64009, size: 0x8, addend: 0x0, symName: __ZNSt3__110unique_ptrINS_11__hash_nodeINS_17__hash_value_typeIP11_typeobjectNS_6vectorIPN8pybind116detail9type_infoENS_9allocatorIS9_EEEEEEPvEENS_22__hash_node_destructorINSA_ISF_EEEEED1B7v160006Ev, symObjAddr: 0xF080, symBinAddr: 0xFF30, symSize: 0x20 }
  - { offsetInCU: 0x64033, offset: 0x64033, size: 0x8, addend: 0x0, symName: __ZNSt3__115__hash_iteratorIPNS_11__hash_nodeINS_17__hash_value_typeIP11_typeobjectNS_6vectorIPN8pybind116detail9type_infoENS_9allocatorIS9_EEEEEEPvEEEC1B7v160006EPNS_16__hash_node_baseISG_EEPKv, symObjAddr: 0xF0A0, symBinAddr: 0xFF50, symSize: 0x30 }
  - { offsetInCU: 0x64081, offset: 0x64081, size: 0x8, addend: 0x0, symName: __ZNSt3__14pairINS_15__hash_iteratorIPNS_11__hash_nodeINS_17__hash_value_typeIP11_typeobjectNS_6vectorIPN8pybind116detail9type_infoENS_9allocatorISA_EEEEEEPvEEEEbEC1B7v160006ISI_RbLSF_0EEEOT_OT0_, symObjAddr: 0xF0D0, symBinAddr: 0xFF80, symSize: 0x30 }
  - { offsetInCU: 0x640DF, offset: 0x640DF, size: 0x8, addend: 0x0, symName: __ZNSt3__117__compressed_pairImNS_22__unordered_map_hasherIP11_typeobjectNS_17__hash_value_typeIS3_NS_6vectorIPN8pybind116detail9type_infoENS_9allocatorIS9_EEEEEENS_4hashIS3_EENS_8equal_toIS3_EELb1EEEE6secondB7v160006Ev, symObjAddr: 0xF100, symBinAddr: 0xFFB0, symSize: 0x20 }
  - { offsetInCU: 0x64105, offset: 0x64105, size: 0x8, addend: 0x0, symName: __ZNSt3__122__compressed_pair_elemINS_22__unordered_map_hasherIP11_typeobjectNS_17__hash_value_typeIS3_NS_6vectorIPN8pybind116detail9type_infoENS_9allocatorIS9_EEEEEENS_4hashIS3_EENS_8equal_toIS3_EELb1EEELi1ELb1EE5__getB7v160006Ev, symObjAddr: 0xF120, symBinAddr: 0xFFD0, symSize: 0x10 }
  - { offsetInCU: 0x6412B, offset: 0x6412B, size: 0x8, addend: 0x0, symName: __ZNKSt3__14hashIP11_typeobjectEclB7v160006ES2_, symObjAddr: 0xF130, symBinAddr: 0xFFE0, symSize: 0x50 }
  - { offsetInCU: 0x64191, offset: 0x64191, size: 0x8, addend: 0x0, symName: __ZNSt3__121__murmur2_or_cityhashImLm64EEclEPKvm, symObjAddr: 0xF180, symBinAddr: 0x10030, symSize: 0x3D0 }
  - { offsetInCU: 0x6422A, offset: 0x6422A, size: 0x8, addend: 0x0, symName: __ZNSt3__121__murmur2_or_cityhashImLm64EE18__hash_len_0_to_16EPKcm, symObjAddr: 0xF550, symBinAddr: 0x10400, symSize: 0x180 }
  - { offsetInCU: 0x64303, offset: 0x64303, size: 0x8, addend: 0x0, symName: __ZNSt3__121__murmur2_or_cityhashImLm64EE19__hash_len_17_to_32EPKcm, symObjAddr: 0xF6D0, symBinAddr: 0x10580, symSize: 0x100 }
  - { offsetInCU: 0x6436C, offset: 0x6436C, size: 0x8, addend: 0x0, symName: __ZNSt3__121__murmur2_or_cityhashImLm64EE19__hash_len_33_to_64EPKcm, symObjAddr: 0xF7D0, symBinAddr: 0x10680, symSize: 0x260 }
  - { offsetInCU: 0x6441E, offset: 0x6441E, size: 0x8, addend: 0x0, symName: __ZNSt3__121__murmur2_or_cityhashImLm64EE13__hash_len_16Emm, symObjAddr: 0xFA50, symBinAddr: 0x10900, symSize: 0x90 }
  - { offsetInCU: 0x64479, offset: 0x64479, size: 0x8, addend: 0x0, symName: __ZNSt3__121__murmur2_or_cityhashImLm64EE29__weak_hash_len_32_with_seedsEPKcmm, symObjAddr: 0xFAE0, symBinAddr: 0x10990, symSize: 0x90 }
  - { offsetInCU: 0x644B8, offset: 0x644B8, size: 0x8, addend: 0x0, symName: __ZNSt3__121__murmur2_or_cityhashImLm64EE8__rotateEmi, symObjAddr: 0xFB70, symBinAddr: 0x10A20, symSize: 0x50 }
  - { offsetInCU: 0x644E9, offset: 0x644E9, size: 0x8, addend: 0x0, symName: __ZNSt3__14pairImmEaSB7v160006EOS1_, symObjAddr: 0xFBC0, symBinAddr: 0x10A70, symSize: 0x30 }
  - { offsetInCU: 0x6451E, offset: 0x6451E, size: 0x8, addend: 0x0, symName: __ZNSt3__121__murmur2_or_cityhashImLm64EE11__shift_mixEm, symObjAddr: 0xFC30, symBinAddr: 0x10AE0, symSize: 0x20 }
  - { offsetInCU: 0x64541, offset: 0x64541, size: 0x8, addend: 0x0, symName: __ZNSt3__121__murmur2_or_cityhashImLm64EE22__rotate_by_at_least_1Emi, symObjAddr: 0xFC50, symBinAddr: 0x10B00, symSize: 0x30 }
  - { offsetInCU: 0x64572, offset: 0x64572, size: 0x8, addend: 0x0, symName: __ZNSt3__121__murmur2_or_cityhashImLm64EE29__weak_hash_len_32_with_seedsEmmmmmm, symObjAddr: 0xFCA0, symBinAddr: 0x10B50, symSize: 0xD0 }
  - { offsetInCU: 0x645F0, offset: 0x645F0, size: 0x8, addend: 0x0, symName: __ZNSt3__14pairImmEC1B7v160006ImmLPv0EEEOT_OT0_, symObjAddr: 0xFD70, symBinAddr: 0x10C20, symSize: 0x30 }
  - { offsetInCU: 0x6464E, offset: 0x6464E, size: 0x8, addend: 0x0, symName: __ZNSt3__14pairImmEC2B7v160006ImmLPv0EEEOT_OT0_, symObjAddr: 0xFDA0, symBinAddr: 0x10C50, symSize: 0x30 }
  - { offsetInCU: 0x646AC, offset: 0x646AC, size: 0x8, addend: 0x0, symName: __ZNKSt3__110unique_ptrIA_PNS_16__hash_node_baseIPNS_11__hash_nodeINS_17__hash_value_typeIP11_typeobjectNS_6vectorIPN8pybind116detail9type_infoENS_9allocatorISA_EEEEEEPvEEEENS_25__bucket_list_deallocatorINSB_ISJ_EEEEE11get_deleterB7v160006Ev, symObjAddr: 0xFDD0, symBinAddr: 0x10C80, symSize: 0x20 }
  - { offsetInCU: 0x646D2, offset: 0x646D2, size: 0x8, addend: 0x0, symName: __ZNKSt3__125__bucket_list_deallocatorINS_9allocatorIPNS_16__hash_node_baseIPNS_11__hash_nodeINS_17__hash_value_typeIP11_typeobjectNS_6vectorIPN8pybind116detail9type_infoENS1_ISB_EEEEEEPvEEEEEEE4sizeB7v160006Ev, symObjAddr: 0xFDF0, symBinAddr: 0x10CA0, symSize: 0x20 }
  - { offsetInCU: 0x646F8, offset: 0x646F8, size: 0x8, addend: 0x0, symName: __ZNKSt3__117__compressed_pairIPPNS_16__hash_node_baseIPNS_11__hash_nodeINS_17__hash_value_typeIP11_typeobjectNS_6vectorIPN8pybind116detail9type_infoENS_9allocatorISA_EEEEEEPvEEEENS_25__bucket_list_deallocatorINSB_ISJ_EEEEE6secondB7v160006Ev, symObjAddr: 0xFE10, symBinAddr: 0x10CC0, symSize: 0x20 }
  - { offsetInCU: 0x6471E, offset: 0x6471E, size: 0x8, addend: 0x0, symName: __ZNKSt3__122__compressed_pair_elemINS_25__bucket_list_deallocatorINS_9allocatorIPNS_16__hash_node_baseIPNS_11__hash_nodeINS_17__hash_value_typeIP11_typeobjectNS_6vectorIPN8pybind116detail9type_infoENS2_ISC_EEEEEEPvEEEEEEEELi1ELb0EE5__getB7v160006Ev, symObjAddr: 0xFE30, symBinAddr: 0x10CE0, symSize: 0x10 }
  - { offsetInCU: 0x64744, offset: 0x64744, size: 0x8, addend: 0x0, symName: __ZNKSt3__117__compressed_pairImNS_9allocatorIPNS_16__hash_node_baseIPNS_11__hash_nodeINS_17__hash_value_typeIP11_typeobjectNS_6vectorIPN8pybind116detail9type_infoENS1_ISB_EEEEEEPvEEEEEEE5firstB7v160006Ev, symObjAddr: 0xFE40, symBinAddr: 0x10CF0, symSize: 0x20 }
  - { offsetInCU: 0x6476A, offset: 0x6476A, size: 0x8, addend: 0x0, symName: __ZNKSt3__122__compressed_pair_elemImLi0ELb0EE5__getB7v160006Ev, symObjAddr: 0xFE60, symBinAddr: 0x10D10, symSize: 0x10 }
  - { offsetInCU: 0x64790, offset: 0x64790, size: 0x8, addend: 0x0, symName: __ZNKSt3__117__compressed_pairIPPNS_16__hash_node_baseIPNS_11__hash_nodeINS_17__hash_value_typeIP11_typeobjectNS_6vectorIPN8pybind116detail9type_infoENS_9allocatorISA_EEEEEEPvEEEENS_25__bucket_list_deallocatorINSB_ISJ_EEEEE5firstB7v160006Ev, symObjAddr: 0xFE70, symBinAddr: 0x10D20, symSize: 0x20 }
  - { offsetInCU: 0x647B6, offset: 0x647B6, size: 0x8, addend: 0x0, symName: __ZNKSt3__122__compressed_pair_elemIPPNS_16__hash_node_baseIPNS_11__hash_nodeINS_17__hash_value_typeIP11_typeobjectNS_6vectorIPN8pybind116detail9type_infoENS_9allocatorISA_EEEEEEPvEEEELi0ELb0EE5__getB7v160006Ev, symObjAddr: 0xFE90, symBinAddr: 0x10D40, symSize: 0x10 }
  - { offsetInCU: 0x647DC, offset: 0x647DC, size: 0x8, addend: 0x0, symName: __ZNSt3__117__compressed_pairIfNS_21__unordered_map_equalIP11_typeobjectNS_17__hash_value_typeIS3_NS_6vectorIPN8pybind116detail9type_infoENS_9allocatorIS9_EEEEEENS_8equal_toIS3_EENS_4hashIS3_EELb1EEEE6secondB7v160006Ev, symObjAddr: 0xFEA0, symBinAddr: 0x10D50, symSize: 0x20 }
  - { offsetInCU: 0x64802, offset: 0x64802, size: 0x8, addend: 0x0, symName: __ZNSt3__122__compressed_pair_elemINS_21__unordered_map_equalIP11_typeobjectNS_17__hash_value_typeIS3_NS_6vectorIPN8pybind116detail9type_infoENS_9allocatorIS9_EEEEEENS_8equal_toIS3_EENS_4hashIS3_EELb1EEELi1ELb1EE5__getB7v160006Ev, symObjAddr: 0xFEC0, symBinAddr: 0x10D70, symSize: 0x10 }
  - { offsetInCU: 0x64828, offset: 0x64828, size: 0x8, addend: 0x0, symName: __ZNKSt3__18equal_toIP11_typeobjectEclB7v160006ERKS2_S5_, symObjAddr: 0xFED0, symBinAddr: 0x10D80, symSize: 0x30 }
  - { offsetInCU: 0x6486C, offset: 0x6486C, size: 0x8, addend: 0x0, symName: __ZNKSt3__117__hash_value_typeIP11_typeobjectNS_6vectorIPN8pybind116detail9type_infoENS_9allocatorIS7_EEEEE11__get_valueB7v160006Ev, symObjAddr: 0xFF00, symBinAddr: 0x10DB0, symSize: 0x20 }
  - { offsetInCU: 0x64892, offset: 0x64892, size: 0x8, addend: 0x0, symName: __ZNSt3__114pointer_traitsIPNS_16__hash_node_baseIPNS_11__hash_nodeINS_17__hash_value_typeIP11_typeobjectNS_6vectorIPN8pybind116detail9type_infoENS_9allocatorISA_EEEEEEPvEEEEE10pointer_toB7v160006ERSI_, symObjAddr: 0xFF50, symBinAddr: 0x10E00, symSize: 0x10 }
  - { offsetInCU: 0x648B5, offset: 0x648B5, size: 0x8, addend: 0x0, symName: __ZNSt3__112__hash_tableINS_17__hash_value_typeIP11_typeobjectNS_6vectorIPN8pybind116detail9type_infoENS_9allocatorIS8_EEEEEENS_22__unordered_map_hasherIS3_SC_NS_4hashIS3_EENS_8equal_toIS3_EELb1EEENS_21__unordered_map_equalIS3_SC_SH_SF_Lb1EEENS9_ISC_EEE12__node_allocB7v160006Ev, symObjAddr: 0xFF60, symBinAddr: 0x10E10, symSize: 0x20 }
  - { offsetInCU: 0x648DB, offset: 0x648DB, size: 0x8, addend: 0x0, symName: __ZNSt3__116allocator_traitsINS_9allocatorINS_11__hash_nodeINS_17__hash_value_typeIP11_typeobjectNS_6vectorIPN8pybind116detail9type_infoENS1_ISA_EEEEEEPvEEEEE8allocateB7v160006ERSG_m, symObjAddr: 0xFF80, symBinAddr: 0x10E30, symSize: 0x30 }
  - { offsetInCU: 0x6490E, offset: 0x6490E, size: 0x8, addend: 0x0, symName: __ZNSt3__122__hash_node_destructorINS_9allocatorINS_11__hash_nodeINS_17__hash_value_typeIP11_typeobjectNS_6vectorIPN8pybind116detail9type_infoENS1_ISA_EEEEEEPvEEEEEC1B7v160006ERSG_b, symObjAddr: 0xFFB0, symBinAddr: 0x10E60, symSize: 0x40 }
  - { offsetInCU: 0x6495C, offset: 0x6495C, size: 0x8, addend: 0x0, symName: __ZNSt3__110unique_ptrINS_11__hash_nodeINS_17__hash_value_typeIP11_typeobjectNS_6vectorIPN8pybind116detail9type_infoENS_9allocatorIS9_EEEEEEPvEENS_22__hash_node_destructorINSA_ISF_EEEEEC1B7v160006ILb1EvEEPSF_NS_16__dependent_typeINS_27__unique_ptr_deleter_sfinaeISI_EEXT_EE20__good_rval_ref_typeE, symObjAddr: 0xFFF0, symBinAddr: 0x10EA0, symSize: 0x30 }
  - { offsetInCU: 0x649AD, offset: 0x649AD, size: 0x8, addend: 0x0, symName: __ZNSt3__116allocator_traitsINS_9allocatorINS_11__hash_nodeINS_17__hash_value_typeIP11_typeobjectNS_6vectorIPN8pybind116detail9type_infoENS1_ISA_EEEEEEPvEEEEE9constructB7v160006INS_4pairIKS5_SC_EEJRKNS_21piecewise_construct_tENS_5tupleIJRSK_EEENSP_IJEEEEvvEEvRSG_PT_DpOT0_, symObjAddr: 0x10020, symBinAddr: 0x10ED0, symSize: 0x40 }
  - { offsetInCU: 0x64A2A, offset: 0x64A2A, size: 0x8, addend: 0x0, symName: __ZNSt3__122__hash_key_value_typesINS_17__hash_value_typeIP11_typeobjectNS_6vectorIPN8pybind116detail9type_infoENS_9allocatorIS8_EEEEEEE9__get_ptrB7v160006ERSC_, symObjAddr: 0x10060, symBinAddr: 0x10F10, symSize: 0x20 }
  - { offsetInCU: 0x64A4D, offset: 0x64A4D, size: 0x8, addend: 0x0, symName: __ZNSt3__110unique_ptrINS_11__hash_nodeINS_17__hash_value_typeIP11_typeobjectNS_6vectorIPN8pybind116detail9type_infoENS_9allocatorIS9_EEEEEEPvEENS_22__hash_node_destructorINSA_ISF_EEEEE11get_deleterB7v160006Ev, symObjAddr: 0x10080, symBinAddr: 0x10F30, symSize: 0x20 }
  - { offsetInCU: 0x64A73, offset: 0x64A73, size: 0x8, addend: 0x0, symName: __ZNSt3__117__compressed_pairINS_16__hash_node_baseIPNS_11__hash_nodeINS_17__hash_value_typeIP11_typeobjectNS_6vectorIPN8pybind116detail9type_infoENS_9allocatorISA_EEEEEEPvEEEENSB_ISG_EEE6secondB7v160006Ev, symObjAddr: 0x100A0, symBinAddr: 0x10F50, symSize: 0x20 }
  - { offsetInCU: 0x64A99, offset: 0x64A99, size: 0x8, addend: 0x0, symName: __ZNSt3__122__compressed_pair_elemINS_9allocatorINS_11__hash_nodeINS_17__hash_value_typeIP11_typeobjectNS_6vectorIPN8pybind116detail9type_infoENS1_ISA_EEEEEEPvEEEELi1ELb1EE5__getB7v160006Ev, symObjAddr: 0x100C0, symBinAddr: 0x10F70, symSize: 0x10 }
  - { offsetInCU: 0x64ABF, offset: 0x64ABF, size: 0x8, addend: 0x0, symName: __ZNSt3__19allocatorINS_11__hash_nodeINS_17__hash_value_typeIP11_typeobjectNS_6vectorIPN8pybind116detail9type_infoENS0_IS9_EEEEEEPvEEE8allocateB7v160006Em, symObjAddr: 0x100D0, symBinAddr: 0x10F80, symSize: 0x50 }
  - { offsetInCU: 0x64AFE, offset: 0x64AFE, size: 0x8, addend: 0x0, symName: __ZNSt3__116allocator_traitsINS_9allocatorINS_11__hash_nodeINS_17__hash_value_typeIP11_typeobjectNS_6vectorIPN8pybind116detail9type_infoENS1_ISA_EEEEEEPvEEEEE8max_sizeB7v160006ISG_vvEEmRKSG_, symObjAddr: 0x10120, symBinAddr: 0x10FD0, symSize: 0x30 }
  - { offsetInCU: 0x64B2A, offset: 0x64B2A, size: 0x8, addend: 0x0, symName: __ZNSt3__122__hash_node_destructorINS_9allocatorINS_11__hash_nodeINS_17__hash_value_typeIP11_typeobjectNS_6vectorIPN8pybind116detail9type_infoENS1_ISA_EEEEEEPvEEEEEC2B7v160006ERSG_b, symObjAddr: 0x10150, symBinAddr: 0x11000, symSize: 0x30 }
  - { offsetInCU: 0x64B72, offset: 0x64B72, size: 0x8, addend: 0x0, symName: __ZNSt3__110unique_ptrINS_11__hash_nodeINS_17__hash_value_typeIP11_typeobjectNS_6vectorIPN8pybind116detail9type_infoENS_9allocatorIS9_EEEEEEPvEENS_22__hash_node_destructorINSA_ISF_EEEEEC2B7v160006ILb1EvEEPSF_NS_16__dependent_typeINS_27__unique_ptr_deleter_sfinaeISI_EEXT_EE20__good_rval_ref_typeE, symObjAddr: 0x10180, symBinAddr: 0x11030, symSize: 0x40 }
  - { offsetInCU: 0x64BC3, offset: 0x64BC3, size: 0x8, addend: 0x0, symName: __ZNSt3__117__compressed_pairIPNS_11__hash_nodeINS_17__hash_value_typeIP11_typeobjectNS_6vectorIPN8pybind116detail9type_infoENS_9allocatorIS9_EEEEEEPvEENS_22__hash_node_destructorINSA_ISF_EEEEEC1B7v160006IRSG_SJ_EEOT_OT0_, symObjAddr: 0x101C0, symBinAddr: 0x11070, symSize: 0x30 }
  - { offsetInCU: 0x64C1B, offset: 0x64C1B, size: 0x8, addend: 0x0, symName: __ZNSt3__117__compressed_pairIPNS_11__hash_nodeINS_17__hash_value_typeIP11_typeobjectNS_6vectorIPN8pybind116detail9type_infoENS_9allocatorIS9_EEEEEEPvEENS_22__hash_node_destructorINSA_ISF_EEEEEC2B7v160006IRSG_SJ_EEOT_OT0_, symObjAddr: 0x101F0, symBinAddr: 0x110A0, symSize: 0x40 }
  - { offsetInCU: 0x64C73, offset: 0x64C73, size: 0x8, addend: 0x0, symName: __ZNSt3__122__compressed_pair_elemIPNS_11__hash_nodeINS_17__hash_value_typeIP11_typeobjectNS_6vectorIPN8pybind116detail9type_infoENS_9allocatorIS9_EEEEEEPvEELi0ELb0EEC2B7v160006IRSG_vEEOT_, symObjAddr: 0x10230, symBinAddr: 0x110E0, symSize: 0x20 }
  - { offsetInCU: 0x64CB5, offset: 0x64CB5, size: 0x8, addend: 0x0, symName: __ZNSt3__122__compressed_pair_elemINS_22__hash_node_destructorINS_9allocatorINS_11__hash_nodeINS_17__hash_value_typeIP11_typeobjectNS_6vectorIPN8pybind116detail9type_infoENS2_ISB_EEEEEEPvEEEEEELi1ELb0EEC2B7v160006ISI_vEEOT_, symObjAddr: 0x10250, symBinAddr: 0x11100, symSize: 0x30 }
  - { offsetInCU: 0x64CF7, offset: 0x64CF7, size: 0x8, addend: 0x0, symName: __ZNSt3__14pairIKP11_typeobjectNS_6vectorIPN8pybind116detail9type_infoENS_9allocatorIS8_EEEEEC1B7v160006IJRS3_EJEEENS_21piecewise_construct_tENS_5tupleIJDpT_EEENSG_IJDpT0_EEE, symObjAddr: 0x102D0, symBinAddr: 0x11180, symSize: 0x40 }
  - { offsetInCU: 0x64D5E, offset: 0x64D5E, size: 0x8, addend: 0x0, symName: __ZNSt3__14pairIKP11_typeobjectNS_6vectorIPN8pybind116detail9type_infoENS_9allocatorIS8_EEEEEC1B7v160006IJRS3_EJEJLm0EEJEEENS_21piecewise_construct_tERNS_5tupleIJDpT_EEERNSG_IJDpT0_EEENS_15__tuple_indicesIJXspT1_EEEENSP_IJXspT2_EEEE, symObjAddr: 0x10310, symBinAddr: 0x111C0, symSize: 0x30 }
  - { offsetInCU: 0x64DEE, offset: 0x64DEE, size: 0x8, addend: 0x0, symName: __ZNSt3__14pairIKP11_typeobjectNS_6vectorIPN8pybind116detail9type_infoENS_9allocatorIS8_EEEEEC2B7v160006IJRS3_EJEJLm0EEJEEENS_21piecewise_construct_tERNS_5tupleIJDpT_EEERNSG_IJDpT0_EEENS_15__tuple_indicesIJXspT1_EEEENSP_IJXspT2_EEEE, symObjAddr: 0x10340, symBinAddr: 0x111F0, symSize: 0x40 }
  - { offsetInCU: 0x64E7E, offset: 0x64E7E, size: 0x8, addend: 0x0, symName: __ZNSt3__16vectorIPN8pybind116detail9type_infoENS_9allocatorIS4_EEEC1B7v160006Ev, symObjAddr: 0x103A0, symBinAddr: 0x11250, symSize: 0x20 }
  - { offsetInCU: 0x64EA8, offset: 0x64EA8, size: 0x8, addend: 0x0, symName: __ZNSt3__112__tuple_leafILm0ERKP11_typeobjectLb0EE3getB7v160006Ev, symObjAddr: 0x103C0, symBinAddr: 0x11270, symSize: 0x20 }
  - { offsetInCU: 0x64ECE, offset: 0x64ECE, size: 0x8, addend: 0x0, symName: __ZNSt3__16vectorIPN8pybind116detail9type_infoENS_9allocatorIS4_EEEC2B7v160006Ev, symObjAddr: 0x103E0, symBinAddr: 0x11290, symSize: 0x60 }
  - { offsetInCU: 0x64EF8, offset: 0x64EF8, size: 0x8, addend: 0x0, symName: __ZNSt3__117__compressed_pairIPPN8pybind116detail9type_infoENS_9allocatorIS4_EEEC1B7v160006IDnNS_18__default_init_tagEEEOT_OT0_, symObjAddr: 0x10440, symBinAddr: 0x112F0, symSize: 0x30 }
  - { offsetInCU: 0x64F50, offset: 0x64F50, size: 0x8, addend: 0x0, symName: __ZNSt3__117__compressed_pairIPPN8pybind116detail9type_infoENS_9allocatorIS4_EEEC2B7v160006IDnNS_18__default_init_tagEEEOT_OT0_, symObjAddr: 0x10480, symBinAddr: 0x11330, symSize: 0x40 }
  - { offsetInCU: 0x64FA8, offset: 0x64FA8, size: 0x8, addend: 0x0, symName: __ZNSt3__122__compressed_pair_elemIPPN8pybind116detail9type_infoELi0ELb0EEC2B7v160006IDnvEEOT_, symObjAddr: 0x104C0, symBinAddr: 0x11370, symSize: 0x20 }
  - { offsetInCU: 0x64FEA, offset: 0x64FEA, size: 0x8, addend: 0x0, symName: __ZNSt3__122__compressed_pair_elemINS_9allocatorIPN8pybind116detail9type_infoEEELi1ELb1EEC2B7v160006ENS_18__default_init_tagE, symObjAddr: 0x104E0, symBinAddr: 0x11390, symSize: 0x20 }
  - { offsetInCU: 0x6501F, offset: 0x6501F, size: 0x8, addend: 0x0, symName: __ZNSt3__19allocatorIPN8pybind116detail9type_infoEEC2B7v160006Ev, symObjAddr: 0x10500, symBinAddr: 0x113B0, symSize: 0x20 }
  - { offsetInCU: 0x65049, offset: 0x65049, size: 0x8, addend: 0x0, symName: __ZNSt3__116__non_trivial_ifILb1ENS_9allocatorIPN8pybind116detail9type_infoEEEEC2B7v160006Ev, symObjAddr: 0x10520, symBinAddr: 0x113D0, symSize: 0x10 }
  - { offsetInCU: 0x65073, offset: 0x65073, size: 0x8, addend: 0x0, symName: __ZNSt3__117__hash_value_typeIP11_typeobjectNS_6vectorIPN8pybind116detail9type_infoENS_9allocatorIS7_EEEEE11__get_valueB7v160006Ev, symObjAddr: 0x10530, symBinAddr: 0x113E0, symSize: 0x20 }
  - { offsetInCU: 0x65099, offset: 0x65099, size: 0x8, addend: 0x0, symName: __ZNSt3__117__compressed_pairIPNS_11__hash_nodeINS_17__hash_value_typeIP11_typeobjectNS_6vectorIPN8pybind116detail9type_infoENS_9allocatorIS9_EEEEEEPvEENS_22__hash_node_destructorINSA_ISF_EEEEE6secondB7v160006Ev, symObjAddr: 0x10580, symBinAddr: 0x11430, symSize: 0x20 }
  - { offsetInCU: 0x650BF, offset: 0x650BF, size: 0x8, addend: 0x0, symName: __ZNSt3__122__compressed_pair_elemINS_22__hash_node_destructorINS_9allocatorINS_11__hash_nodeINS_17__hash_value_typeIP11_typeobjectNS_6vectorIPN8pybind116detail9type_infoENS2_ISB_EEEEEEPvEEEEEELi1ELb0EE5__getB7v160006Ev, symObjAddr: 0x105A0, symBinAddr: 0x11450, symSize: 0x10 }
  - { offsetInCU: 0x650E5, offset: 0x650E5, size: 0x8, addend: 0x0, symName: __ZNSt3__117__compressed_pairImNS_22__unordered_map_hasherIP11_typeobjectNS_17__hash_value_typeIS3_NS_6vectorIPN8pybind116detail9type_infoENS_9allocatorIS9_EEEEEENS_4hashIS3_EENS_8equal_toIS3_EELb1EEEE5firstB7v160006Ev, symObjAddr: 0x105B0, symBinAddr: 0x11460, symSize: 0x20 }
  - { offsetInCU: 0x6510B, offset: 0x6510B, size: 0x8, addend: 0x0, symName: __ZNSt3__122__compressed_pair_elemImLi0ELb0EE5__getB7v160006Ev, symObjAddr: 0x105D0, symBinAddr: 0x11480, symSize: 0x10 }
  - { offsetInCU: 0x65131, offset: 0x65131, size: 0x8, addend: 0x0, symName: __ZNSt3__117__compressed_pairIfNS_21__unordered_map_equalIP11_typeobjectNS_17__hash_value_typeIS3_NS_6vectorIPN8pybind116detail9type_infoENS_9allocatorIS9_EEEEEENS_8equal_toIS3_EENS_4hashIS3_EELb1EEEE5firstB7v160006Ev, symObjAddr: 0x105E0, symBinAddr: 0x11490, symSize: 0x20 }
  - { offsetInCU: 0x65157, offset: 0x65157, size: 0x8, addend: 0x0, symName: __ZNSt3__122__compressed_pair_elemIfLi0ELb0EE5__getB7v160006Ev, symObjAddr: 0x10600, symBinAddr: 0x114B0, symSize: 0x10 }
  - { offsetInCU: 0x6517D, offset: 0x6517D, size: 0x8, addend: 0x0, symName: __ZNSt3__112__hash_tableINS_17__hash_value_typeIP11_typeobjectNS_6vectorIPN8pybind116detail9type_infoENS_9allocatorIS8_EEEEEENS_22__unordered_map_hasherIS3_SC_NS_4hashIS3_EENS_8equal_toIS3_EELb1EEENS_21__unordered_map_equalIS3_SC_SH_SF_Lb1EEENS9_ISC_EEE8__rehashILb1EEEvm, symObjAddr: 0x10610, symBinAddr: 0x114C0, symSize: 0x230 }
  - { offsetInCU: 0x651CD, offset: 0x651CD, size: 0x8, addend: 0x0, symName: __ZNSt3__112__hash_tableINS_17__hash_value_typeIP11_typeobjectNS_6vectorIPN8pybind116detail9type_infoENS_9allocatorIS8_EEEEEENS_22__unordered_map_hasherIS3_SC_NS_4hashIS3_EENS_8equal_toIS3_EELb1EEENS_21__unordered_map_equalIS3_SC_SH_SF_Lb1EEENS9_ISC_EEE11__do_rehashILb1EEEvm, symObjAddr: 0x10840, symBinAddr: 0x116F0, symSize: 0x260 }
  - { offsetInCU: 0x652B0, offset: 0x652B0, size: 0x8, addend: 0x0, symName: __ZNSt3__110unique_ptrIA_PNS_16__hash_node_baseIPNS_11__hash_nodeINS_17__hash_value_typeIP11_typeobjectNS_6vectorIPN8pybind116detail9type_infoENS_9allocatorISA_EEEEEEPvEEEENS_25__bucket_list_deallocatorINSB_ISJ_EEEEE11get_deleterB7v160006Ev, symObjAddr: 0x10B10, symBinAddr: 0x119C0, symSize: 0x20 }
  - { offsetInCU: 0x652D6, offset: 0x652D6, size: 0x8, addend: 0x0, symName: __ZNSt3__125__bucket_list_deallocatorINS_9allocatorIPNS_16__hash_node_baseIPNS_11__hash_nodeINS_17__hash_value_typeIP11_typeobjectNS_6vectorIPN8pybind116detail9type_infoENS1_ISB_EEEEEEPvEEEEEEE7__allocB7v160006Ev, symObjAddr: 0x10B30, symBinAddr: 0x119E0, symSize: 0x20 }
  - { offsetInCU: 0x652FC, offset: 0x652FC, size: 0x8, addend: 0x0, symName: __ZNSt3__110unique_ptrIA_PNS_16__hash_node_baseIPNS_11__hash_nodeINS_17__hash_value_typeIP11_typeobjectNS_6vectorIPN8pybind116detail9type_infoENS_9allocatorISA_EEEEEEPvEEEENS_25__bucket_list_deallocatorINSB_ISJ_EEEEE5resetB7v160006IPSJ_EENS_9enable_ifIXsr28_CheckArrayPointerConversionIT_EE5valueEvE4typeESS_, symObjAddr: 0x10B50, symBinAddr: 0x11A00, symSize: 0x70 }
  - { offsetInCU: 0x65349, offset: 0x65349, size: 0x8, addend: 0x0, symName: __ZNSt3__116allocator_traitsINS_9allocatorIPNS_16__hash_node_baseIPNS_11__hash_nodeINS_17__hash_value_typeIP11_typeobjectNS_6vectorIPN8pybind116detail9type_infoENS1_ISB_EEEEEEPvEEEEEEE8allocateB7v160006ERSK_m, symObjAddr: 0x10BC0, symBinAddr: 0x11A70, symSize: 0x30 }
  - { offsetInCU: 0x6537C, offset: 0x6537C, size: 0x8, addend: 0x0, symName: __ZNSt3__125__bucket_list_deallocatorINS_9allocatorIPNS_16__hash_node_baseIPNS_11__hash_nodeINS_17__hash_value_typeIP11_typeobjectNS_6vectorIPN8pybind116detail9type_infoENS1_ISB_EEEEEEPvEEEEEEE4sizeB7v160006Ev, symObjAddr: 0x10BF0, symBinAddr: 0x11AA0, symSize: 0x20 }
  - { offsetInCU: 0x653A2, offset: 0x653A2, size: 0x8, addend: 0x0, symName: __ZNSt3__117__compressed_pairIPPNS_16__hash_node_baseIPNS_11__hash_nodeINS_17__hash_value_typeIP11_typeobjectNS_6vectorIPN8pybind116detail9type_infoENS_9allocatorISA_EEEEEEPvEEEENS_25__bucket_list_deallocatorINSB_ISJ_EEEEE6secondB7v160006Ev, symObjAddr: 0x10C10, symBinAddr: 0x11AC0, symSize: 0x20 }
  - { offsetInCU: 0x653C8, offset: 0x653C8, size: 0x8, addend: 0x0, symName: __ZNSt3__122__compressed_pair_elemINS_25__bucket_list_deallocatorINS_9allocatorIPNS_16__hash_node_baseIPNS_11__hash_nodeINS_17__hash_value_typeIP11_typeobjectNS_6vectorIPN8pybind116detail9type_infoENS2_ISC_EEEEEEPvEEEEEEEELi1ELb0EE5__getB7v160006Ev, symObjAddr: 0x10C30, symBinAddr: 0x11AE0, symSize: 0x10 }
  - { offsetInCU: 0x653EE, offset: 0x653EE, size: 0x8, addend: 0x0, symName: __ZNSt3__117__compressed_pairImNS_9allocatorIPNS_16__hash_node_baseIPNS_11__hash_nodeINS_17__hash_value_typeIP11_typeobjectNS_6vectorIPN8pybind116detail9type_infoENS1_ISB_EEEEEEPvEEEEEEE6secondB7v160006Ev, symObjAddr: 0x10C40, symBinAddr: 0x11AF0, symSize: 0x20 }
  - { offsetInCU: 0x65414, offset: 0x65414, size: 0x8, addend: 0x0, symName: __ZNSt3__122__compressed_pair_elemINS_9allocatorIPNS_16__hash_node_baseIPNS_11__hash_nodeINS_17__hash_value_typeIP11_typeobjectNS_6vectorIPN8pybind116detail9type_infoENS1_ISB_EEEEEEPvEEEEEELi1ELb1EE5__getB7v160006Ev, symObjAddr: 0x10C60, symBinAddr: 0x11B10, symSize: 0x10 }
  - { offsetInCU: 0x6543A, offset: 0x6543A, size: 0x8, addend: 0x0, symName: __ZNSt3__117__compressed_pairIPPNS_16__hash_node_baseIPNS_11__hash_nodeINS_17__hash_value_typeIP11_typeobjectNS_6vectorIPN8pybind116detail9type_infoENS_9allocatorISA_EEEEEEPvEEEENS_25__bucket_list_deallocatorINSB_ISJ_EEEEE5firstB7v160006Ev, symObjAddr: 0x10C70, symBinAddr: 0x11B20, symSize: 0x20 }
  - { offsetInCU: 0x65460, offset: 0x65460, size: 0x8, addend: 0x0, symName: __ZNSt3__125__bucket_list_deallocatorINS_9allocatorIPNS_16__hash_node_baseIPNS_11__hash_nodeINS_17__hash_value_typeIP11_typeobjectNS_6vectorIPN8pybind116detail9type_infoENS1_ISB_EEEEEEPvEEEEEEEclB7v160006EPSJ_, symObjAddr: 0x10C90, symBinAddr: 0x11B40, symSize: 0x50 }
  - { offsetInCU: 0x65495, offset: 0x65495, size: 0x8, addend: 0x0, symName: __ZNSt3__122__compressed_pair_elemIPPNS_16__hash_node_baseIPNS_11__hash_nodeINS_17__hash_value_typeIP11_typeobjectNS_6vectorIPN8pybind116detail9type_infoENS_9allocatorISA_EEEEEEPvEEEELi0ELb0EE5__getB7v160006Ev, symObjAddr: 0x10CE0, symBinAddr: 0x11B90, symSize: 0x10 }
  - { offsetInCU: 0x654BB, offset: 0x654BB, size: 0x8, addend: 0x0, symName: __ZNSt3__116allocator_traitsINS_9allocatorIPNS_16__hash_node_baseIPNS_11__hash_nodeINS_17__hash_value_typeIP11_typeobjectNS_6vectorIPN8pybind116detail9type_infoENS1_ISB_EEEEEEPvEEEEEEE10deallocateB7v160006ERSK_PSJ_m, symObjAddr: 0x10CF0, symBinAddr: 0x11BA0, symSize: 0x30 }
  - { offsetInCU: 0x654FD, offset: 0x654FD, size: 0x8, addend: 0x0, symName: __ZNSt3__19allocatorIPNS_16__hash_node_baseIPNS_11__hash_nodeINS_17__hash_value_typeIP11_typeobjectNS_6vectorIPN8pybind116detail9type_infoENS0_ISA_EEEEEEPvEEEEE10deallocateB7v160006EPSI_m, symObjAddr: 0x10D20, symBinAddr: 0x11BD0, symSize: 0x40 }
  - { offsetInCU: 0x6553F, offset: 0x6553F, size: 0x8, addend: 0x0, symName: __ZNSt3__19allocatorIPNS_16__hash_node_baseIPNS_11__hash_nodeINS_17__hash_value_typeIP11_typeobjectNS_6vectorIPN8pybind116detail9type_infoENS0_ISA_EEEEEEPvEEEEE8allocateB7v160006Em, symObjAddr: 0x10D60, symBinAddr: 0x11C10, symSize: 0x50 }
  - { offsetInCU: 0x6557E, offset: 0x6557E, size: 0x8, addend: 0x0, symName: __ZNSt3__116allocator_traitsINS_9allocatorIPNS_16__hash_node_baseIPNS_11__hash_nodeINS_17__hash_value_typeIP11_typeobjectNS_6vectorIPN8pybind116detail9type_infoENS1_ISB_EEEEEEPvEEEEEEE8max_sizeB7v160006ISK_vvEEmRKSK_, symObjAddr: 0x10DB0, symBinAddr: 0x11C60, symSize: 0x20 }
  - { offsetInCU: 0x655AA, offset: 0x655AA, size: 0x8, addend: 0x0, symName: __ZNSt3__117__compressed_pairImNS_9allocatorIPNS_16__hash_node_baseIPNS_11__hash_nodeINS_17__hash_value_typeIP11_typeobjectNS_6vectorIPN8pybind116detail9type_infoENS1_ISB_EEEEEEPvEEEEEEE5firstB7v160006Ev, symObjAddr: 0x10DD0, symBinAddr: 0x11C80, symSize: 0x20 }
  - { offsetInCU: 0x655D0, offset: 0x655D0, size: 0x8, addend: 0x0, symName: __ZNSt3__122__compressed_pair_elemINS_16__hash_node_baseIPNS_11__hash_nodeINS_17__hash_value_typeIP11_typeobjectNS_6vectorIPN8pybind116detail9type_infoENS_9allocatorISA_EEEEEEPvEEEELi0ELb0EE5__getB7v160006Ev, symObjAddr: 0x10E60, symBinAddr: 0x11D10, symSize: 0x10 }
  - { offsetInCU: 0x655F6, offset: 0x655F6, size: 0x8, addend: 0x0, symName: __ZNKSt3__117__compressed_pairIPNS_11__hash_nodeINS_17__hash_value_typeIP11_typeobjectNS_6vectorIPN8pybind116detail9type_infoENS_9allocatorIS9_EEEEEEPvEENS_22__hash_node_destructorINSA_ISF_EEEEE5firstB7v160006Ev, symObjAddr: 0x10E70, symBinAddr: 0x11D20, symSize: 0x20 }
  - { offsetInCU: 0x6561C, offset: 0x6561C, size: 0x8, addend: 0x0, symName: __ZNKSt3__122__compressed_pair_elemIPNS_11__hash_nodeINS_17__hash_value_typeIP11_typeobjectNS_6vectorIPN8pybind116detail9type_infoENS_9allocatorIS9_EEEEEEPvEELi0ELb0EE5__getB7v160006Ev, symObjAddr: 0x10E90, symBinAddr: 0x11D40, symSize: 0x10 }
  - { offsetInCU: 0x65642, offset: 0x65642, size: 0x8, addend: 0x0, symName: __ZNSt3__117__compressed_pairIPNS_11__hash_nodeINS_17__hash_value_typeIP11_typeobjectNS_6vectorIPN8pybind116detail9type_infoENS_9allocatorIS9_EEEEEEPvEENS_22__hash_node_destructorINSA_ISF_EEEEE5firstB7v160006Ev, symObjAddr: 0x10EA0, symBinAddr: 0x11D50, symSize: 0x20 }
  - { offsetInCU: 0x65668, offset: 0x65668, size: 0x8, addend: 0x0, symName: __ZNSt3__122__compressed_pair_elemIPNS_11__hash_nodeINS_17__hash_value_typeIP11_typeobjectNS_6vectorIPN8pybind116detail9type_infoENS_9allocatorIS9_EEEEEEPvEELi0ELb0EE5__getB7v160006Ev, symObjAddr: 0x10EC0, symBinAddr: 0x11D70, symSize: 0x10 }
  - { offsetInCU: 0x6568E, offset: 0x6568E, size: 0x8, addend: 0x0, symName: __ZNSt3__110unique_ptrINS_11__hash_nodeINS_17__hash_value_typeIP11_typeobjectNS_6vectorIPN8pybind116detail9type_infoENS_9allocatorIS9_EEEEEEPvEENS_22__hash_node_destructorINSA_ISF_EEEEED2B7v160006Ev, symObjAddr: 0x10ED0, symBinAddr: 0x11D80, symSize: 0x20 }
  - { offsetInCU: 0x656B8, offset: 0x656B8, size: 0x8, addend: 0x0, symName: __ZNSt3__110unique_ptrINS_11__hash_nodeINS_17__hash_value_typeIP11_typeobjectNS_6vectorIPN8pybind116detail9type_infoENS_9allocatorIS9_EEEEEEPvEENS_22__hash_node_destructorINSA_ISF_EEEEE5resetB7v160006EPSF_, symObjAddr: 0x10EF0, symBinAddr: 0x11DA0, symSize: 0x70 }
  - { offsetInCU: 0x656FC, offset: 0x656FC, size: 0x8, addend: 0x0, symName: __ZNSt3__122__hash_node_destructorINS_9allocatorINS_11__hash_nodeINS_17__hash_value_typeIP11_typeobjectNS_6vectorIPN8pybind116detail9type_infoENS1_ISA_EEEEEEPvEEEEEclB7v160006EPSF_, symObjAddr: 0x10F60, symBinAddr: 0x11E10, symSize: 0x90 }
  - { offsetInCU: 0x65731, offset: 0x65731, size: 0x8, addend: 0x0, symName: __ZNSt3__116allocator_traitsINS_9allocatorINS_11__hash_nodeINS_17__hash_value_typeIP11_typeobjectNS_6vectorIPN8pybind116detail9type_infoENS1_ISA_EEEEEEPvEEEEE7destroyB7v160006INS_4pairIKS5_SC_EEvvEEvRSG_PT_, symObjAddr: 0x10FF0, symBinAddr: 0x11EA0, symSize: 0x20 }
  - { offsetInCU: 0x6576C, offset: 0x6576C, size: 0x8, addend: 0x0, symName: __ZNSt3__116allocator_traitsINS_9allocatorINS_11__hash_nodeINS_17__hash_value_typeIP11_typeobjectNS_6vectorIPN8pybind116detail9type_infoENS1_ISA_EEEEEEPvEEEEE10deallocateB7v160006ERSG_PSF_m, symObjAddr: 0x11010, symBinAddr: 0x11EC0, symSize: 0x30 }
  - { offsetInCU: 0x657AE, offset: 0x657AE, size: 0x8, addend: 0x0, symName: __ZNSt3__14pairIKP11_typeobjectNS_6vectorIPN8pybind116detail9type_infoENS_9allocatorIS8_EEEEED1Ev, symObjAddr: 0x11080, symBinAddr: 0x11F30, symSize: 0x20 }
  - { offsetInCU: 0x657DA, offset: 0x657DA, size: 0x8, addend: 0x0, symName: __ZNSt3__14pairIKP11_typeobjectNS_6vectorIPN8pybind116detail9type_infoENS_9allocatorIS8_EEEEED2Ev, symObjAddr: 0x110A0, symBinAddr: 0x11F50, symSize: 0x20 }
  - { offsetInCU: 0x65806, offset: 0x65806, size: 0x8, addend: 0x0, symName: __ZNSt3__16vectorIPN8pybind116detail9type_infoENS_9allocatorIS4_EEED1B7v160006Ev, symObjAddr: 0x110C0, symBinAddr: 0x11F70, symSize: 0x20 }
  - { offsetInCU: 0x65830, offset: 0x65830, size: 0x8, addend: 0x0, symName: __ZNSt3__16vectorIPN8pybind116detail9type_infoENS_9allocatorIS4_EEED2B7v160006Ev, symObjAddr: 0x110E0, symBinAddr: 0x11F90, symSize: 0x40 }
  - { offsetInCU: 0x6585A, offset: 0x6585A, size: 0x8, addend: 0x0, symName: __ZNSt3__16vectorIPN8pybind116detail9type_infoENS_9allocatorIS4_EEE16__destroy_vectorC1ERS7_, symObjAddr: 0x11120, symBinAddr: 0x11FD0, symSize: 0x30 }
  - { offsetInCU: 0x65893, offset: 0x65893, size: 0x8, addend: 0x0, symName: __ZNSt3__16vectorIPN8pybind116detail9type_infoENS_9allocatorIS4_EEE16__destroy_vectorclB7v160006Ev, symObjAddr: 0x11150, symBinAddr: 0x12000, symSize: 0x90 }
  - { offsetInCU: 0x658B9, offset: 0x658B9, size: 0x8, addend: 0x0, symName: __ZNSt3__16vectorIPN8pybind116detail9type_infoENS_9allocatorIS4_EEE16__destroy_vectorC2ERS7_, symObjAddr: 0x111E0, symBinAddr: 0x12090, symSize: 0x20 }
  - { offsetInCU: 0x658F2, offset: 0x658F2, size: 0x8, addend: 0x0, symName: __ZNKSt3__16vectorIPN8pybind116detail9type_infoENS_9allocatorIS4_EEE17__annotate_deleteB7v160006Ev, symObjAddr: 0x11200, symBinAddr: 0x120B0, symSize: 0xB0 }
  - { offsetInCU: 0x65918, offset: 0x65918, size: 0x8, addend: 0x0, symName: __ZNSt3__16vectorIPN8pybind116detail9type_infoENS_9allocatorIS4_EEE7__clearB7v160006Ev, symObjAddr: 0x112C0, symBinAddr: 0x12170, symSize: 0x20 }
  - { offsetInCU: 0x6593E, offset: 0x6593E, size: 0x8, addend: 0x0, symName: __ZNSt3__116allocator_traitsINS_9allocatorIPN8pybind116detail9type_infoEEEE10deallocateB7v160006ERS6_PS5_m, symObjAddr: 0x112E0, symBinAddr: 0x12190, symSize: 0x30 }
  - { offsetInCU: 0x65980, offset: 0x65980, size: 0x8, addend: 0x0, symName: __ZNSt3__16vectorIPN8pybind116detail9type_infoENS_9allocatorIS4_EEE7__allocB7v160006Ev, symObjAddr: 0x11310, symBinAddr: 0x121C0, symSize: 0x20 }
  - { offsetInCU: 0x659A6, offset: 0x659A6, size: 0x8, addend: 0x0, symName: __ZNKSt3__16vectorIPN8pybind116detail9type_infoENS_9allocatorIS4_EEE8capacityB7v160006Ev, symObjAddr: 0x11330, symBinAddr: 0x121E0, symSize: 0x30 }
  - { offsetInCU: 0x659CC, offset: 0x659CC, size: 0x8, addend: 0x0, symName: __ZNKSt3__16vectorIPN8pybind116detail9type_infoENS_9allocatorIS4_EEE31__annotate_contiguous_containerB7v160006EPKvS9_S9_S9_, symObjAddr: 0x11360, symBinAddr: 0x12210, symSize: 0x20 }
  - { offsetInCU: 0x65A22, offset: 0x65A22, size: 0x8, addend: 0x0, symName: __ZNKSt3__16vectorIPN8pybind116detail9type_infoENS_9allocatorIS4_EEE4dataB7v160006Ev, symObjAddr: 0x11380, symBinAddr: 0x12230, symSize: 0x20 }
  - { offsetInCU: 0x65A48, offset: 0x65A48, size: 0x8, addend: 0x0, symName: __ZNKSt3__16vectorIPN8pybind116detail9type_infoENS_9allocatorIS4_EEE4sizeB7v160006Ev, symObjAddr: 0x113A0, symBinAddr: 0x12250, symSize: 0x20 }
  - { offsetInCU: 0x65A6E, offset: 0x65A6E, size: 0x8, addend: 0x0, symName: __ZNSt3__16vectorIPN8pybind116detail9type_infoENS_9allocatorIS4_EEE22__base_destruct_at_endB7v160006EPS4_, symObjAddr: 0x113D0, symBinAddr: 0x12280, symSize: 0x80 }
  - { offsetInCU: 0x65AB2, offset: 0x65AB2, size: 0x8, addend: 0x0, symName: __ZNSt3__116allocator_traitsINS_9allocatorIPN8pybind116detail9type_infoEEEE7destroyB7v160006IS5_vvEEvRS6_PT_, symObjAddr: 0x11450, symBinAddr: 0x12300, symSize: 0x20 }
  - { offsetInCU: 0x65AED, offset: 0x65AED, size: 0x8, addend: 0x0, symName: __ZNSt3__19allocatorIPN8pybind116detail9type_infoEE10deallocateB7v160006EPS4_m, symObjAddr: 0x114A0, symBinAddr: 0x12350, symSize: 0x40 }
  - { offsetInCU: 0x65B2F, offset: 0x65B2F, size: 0x8, addend: 0x0, symName: __ZNSt3__117__compressed_pairIPPN8pybind116detail9type_infoENS_9allocatorIS4_EEE6secondB7v160006Ev, symObjAddr: 0x114E0, symBinAddr: 0x12390, symSize: 0x20 }
  - { offsetInCU: 0x65B55, offset: 0x65B55, size: 0x8, addend: 0x0, symName: __ZNSt3__122__compressed_pair_elemINS_9allocatorIPN8pybind116detail9type_infoEEELi1ELb1EE5__getB7v160006Ev, symObjAddr: 0x11500, symBinAddr: 0x123B0, symSize: 0x10 }
  - { offsetInCU: 0x65B7B, offset: 0x65B7B, size: 0x8, addend: 0x0, symName: __ZNKSt3__16vectorIPN8pybind116detail9type_infoENS_9allocatorIS4_EEE9__end_capB7v160006Ev, symObjAddr: 0x11510, symBinAddr: 0x123C0, symSize: 0x20 }
  - { offsetInCU: 0x65BA1, offset: 0x65BA1, size: 0x8, addend: 0x0, symName: __ZNKSt3__117__compressed_pairIPPN8pybind116detail9type_infoENS_9allocatorIS4_EEE5firstB7v160006Ev, symObjAddr: 0x11530, symBinAddr: 0x123E0, symSize: 0x20 }
  - { offsetInCU: 0x65BC7, offset: 0x65BC7, size: 0x8, addend: 0x0, symName: __ZNKSt3__122__compressed_pair_elemIPPN8pybind116detail9type_infoELi0ELb0EE5__getB7v160006Ev, symObjAddr: 0x11550, symBinAddr: 0x12400, symSize: 0x10 }
  - { offsetInCU: 0x65BED, offset: 0x65BED, size: 0x8, addend: 0x0, symName: __ZNSt3__19allocatorINS_11__hash_nodeINS_17__hash_value_typeIP11_typeobjectNS_6vectorIPN8pybind116detail9type_infoENS0_IS9_EEEEEEPvEEE10deallocateB7v160006EPSE_m, symObjAddr: 0x11560, symBinAddr: 0x12410, symSize: 0x50 }
  - { offsetInCU: 0x65C2F, offset: 0x65C2F, size: 0x8, addend: 0x0, symName: __ZNSt3__115__hash_iteratorIPNS_11__hash_nodeINS_17__hash_value_typeIP11_typeobjectNS_6vectorIPN8pybind116detail9type_infoENS_9allocatorIS9_EEEEEEPvEEEC2B7v160006EPNS_16__hash_node_baseISG_EEPKv, symObjAddr: 0x115B0, symBinAddr: 0x12460, symSize: 0x20 }
  - { offsetInCU: 0x65C77, offset: 0x65C77, size: 0x8, addend: 0x0, symName: __ZNSt3__14pairINS_15__hash_iteratorIPNS_11__hash_nodeINS_17__hash_value_typeIP11_typeobjectNS_6vectorIPN8pybind116detail9type_infoENS_9allocatorISA_EEEEEEPvEEEEbEC2B7v160006ISI_RbLSF_0EEEOT_OT0_, symObjAddr: 0x115D0, symBinAddr: 0x12480, symSize: 0x30 }
  - { offsetInCU: 0x65CD5, offset: 0x65CD5, size: 0x8, addend: 0x0, symName: __ZNSt3__15tupleIJRKP11_typeobjectEEC1B7v160006INS_4_AndELi0EEES4_, symObjAddr: 0x11600, symBinAddr: 0x124B0, symSize: 0x30 }
  - { offsetInCU: 0x65D1E, offset: 0x65D1E, size: 0x8, addend: 0x0, symName: __ZNSt3__15tupleIJRKP11_typeobjectEEC2B7v160006INS_4_AndELi0EEES4_, symObjAddr: 0x11630, symBinAddr: 0x124E0, symSize: 0x30 }
  - { offsetInCU: 0x65D67, offset: 0x65D67, size: 0x8, addend: 0x0, symName: __ZNSt3__112__tuple_implINS_15__tuple_indicesIJLm0EEEEJRKP11_typeobjectEEC1B7v160006IJLm0EEJS6_EJEJEJS6_EEENS1_IJXspT_EEEENS_13__tuple_typesIJDpT0_EEENS1_IJXspT1_EEEENSA_IJDpT2_EEEDpOT3_, symObjAddr: 0x11660, symBinAddr: 0x12510, symSize: 0x30 }
  - { offsetInCU: 0x65DFC, offset: 0x65DFC, size: 0x8, addend: 0x0, symName: __ZNSt3__112__tuple_implINS_15__tuple_indicesIJLm0EEEEJRKP11_typeobjectEEC2B7v160006IJLm0EEJS6_EJEJEJS6_EEENS1_IJXspT_EEEENS_13__tuple_typesIJDpT0_EEENS1_IJXspT1_EEEENSA_IJDpT2_EEEDpOT3_, symObjAddr: 0x11690, symBinAddr: 0x12540, symSize: 0x30 }
  - { offsetInCU: 0x65E91, offset: 0x65E91, size: 0x8, addend: 0x0, symName: __ZNSt3__112__tuple_leafILm0ERKP11_typeobjectLb0EEC2B7v160006IS4_vEEOT_, symObjAddr: 0x116C0, symBinAddr: 0x12570, symSize: 0x20 }
  - { offsetInCU: 0x65ED4, offset: 0x65ED4, size: 0x8, addend: 0x0, symName: __ZNSt3__14pairINS_19__hash_map_iteratorINS_15__hash_iteratorIPNS_11__hash_nodeINS_17__hash_value_typeIP11_typeobjectNS_6vectorIPN8pybind116detail9type_infoENS_9allocatorISB_EEEEEEPvEEEEEEbEC2B7v160006ISJ_bLSG_0EEEONS0_IT_T0_EE, symObjAddr: 0x116E0, symBinAddr: 0x12590, symSize: 0x50 }
  - { offsetInCU: 0x65F25, offset: 0x65F25, size: 0x8, addend: 0x0, symName: __ZNSt3__119__hash_map_iteratorINS_15__hash_iteratorIPNS_11__hash_nodeINS_17__hash_value_typeIP11_typeobjectNS_6vectorIPN8pybind116detail9type_infoENS_9allocatorISA_EEEEEEPvEEEEEC1B7v160006ESI_, symObjAddr: 0x11730, symBinAddr: 0x125E0, symSize: 0x30 }
  - { offsetInCU: 0x65F5E, offset: 0x65F5E, size: 0x8, addend: 0x0, symName: __ZNSt3__119__hash_map_iteratorINS_15__hash_iteratorIPNS_11__hash_nodeINS_17__hash_value_typeIP11_typeobjectNS_6vectorIPN8pybind116detail9type_infoENS_9allocatorISA_EEEEEEPvEEEEEC2B7v160006ESI_, symObjAddr: 0x11760, symBinAddr: 0x12610, symSize: 0x20 }
  - { offsetInCU: 0x65F97, offset: 0x65F97, size: 0x8, addend: 0x0, symName: __ZN8pybind1112cpp_functionC2IZNS_6detail23all_type_info_get_cacheEP11_typeobjectEUlNS_6handleEE_JEvEEOT_DpRKT0_, symObjAddr: 0x11780, symBinAddr: 0x12630, symSize: 0x60 }
  - { offsetInCU: 0x65FDE, offset: 0x65FDE, size: 0x8, addend: 0x0, symName: __ZN8pybind118functionC2Ev, symObjAddr: 0x117E0, symBinAddr: 0x12690, symSize: 0x20 }
  - { offsetInCU: 0x66008, offset: 0x66008, size: 0x8, addend: 0x0, symName: __ZN8pybind118functionD2Ev, symObjAddr: 0x11910, symBinAddr: 0x127C0, symSize: 0x20 }
  - { offsetInCU: 0x66035, offset: 0x66035, size: 0x8, addend: 0x0, symName: __ZN8pybind116objectC2Ev, symObjAddr: 0x11930, symBinAddr: 0x127E0, symSize: 0x20 }
  - { offsetInCU: 0x6605F, offset: 0x6605F, size: 0x8, addend: 0x0, symName: __ZN8pybind116handleC2Ev, symObjAddr: 0x11950, symBinAddr: 0x12800, symSize: 0x20 }
  - { offsetInCU: 0x66089, offset: 0x66089, size: 0x8, addend: 0x0, symName: __ZN8pybind1112cpp_function20make_function_recordEv, symObjAddr: 0x11970, symBinAddr: 0x12820, symSize: 0x70 }
  - { offsetInCU: 0x660AF, offset: 0x660AF, size: 0x8, addend: 0x0, symName: __ZNKSt3__110unique_ptrIN8pybind116detail15function_recordENS1_12cpp_function33InitializingFunctionRecordDeleterEE3getB7v160006Ev, symObjAddr: 0x119E0, symBinAddr: 0x12890, symSize: 0x20 }
  - { offsetInCU: 0x660DF, offset: 0x660DF, size: 0x8, addend: 0x0, symName: __ZZN8pybind1112cpp_function10initializeIZNS_6detail23all_type_info_get_cacheEP11_typeobjectEUlNS_6handleEE_vJS5_EJEEEvOT_PFT0_DpT1_EDpRKT2_ENKUlRNS2_13function_callEE_cvPFS5_SJ_EEv, symObjAddr: 0x11A00, symBinAddr: 0x128B0, symSize: 0x20 }
  - { offsetInCU: 0x661E0, offset: 0x661E0, size: 0x8, addend: 0x0, symName: __ZN8pybind116detail18process_attributesIJEE4initEPNS0_15function_recordE, symObjAddr: 0x11A20, symBinAddr: 0x128D0, symSize: 0x20 }
  - { offsetInCU: 0x66204, offset: 0x66204, size: 0x8, addend: 0x0, symName: __ZN8pybind1112cpp_function18initialize_genericEONSt3__110unique_ptrINS_6detail15function_recordENS0_33InitializingFunctionRecordDeleterEEEPKcPKPKSt9type_infom, symObjAddr: 0x11A40, symBinAddr: 0x128F0, symSize: 0x21D0 }
  - { offsetInCU: 0x664F7, offset: 0x664F7, size: 0x8, addend: 0x0, symName: __ZNKSt3__15arrayIPKSt9type_infoLm1EE4dataB7v160006Ev, symObjAddr: 0x13C10, symBinAddr: 0x14AC0, symSize: 0x10 }
  - { offsetInCU: 0x6651D, offset: 0x6651D, size: 0x8, addend: 0x0, symName: __ZNSt3__110unique_ptrIN8pybind116detail15function_recordENS1_12cpp_function33InitializingFunctionRecordDeleterEED1B7v160006Ev, symObjAddr: 0x13C20, symBinAddr: 0x14AD0, symSize: 0x20 }
  - { offsetInCU: 0x66547, offset: 0x66547, size: 0x8, addend: 0x0, symName: __ZN8pybind116detail15function_recordC1Ev, symObjAddr: 0x13C40, symBinAddr: 0x14AF0, symSize: 0x20 }
  - { offsetInCU: 0x66571, offset: 0x66571, size: 0x8, addend: 0x0, symName: __ZNSt3__110unique_ptrIN8pybind116detail15function_recordENS1_12cpp_function33InitializingFunctionRecordDeleterEEC1B7v160006ILb1EvEEPS3_, symObjAddr: 0x13C60, symBinAddr: 0x14B10, symSize: 0x30 }
  - { offsetInCU: 0x665B4, offset: 0x665B4, size: 0x8, addend: 0x0, symName: __ZN8pybind116detail15function_recordC2Ev, symObjAddr: 0x13C90, symBinAddr: 0x14B40, symSize: 0x160 }
  - { offsetInCU: 0x665DE, offset: 0x665DE, size: 0x8, addend: 0x0, symName: __ZNSt3__16vectorIN8pybind116detail15argument_recordENS_9allocatorIS3_EEEC1B7v160006Ev, symObjAddr: 0x13DF0, symBinAddr: 0x14CA0, symSize: 0x20 }
  - { offsetInCU: 0x66608, offset: 0x66608, size: 0x8, addend: 0x0, symName: __ZN8pybind116handleC1Ev, symObjAddr: 0x13E10, symBinAddr: 0x14CC0, symSize: 0x20 }
  - { offsetInCU: 0x66632, offset: 0x66632, size: 0x8, addend: 0x0, symName: __ZNSt3__16vectorIN8pybind116detail15argument_recordENS_9allocatorIS3_EEEC2B7v160006Ev, symObjAddr: 0x13E30, symBinAddr: 0x14CE0, symSize: 0x60 }
  - { offsetInCU: 0x6665C, offset: 0x6665C, size: 0x8, addend: 0x0, symName: __ZNSt3__117__compressed_pairIPN8pybind116detail15argument_recordENS_9allocatorIS3_EEEC1B7v160006IDnNS_18__default_init_tagEEEOT_OT0_, symObjAddr: 0x13E90, symBinAddr: 0x14D40, symSize: 0x30 }
  - { offsetInCU: 0x666B4, offset: 0x666B4, size: 0x8, addend: 0x0, symName: __ZNSt3__117__compressed_pairIPN8pybind116detail15argument_recordENS_9allocatorIS3_EEEC2B7v160006IDnNS_18__default_init_tagEEEOT_OT0_, symObjAddr: 0x13ED0, symBinAddr: 0x14D80, symSize: 0x40 }
  - { offsetInCU: 0x6670C, offset: 0x6670C, size: 0x8, addend: 0x0, symName: __ZNSt3__122__compressed_pair_elemIPN8pybind116detail15argument_recordELi0ELb0EEC2B7v160006IDnvEEOT_, symObjAddr: 0x13F10, symBinAddr: 0x14DC0, symSize: 0x20 }
  - { offsetInCU: 0x6674E, offset: 0x6674E, size: 0x8, addend: 0x0, symName: __ZNSt3__122__compressed_pair_elemINS_9allocatorIN8pybind116detail15argument_recordEEELi1ELb1EEC2B7v160006ENS_18__default_init_tagE, symObjAddr: 0x13F30, symBinAddr: 0x14DE0, symSize: 0x20 }
  - { offsetInCU: 0x66783, offset: 0x66783, size: 0x8, addend: 0x0, symName: __ZNSt3__19allocatorIN8pybind116detail15argument_recordEEC2B7v160006Ev, symObjAddr: 0x13F50, symBinAddr: 0x14E00, symSize: 0x20 }
  - { offsetInCU: 0x667AD, offset: 0x667AD, size: 0x8, addend: 0x0, symName: __ZNSt3__116__non_trivial_ifILb1ENS_9allocatorIN8pybind116detail15argument_recordEEEEC2B7v160006Ev, symObjAddr: 0x13F70, symBinAddr: 0x14E20, symSize: 0x10 }
  - { offsetInCU: 0x667D7, offset: 0x667D7, size: 0x8, addend: 0x0, symName: __ZNSt3__110unique_ptrIN8pybind116detail15function_recordENS1_12cpp_function33InitializingFunctionRecordDeleterEEC2B7v160006ILb1EvEEPS3_, symObjAddr: 0x13F80, symBinAddr: 0x14E30, symSize: 0x40 }
  - { offsetInCU: 0x6681A, offset: 0x6681A, size: 0x8, addend: 0x0, symName: __ZNSt3__117__compressed_pairIPN8pybind116detail15function_recordENS1_12cpp_function33InitializingFunctionRecordDeleterEEC1B7v160006IRS4_NS_16__value_init_tagEEEOT_OT0_, symObjAddr: 0x13FC0, symBinAddr: 0x14E70, symSize: 0x30 }
  - { offsetInCU: 0x66872, offset: 0x66872, size: 0x8, addend: 0x0, symName: __ZNSt3__117__compressed_pairIPN8pybind116detail15function_recordENS1_12cpp_function33InitializingFunctionRecordDeleterEEC2B7v160006IRS4_NS_16__value_init_tagEEEOT_OT0_, symObjAddr: 0x13FF0, symBinAddr: 0x14EA0, symSize: 0x40 }
  - { offsetInCU: 0x668CA, offset: 0x668CA, size: 0x8, addend: 0x0, symName: __ZNSt3__122__compressed_pair_elemIPN8pybind116detail15function_recordELi0ELb0EEC2B7v160006IRS4_vEEOT_, symObjAddr: 0x14030, symBinAddr: 0x14EE0, symSize: 0x20 }
  - { offsetInCU: 0x6690C, offset: 0x6690C, size: 0x8, addend: 0x0, symName: __ZNSt3__122__compressed_pair_elemIN8pybind1112cpp_function33InitializingFunctionRecordDeleterELi1ELb1EEC2B7v160006ENS_16__value_init_tagE, symObjAddr: 0x14050, symBinAddr: 0x14F00, symSize: 0x10 }
  - { offsetInCU: 0x66941, offset: 0x66941, size: 0x8, addend: 0x0, symName: __ZNKSt3__117__compressed_pairIPN8pybind116detail15function_recordENS1_12cpp_function33InitializingFunctionRecordDeleterEE5firstB7v160006Ev, symObjAddr: 0x14060, symBinAddr: 0x14F10, symSize: 0x20 }
  - { offsetInCU: 0x66967, offset: 0x66967, size: 0x8, addend: 0x0, symName: __ZNKSt3__122__compressed_pair_elemIPN8pybind116detail15function_recordELi0ELb0EE5__getB7v160006Ev, symObjAddr: 0x14080, symBinAddr: 0x14F30, symSize: 0x10 }
  - { offsetInCU: 0x6698D, offset: 0x6698D, size: 0x8, addend: 0x0, symName: __ZZN8pybind1112cpp_function10initializeIZNS_6detail23all_type_info_get_cacheEP11_typeobjectEUlNS_6handleEE_vJS5_EJEEEvOT_PFT0_DpT1_EDpRKT2_ENUlRNS2_13function_callEE_8__invokeESJ_, symObjAddr: 0x14090, symBinAddr: 0x14F40, symSize: 0x30 }
  - { offsetInCU: 0x669B6, offset: 0x669B6, size: 0x8, addend: 0x0, symName: __ZZN8pybind1112cpp_function10initializeIZNS_6detail23all_type_info_get_cacheEP11_typeobjectEUlNS_6handleEE_vJS5_EJEEEvOT_PFT0_DpT1_EDpRKT2_ENKUlRNS2_13function_callEE_clESJ_, symObjAddr: 0x140C0, symBinAddr: 0x14F70, symSize: 0x170 }
  - { offsetInCU: 0x66A3A, offset: 0x66A3A, size: 0x8, addend: 0x0, symName: __ZN8pybind116detail15argument_loaderIJNS_6handleEEEC1Ev, symObjAddr: 0x14230, symBinAddr: 0x150E0, symSize: 0x20 }
  - { offsetInCU: 0x66A67, offset: 0x66A67, size: 0x8, addend: 0x0, symName: __ZN8pybind116detail15argument_loaderIJNS_6handleEEE9load_argsERNS0_13function_callE, symObjAddr: 0x14250, symBinAddr: 0x15100, symSize: 0x30 }
  - { offsetInCU: 0x66A9C, offset: 0x66A9C, size: 0x8, addend: 0x0, symName: __ZN8pybind116detail18process_attributesIJEE7precallERNS0_13function_callE, symObjAddr: 0x14280, symBinAddr: 0x15130, symSize: 0x20 }
  - { offsetInCU: 0x66AC0, offset: 0x66AC0, size: 0x8, addend: 0x0, symName: __ZN8pybind116detail28return_value_policy_overrideIvvE6policyENS_19return_value_policyE, symObjAddr: 0x142A0, symBinAddr: 0x15150, symSize: 0x10 }
  - { offsetInCU: 0x66AEA, offset: 0x66AEA, size: 0x8, addend: 0x0, symName: __ZNO8pybind116detail15argument_loaderIJNS_6handleEEE4callIvNS0_9void_typeERZNS0_23all_type_info_get_cacheEP11_typeobjectEUlS2_E_EENSt3__19enable_ifIXsr3std7is_voidIT_EE5valueES5_E4typeEOT1_, symObjAddr: 0x142B0, symBinAddr: 0x15160, symSize: 0x30 }
  - { offsetInCU: 0x66B45, offset: 0x66B45, size: 0x8, addend: 0x0, symName: __ZN8pybind114noneC1Ev, symObjAddr: 0x142E0, symBinAddr: 0x15190, symSize: 0x20 }
  - { offsetInCU: 0x66B6F, offset: 0x66B6F, size: 0x8, addend: 0x0, symName: __ZN8pybind114noneD1Ev, symObjAddr: 0x14300, symBinAddr: 0x151B0, symSize: 0x20 }
  - { offsetInCU: 0x66BCE, offset: 0x66BCE, size: 0x8, addend: 0x0, symName: __ZN8pybind116detail11void_casterINS0_9void_typeEE4castES2_NS_19return_value_policyENS_6handleE, symObjAddr: 0x14320, symBinAddr: 0x151D0, symSize: 0x70 }
  - { offsetInCU: 0x66C07, offset: 0x66C07, size: 0x8, addend: 0x0, symName: __ZN8pybind116detail18process_attributesIJEE8postcallERNS0_13function_callENS_6handleE, symObjAddr: 0x14390, symBinAddr: 0x15240, symSize: 0x20 }
  - { offsetInCU: 0x66C3A, offset: 0x66C3A, size: 0x8, addend: 0x0, symName: __ZN8pybind116detail15argument_loaderIJNS_6handleEEEC2Ev, symObjAddr: 0x143B0, symBinAddr: 0x15260, symSize: 0x20 }
  - { offsetInCU: 0x66C67, offset: 0x66C67, size: 0x8, addend: 0x0, symName: __ZNSt3__15tupleIJN8pybind116detail11type_casterINS1_6handleEvEEEEC1B7v160006INS_37__is_implicitly_default_constructibleELi0EEEv, symObjAddr: 0x143D0, symBinAddr: 0x15280, symSize: 0x20 }
  - { offsetInCU: 0x66CA1, offset: 0x66CA1, size: 0x8, addend: 0x0, symName: __ZNSt3__15tupleIJN8pybind116detail11type_casterINS1_6handleEvEEEEC2B7v160006INS_37__is_implicitly_default_constructibleELi0EEEv, symObjAddr: 0x143F0, symBinAddr: 0x152A0, symSize: 0x20 }
  - { offsetInCU: 0x66CDB, offset: 0x66CDB, size: 0x8, addend: 0x0, symName: __ZNSt3__112__tuple_implINS_15__tuple_indicesIJLm0EEEEJN8pybind116detail11type_casterINS3_6handleEvEEEEC1B7v160006Ev, symObjAddr: 0x14410, symBinAddr: 0x152C0, symSize: 0x20 }
  - { offsetInCU: 0x66D05, offset: 0x66D05, size: 0x8, addend: 0x0, symName: __ZNSt3__112__tuple_implINS_15__tuple_indicesIJLm0EEEEJN8pybind116detail11type_casterINS3_6handleEvEEEEC2B7v160006Ev, symObjAddr: 0x14430, symBinAddr: 0x152E0, symSize: 0x20 }
  - { offsetInCU: 0x66D2F, offset: 0x66D2F, size: 0x8, addend: 0x0, symName: __ZNSt3__112__tuple_leafILm0EN8pybind116detail11type_casterINS1_6handleEvEELb0EEC2B7v160006Ev, symObjAddr: 0x14450, symBinAddr: 0x15300, symSize: 0x30 }
  - { offsetInCU: 0x66D5E, offset: 0x66D5E, size: 0x8, addend: 0x0, symName: __ZN8pybind116detail11type_casterINS_6handleEvEC1Ev, symObjAddr: 0x14480, symBinAddr: 0x15330, symSize: 0x20 }
  - { offsetInCU: 0x66D8B, offset: 0x66D8B, size: 0x8, addend: 0x0, symName: __ZN8pybind116detail11type_casterINS_6handleEvEC2Ev, symObjAddr: 0x144A0, symBinAddr: 0x15350, symSize: 0x20 }
  - { offsetInCU: 0x66DB8, offset: 0x66DB8, size: 0x8, addend: 0x0, symName: __ZN8pybind116detail15pyobject_casterINS_6handleEEC2IS2_Li0EEEv, symObjAddr: 0x144C0, symBinAddr: 0x15370, symSize: 0x30 }
  - { offsetInCU: 0x66DF1, offset: 0x66DF1, size: 0x8, addend: 0x0, symName: __ZN8pybind116detail15argument_loaderIJNS_6handleEEE18load_impl_sequenceIJLm0EEEEbRNS0_13function_callENSt3__116integer_sequenceImJXspT_EEEE, symObjAddr: 0x144F0, symBinAddr: 0x153A0, symSize: 0xA0 }
  - { offsetInCU: 0x66E3E, offset: 0x66E3E, size: 0x8, addend: 0x0, symName: __ZN8pybind116detail15pyobject_casterINS_6handleEE4loadIS2_Li0EEEbS2_b, symObjAddr: 0x145B0, symBinAddr: 0x15460, symSize: 0x40 }
  - { offsetInCU: 0x66E8E, offset: 0x66E8E, size: 0x8, addend: 0x0, symName: __ZNSt3__16vectorIN8pybind116handleENS_9allocatorIS2_EEEixB7v160006Em, symObjAddr: 0x145F0, symBinAddr: 0x154A0, symSize: 0x20 }
  - { offsetInCU: 0x66EC5, offset: 0x66EC5, size: 0x8, addend: 0x0, symName: __ZNSt3__16vectorIbNS_9allocatorIbEEEixB7v160006Em, symObjAddr: 0x14610, symBinAddr: 0x154C0, symSize: 0x40 }
  - { offsetInCU: 0x66EFA, offset: 0x66EFA, size: 0x8, addend: 0x0, symName: __ZNKSt3__115__bit_referenceINS_6vectorIbNS_9allocatorIbEEEELb1EEcvbB7v160006Ev, symObjAddr: 0x14650, symBinAddr: 0x15500, symSize: 0x30 }
  - { offsetInCU: 0x66F20, offset: 0x66F20, size: 0x8, addend: 0x0, symName: __ZNSt3__112__tuple_leafILm0EN8pybind116detail11type_casterINS1_6handleEvEELb0EE3getB7v160006Ev, symObjAddr: 0x14680, symBinAddr: 0x15530, symSize: 0x10 }
  - { offsetInCU: 0x66F46, offset: 0x66F46, size: 0x8, addend: 0x0, symName: __ZNSt3__16vectorIbNS_9allocatorIbEEE10__make_refB7v160006Em, symObjAddr: 0x14690, symBinAddr: 0x15540, symSize: 0x50 }
  - { offsetInCU: 0x66F7B, offset: 0x66F7B, size: 0x8, addend: 0x0, symName: __ZNSt3__115__bit_referenceINS_6vectorIbNS_9allocatorIbEEEELb1EEC1B7v160006EPmm, symObjAddr: 0x146E0, symBinAddr: 0x15590, symSize: 0x30 }
  - { offsetInCU: 0x66FC1, offset: 0x66FC1, size: 0x8, addend: 0x0, symName: __ZNSt3__115__bit_referenceINS_6vectorIbNS_9allocatorIbEEEELb1EEC2B7v160006EPmm, symObjAddr: 0x14710, symBinAddr: 0x155C0, symSize: 0x30 }
  - { offsetInCU: 0x67007, offset: 0x67007, size: 0x8, addend: 0x0, symName: __ZNO8pybind116detail15argument_loaderIJNS_6handleEEE9call_implIvRZNS0_23all_type_info_get_cacheEP11_typeobjectEUlS2_E_JLm0EENS0_9void_typeEEET_OT0_NSt3__116integer_sequenceImJXspT1_EEEEOT2_, symObjAddr: 0x14740, symBinAddr: 0x155F0, symSize: 0x50 }
  - { offsetInCU: 0x67081, offset: 0x67081, size: 0x8, addend: 0x0, symName: __ZZN8pybind116detail23all_type_info_get_cacheEP11_typeobjectENKUlNS_6handleEE_clES3_, symObjAddr: 0x14790, symBinAddr: 0x15640, symSize: 0xD0 }
  - { offsetInCU: 0x670F5, offset: 0x670F5, size: 0x8, addend: 0x0, symName: __ZNSt3__113unordered_mapIP11_typeobjectNS_6vectorIPN8pybind116detail9type_infoENS_9allocatorIS7_EEEENS_4hashIS2_EENS_8equal_toIS2_EENS8_INS_4pairIKS2_SA_EEEEE5eraseB7v160006ERSG_, symObjAddr: 0x14880, symBinAddr: 0x15730, symSize: 0x30 }
  - { offsetInCU: 0x6712A, offset: 0x6712A, size: 0x8, addend: 0x0, symName: __ZNSt3__113unordered_setINS_4pairIPK7_objectPKcEEN8pybind116detail13override_hashENS_8equal_toIS7_EENS_9allocatorIS7_EEE5beginB7v160006Ev, symObjAddr: 0x148B0, symBinAddr: 0x15760, symSize: 0x30 }
  - { offsetInCU: 0x67150, offset: 0x67150, size: 0x8, addend: 0x0, symName: __ZNSt3__113unordered_setINS_4pairIPK7_objectPKcEEN8pybind116detail13override_hashENS_8equal_toIS7_EENS_9allocatorIS7_EEE3endB7v160006Ev, symObjAddr: 0x148E0, symBinAddr: 0x15790, symSize: 0x30 }
  - { offsetInCU: 0x67176, offset: 0x67176, size: 0x8, addend: 0x0, symName: __ZNKSt3__121__hash_const_iteratorIPNS_11__hash_nodeINS_4pairIPK7_objectPKcEEPvEEEptB7v160006Ev, symObjAddr: 0x14940, symBinAddr: 0x157F0, symSize: 0x30 }
  - { offsetInCU: 0x6719C, offset: 0x6719C, size: 0x8, addend: 0x0, symName: __ZNSt3__113unordered_setINS_4pairIPK7_objectPKcEEN8pybind116detail13override_hashENS_8equal_toIS7_EENS_9allocatorIS7_EEE5eraseB7v160006ENS_21__hash_const_iteratorIPNS_11__hash_nodeIS7_PvEEEE, symObjAddr: 0x14970, symBinAddr: 0x15820, symSize: 0x40 }
  - { offsetInCU: 0x671D1, offset: 0x671D1, size: 0x8, addend: 0x0, symName: __ZNSt3__121__hash_const_iteratorIPNS_11__hash_nodeINS_4pairIPK7_objectPKcEEPvEEEppB7v160006Ev, symObjAddr: 0x149B0, symBinAddr: 0x15860, symSize: 0x20 }
  - { offsetInCU: 0x671F7, offset: 0x671F7, size: 0x8, addend: 0x0, symName: __ZNSt3__112__hash_tableINS_17__hash_value_typeIP11_typeobjectNS_6vectorIPN8pybind116detail9type_infoENS_9allocatorIS8_EEEEEENS_22__unordered_map_hasherIS3_SC_NS_4hashIS3_EENS_8equal_toIS3_EELb1EEENS_21__unordered_map_equalIS3_SC_SH_SF_Lb1EEENS9_ISC_EEE14__erase_uniqueIS3_EEmRKT_, symObjAddr: 0x149D0, symBinAddr: 0x15880, symSize: 0x90 }
  - { offsetInCU: 0x67246, offset: 0x67246, size: 0x8, addend: 0x0, symName: __ZNSt3__112__hash_tableINS_17__hash_value_typeIP11_typeobjectNS_6vectorIPN8pybind116detail9type_infoENS_9allocatorIS8_EEEEEENS_22__unordered_map_hasherIS3_SC_NS_4hashIS3_EENS_8equal_toIS3_EELb1EEENS_21__unordered_map_equalIS3_SC_SH_SF_Lb1EEENS9_ISC_EEE4findIS3_EENS_15__hash_iteratorIPNS_11__hash_nodeISC_PvEEEERKT_, symObjAddr: 0x14A60, symBinAddr: 0x15910, symSize: 0x180 }
  - { offsetInCU: 0x672D0, offset: 0x672D0, size: 0x8, addend: 0x0, symName: __ZNSt3__112__hash_tableINS_17__hash_value_typeIP11_typeobjectNS_6vectorIPN8pybind116detail9type_infoENS_9allocatorIS8_EEEEEENS_22__unordered_map_hasherIS3_SC_NS_4hashIS3_EENS_8equal_toIS3_EELb1EEENS_21__unordered_map_equalIS3_SC_SH_SF_Lb1EEENS9_ISC_EEE3endEv, symObjAddr: 0x14C10, symBinAddr: 0x15AC0, symSize: 0x30 }
  - { offsetInCU: 0x672F8, offset: 0x672F8, size: 0x8, addend: 0x0, symName: __ZNSt3__112__hash_tableINS_17__hash_value_typeIP11_typeobjectNS_6vectorIPN8pybind116detail9type_infoENS_9allocatorIS8_EEEEEENS_22__unordered_map_hasherIS3_SC_NS_4hashIS3_EENS_8equal_toIS3_EELb1EEENS_21__unordered_map_equalIS3_SC_SH_SF_Lb1EEENS9_ISC_EEE5eraseENS_21__hash_const_iteratorIPNS_11__hash_nodeISC_PvEEEE, symObjAddr: 0x14C40, symBinAddr: 0x15AF0, symSize: 0x70 }
  - { offsetInCU: 0x6734D, offset: 0x6734D, size: 0x8, addend: 0x0, symName: __ZNSt3__121__hash_const_iteratorIPNS_11__hash_nodeINS_17__hash_value_typeIP11_typeobjectNS_6vectorIPN8pybind116detail9type_infoENS_9allocatorIS9_EEEEEEPvEEEC1B7v160006ERKNS_15__hash_iteratorISG_EE, symObjAddr: 0x14CB0, symBinAddr: 0x15B60, symSize: 0x30 }
  - { offsetInCU: 0x67386, offset: 0x67386, size: 0x8, addend: 0x0, symName: __ZNSt3__115__hash_iteratorIPNS_11__hash_nodeINS_17__hash_value_typeIP11_typeobjectNS_6vectorIPN8pybind116detail9type_infoENS_9allocatorIS9_EEEEEEPvEEEppB7v160006Ev, symObjAddr: 0x14CE0, symBinAddr: 0x15B90, symSize: 0x20 }
  - { offsetInCU: 0x673AC, offset: 0x673AC, size: 0x8, addend: 0x0, symName: __ZNSt3__112__hash_tableINS_17__hash_value_typeIP11_typeobjectNS_6vectorIPN8pybind116detail9type_infoENS_9allocatorIS8_EEEEEENS_22__unordered_map_hasherIS3_SC_NS_4hashIS3_EENS_8equal_toIS3_EELb1EEENS_21__unordered_map_equalIS3_SC_SH_SF_Lb1EEENS9_ISC_EEE6removeENS_21__hash_const_iteratorIPNS_11__hash_nodeISC_PvEEEE, symObjAddr: 0x14D00, symBinAddr: 0x15BB0, symSize: 0x1F0 }
  - { offsetInCU: 0x6743C, offset: 0x6743C, size: 0x8, addend: 0x0, symName: __ZNSt3__121__hash_const_iteratorIPNS_11__hash_nodeINS_17__hash_value_typeIP11_typeobjectNS_6vectorIPN8pybind116detail9type_infoENS_9allocatorIS9_EEEEEEPvEEEC2B7v160006ERKNS_15__hash_iteratorISG_EE, symObjAddr: 0x14EF0, symBinAddr: 0x15DA0, symSize: 0x20 }
  - { offsetInCU: 0x67475, offset: 0x67475, size: 0x8, addend: 0x0, symName: __ZNSt3__112__hash_tableINS_4pairIPK7_objectPKcEEN8pybind116detail13override_hashENS_8equal_toIS7_EENS_9allocatorIS7_EEE5beginEv, symObjAddr: 0x14F10, symBinAddr: 0x15DC0, symSize: 0x40 }
  - { offsetInCU: 0x6749D, offset: 0x6749D, size: 0x8, addend: 0x0, symName: __ZNSt3__121__hash_const_iteratorIPNS_11__hash_nodeINS_4pairIPK7_objectPKcEEPvEEEC1B7v160006ERKNS_15__hash_iteratorISB_EE, symObjAddr: 0x14F50, symBinAddr: 0x15E00, symSize: 0x30 }
  - { offsetInCU: 0x674D6, offset: 0x674D6, size: 0x8, addend: 0x0, symName: __ZNSt3__117__compressed_pairINS_16__hash_node_baseIPNS_11__hash_nodeINS_4pairIPK7_objectPKcEEPvEEEENS_9allocatorISB_EEE5firstB7v160006Ev, symObjAddr: 0x14F80, symBinAddr: 0x15E30, symSize: 0x20 }
  - { offsetInCU: 0x674FC, offset: 0x674FC, size: 0x8, addend: 0x0, symName: __ZNSt3__115__hash_iteratorIPNS_11__hash_nodeINS_4pairIPK7_objectPKcEEPvEEEC1B7v160006EPNS_16__hash_node_baseISB_EEPKv, symObjAddr: 0x14FA0, symBinAddr: 0x15E50, symSize: 0x30 }
  - { offsetInCU: 0x67544, offset: 0x67544, size: 0x8, addend: 0x0, symName: __ZNSt3__122__compressed_pair_elemINS_16__hash_node_baseIPNS_11__hash_nodeINS_4pairIPK7_objectPKcEEPvEEEELi0ELb0EE5__getB7v160006Ev, symObjAddr: 0x14FD0, symBinAddr: 0x15E80, symSize: 0x10 }
  - { offsetInCU: 0x6756A, offset: 0x6756A, size: 0x8, addend: 0x0, symName: __ZNSt3__115__hash_iteratorIPNS_11__hash_nodeINS_4pairIPK7_objectPKcEEPvEEEC2B7v160006EPNS_16__hash_node_baseISB_EEPKv, symObjAddr: 0x14FE0, symBinAddr: 0x15E90, symSize: 0x20 }
  - { offsetInCU: 0x675B2, offset: 0x675B2, size: 0x8, addend: 0x0, symName: __ZNSt3__121__hash_const_iteratorIPNS_11__hash_nodeINS_4pairIPK7_objectPKcEEPvEEEC2B7v160006ERKNS_15__hash_iteratorISB_EE, symObjAddr: 0x15000, symBinAddr: 0x15EB0, symSize: 0x20 }
  - { offsetInCU: 0x675EB, offset: 0x675EB, size: 0x8, addend: 0x0, symName: __ZNSt3__112__hash_tableINS_4pairIPK7_objectPKcEEN8pybind116detail13override_hashENS_8equal_toIS7_EENS_9allocatorIS7_EEE3endEv, symObjAddr: 0x15020, symBinAddr: 0x15ED0, symSize: 0x30 }
  - { offsetInCU: 0x67613, offset: 0x67613, size: 0x8, addend: 0x0, symName: __ZNSt3__114pointer_traitsIPKNS_4pairIPK7_objectPKcEEE10pointer_toB7v160006ERS8_, symObjAddr: 0x15080, symBinAddr: 0x15F30, symSize: 0x10 }
  - { offsetInCU: 0x67636, offset: 0x67636, size: 0x8, addend: 0x0, symName: __ZNSt3__116__hash_node_baseIPNS_11__hash_nodeINS_4pairIPK7_objectPKcEEPvEEE8__upcastB7v160006Ev, symObjAddr: 0x15090, symBinAddr: 0x15F40, symSize: 0x20 }
  - { offsetInCU: 0x6765C, offset: 0x6765C, size: 0x8, addend: 0x0, symName: __ZNSt3__114pointer_traitsIPNS_16__hash_node_baseIPNS_11__hash_nodeINS_4pairIPK7_objectPKcEEPvEEEEE10pointer_toB7v160006ERSD_, symObjAddr: 0x150B0, symBinAddr: 0x15F60, symSize: 0x10 }
  - { offsetInCU: 0x6767F, offset: 0x6767F, size: 0x8, addend: 0x0, symName: __ZNSt3__112__hash_tableINS_4pairIPK7_objectPKcEEN8pybind116detail13override_hashENS_8equal_toIS7_EENS_9allocatorIS7_EEE5eraseENS_21__hash_const_iteratorIPNS_11__hash_nodeIS7_PvEEEE, symObjAddr: 0x150C0, symBinAddr: 0x15F70, symSize: 0x70 }
  - { offsetInCU: 0x676D4, offset: 0x676D4, size: 0x8, addend: 0x0, symName: __ZNSt3__115__hash_iteratorIPNS_11__hash_nodeINS_4pairIPK7_objectPKcEEPvEEEppB7v160006Ev, symObjAddr: 0x15130, symBinAddr: 0x15FE0, symSize: 0x20 }
  - { offsetInCU: 0x676FA, offset: 0x676FA, size: 0x8, addend: 0x0, symName: __ZNSt3__112__hash_tableINS_4pairIPK7_objectPKcEEN8pybind116detail13override_hashENS_8equal_toIS7_EENS_9allocatorIS7_EEE6removeENS_21__hash_const_iteratorIPNS_11__hash_nodeIS7_PvEEEE, symObjAddr: 0x15150, symBinAddr: 0x16000, symSize: 0x230 }
  - { offsetInCU: 0x6778A, offset: 0x6778A, size: 0x8, addend: 0x0, symName: __ZNSt3__110unique_ptrINS_11__hash_nodeINS_4pairIPK7_objectPKcEEPvEENS_22__hash_node_destructorINS_9allocatorISA_EEEEED1B7v160006Ev, symObjAddr: 0x15380, symBinAddr: 0x16230, symSize: 0x20 }
  - { offsetInCU: 0x677B4, offset: 0x677B4, size: 0x8, addend: 0x0, symName: __ZNKSt3__112__hash_tableINS_4pairIPK7_objectPKcEEN8pybind116detail13override_hashENS_8equal_toIS7_EENS_9allocatorIS7_EEE12bucket_countB7v160006Ev, symObjAddr: 0x153A0, symBinAddr: 0x16250, symSize: 0x30 }
  - { offsetInCU: 0x677DA, offset: 0x677DA, size: 0x8, addend: 0x0, symName: __ZNKSt3__116__hash_node_baseIPNS_11__hash_nodeINS_4pairIPK7_objectPKcEEPvEEE6__hashB7v160006Ev, symObjAddr: 0x153D0, symBinAddr: 0x16280, symSize: 0x20 }
  - { offsetInCU: 0x67800, offset: 0x67800, size: 0x8, addend: 0x0, symName: __ZNKSt3__110unique_ptrIA_PNS_16__hash_node_baseIPNS_11__hash_nodeINS_4pairIPK7_objectPKcEEPvEEEENS_25__bucket_list_deallocatorINS_9allocatorISE_EEEEEixB7v160006Em, symObjAddr: 0x153F0, symBinAddr: 0x162A0, symSize: 0x30 }
  - { offsetInCU: 0x67835, offset: 0x67835, size: 0x8, addend: 0x0, symName: __ZNSt3__116__hash_node_baseIPNS_11__hash_nodeINS_4pairIPK7_objectPKcEEPvEEE5__ptrB7v160006Ev, symObjAddr: 0x15420, symBinAddr: 0x162D0, symSize: 0x20 }
  - { offsetInCU: 0x6785B, offset: 0x6785B, size: 0x8, addend: 0x0, symName: __ZNSt3__112__hash_tableINS_4pairIPK7_objectPKcEEN8pybind116detail13override_hashENS_8equal_toIS7_EENS_9allocatorIS7_EEE4sizeB7v160006Ev, symObjAddr: 0x15440, symBinAddr: 0x162F0, symSize: 0x20 }
  - { offsetInCU: 0x67881, offset: 0x67881, size: 0x8, addend: 0x0, symName: __ZNSt3__112__hash_tableINS_4pairIPK7_objectPKcEEN8pybind116detail13override_hashENS_8equal_toIS7_EENS_9allocatorIS7_EEE12__node_allocB7v160006Ev, symObjAddr: 0x15460, symBinAddr: 0x16310, symSize: 0x20 }
  - { offsetInCU: 0x678A7, offset: 0x678A7, size: 0x8, addend: 0x0, symName: __ZNSt3__122__hash_node_destructorINS_9allocatorINS_11__hash_nodeINS_4pairIPK7_objectPKcEEPvEEEEEC1B7v160006ERSC_b, symObjAddr: 0x15480, symBinAddr: 0x16330, symSize: 0x40 }
  - { offsetInCU: 0x678F5, offset: 0x678F5, size: 0x8, addend: 0x0, symName: __ZNSt3__110unique_ptrINS_11__hash_nodeINS_4pairIPK7_objectPKcEEPvEENS_22__hash_node_destructorINS_9allocatorISA_EEEEEC1B7v160006ILb1EvEEPSA_NS_16__dependent_typeINS_27__unique_ptr_deleter_sfinaeISE_EEXT_EE20__good_rval_ref_typeE, symObjAddr: 0x154C0, symBinAddr: 0x16370, symSize: 0x30 }
  - { offsetInCU: 0x67946, offset: 0x67946, size: 0x8, addend: 0x0, symName: __ZNKSt3__110unique_ptrIA_PNS_16__hash_node_baseIPNS_11__hash_nodeINS_4pairIPK7_objectPKcEEPvEEEENS_25__bucket_list_deallocatorINS_9allocatorISE_EEEEE11get_deleterB7v160006Ev, symObjAddr: 0x154F0, symBinAddr: 0x163A0, symSize: 0x20 }
  - { offsetInCU: 0x6796C, offset: 0x6796C, size: 0x8, addend: 0x0, symName: __ZNKSt3__125__bucket_list_deallocatorINS_9allocatorIPNS_16__hash_node_baseIPNS_11__hash_nodeINS_4pairIPK7_objectPKcEEPvEEEEEEE4sizeB7v160006Ev, symObjAddr: 0x15510, symBinAddr: 0x163C0, symSize: 0x20 }
  - { offsetInCU: 0x67992, offset: 0x67992, size: 0x8, addend: 0x0, symName: __ZNKSt3__117__compressed_pairIPPNS_16__hash_node_baseIPNS_11__hash_nodeINS_4pairIPK7_objectPKcEEPvEEEENS_25__bucket_list_deallocatorINS_9allocatorISE_EEEEE6secondB7v160006Ev, symObjAddr: 0x15530, symBinAddr: 0x163E0, symSize: 0x20 }
  - { offsetInCU: 0x679B8, offset: 0x679B8, size: 0x8, addend: 0x0, symName: __ZNKSt3__122__compressed_pair_elemINS_25__bucket_list_deallocatorINS_9allocatorIPNS_16__hash_node_baseIPNS_11__hash_nodeINS_4pairIPK7_objectPKcEEPvEEEEEEEELi1ELb0EE5__getB7v160006Ev, symObjAddr: 0x15550, symBinAddr: 0x16400, symSize: 0x10 }
  - { offsetInCU: 0x679DE, offset: 0x679DE, size: 0x8, addend: 0x0, symName: __ZNKSt3__117__compressed_pairImNS_9allocatorIPNS_16__hash_node_baseIPNS_11__hash_nodeINS_4pairIPK7_objectPKcEEPvEEEEEEE5firstB7v160006Ev, symObjAddr: 0x15560, symBinAddr: 0x16410, symSize: 0x20 }
  - { offsetInCU: 0x67A04, offset: 0x67A04, size: 0x8, addend: 0x0, symName: __ZNKSt3__117__compressed_pairIPPNS_16__hash_node_baseIPNS_11__hash_nodeINS_4pairIPK7_objectPKcEEPvEEEENS_25__bucket_list_deallocatorINS_9allocatorISE_EEEEE5firstB7v160006Ev, symObjAddr: 0x15580, symBinAddr: 0x16430, symSize: 0x20 }
  - { offsetInCU: 0x67A2A, offset: 0x67A2A, size: 0x8, addend: 0x0, symName: __ZNKSt3__122__compressed_pair_elemIPPNS_16__hash_node_baseIPNS_11__hash_nodeINS_4pairIPK7_objectPKcEEPvEEEELi0ELb0EE5__getB7v160006Ev, symObjAddr: 0x155A0, symBinAddr: 0x16450, symSize: 0x10 }
  - { offsetInCU: 0x67A50, offset: 0x67A50, size: 0x8, addend: 0x0, symName: __ZNSt3__117__compressed_pairImN8pybind116detail13override_hashEE5firstB7v160006Ev, symObjAddr: 0x155B0, symBinAddr: 0x16460, symSize: 0x20 }
  - { offsetInCU: 0x67A76, offset: 0x67A76, size: 0x8, addend: 0x0, symName: __ZNSt3__117__compressed_pairINS_16__hash_node_baseIPNS_11__hash_nodeINS_4pairIPK7_objectPKcEEPvEEEENS_9allocatorISB_EEE6secondB7v160006Ev, symObjAddr: 0x155D0, symBinAddr: 0x16480, symSize: 0x20 }
  - { offsetInCU: 0x67A9C, offset: 0x67A9C, size: 0x8, addend: 0x0, symName: __ZNSt3__122__compressed_pair_elemINS_9allocatorINS_11__hash_nodeINS_4pairIPK7_objectPKcEEPvEEEELi1ELb1EE5__getB7v160006Ev, symObjAddr: 0x155F0, symBinAddr: 0x164A0, symSize: 0x10 }
  - { offsetInCU: 0x67AC2, offset: 0x67AC2, size: 0x8, addend: 0x0, symName: __ZNSt3__122__hash_node_destructorINS_9allocatorINS_11__hash_nodeINS_4pairIPK7_objectPKcEEPvEEEEEC2B7v160006ERSC_b, symObjAddr: 0x15600, symBinAddr: 0x164B0, symSize: 0x30 }
  - { offsetInCU: 0x67B0A, offset: 0x67B0A, size: 0x8, addend: 0x0, symName: __ZNSt3__110unique_ptrINS_11__hash_nodeINS_4pairIPK7_objectPKcEEPvEENS_22__hash_node_destructorINS_9allocatorISA_EEEEEC2B7v160006ILb1EvEEPSA_NS_16__dependent_typeINS_27__unique_ptr_deleter_sfinaeISE_EEXT_EE20__good_rval_ref_typeE, symObjAddr: 0x15630, symBinAddr: 0x164E0, symSize: 0x40 }
  - { offsetInCU: 0x67B5B, offset: 0x67B5B, size: 0x8, addend: 0x0, symName: __ZNSt3__117__compressed_pairIPNS_11__hash_nodeINS_4pairIPK7_objectPKcEEPvEENS_22__hash_node_destructorINS_9allocatorISA_EEEEEC1B7v160006IRSB_SF_EEOT_OT0_, symObjAddr: 0x15670, symBinAddr: 0x16520, symSize: 0x30 }
  - { offsetInCU: 0x67BB3, offset: 0x67BB3, size: 0x8, addend: 0x0, symName: __ZNSt3__117__compressed_pairIPNS_11__hash_nodeINS_4pairIPK7_objectPKcEEPvEENS_22__hash_node_destructorINS_9allocatorISA_EEEEEC2B7v160006IRSB_SF_EEOT_OT0_, symObjAddr: 0x156A0, symBinAddr: 0x16550, symSize: 0x40 }
  - { offsetInCU: 0x67C0B, offset: 0x67C0B, size: 0x8, addend: 0x0, symName: __ZNSt3__122__compressed_pair_elemIPNS_11__hash_nodeINS_4pairIPK7_objectPKcEEPvEELi0ELb0EEC2B7v160006IRSB_vEEOT_, symObjAddr: 0x156E0, symBinAddr: 0x16590, symSize: 0x20 }
  - { offsetInCU: 0x67C4D, offset: 0x67C4D, size: 0x8, addend: 0x0, symName: __ZNSt3__122__compressed_pair_elemINS_22__hash_node_destructorINS_9allocatorINS_11__hash_nodeINS_4pairIPK7_objectPKcEEPvEEEEEELi1ELb0EEC2B7v160006ISE_vEEOT_, symObjAddr: 0x15700, symBinAddr: 0x165B0, symSize: 0x30 }
  - { offsetInCU: 0x67C8F, offset: 0x67C8F, size: 0x8, addend: 0x0, symName: __ZNSt3__110unique_ptrINS_11__hash_nodeINS_4pairIPK7_objectPKcEEPvEENS_22__hash_node_destructorINS_9allocatorISA_EEEEED2B7v160006Ev, symObjAddr: 0x15730, symBinAddr: 0x165E0, symSize: 0x20 }
  - { offsetInCU: 0x67CB9, offset: 0x67CB9, size: 0x8, addend: 0x0, symName: __ZNSt3__110unique_ptrINS_11__hash_nodeINS_4pairIPK7_objectPKcEEPvEENS_22__hash_node_destructorINS_9allocatorISA_EEEEE5resetB7v160006EPSA_, symObjAddr: 0x15750, symBinAddr: 0x16600, symSize: 0x70 }
  - { offsetInCU: 0x67CFD, offset: 0x67CFD, size: 0x8, addend: 0x0, symName: __ZNSt3__117__compressed_pairIPNS_11__hash_nodeINS_4pairIPK7_objectPKcEEPvEENS_22__hash_node_destructorINS_9allocatorISA_EEEEE5firstB7v160006Ev, symObjAddr: 0x157C0, symBinAddr: 0x16670, symSize: 0x20 }
  - { offsetInCU: 0x67D23, offset: 0x67D23, size: 0x8, addend: 0x0, symName: __ZNSt3__117__compressed_pairIPNS_11__hash_nodeINS_4pairIPK7_objectPKcEEPvEENS_22__hash_node_destructorINS_9allocatorISA_EEEEE6secondB7v160006Ev, symObjAddr: 0x157E0, symBinAddr: 0x16690, symSize: 0x20 }
  - { offsetInCU: 0x67D49, offset: 0x67D49, size: 0x8, addend: 0x0, symName: __ZNSt3__122__hash_node_destructorINS_9allocatorINS_11__hash_nodeINS_4pairIPK7_objectPKcEEPvEEEEEclB7v160006EPSB_, symObjAddr: 0x15800, symBinAddr: 0x166B0, symSize: 0x90 }
  - { offsetInCU: 0x67D7E, offset: 0x67D7E, size: 0x8, addend: 0x0, symName: __ZNSt3__122__compressed_pair_elemIPNS_11__hash_nodeINS_4pairIPK7_objectPKcEEPvEELi0ELb0EE5__getB7v160006Ev, symObjAddr: 0x15890, symBinAddr: 0x16740, symSize: 0x10 }
  - { offsetInCU: 0x67DA4, offset: 0x67DA4, size: 0x8, addend: 0x0, symName: __ZNSt3__122__compressed_pair_elemINS_22__hash_node_destructorINS_9allocatorINS_11__hash_nodeINS_4pairIPK7_objectPKcEEPvEEEEEELi1ELb0EE5__getB7v160006Ev, symObjAddr: 0x158A0, symBinAddr: 0x16750, symSize: 0x10 }
  - { offsetInCU: 0x67DCA, offset: 0x67DCA, size: 0x8, addend: 0x0, symName: __ZNSt3__116allocator_traitsINS_9allocatorINS_11__hash_nodeINS_4pairIPK7_objectPKcEEPvEEEEE7destroyB7v160006IS9_vvEEvRSC_PT_, symObjAddr: 0x158B0, symBinAddr: 0x16760, symSize: 0x20 }
  - { offsetInCU: 0x67E05, offset: 0x67E05, size: 0x8, addend: 0x0, symName: __ZNSt3__122__hash_key_value_typesINS_4pairIPK7_objectPKcEEE9__get_ptrB7v160006ERS7_, symObjAddr: 0x158D0, symBinAddr: 0x16780, symSize: 0x10 }
  - { offsetInCU: 0x67E28, offset: 0x67E28, size: 0x8, addend: 0x0, symName: __ZNSt3__116allocator_traitsINS_9allocatorINS_11__hash_nodeINS_4pairIPK7_objectPKcEEPvEEEEE10deallocateB7v160006ERSC_PSB_m, symObjAddr: 0x158E0, symBinAddr: 0x16790, symSize: 0x30 }
  - { offsetInCU: 0x67E6A, offset: 0x67E6A, size: 0x8, addend: 0x0, symName: __ZNSt3__19allocatorINS_11__hash_nodeINS_4pairIPK7_objectPKcEEPvEEE10deallocateB7v160006EPSA_m, symObjAddr: 0x15940, symBinAddr: 0x167F0, symSize: 0x40 }
  - { offsetInCU: 0x67EAC, offset: 0x67EAC, size: 0x8, addend: 0x0, symName: __ZNO8pybind116detail15pyobject_casterINS_6handleEEcvOS2_Ev, symObjAddr: 0x15980, symBinAddr: 0x16830, symSize: 0x10 }
  - { offsetInCU: 0x67ED2, offset: 0x67ED2, size: 0x8, addend: 0x0, symName: __ZN8pybind114noneC2Ev, symObjAddr: 0x15990, symBinAddr: 0x16840, symSize: 0x40 }
  - { offsetInCU: 0x67EFC, offset: 0x67EFC, size: 0x8, addend: 0x0, symName: __ZN8pybind114noneD2Ev, symObjAddr: 0x159D0, symBinAddr: 0x16880, symSize: 0x20 }
  - { offsetInCU: 0x67F3F, offset: 0x67F3F, size: 0x8, addend: 0x0, symName: __ZN8pybind1112cpp_function12strdup_guardC1Ev, symObjAddr: 0x159F0, symBinAddr: 0x168A0, symSize: 0x20 }
  - { offsetInCU: 0x67F69, offset: 0x67F69, size: 0x8, addend: 0x0, symName: __ZN8pybind1112cpp_function12strdup_guardclEPKc, symObjAddr: 0x15A10, symBinAddr: 0x168C0, symSize: 0x40 }
  - { offsetInCU: 0x67FAD, offset: 0x67FAD, size: 0x8, addend: 0x0, symName: __ZNSt3__16vectorIN8pybind116detail15argument_recordENS_9allocatorIS3_EEE5beginB7v160006Ev, symObjAddr: 0x15A50, symBinAddr: 0x16900, symSize: 0x30 }
  - { offsetInCU: 0x67FD5, offset: 0x67FD5, size: 0x8, addend: 0x0, symName: __ZNSt3__16vectorIN8pybind116detail15argument_recordENS_9allocatorIS3_EEE3endB7v160006Ev, symObjAddr: 0x15A80, symBinAddr: 0x16930, symSize: 0x30 }
  - { offsetInCU: 0x67FFD, offset: 0x67FFD, size: 0x8, addend: 0x0, symName: __ZNKSt3__111__wrap_iterIPN8pybind116detail15argument_recordEEdeB7v160006Ev, symObjAddr: 0x15AE0, symBinAddr: 0x16990, symSize: 0x20 }
  - { offsetInCU: 0x68023, offset: 0x68023, size: 0x8, addend: 0x0, symName: __ZNSt3__111__wrap_iterIPN8pybind116detail15argument_recordEEppB7v160006Ev, symObjAddr: 0x15BC0, symBinAddr: 0x16A70, symSize: 0x20 }
  - { offsetInCU: 0x68049, offset: 0x68049, size: 0x8, addend: 0x0, symName: __ZNKSt3__16vectorIN8pybind116detail15argument_recordENS_9allocatorIS3_EEE4sizeB7v160006Ev, symObjAddr: 0x15C30, symBinAddr: 0x16AE0, symSize: 0x20 }
  - { offsetInCU: 0x6806F, offset: 0x6806F, size: 0x8, addend: 0x0, symName: __ZNSt3__16vectorIN8pybind116detail15argument_recordENS_9allocatorIS3_EEEixB7v160006Em, symObjAddr: 0x15C50, symBinAddr: 0x16B00, symSize: 0x20 }
  - { offsetInCU: 0x680A6, offset: 0x680A6, size: 0x8, addend: 0x0, symName: __ZNSt3__110type_indexC1B7v160006ERKSt9type_info, symObjAddr: 0x15FE0, symBinAddr: 0x16E90, symSize: 0x30 }
  - { offsetInCU: 0x680DE, offset: 0x680DE, size: 0x8, addend: 0x0, symName: __ZNK8pybind116detail10object_apiINS_6handleEE4attrEPKc, symObjAddr: 0x16010, symBinAddr: 0x16EC0, symSize: 0x50 }
  - { offsetInCU: 0x68114, offset: 0x68114, size: 0x8, addend: 0x0, symName: __ZNK8pybind116detail8accessorINS0_17accessor_policies8str_attrEE4castINSt3__112basic_stringIcNS6_11char_traitsIcEENS6_9allocatorIcEEEEEET_v, symObjAddr: 0x16060, symBinAddr: 0x16F10, symSize: 0x40 }
  - { offsetInCU: 0x68143, offset: 0x68143, size: 0x8, addend: 0x0, symName: __ZN8pybind116detail8accessorINS0_17accessor_policies8str_attrEED1Ev, symObjAddr: 0x160A0, symBinAddr: 0x16F50, symSize: 0x20 }
  - { offsetInCU: 0x6816F, offset: 0x6816F, size: 0x8, addend: 0x0, symName: __ZNSt3__16vectorIN8pybind116detail15argument_recordENS_9allocatorIS3_EEE13shrink_to_fitEv, symObjAddr: 0x160F0, symBinAddr: 0x16FA0, symSize: 0xF0 }
  - { offsetInCU: 0x681BA, offset: 0x681BA, size: 0x8, addend: 0x0, symName: __ZL20PyCFunction_GET_SELFP7_object, symObjAddr: 0x161E0, symBinAddr: 0x17090, symSize: 0xA0 }
  - { offsetInCU: 0x681F5, offset: 0x681F5, size: 0x8, addend: 0x0, symName: __ZNK8pybind117capsule11get_pointerINS_6detail15function_recordEEEPT_v, symObjAddr: 0x16330, symBinAddr: 0x171E0, symSize: 0xB0 }
  - { offsetInCU: 0x68242, offset: 0x68242, size: 0x8, addend: 0x0, symName: __ZNK8pybind116detail10object_apiINS_6handleEE2isERKS3_, symObjAddr: 0x163E0, symBinAddr: 0x17290, symSize: 0x50 }
  - { offsetInCU: 0x68276, offset: 0x68276, size: 0x8, addend: 0x0, symName: __ZNK8pybind116detail10object_apiINS_6handleEE7is_noneEv, symObjAddr: 0x16430, symBinAddr: 0x172E0, symSize: 0x40 }
  - { offsetInCU: 0x6829C, offset: 0x6829C, size: 0x8, addend: 0x0, symName: __ZN8pybind1112cpp_function10dispatcherEP7_objectS2_S2_, symObjAddr: 0x16470, symBinAddr: 0x17320, symSize: 0x29A0 }
  - { offsetInCU: 0x68820, offset: 0x68820, size: 0x8, addend: 0x0, symName: __ZNSt3__110unique_ptrIN8pybind116detail15function_recordENS1_12cpp_function33InitializingFunctionRecordDeleterEE7releaseB7v160006Ev, symObjAddr: 0x18E10, symBinAddr: 0x19CC0, symSize: 0x40 }
  - { offsetInCU: 0x6885F, offset: 0x6885F, size: 0x8, addend: 0x0, symName: __ZZN8pybind1112cpp_function18initialize_genericEONSt3__110unique_ptrINS_6detail15function_recordENS0_33InitializingFunctionRecordDeleterEEEPKcPKPKSt9type_infomENKUlPvE_cvPFvSF_EEv, symObjAddr: 0x18E60, symBinAddr: 0x19D10, symSize: 0x20 }
  - { offsetInCU: 0x6888C, offset: 0x6888C, size: 0x8, addend: 0x0, symName: __ZN8pybind117capsuleC1EPKvPKcPFvPvE, symObjAddr: 0x18E80, symBinAddr: 0x19D30, symSize: 0x40 }
  - { offsetInCU: 0x688E3, offset: 0x688E3, size: 0x8, addend: 0x0, symName: __ZN8pybind1112cpp_function12strdup_guard7releaseEv, symObjAddr: 0x18EC0, symBinAddr: 0x19D70, symSize: 0x20 }
  - { offsetInCU: 0x68909, offset: 0x68909, size: 0x8, addend: 0x0, symName: __ZNK8pybind116detail8accessorINS0_17accessor_policies8str_attrEEcvNS_6objectEEv, symObjAddr: 0x18F20, symBinAddr: 0x19DD0, symSize: 0x40 }
  - { offsetInCU: 0x6892F, offset: 0x6892F, size: 0x8, addend: 0x0, symName: __ZN8pybind113strC1INS_6detail17accessor_policies8str_attrEEERKNS2_8accessorIT_EE, symObjAddr: 0x18F60, symBinAddr: 0x19E10, symSize: 0x70 }
  - { offsetInCU: 0x68971, offset: 0x68971, size: 0x8, addend: 0x0, symName: __ZNK8pybind113strcvNSt3__112basic_stringIcNS1_11char_traitsIcEENS1_9allocatorIcEEEEEv, symObjAddr: 0x18FD0, symBinAddr: 0x19E80, symSize: 0x1F0 }
  - { offsetInCU: 0x689C5, offset: 0x689C5, size: 0x8, addend: 0x0, symName: __ZN8pybind117capsule11set_pointerEPKv, symObjAddr: 0x191C0, symBinAddr: 0x1A070, symSize: 0x90 }
  - { offsetInCU: 0x689FA, offset: 0x689FA, size: 0x8, addend: 0x0, symName: __ZN8pybind117options24show_function_signaturesEv, symObjAddr: 0x19250, symBinAddr: 0x1A100, symSize: 0x20 }
  - { offsetInCU: 0x68A0E, offset: 0x68A0E, size: 0x8, addend: 0x0, symName: __ZN8pybind117options28show_user_defined_docstringsEv, symObjAddr: 0x19270, symBinAddr: 0x1A120, symSize: 0x20 }
  - { offsetInCU: 0x68A22, offset: 0x68A22, size: 0x8, addend: 0x0, symName: __ZN8pybind1112cpp_function12strdup_guardD1Ev, symObjAddr: 0x19290, symBinAddr: 0x1A140, symSize: 0x20 }
  - { offsetInCU: 0x68A4C, offset: 0x68A4C, size: 0x8, addend: 0x0, symName: __ZN8pybind1112cpp_function12strdup_guardC2Ev, symObjAddr: 0x192B0, symBinAddr: 0x1A160, symSize: 0x20 }
  - { offsetInCU: 0x68A76, offset: 0x68A76, size: 0x8, addend: 0x0, symName: __ZNSt3__16vectorIPcNS_9allocatorIS1_EEEC1B7v160006Ev, symObjAddr: 0x192D0, symBinAddr: 0x1A180, symSize: 0x20 }
  - { offsetInCU: 0x68AA0, offset: 0x68AA0, size: 0x8, addend: 0x0, symName: __ZNSt3__16vectorIPcNS_9allocatorIS1_EEEC2B7v160006Ev, symObjAddr: 0x192F0, symBinAddr: 0x1A1A0, symSize: 0x60 }
  - { offsetInCU: 0x68ACA, offset: 0x68ACA, size: 0x8, addend: 0x0, symName: __ZNSt3__117__compressed_pairIPPcNS_9allocatorIS1_EEEC1B7v160006IDnNS_18__default_init_tagEEEOT_OT0_, symObjAddr: 0x19350, symBinAddr: 0x1A200, symSize: 0x30 }
  - { offsetInCU: 0x68B22, offset: 0x68B22, size: 0x8, addend: 0x0, symName: __ZNSt3__117__compressed_pairIPPcNS_9allocatorIS1_EEEC2B7v160006IDnNS_18__default_init_tagEEEOT_OT0_, symObjAddr: 0x19390, symBinAddr: 0x1A240, symSize: 0x40 }
  - { offsetInCU: 0x68B7A, offset: 0x68B7A, size: 0x8, addend: 0x0, symName: __ZNSt3__122__compressed_pair_elemIPPcLi0ELb0EEC2B7v160006IDnvEEOT_, symObjAddr: 0x193D0, symBinAddr: 0x1A280, symSize: 0x20 }
  - { offsetInCU: 0x68BBC, offset: 0x68BBC, size: 0x8, addend: 0x0, symName: __ZNSt3__122__compressed_pair_elemINS_9allocatorIPcEELi1ELb1EEC2B7v160006ENS_18__default_init_tagE, symObjAddr: 0x193F0, symBinAddr: 0x1A2A0, symSize: 0x20 }
  - { offsetInCU: 0x68BF1, offset: 0x68BF1, size: 0x8, addend: 0x0, symName: __ZNSt3__19allocatorIPcEC2B7v160006Ev, symObjAddr: 0x19410, symBinAddr: 0x1A2C0, symSize: 0x20 }
  - { offsetInCU: 0x68C1B, offset: 0x68C1B, size: 0x8, addend: 0x0, symName: __ZNSt3__116__non_trivial_ifILb1ENS_9allocatorIPcEEEC2B7v160006Ev, symObjAddr: 0x19430, symBinAddr: 0x1A2E0, symSize: 0x10 }
  - { offsetInCU: 0x68C45, offset: 0x68C45, size: 0x8, addend: 0x0, symName: __ZNSt3__16vectorIPcNS_9allocatorIS1_EEE9push_backB7v160006ERKS1_, symObjAddr: 0x19440, symBinAddr: 0x1A2F0, symSize: 0x60 }
  - { offsetInCU: 0x68C7C, offset: 0x68C7C, size: 0x8, addend: 0x0, symName: __ZNSt3__16vectorIPcNS_9allocatorIS1_EEE9__end_capB7v160006Ev, symObjAddr: 0x194A0, symBinAddr: 0x1A350, symSize: 0x20 }
  - { offsetInCU: 0x68CA2, offset: 0x68CA2, size: 0x8, addend: 0x0, symName: __ZNSt3__16vectorIPcNS_9allocatorIS1_EEE22__construct_one_at_endB7v160006IJRKS1_EEEvDpOT_, symObjAddr: 0x194C0, symBinAddr: 0x1A370, symSize: 0x90 }
  - { offsetInCU: 0x68CF1, offset: 0x68CF1, size: 0x8, addend: 0x0, symName: __ZNSt3__16vectorIPcNS_9allocatorIS1_EEE21__push_back_slow_pathIRKS1_EEvOT_, symObjAddr: 0x19550, symBinAddr: 0x1A400, symSize: 0xD0 }
  - { offsetInCU: 0x68D4F, offset: 0x68D4F, size: 0x8, addend: 0x0, symName: __ZNSt3__117__compressed_pairIPPcNS_9allocatorIS1_EEE5firstB7v160006Ev, symObjAddr: 0x19620, symBinAddr: 0x1A4D0, symSize: 0x20 }
  - { offsetInCU: 0x68D75, offset: 0x68D75, size: 0x8, addend: 0x0, symName: __ZNSt3__122__compressed_pair_elemIPPcLi0ELb0EE5__getB7v160006Ev, symObjAddr: 0x19640, symBinAddr: 0x1A4F0, symSize: 0x10 }
  - { offsetInCU: 0x68DB6, offset: 0x68DB6, size: 0x8, addend: 0x0, symName: __ZNSt3__16vectorIPcNS_9allocatorIS1_EEE21_ConstructTransactionC1B7v160006ERS4_m, symObjAddr: 0x19650, symBinAddr: 0x1A500, symSize: 0x30 }
  - { offsetInCU: 0x68DFE, offset: 0x68DFE, size: 0x8, addend: 0x0, symName: __ZNSt3__116allocator_traitsINS_9allocatorIPcEEE9constructB7v160006IS2_JRKS2_EvvEEvRS3_PT_DpOT0_, symObjAddr: 0x19680, symBinAddr: 0x1A530, symSize: 0x30 }
  - { offsetInCU: 0x68E53, offset: 0x68E53, size: 0x8, addend: 0x0, symName: __ZNSt3__16vectorIPcNS_9allocatorIS1_EEE7__allocB7v160006Ev, symObjAddr: 0x196B0, symBinAddr: 0x1A560, symSize: 0x20 }
  - { offsetInCU: 0x68E79, offset: 0x68E79, size: 0x8, addend: 0x0, symName: __ZNSt3__16vectorIPcNS_9allocatorIS1_EEE21_ConstructTransactionD1B7v160006Ev, symObjAddr: 0x196E0, symBinAddr: 0x1A590, symSize: 0x20 }
  - { offsetInCU: 0x68EA3, offset: 0x68EA3, size: 0x8, addend: 0x0, symName: __ZNSt3__16vectorIPcNS_9allocatorIS1_EEE21_ConstructTransactionC2B7v160006ERS4_m, symObjAddr: 0x19700, symBinAddr: 0x1A5B0, symSize: 0x40 }
  - { offsetInCU: 0x68EEB, offset: 0x68EEB, size: 0x8, addend: 0x0, symName: __ZNSt3__117__compressed_pairIPPcNS_9allocatorIS1_EEE6secondB7v160006Ev, symObjAddr: 0x19770, symBinAddr: 0x1A620, symSize: 0x20 }
  - { offsetInCU: 0x68F11, offset: 0x68F11, size: 0x8, addend: 0x0, symName: __ZNSt3__122__compressed_pair_elemINS_9allocatorIPcEELi1ELb1EE5__getB7v160006Ev, symObjAddr: 0x19790, symBinAddr: 0x1A640, symSize: 0x10 }
  - { offsetInCU: 0x68F37, offset: 0x68F37, size: 0x8, addend: 0x0, symName: __ZNSt3__16vectorIPcNS_9allocatorIS1_EEE21_ConstructTransactionD2B7v160006Ev, symObjAddr: 0x197A0, symBinAddr: 0x1A650, symSize: 0x20 }
  - { offsetInCU: 0x68F61, offset: 0x68F61, size: 0x8, addend: 0x0, symName: __ZNKSt3__16vectorIPcNS_9allocatorIS1_EEE11__recommendB7v160006Em, symObjAddr: 0x197C0, symBinAddr: 0x1A670, symSize: 0xA0 }
  - { offsetInCU: 0x68FB6, offset: 0x68FB6, size: 0x8, addend: 0x0, symName: __ZNKSt3__16vectorIPcNS_9allocatorIS1_EEE4sizeB7v160006Ev, symObjAddr: 0x19860, symBinAddr: 0x1A710, symSize: 0x20 }
  - { offsetInCU: 0x68FDC, offset: 0x68FDC, size: 0x8, addend: 0x0, symName: __ZNSt3__114__split_bufferIPcRNS_9allocatorIS1_EEEC1EmmS4_, symObjAddr: 0x19880, symBinAddr: 0x1A730, symSize: 0x40 }
  - { offsetInCU: 0x69032, offset: 0x69032, size: 0x8, addend: 0x0, symName: __ZNSt3__114__split_bufferIPcRNS_9allocatorIS1_EEED1Ev, symObjAddr: 0x199F0, symBinAddr: 0x1A8A0, symSize: 0x20 }
  - { offsetInCU: 0x6905E, offset: 0x6905E, size: 0x8, addend: 0x0, symName: __ZNKSt3__16vectorIPcNS_9allocatorIS1_EEE8max_sizeEv, symObjAddr: 0x19A10, symBinAddr: 0x1A8C0, symSize: 0x60 }
  - { offsetInCU: 0x69086, offset: 0x69086, size: 0x8, addend: 0x0, symName: __ZNKSt3__16vectorIPcNS_9allocatorIS1_EEE20__throw_length_errorB7v160006Ev, symObjAddr: 0x19A70, symBinAddr: 0x1A920, symSize: 0x20 }
  - { offsetInCU: 0x690AC, offset: 0x690AC, size: 0x8, addend: 0x0, symName: __ZNKSt3__16vectorIPcNS_9allocatorIS1_EEE8capacityB7v160006Ev, symObjAddr: 0x19A90, symBinAddr: 0x1A940, symSize: 0x30 }
  - { offsetInCU: 0x690DD, offset: 0x690DD, size: 0x8, addend: 0x0, symName: __ZNSt3__116allocator_traitsINS_9allocatorIPcEEE8max_sizeB7v160006IS3_vvEEmRKS3_, symObjAddr: 0x19AC0, symBinAddr: 0x1A970, symSize: 0x20 }
  - { offsetInCU: 0x69109, offset: 0x69109, size: 0x8, addend: 0x0, symName: __ZNKSt3__16vectorIPcNS_9allocatorIS1_EEE7__allocB7v160006Ev, symObjAddr: 0x19AE0, symBinAddr: 0x1A990, symSize: 0x20 }
  - { offsetInCU: 0x6912F, offset: 0x6912F, size: 0x8, addend: 0x0, symName: __ZNSt3__114numeric_limitsIlE3maxB7v160006Ev, symObjAddr: 0x19B00, symBinAddr: 0x1A9B0, symSize: 0x10 }
  - { offsetInCU: 0x69143, offset: 0x69143, size: 0x8, addend: 0x0, symName: __ZNKSt3__117__compressed_pairIPPcNS_9allocatorIS1_EEE6secondB7v160006Ev, symObjAddr: 0x19B10, symBinAddr: 0x1A9C0, symSize: 0x20 }
  - { offsetInCU: 0x69169, offset: 0x69169, size: 0x8, addend: 0x0, symName: __ZNKSt3__122__compressed_pair_elemINS_9allocatorIPcEELi1ELb1EE5__getB7v160006Ev, symObjAddr: 0x19B30, symBinAddr: 0x1A9E0, symSize: 0x10 }
  - { offsetInCU: 0x6918F, offset: 0x6918F, size: 0x8, addend: 0x0, symName: __ZNSt3__123__libcpp_numeric_limitsIlLb1EE3maxB7v160006Ev, symObjAddr: 0x19B40, symBinAddr: 0x1A9F0, symSize: 0x10 }
  - { offsetInCU: 0x691A3, offset: 0x691A3, size: 0x8, addend: 0x0, symName: __ZNKSt3__16vectorIPcNS_9allocatorIS1_EEE9__end_capB7v160006Ev, symObjAddr: 0x19B50, symBinAddr: 0x1AA00, symSize: 0x20 }
  - { offsetInCU: 0x691C9, offset: 0x691C9, size: 0x8, addend: 0x0, symName: __ZNKSt3__117__compressed_pairIPPcNS_9allocatorIS1_EEE5firstB7v160006Ev, symObjAddr: 0x19B70, symBinAddr: 0x1AA20, symSize: 0x20 }
  - { offsetInCU: 0x691EF, offset: 0x691EF, size: 0x8, addend: 0x0, symName: __ZNKSt3__122__compressed_pair_elemIPPcLi0ELb0EE5__getB7v160006Ev, symObjAddr: 0x19B90, symBinAddr: 0x1AA40, symSize: 0x10 }
  - { offsetInCU: 0x69215, offset: 0x69215, size: 0x8, addend: 0x0, symName: __ZNSt3__114__split_bufferIPcRNS_9allocatorIS1_EEEC2EmmS4_, symObjAddr: 0x19BA0, symBinAddr: 0x1AA50, symSize: 0xD0 }
  - { offsetInCU: 0x69288, offset: 0x69288, size: 0x8, addend: 0x0, symName: __ZNSt3__117__compressed_pairIPPcRNS_9allocatorIS1_EEEC1B7v160006IDnS5_EEOT_OT0_, symObjAddr: 0x19C70, symBinAddr: 0x1AB20, symSize: 0x30 }
  - { offsetInCU: 0x692E0, offset: 0x692E0, size: 0x8, addend: 0x0, symName: __ZNSt3__114__split_bufferIPcRNS_9allocatorIS1_EEE7__allocB7v160006Ev, symObjAddr: 0x19CE0, symBinAddr: 0x1AB90, symSize: 0x20 }
  - { offsetInCU: 0x69306, offset: 0x69306, size: 0x8, addend: 0x0, symName: __ZNSt3__114__split_bufferIPcRNS_9allocatorIS1_EEE9__end_capB7v160006Ev, symObjAddr: 0x19D00, symBinAddr: 0x1ABB0, symSize: 0x20 }
  - { offsetInCU: 0x6932C, offset: 0x6932C, size: 0x8, addend: 0x0, symName: __ZNSt3__117__compressed_pairIPPcRNS_9allocatorIS1_EEEC2B7v160006IDnS5_EEOT_OT0_, symObjAddr: 0x19D20, symBinAddr: 0x1ABD0, symSize: 0x40 }
  - { offsetInCU: 0x69384, offset: 0x69384, size: 0x8, addend: 0x0, symName: __ZNSt3__122__compressed_pair_elemIRNS_9allocatorIPcEELi1ELb0EEC2B7v160006IS4_vEEOT_, symObjAddr: 0x19D60, symBinAddr: 0x1AC10, symSize: 0x20 }
  - { offsetInCU: 0x693C6, offset: 0x693C6, size: 0x8, addend: 0x0, symName: __ZNSt3__19allocatorIPcE8allocateB7v160006Em, symObjAddr: 0x19D80, symBinAddr: 0x1AC30, symSize: 0x50 }
  - { offsetInCU: 0x693FA, offset: 0x693FA, size: 0x8, addend: 0x0, symName: __ZNSt3__117__compressed_pairIPPcRNS_9allocatorIS1_EEE6secondB7v160006Ev, symObjAddr: 0x19DD0, symBinAddr: 0x1AC80, symSize: 0x20 }
  - { offsetInCU: 0x69420, offset: 0x69420, size: 0x8, addend: 0x0, symName: __ZNSt3__122__compressed_pair_elemIRNS_9allocatorIPcEELi1ELb0EE5__getB7v160006Ev, symObjAddr: 0x19DF0, symBinAddr: 0x1ACA0, symSize: 0x20 }
  - { offsetInCU: 0x69446, offset: 0x69446, size: 0x8, addend: 0x0, symName: __ZNSt3__117__compressed_pairIPPcRNS_9allocatorIS1_EEE5firstB7v160006Ev, symObjAddr: 0x19E10, symBinAddr: 0x1ACC0, symSize: 0x20 }
  - { offsetInCU: 0x6946C, offset: 0x6946C, size: 0x8, addend: 0x0, symName: __ZNKSt3__16vectorIPcNS_9allocatorIS1_EEE17__annotate_deleteB7v160006Ev, symObjAddr: 0x19E30, symBinAddr: 0x1ACE0, symSize: 0xB0 }
  - { offsetInCU: 0x69492, offset: 0x69492, size: 0x8, addend: 0x0, symName: __ZNSt3__116reverse_iteratorIPPcEC1B7v160006ES2_, symObjAddr: 0x19F50, symBinAddr: 0x1AE00, symSize: 0x30 }
  - { offsetInCU: 0x694CA, offset: 0x694CA, size: 0x8, addend: 0x0, symName: __ZNKSt3__116reverse_iteratorIPPcE4baseB7v160006Ev, symObjAddr: 0x19F80, symBinAddr: 0x1AE30, symSize: 0x20 }
  - { offsetInCU: 0x694F0, offset: 0x694F0, size: 0x8, addend: 0x0, symName: __ZNKSt3__16vectorIPcNS_9allocatorIS1_EEE14__annotate_newB7v160006Em, symObjAddr: 0x19FE0, symBinAddr: 0x1AE90, symSize: 0xB0 }
  - { offsetInCU: 0x69525, offset: 0x69525, size: 0x8, addend: 0x0, symName: __ZNKSt3__16vectorIPcNS_9allocatorIS1_EEE31__annotate_contiguous_containerB7v160006EPKvS6_S6_S6_, symObjAddr: 0x1A0A0, symBinAddr: 0x1AF50, symSize: 0x20 }
  - { offsetInCU: 0x6957B, offset: 0x6957B, size: 0x8, addend: 0x0, symName: __ZNKSt3__16vectorIPcNS_9allocatorIS1_EEE4dataB7v160006Ev, symObjAddr: 0x1A0C0, symBinAddr: 0x1AF70, symSize: 0x20 }
  - { offsetInCU: 0x695C7, offset: 0x695C7, size: 0x8, addend: 0x0, symName: __ZNKSt3__111__move_loopINS_17_ClassicAlgPolicyEEclB7v160006INS_16reverse_iteratorIPPcEES7_S7_EENS_4pairIT_T1_EES9_T0_SA_, symObjAddr: 0x1A4F0, symBinAddr: 0x1B3A0, symSize: 0xA0 }
  - { offsetInCU: 0x69632, offset: 0x69632, size: 0x8, addend: 0x0, symName: __ZNSt3__119__unwrap_range_implINS_16reverse_iteratorIPPcEES4_E8__unwrapB7v160006ES4_S4_, symObjAddr: 0x1A6D0, symBinAddr: 0x1B580, symSize: 0x90 }
  - { offsetInCU: 0x69669, offset: 0x69669, size: 0x8, addend: 0x0, symName: __ZNSt3__14pairINS_16reverse_iteratorIPPcEES4_EC1B7v160006IS4_S4_LPv0EEEOT_OT0_, symObjAddr: 0x1A760, symBinAddr: 0x1B610, symSize: 0x30 }
  - { offsetInCU: 0x696C7, offset: 0x696C7, size: 0x8, addend: 0x0, symName: __ZNSt3__14pairINS_16reverse_iteratorIPPcEES4_EC2B7v160006IS4_S4_LPv0EEEOT_OT0_, symObjAddr: 0x1A790, symBinAddr: 0x1B640, symSize: 0x40 }
  - { offsetInCU: 0x69725, offset: 0x69725, size: 0x8, addend: 0x0, symName: __ZNSt3__18_IterOpsINS_17_ClassicAlgPolicyEE11__iter_moveB7v160006IRNS_16reverse_iteratorIPPcEEEENS_9enable_ifIXsr12is_referenceIDTdeclsr3stdE7declvalIRT_EEEEE5valueEDTclsr3stdE4movedeclsr3stdE7declvalISB_EEEEE4typeEOSA_, symObjAddr: 0x1A810, symBinAddr: 0x1B6C0, symSize: 0x20 }
  - { offsetInCU: 0x69751, offset: 0x69751, size: 0x8, addend: 0x0, symName: __ZNKSt3__116reverse_iteratorIPPcEdeB7v160006Ev, symObjAddr: 0x1A830, symBinAddr: 0x1B6E0, symSize: 0x30 }
  - { offsetInCU: 0x69785, offset: 0x69785, size: 0x8, addend: 0x0, symName: __ZNSt3__116reverse_iteratorIPPcEppB7v160006Ev, symObjAddr: 0x1A860, symBinAddr: 0x1B710, symSize: 0x20 }
  - { offsetInCU: 0x697AB, offset: 0x697AB, size: 0x8, addend: 0x0, symName: __ZNSt3__18_IterOpsINS_17_ClassicAlgPolicyEE25__validate_iter_referenceB7v160006IRNS_16reverse_iteratorIPPcEEEEvv, symObjAddr: 0x1A880, symBinAddr: 0x1B730, symSize: 0x10 }
  - { offsetInCU: 0x697C9, offset: 0x697C9, size: 0x8, addend: 0x0, symName: __ZNSt3__118__unwrap_iter_implINS_16reverse_iteratorIPPcEELb0EE8__unwrapB7v160006ES4_, symObjAddr: 0x1A890, symBinAddr: 0x1B740, symSize: 0x20 }
  - { offsetInCU: 0x697EC, offset: 0x697EC, size: 0x8, addend: 0x0, symName: __ZNSt3__119__unwrap_range_implINS_16reverse_iteratorIPPcEES4_E8__rewrapB7v160006ES4_S4_, symObjAddr: 0x1A8B0, symBinAddr: 0x1B760, symSize: 0x60 }
  - { offsetInCU: 0x6981D, offset: 0x6981D, size: 0x8, addend: 0x0, symName: __ZNSt3__118__unwrap_iter_implINS_16reverse_iteratorIPPcEELb0EE8__rewrapB7v160006ES4_S4_, symObjAddr: 0x1A910, symBinAddr: 0x1B7C0, symSize: 0x30 }
  - { offsetInCU: 0x6984B, offset: 0x6984B, size: 0x8, addend: 0x0, symName: __ZNSt3__116reverse_iteratorIPPcEC2B7v160006ES2_, symObjAddr: 0x1A940, symBinAddr: 0x1B7F0, symSize: 0x30 }
  - { offsetInCU: 0x69883, offset: 0x69883, size: 0x8, addend: 0x0, symName: __ZNSt3__114__split_bufferIPcRNS_9allocatorIS1_EEED2Ev, symObjAddr: 0x1A970, symBinAddr: 0x1B820, symSize: 0x70 }
  - { offsetInCU: 0x698AF, offset: 0x698AF, size: 0x8, addend: 0x0, symName: __ZNSt3__114__split_bufferIPcRNS_9allocatorIS1_EEE5clearB7v160006Ev, symObjAddr: 0x1A9E0, symBinAddr: 0x1B890, symSize: 0x20 }
  - { offsetInCU: 0x698D5, offset: 0x698D5, size: 0x8, addend: 0x0, symName: __ZNSt3__116allocator_traitsINS_9allocatorIPcEEE10deallocateB7v160006ERS3_PS2_m, symObjAddr: 0x1AA00, symBinAddr: 0x1B8B0, symSize: 0x30 }
  - { offsetInCU: 0x69917, offset: 0x69917, size: 0x8, addend: 0x0, symName: __ZNKSt3__114__split_bufferIPcRNS_9allocatorIS1_EEE8capacityB7v160006Ev, symObjAddr: 0x1AA30, symBinAddr: 0x1B8E0, symSize: 0x30 }
  - { offsetInCU: 0x6993D, offset: 0x6993D, size: 0x8, addend: 0x0, symName: __ZNSt3__114__split_bufferIPcRNS_9allocatorIS1_EEE17__destruct_at_endB7v160006EPS1_, symObjAddr: 0x1AA60, symBinAddr: 0x1B910, symSize: 0x30 }
  - { offsetInCU: 0x69971, offset: 0x69971, size: 0x8, addend: 0x0, symName: __ZNSt3__114__split_bufferIPcRNS_9allocatorIS1_EEE17__destruct_at_endB7v160006EPS1_NS_17integral_constantIbLb0EEE, symObjAddr: 0x1AA90, symBinAddr: 0x1B940, symSize: 0x80 }
  - { offsetInCU: 0x699B2, offset: 0x699B2, size: 0x8, addend: 0x0, symName: __ZNSt3__116allocator_traitsINS_9allocatorIPcEEE7destroyB7v160006IS2_vvEEvRS3_PT_, symObjAddr: 0x1AB10, symBinAddr: 0x1B9C0, symSize: 0x20 }
  - { offsetInCU: 0x699ED, offset: 0x699ED, size: 0x8, addend: 0x0, symName: __ZNSt3__19allocatorIPcE10deallocateB7v160006EPS1_m, symObjAddr: 0x1AB60, symBinAddr: 0x1BA10, symSize: 0x40 }
  - { offsetInCU: 0x69A2F, offset: 0x69A2F, size: 0x8, addend: 0x0, symName: __ZNKSt3__114__split_bufferIPcRNS_9allocatorIS1_EEE9__end_capB7v160006Ev, symObjAddr: 0x1ABA0, symBinAddr: 0x1BA50, symSize: 0x20 }
  - { offsetInCU: 0x69A55, offset: 0x69A55, size: 0x8, addend: 0x0, symName: __ZNKSt3__117__compressed_pairIPPcRNS_9allocatorIS1_EEE5firstB7v160006Ev, symObjAddr: 0x1ABC0, symBinAddr: 0x1BA70, symSize: 0x20 }
  - { offsetInCU: 0x69A7B, offset: 0x69A7B, size: 0x8, addend: 0x0, symName: __ZNSt3__16vectorIN8pybind116detail15argument_recordENS_9allocatorIS3_EEE11__make_iterB7v160006EPS3_, symObjAddr: 0x1ABE0, symBinAddr: 0x1BA90, symSize: 0x30 }
  - { offsetInCU: 0x69AB0, offset: 0x69AB0, size: 0x8, addend: 0x0, symName: __ZNSt3__111__wrap_iterIPN8pybind116detail15argument_recordEEC1B7v160006EPKvS4_, symObjAddr: 0x1AC10, symBinAddr: 0x1BAC0, symSize: 0x30 }
  - { offsetInCU: 0x69AF6, offset: 0x69AF6, size: 0x8, addend: 0x0, symName: __ZNSt3__111__wrap_iterIPN8pybind116detail15argument_recordEEC2B7v160006EPKvS4_, symObjAddr: 0x1AC40, symBinAddr: 0x1BAF0, symSize: 0x20 }
  - { offsetInCU: 0x69B3C, offset: 0x69B3C, size: 0x8, addend: 0x0, symName: __ZNKSt3__111__wrap_iterIPN8pybind116detail15argument_recordEE4baseB7v160006Ev, symObjAddr: 0x1ACA0, symBinAddr: 0x1BB50, symSize: 0x20 }
  - { offsetInCU: 0x69B62, offset: 0x69B62, size: 0x8, addend: 0x0, symName: __ZN8pybind113strC1ENS_6handleENS_6object8stolen_tE, symObjAddr: 0x1AD00, symBinAddr: 0x1BBB0, symSize: 0x30 }
  - { offsetInCU: 0x69BA7, offset: 0x69BA7, size: 0x8, addend: 0x0, symName: __ZN8pybind113strC2ENS_6handleENS_6object8stolen_tE, symObjAddr: 0x1AD30, symBinAddr: 0x1BBE0, symSize: 0x30 }
  - { offsetInCU: 0x69BEC, offset: 0x69BEC, size: 0x8, addend: 0x0, symName: __ZNSt3__112basic_stringIcNS_11char_traitsIcEENS_9allocatorIcEEEixB7v160006Em, symObjAddr: 0x1AD60, symBinAddr: 0x1BC10, symSize: 0x30 }
  - { offsetInCU: 0x69C21, offset: 0x69C21, size: 0x8, addend: 0x0, symName: __ZNSt3__112basic_stringIcNS_11char_traitsIcEENS_9allocatorIcEEE5clearB7v160006Ev, symObjAddr: 0x1AD90, symBinAddr: 0x1BC40, symSize: 0xA0 }
  - { offsetInCU: 0x69C48, offset: 0x69C48, size: 0x8, addend: 0x0, symName: __Z6strchrB7v160006Ua9enable_ifIXLb1EEEPKci, symObjAddr: 0x1AE30, symBinAddr: 0x1BCE0, symSize: 0x30 }
  - { offsetInCU: 0x69C83, offset: 0x69C83, size: 0x8, addend: 0x0, symName: __ZNKSt3__112basic_stringIcNS_11char_traitsIcEENS_9allocatorIcEEE17find_first_not_ofB7v160006EPKcm, symObjAddr: 0x1AE60, symBinAddr: 0x1BD10, symSize: 0x70 }
  - { offsetInCU: 0x69CC9, offset: 0x69CC9, size: 0x8, addend: 0x0, symName: __ZNKSt3__112basic_stringIcNS_11char_traitsIcEENS_9allocatorIcEEE16find_last_not_ofB7v160006EPKcm, symObjAddr: 0x1AED0, symBinAddr: 0x1BD80, symSize: 0x70 }
  - { offsetInCU: 0x69D0F, offset: 0x69D0F, size: 0x8, addend: 0x0, symName: __ZNKSt3__112basic_stringIcNS_11char_traitsIcEENS_9allocatorIcEEE6substrB7v160006Emm, symObjAddr: 0x1AF40, symBinAddr: 0x1BDF0, symSize: 0x70 }
  - { offsetInCU: 0x69D53, offset: 0x69D53, size: 0x8, addend: 0x0, symName: __ZNSt3__19allocatorIcEC1B7v160006Ev, symObjAddr: 0x1B120, symBinAddr: 0x1BFD0, symSize: 0x20 }
  - { offsetInCU: 0x69D7D, offset: 0x69D7D, size: 0x8, addend: 0x0, symName: __ZNKSt3__110type_index4nameB7v160006Ev, symObjAddr: 0x1B240, symBinAddr: 0x1C0F0, symSize: 0x20 }
  - { offsetInCU: 0x69DA3, offset: 0x69DA3, size: 0x8, addend: 0x0, symName: __ZNSt3__113unordered_mapINS_10type_indexEPN8pybind116detail9type_infoENS3_9type_hashENS3_13type_equal_toENS_9allocatorINS_4pairIKS1_S5_EEEEE4findB7v160006ERSA_, symObjAddr: 0x1B360, symBinAddr: 0x1C210, symSize: 0x40 }
  - { offsetInCU: 0x69DD8, offset: 0x69DD8, size: 0x8, addend: 0x0, symName: __ZNSt3__113unordered_mapINS_10type_indexEPN8pybind116detail9type_infoENS3_9type_hashENS3_13type_equal_toENS_9allocatorINS_4pairIKS1_S5_EEEEE3endB7v160006Ev, symObjAddr: 0x1B3D0, symBinAddr: 0x1C280, symSize: 0x30 }
  - { offsetInCU: 0x69DFE, offset: 0x69DFE, size: 0x8, addend: 0x0, symName: __ZNKSt3__119__hash_map_iteratorINS_15__hash_iteratorIPNS_11__hash_nodeINS_17__hash_value_typeINS_10type_indexEPN8pybind116detail9type_infoEEEPvEEEEEptB7v160006Ev, symObjAddr: 0x1B400, symBinAddr: 0x1C2B0, symSize: 0x30 }
  - { offsetInCU: 0x69E24, offset: 0x69E24, size: 0x8, addend: 0x0, symName: __ZN8pybind116detail15local_internalsC1Ev, symObjAddr: 0x1B430, symBinAddr: 0x1C2E0, symSize: 0x20 }
  - { offsetInCU: 0x69E4E, offset: 0x69E4E, size: 0x8, addend: 0x0, symName: __ZN8pybind116detail15local_internalsC2Ev, symObjAddr: 0x1B450, symBinAddr: 0x1C300, symSize: 0x160 }
  - { offsetInCU: 0x69E9C, offset: 0x69E9C, size: 0x8, addend: 0x0, symName: __ZNSt3__113unordered_mapINS_12basic_stringIcNS_11char_traitsIcEENS_9allocatorIcEEEEPvNS_4hashIS6_EENS_8equal_toIS6_EENS4_INS_4pairIKS6_S7_EEEEEixEOS6_, symObjAddr: 0x1B5B0, symBinAddr: 0x1C460, symSize: 0x70 }
  - { offsetInCU: 0x69ED3, offset: 0x69ED3, size: 0x8, addend: 0x0, symName: __ZN8pybind116detail15local_internals31shared_loader_life_support_dataC1Ev, symObjAddr: 0x1B620, symBinAddr: 0x1C4D0, symSize: 0x20 }
  - { offsetInCU: 0x69EFD, offset: 0x69EFD, size: 0x8, addend: 0x0, symName: __ZNSt3__112forward_listIPFvSt13exception_ptrENS_9allocatorIS3_EEED1Ev, symObjAddr: 0x1B640, symBinAddr: 0x1C4F0, symSize: 0x20 }
  - { offsetInCU: 0x69F2A, offset: 0x69F2A, size: 0x8, addend: 0x0, symName: __ZNSt3__113unordered_mapINS_10type_indexEPN8pybind116detail9type_infoENS3_9type_hashENS3_13type_equal_toENS_9allocatorINS_4pairIKS1_S5_EEEEED1B7v160006Ev, symObjAddr: 0x1B660, symBinAddr: 0x1C510, symSize: 0x20 }
  - { offsetInCU: 0x69F54, offset: 0x69F54, size: 0x8, addend: 0x0, symName: __ZNSt3__112__hash_tableINS_17__hash_value_typeINS_12basic_stringIcNS_11char_traitsIcEENS_9allocatorIcEEEEPvEENS_22__unordered_map_hasherIS7_S9_NS_4hashIS7_EENS_8equal_toIS7_EELb1EEENS_21__unordered_map_equalIS7_S9_SE_SC_Lb1EEENS5_IS9_EEE25__emplace_unique_key_argsIS7_JRKNS_21piecewise_construct_tENS_5tupleIJOS7_EEENSO_IJEEEEEENS_4pairINS_15__hash_iteratorIPNS_11__hash_nodeIS9_S8_EEEEbEERKT_DpOT0_, symObjAddr: 0x1B680, symBinAddr: 0x1C530, symSize: 0x600 }
  - { offsetInCU: 0x6A05C, offset: 0x6A05C, size: 0x8, addend: 0x0, symName: __ZNKSt3__115__hash_iteratorIPNS_11__hash_nodeINS_17__hash_value_typeINS_12basic_stringIcNS_11char_traitsIcEENS_9allocatorIcEEEEPvEES9_EEEptB7v160006Ev, symObjAddr: 0x1BCB0, symBinAddr: 0x1CB60, symSize: 0x30 }
  - { offsetInCU: 0x6A082, offset: 0x6A082, size: 0x8, addend: 0x0, symName: __ZNSt3__117__hash_value_typeINS_12basic_stringIcNS_11char_traitsIcEENS_9allocatorIcEEEEPvE11__get_valueB7v160006Ev, symObjAddr: 0x1BCE0, symBinAddr: 0x1CB90, symSize: 0x20 }
  - { offsetInCU: 0x6A0A8, offset: 0x6A0A8, size: 0x8, addend: 0x0, symName: __ZNSt3__112__hash_tableINS_17__hash_value_typeINS_12basic_stringIcNS_11char_traitsIcEENS_9allocatorIcEEEEPvEENS_22__unordered_map_hasherIS7_S9_NS_4hashIS7_EENS_8equal_toIS7_EELb1EEENS_21__unordered_map_equalIS7_S9_SE_SC_Lb1EEENS5_IS9_EEE13hash_functionB7v160006Ev, symObjAddr: 0x1BD00, symBinAddr: 0x1CBB0, symSize: 0x20 }
  - { offsetInCU: 0x6A0CE, offset: 0x6A0CE, size: 0x8, addend: 0x0, symName: __ZNKSt3__122__unordered_map_hasherINS_12basic_stringIcNS_11char_traitsIcEENS_9allocatorIcEEEENS_17__hash_value_typeIS6_PvEENS_4hashIS6_EENS_8equal_toIS6_EELb1EEclB7v160006ERKS6_, symObjAddr: 0x1BD20, symBinAddr: 0x1CBD0, symSize: 0x30 }
  - { offsetInCU: 0x6A103, offset: 0x6A103, size: 0x8, addend: 0x0, symName: __ZNKSt3__112__hash_tableINS_17__hash_value_typeINS_12basic_stringIcNS_11char_traitsIcEENS_9allocatorIcEEEEPvEENS_22__unordered_map_hasherIS7_S9_NS_4hashIS7_EENS_8equal_toIS7_EELb1EEENS_21__unordered_map_equalIS7_S9_SE_SC_Lb1EEENS5_IS9_EEE12bucket_countB7v160006Ev, symObjAddr: 0x1BD50, symBinAddr: 0x1CC00, symSize: 0x30 }
  - { offsetInCU: 0x6A129, offset: 0x6A129, size: 0x8, addend: 0x0, symName: __ZNKSt3__110unique_ptrIA_PNS_16__hash_node_baseIPNS_11__hash_nodeINS_17__hash_value_typeINS_12basic_stringIcNS_11char_traitsIcEENS_9allocatorIcEEEEPvEESA_EEEENS_25__bucket_list_deallocatorINS7_ISF_EEEEEixB7v160006Em, symObjAddr: 0x1BD80, symBinAddr: 0x1CC30, symSize: 0x30 }
  - { offsetInCU: 0x6A15E, offset: 0x6A15E, size: 0x8, addend: 0x0, symName: __ZNKSt3__116__hash_node_baseIPNS_11__hash_nodeINS_17__hash_value_typeINS_12basic_stringIcNS_11char_traitsIcEENS_9allocatorIcEEEEPvEES9_EEE6__hashB7v160006Ev, symObjAddr: 0x1BDB0, symBinAddr: 0x1CC60, symSize: 0x20 }
  - { offsetInCU: 0x6A184, offset: 0x6A184, size: 0x8, addend: 0x0, symName: __ZNSt3__112__hash_tableINS_17__hash_value_typeINS_12basic_stringIcNS_11char_traitsIcEENS_9allocatorIcEEEEPvEENS_22__unordered_map_hasherIS7_S9_NS_4hashIS7_EENS_8equal_toIS7_EELb1EEENS_21__unordered_map_equalIS7_S9_SE_SC_Lb1EEENS5_IS9_EEE6key_eqB7v160006Ev, symObjAddr: 0x1BDD0, symBinAddr: 0x1CC80, symSize: 0x20 }
  - { offsetInCU: 0x6A1AA, offset: 0x6A1AA, size: 0x8, addend: 0x0, symName: __ZNKSt3__121__unordered_map_equalINS_12basic_stringIcNS_11char_traitsIcEENS_9allocatorIcEEEENS_17__hash_value_typeIS6_PvEENS_8equal_toIS6_EENS_4hashIS6_EELb1EEclB7v160006ERKS9_RKS6_, symObjAddr: 0x1BDF0, symBinAddr: 0x1CCA0, symSize: 0x40 }
  - { offsetInCU: 0x6A1EE, offset: 0x6A1EE, size: 0x8, addend: 0x0, symName: __ZNSt3__116__hash_node_baseIPNS_11__hash_nodeINS_17__hash_value_typeINS_12basic_stringIcNS_11char_traitsIcEENS_9allocatorIcEEEEPvEES9_EEE8__upcastB7v160006Ev, symObjAddr: 0x1BE30, symBinAddr: 0x1CCE0, symSize: 0x20 }
  - { offsetInCU: 0x6A214, offset: 0x6A214, size: 0x8, addend: 0x0, symName: __ZNSt3__112__hash_tableINS_17__hash_value_typeINS_12basic_stringIcNS_11char_traitsIcEENS_9allocatorIcEEEEPvEENS_22__unordered_map_hasherIS7_S9_NS_4hashIS7_EENS_8equal_toIS7_EELb1EEENS_21__unordered_map_equalIS7_S9_SE_SC_Lb1EEENS5_IS9_EEE21__construct_node_hashIRKNS_21piecewise_construct_tEJNS_5tupleIJOS7_EEENSO_IJEEEEEENS_10unique_ptrINS_11__hash_nodeIS9_S8_EENS_22__hash_node_destructorINS5_ISU_EEEEEEmOT_DpOT0_, symObjAddr: 0x1BE50, symBinAddr: 0x1CD00, symSize: 0x150 }
  - { offsetInCU: 0x6A2B0, offset: 0x6A2B0, size: 0x8, addend: 0x0, symName: __ZNSt3__112__hash_tableINS_17__hash_value_typeINS_12basic_stringIcNS_11char_traitsIcEENS_9allocatorIcEEEEPvEENS_22__unordered_map_hasherIS7_S9_NS_4hashIS7_EENS_8equal_toIS7_EELb1EEENS_21__unordered_map_equalIS7_S9_SE_SC_Lb1EEENS5_IS9_EEE4sizeB7v160006Ev, symObjAddr: 0x1BFA0, symBinAddr: 0x1CE50, symSize: 0x20 }
  - { offsetInCU: 0x6A2D6, offset: 0x6A2D6, size: 0x8, addend: 0x0, symName: __ZNSt3__112__hash_tableINS_17__hash_value_typeINS_12basic_stringIcNS_11char_traitsIcEENS_9allocatorIcEEEEPvEENS_22__unordered_map_hasherIS7_S9_NS_4hashIS7_EENS_8equal_toIS7_EELb1EEENS_21__unordered_map_equalIS7_S9_SE_SC_Lb1EEENS5_IS9_EEE15max_load_factorB7v160006Ev, symObjAddr: 0x1BFC0, symBinAddr: 0x1CE70, symSize: 0x20 }
  - { offsetInCU: 0x6A2FC, offset: 0x6A2FC, size: 0x8, addend: 0x0, symName: __ZNSt3__112__hash_tableINS_17__hash_value_typeINS_12basic_stringIcNS_11char_traitsIcEENS_9allocatorIcEEEEPvEENS_22__unordered_map_hasherIS7_S9_NS_4hashIS7_EENS_8equal_toIS7_EELb1EEENS_21__unordered_map_equalIS7_S9_SE_SC_Lb1EEENS5_IS9_EEE15__rehash_uniqueB7v160006Em, symObjAddr: 0x1BFE0, symBinAddr: 0x1CE90, symSize: 0x30 }
  - { offsetInCU: 0x6A331, offset: 0x6A331, size: 0x8, addend: 0x0, symName: __ZNSt3__117__compressed_pairINS_16__hash_node_baseIPNS_11__hash_nodeINS_17__hash_value_typeINS_12basic_stringIcNS_11char_traitsIcEENS_9allocatorIcEEEEPvEESA_EEEENS7_ISC_EEE5firstB7v160006Ev, symObjAddr: 0x1C010, symBinAddr: 0x1CEC0, symSize: 0x20 }
  - { offsetInCU: 0x6A357, offset: 0x6A357, size: 0x8, addend: 0x0, symName: __ZNSt3__116__hash_node_baseIPNS_11__hash_nodeINS_17__hash_value_typeINS_12basic_stringIcNS_11char_traitsIcEENS_9allocatorIcEEEEPvEES9_EEE5__ptrB7v160006Ev, symObjAddr: 0x1C030, symBinAddr: 0x1CEE0, symSize: 0x20 }
  - { offsetInCU: 0x6A37D, offset: 0x6A37D, size: 0x8, addend: 0x0, symName: __ZNKSt3__110unique_ptrINS_11__hash_nodeINS_17__hash_value_typeINS_12basic_stringIcNS_11char_traitsIcEENS_9allocatorIcEEEEPvEES9_EENS_22__hash_node_destructorINS6_ISB_EEEEEptB7v160006Ev, symObjAddr: 0x1C050, symBinAddr: 0x1CF00, symSize: 0x20 }
  - { offsetInCU: 0x6A3A3, offset: 0x6A3A3, size: 0x8, addend: 0x0, symName: __ZNKSt3__110unique_ptrINS_11__hash_nodeINS_17__hash_value_typeINS_12basic_stringIcNS_11char_traitsIcEENS_9allocatorIcEEEEPvEES9_EENS_22__hash_node_destructorINS6_ISB_EEEEE3getB7v160006Ev, symObjAddr: 0x1C070, symBinAddr: 0x1CF20, symSize: 0x20 }
  - { offsetInCU: 0x6A3C9, offset: 0x6A3C9, size: 0x8, addend: 0x0, symName: __ZNSt3__110unique_ptrINS_11__hash_nodeINS_17__hash_value_typeINS_12basic_stringIcNS_11char_traitsIcEENS_9allocatorIcEEEEPvEES9_EENS_22__hash_node_destructorINS6_ISB_EEEEE7releaseB7v160006Ev, symObjAddr: 0x1C090, symBinAddr: 0x1CF40, symSize: 0x40 }
  - { offsetInCU: 0x6A3FE, offset: 0x6A3FE, size: 0x8, addend: 0x0, symName: __ZNSt3__110unique_ptrINS_11__hash_nodeINS_17__hash_value_typeINS_12basic_stringIcNS_11char_traitsIcEENS_9allocatorIcEEEEPvEES9_EENS_22__hash_node_destructorINS6_ISB_EEEEED1B7v160006Ev, symObjAddr: 0x1C0D0, symBinAddr: 0x1CF80, symSize: 0x20 }
  - { offsetInCU: 0x6A428, offset: 0x6A428, size: 0x8, addend: 0x0, symName: __ZNSt3__115__hash_iteratorIPNS_11__hash_nodeINS_17__hash_value_typeINS_12basic_stringIcNS_11char_traitsIcEENS_9allocatorIcEEEEPvEES9_EEEC1B7v160006EPNS_16__hash_node_baseISC_EEPKv, symObjAddr: 0x1C0F0, symBinAddr: 0x1CFA0, symSize: 0x30 }
  - { offsetInCU: 0x6A476, offset: 0x6A476, size: 0x8, addend: 0x0, symName: __ZNSt3__14pairINS_15__hash_iteratorIPNS_11__hash_nodeINS_17__hash_value_typeINS_12basic_stringIcNS_11char_traitsIcEENS_9allocatorIcEEEEPvEESA_EEEEbEC1B7v160006ISE_RbLSA_0EEEOT_OT0_, symObjAddr: 0x1C120, symBinAddr: 0x1CFD0, symSize: 0x30 }
  - { offsetInCU: 0x6A4D4, offset: 0x6A4D4, size: 0x8, addend: 0x0, symName: __ZNSt3__117__compressed_pairImNS_22__unordered_map_hasherINS_12basic_stringIcNS_11char_traitsIcEENS_9allocatorIcEEEENS_17__hash_value_typeIS7_PvEENS_4hashIS7_EENS_8equal_toIS7_EELb1EEEE6secondB7v160006Ev, symObjAddr: 0x1C150, symBinAddr: 0x1D000, symSize: 0x20 }
  - { offsetInCU: 0x6A4FA, offset: 0x6A4FA, size: 0x8, addend: 0x0, symName: __ZNSt3__122__compressed_pair_elemINS_22__unordered_map_hasherINS_12basic_stringIcNS_11char_traitsIcEENS_9allocatorIcEEEENS_17__hash_value_typeIS7_PvEENS_4hashIS7_EENS_8equal_toIS7_EELb1EEELi1ELb1EE5__getB7v160006Ev, symObjAddr: 0x1C170, symBinAddr: 0x1D020, symSize: 0x10 }
  - { offsetInCU: 0x6A520, offset: 0x6A520, size: 0x8, addend: 0x0, symName: __ZNKSt3__113__string_hashIcNS_9allocatorIcEEEclERKNS_12basic_stringIcNS_11char_traitsIcEES2_EE, symObjAddr: 0x1C180, symBinAddr: 0x1D030, symSize: 0x60 }
  - { offsetInCU: 0x6A555, offset: 0x6A555, size: 0x8, addend: 0x0, symName: __ZNKSt3__110unique_ptrIA_PNS_16__hash_node_baseIPNS_11__hash_nodeINS_17__hash_value_typeINS_12basic_stringIcNS_11char_traitsIcEENS_9allocatorIcEEEEPvEESA_EEEENS_25__bucket_list_deallocatorINS7_ISF_EEEEE11get_deleterB7v160006Ev, symObjAddr: 0x1C220, symBinAddr: 0x1D0D0, symSize: 0x20 }
  - { offsetInCU: 0x6A57B, offset: 0x6A57B, size: 0x8, addend: 0x0, symName: __ZNKSt3__125__bucket_list_deallocatorINS_9allocatorIPNS_16__hash_node_baseIPNS_11__hash_nodeINS_17__hash_value_typeINS_12basic_stringIcNS_11char_traitsIcEENS1_IcEEEEPvEESA_EEEEEEE4sizeB7v160006Ev, symObjAddr: 0x1C240, symBinAddr: 0x1D0F0, symSize: 0x20 }
  - { offsetInCU: 0x6A5A1, offset: 0x6A5A1, size: 0x8, addend: 0x0, symName: __ZNKSt3__117__compressed_pairIPPNS_16__hash_node_baseIPNS_11__hash_nodeINS_17__hash_value_typeINS_12basic_stringIcNS_11char_traitsIcEENS_9allocatorIcEEEEPvEESA_EEEENS_25__bucket_list_deallocatorINS7_ISF_EEEEE6secondB7v160006Ev, symObjAddr: 0x1C260, symBinAddr: 0x1D110, symSize: 0x20 }
  - { offsetInCU: 0x6A5C7, offset: 0x6A5C7, size: 0x8, addend: 0x0, symName: __ZNKSt3__122__compressed_pair_elemINS_25__bucket_list_deallocatorINS_9allocatorIPNS_16__hash_node_baseIPNS_11__hash_nodeINS_17__hash_value_typeINS_12basic_stringIcNS_11char_traitsIcEENS2_IcEEEEPvEESB_EEEEEEEELi1ELb0EE5__getB7v160006Ev, symObjAddr: 0x1C280, symBinAddr: 0x1D130, symSize: 0x10 }
  - { offsetInCU: 0x6A5ED, offset: 0x6A5ED, size: 0x8, addend: 0x0, symName: __ZNKSt3__117__compressed_pairImNS_9allocatorIPNS_16__hash_node_baseIPNS_11__hash_nodeINS_17__hash_value_typeINS_12basic_stringIcNS_11char_traitsIcEENS1_IcEEEEPvEESA_EEEEEEE5firstB7v160006Ev, symObjAddr: 0x1C290, symBinAddr: 0x1D140, symSize: 0x20 }
  - { offsetInCU: 0x6A613, offset: 0x6A613, size: 0x8, addend: 0x0, symName: __ZNKSt3__117__compressed_pairIPPNS_16__hash_node_baseIPNS_11__hash_nodeINS_17__hash_value_typeINS_12basic_stringIcNS_11char_traitsIcEENS_9allocatorIcEEEEPvEESA_EEEENS_25__bucket_list_deallocatorINS7_ISF_EEEEE5firstB7v160006Ev, symObjAddr: 0x1C2B0, symBinAddr: 0x1D160, symSize: 0x20 }
  - { offsetInCU: 0x6A639, offset: 0x6A639, size: 0x8, addend: 0x0, symName: __ZNKSt3__122__compressed_pair_elemIPPNS_16__hash_node_baseIPNS_11__hash_nodeINS_17__hash_value_typeINS_12basic_stringIcNS_11char_traitsIcEENS_9allocatorIcEEEEPvEESA_EEEELi0ELb0EE5__getB7v160006Ev, symObjAddr: 0x1C2D0, symBinAddr: 0x1D180, symSize: 0x10 }
  - { offsetInCU: 0x6A65F, offset: 0x6A65F, size: 0x8, addend: 0x0, symName: __ZNSt3__117__compressed_pairIfNS_21__unordered_map_equalINS_12basic_stringIcNS_11char_traitsIcEENS_9allocatorIcEEEENS_17__hash_value_typeIS7_PvEENS_8equal_toIS7_EENS_4hashIS7_EELb1EEEE6secondB7v160006Ev, symObjAddr: 0x1C2E0, symBinAddr: 0x1D190, symSize: 0x20 }
  - { offsetInCU: 0x6A685, offset: 0x6A685, size: 0x8, addend: 0x0, symName: __ZNSt3__122__compressed_pair_elemINS_21__unordered_map_equalINS_12basic_stringIcNS_11char_traitsIcEENS_9allocatorIcEEEENS_17__hash_value_typeIS7_PvEENS_8equal_toIS7_EENS_4hashIS7_EELb1EEELi1ELb1EE5__getB7v160006Ev, symObjAddr: 0x1C300, symBinAddr: 0x1D1B0, symSize: 0x10 }
  - { offsetInCU: 0x6A6AB, offset: 0x6A6AB, size: 0x8, addend: 0x0, symName: __ZNKSt3__18equal_toINS_12basic_stringIcNS_11char_traitsIcEENS_9allocatorIcEEEEEclB7v160006ERKS6_S9_, symObjAddr: 0x1C310, symBinAddr: 0x1D1C0, symSize: 0x30 }
  - { offsetInCU: 0x6A6EF, offset: 0x6A6EF, size: 0x8, addend: 0x0, symName: __ZNKSt3__117__hash_value_typeINS_12basic_stringIcNS_11char_traitsIcEENS_9allocatorIcEEEEPvE11__get_valueB7v160006Ev, symObjAddr: 0x1C340, symBinAddr: 0x1D1F0, symSize: 0x20 }
  - { offsetInCU: 0x6A715, offset: 0x6A715, size: 0x8, addend: 0x0, symName: __ZNSt3__114pointer_traitsIPNS_16__hash_node_baseIPNS_11__hash_nodeINS_17__hash_value_typeINS_12basic_stringIcNS_11char_traitsIcEENS_9allocatorIcEEEEPvEESA_EEEEE10pointer_toB7v160006ERSE_, symObjAddr: 0x1C4A0, symBinAddr: 0x1D350, symSize: 0x10 }
  - { offsetInCU: 0x6A738, offset: 0x6A738, size: 0x8, addend: 0x0, symName: __ZNSt3__112__hash_tableINS_17__hash_value_typeINS_12basic_stringIcNS_11char_traitsIcEENS_9allocatorIcEEEEPvEENS_22__unordered_map_hasherIS7_S9_NS_4hashIS7_EENS_8equal_toIS7_EELb1EEENS_21__unordered_map_equalIS7_S9_SE_SC_Lb1EEENS5_IS9_EEE12__node_allocB7v160006Ev, symObjAddr: 0x1C4B0, symBinAddr: 0x1D360, symSize: 0x20 }
  - { offsetInCU: 0x6A75E, offset: 0x6A75E, size: 0x8, addend: 0x0, symName: __ZNSt3__116allocator_traitsINS_9allocatorINS_11__hash_nodeINS_17__hash_value_typeINS_12basic_stringIcNS_11char_traitsIcEENS1_IcEEEEPvEES9_EEEEE8allocateB7v160006ERSC_m, symObjAddr: 0x1C4D0, symBinAddr: 0x1D380, symSize: 0x30 }
  - { offsetInCU: 0x6A791, offset: 0x6A791, size: 0x8, addend: 0x0, symName: __ZNSt3__122__hash_node_destructorINS_9allocatorINS_11__hash_nodeINS_17__hash_value_typeINS_12basic_stringIcNS_11char_traitsIcEENS1_IcEEEEPvEES9_EEEEEC1B7v160006ERSC_b, symObjAddr: 0x1C500, symBinAddr: 0x1D3B0, symSize: 0x40 }
  - { offsetInCU: 0x6A7DF, offset: 0x6A7DF, size: 0x8, addend: 0x0, symName: __ZNSt3__110unique_ptrINS_11__hash_nodeINS_17__hash_value_typeINS_12basic_stringIcNS_11char_traitsIcEENS_9allocatorIcEEEEPvEES9_EENS_22__hash_node_destructorINS6_ISB_EEEEEC1B7v160006ILb1EvEEPSB_NS_16__dependent_typeINS_27__unique_ptr_deleter_sfinaeISE_EEXT_EE20__good_rval_ref_typeE, symObjAddr: 0x1C540, symBinAddr: 0x1D3F0, symSize: 0x30 }
  - { offsetInCU: 0x6A830, offset: 0x6A830, size: 0x8, addend: 0x0, symName: __ZNSt3__116allocator_traitsINS_9allocatorINS_11__hash_nodeINS_17__hash_value_typeINS_12basic_stringIcNS_11char_traitsIcEENS1_IcEEEEPvEES9_EEEEE9constructB7v160006INS_4pairIKS8_S9_EEJRKNS_21piecewise_construct_tENS_5tupleIJOS8_EEENSL_IJEEEEvvEEvRSC_PT_DpOT0_, symObjAddr: 0x1C570, symBinAddr: 0x1D420, symSize: 0x40 }
  - { offsetInCU: 0x6A8AD, offset: 0x6A8AD, size: 0x8, addend: 0x0, symName: __ZNSt3__122__hash_key_value_typesINS_17__hash_value_typeINS_12basic_stringIcNS_11char_traitsIcEENS_9allocatorIcEEEEPvEEE9__get_ptrB7v160006ERS9_, symObjAddr: 0x1C5B0, symBinAddr: 0x1D460, symSize: 0x20 }
  - { offsetInCU: 0x6A8D0, offset: 0x6A8D0, size: 0x8, addend: 0x0, symName: __ZNSt3__110unique_ptrINS_11__hash_nodeINS_17__hash_value_typeINS_12basic_stringIcNS_11char_traitsIcEENS_9allocatorIcEEEEPvEES9_EENS_22__hash_node_destructorINS6_ISB_EEEEE11get_deleterB7v160006Ev, symObjAddr: 0x1C5D0, symBinAddr: 0x1D480, symSize: 0x20 }
  - { offsetInCU: 0x6A8F6, offset: 0x6A8F6, size: 0x8, addend: 0x0, symName: __ZNSt3__117__compressed_pairINS_16__hash_node_baseIPNS_11__hash_nodeINS_17__hash_value_typeINS_12basic_stringIcNS_11char_traitsIcEENS_9allocatorIcEEEEPvEESA_EEEENS7_ISC_EEE6secondB7v160006Ev, symObjAddr: 0x1C5F0, symBinAddr: 0x1D4A0, symSize: 0x20 }
  - { offsetInCU: 0x6A91C, offset: 0x6A91C, size: 0x8, addend: 0x0, symName: __ZNSt3__122__compressed_pair_elemINS_9allocatorINS_11__hash_nodeINS_17__hash_value_typeINS_12basic_stringIcNS_11char_traitsIcEENS1_IcEEEEPvEES9_EEEELi1ELb1EE5__getB7v160006Ev, symObjAddr: 0x1C610, symBinAddr: 0x1D4C0, symSize: 0x10 }
  - { offsetInCU: 0x6A942, offset: 0x6A942, size: 0x8, addend: 0x0, symName: __ZNSt3__19allocatorINS_11__hash_nodeINS_17__hash_value_typeINS_12basic_stringIcNS_11char_traitsIcEENS0_IcEEEEPvEES8_EEE8allocateB7v160006Em, symObjAddr: 0x1C620, symBinAddr: 0x1D4D0, symSize: 0x50 }
  - { offsetInCU: 0x6A981, offset: 0x6A981, size: 0x8, addend: 0x0, symName: __ZNSt3__116allocator_traitsINS_9allocatorINS_11__hash_nodeINS_17__hash_value_typeINS_12basic_stringIcNS_11char_traitsIcEENS1_IcEEEEPvEES9_EEEEE8max_sizeB7v160006ISC_vvEEmRKSC_, symObjAddr: 0x1C670, symBinAddr: 0x1D520, symSize: 0x30 }
  - { offsetInCU: 0x6A9AD, offset: 0x6A9AD, size: 0x8, addend: 0x0, symName: __ZNSt3__122__hash_node_destructorINS_9allocatorINS_11__hash_nodeINS_17__hash_value_typeINS_12basic_stringIcNS_11char_traitsIcEENS1_IcEEEEPvEES9_EEEEEC2B7v160006ERSC_b, symObjAddr: 0x1C6A0, symBinAddr: 0x1D550, symSize: 0x30 }
  - { offsetInCU: 0x6A9F5, offset: 0x6A9F5, size: 0x8, addend: 0x0, symName: __ZNSt3__110unique_ptrINS_11__hash_nodeINS_17__hash_value_typeINS_12basic_stringIcNS_11char_traitsIcEENS_9allocatorIcEEEEPvEES9_EENS_22__hash_node_destructorINS6_ISB_EEEEEC2B7v160006ILb1EvEEPSB_NS_16__dependent_typeINS_27__unique_ptr_deleter_sfinaeISE_EEXT_EE20__good_rval_ref_typeE, symObjAddr: 0x1C6D0, symBinAddr: 0x1D580, symSize: 0x40 }
  - { offsetInCU: 0x6AA46, offset: 0x6AA46, size: 0x8, addend: 0x0, symName: __ZNSt3__117__compressed_pairIPNS_11__hash_nodeINS_17__hash_value_typeINS_12basic_stringIcNS_11char_traitsIcEENS_9allocatorIcEEEEPvEES9_EENS_22__hash_node_destructorINS6_ISB_EEEEEC1B7v160006IRSC_SF_EEOT_OT0_, symObjAddr: 0x1C710, symBinAddr: 0x1D5C0, symSize: 0x30 }
  - { offsetInCU: 0x6AA9E, offset: 0x6AA9E, size: 0x8, addend: 0x0, symName: __ZNSt3__117__compressed_pairIPNS_11__hash_nodeINS_17__hash_value_typeINS_12basic_stringIcNS_11char_traitsIcEENS_9allocatorIcEEEEPvEES9_EENS_22__hash_node_destructorINS6_ISB_EEEEEC2B7v160006IRSC_SF_EEOT_OT0_, symObjAddr: 0x1C740, symBinAddr: 0x1D5F0, symSize: 0x40 }
  - { offsetInCU: 0x6AAF6, offset: 0x6AAF6, size: 0x8, addend: 0x0, symName: __ZNSt3__122__compressed_pair_elemIPNS_11__hash_nodeINS_17__hash_value_typeINS_12basic_stringIcNS_11char_traitsIcEENS_9allocatorIcEEEEPvEES9_EELi0ELb0EEC2B7v160006IRSC_vEEOT_, symObjAddr: 0x1C780, symBinAddr: 0x1D630, symSize: 0x20 }
  - { offsetInCU: 0x6AB38, offset: 0x6AB38, size: 0x8, addend: 0x0, symName: __ZNSt3__122__compressed_pair_elemINS_22__hash_node_destructorINS_9allocatorINS_11__hash_nodeINS_17__hash_value_typeINS_12basic_stringIcNS_11char_traitsIcEENS2_IcEEEEPvEESA_EEEEEELi1ELb0EEC2B7v160006ISE_vEEOT_, symObjAddr: 0x1C7A0, symBinAddr: 0x1D650, symSize: 0x30 }
  - { offsetInCU: 0x6AB7A, offset: 0x6AB7A, size: 0x8, addend: 0x0, symName: __ZNSt3__14pairIKNS_12basic_stringIcNS_11char_traitsIcEENS_9allocatorIcEEEEPvEC1B7v160006IJOS6_EJEEENS_21piecewise_construct_tENS_5tupleIJDpT_EEENSD_IJDpT0_EEE, symObjAddr: 0x1C820, symBinAddr: 0x1D6D0, symSize: 0x40 }
  - { offsetInCU: 0x6ABE1, offset: 0x6ABE1, size: 0x8, addend: 0x0, symName: __ZNSt3__14pairIKNS_12basic_stringIcNS_11char_traitsIcEENS_9allocatorIcEEEEPvEC1B7v160006IJOS6_EJEJLm0EEJEEENS_21piecewise_construct_tERNS_5tupleIJDpT_EEERNSD_IJDpT0_EEENS_15__tuple_indicesIJXspT1_EEEENSM_IJXspT2_EEEE, symObjAddr: 0x1C860, symBinAddr: 0x1D710, symSize: 0x30 }
  - { offsetInCU: 0x6AC71, offset: 0x6AC71, size: 0x8, addend: 0x0, symName: __ZNSt3__14pairIKNS_12basic_stringIcNS_11char_traitsIcEENS_9allocatorIcEEEEPvEC2B7v160006IJOS6_EJEJLm0EEJEEENS_21piecewise_construct_tERNS_5tupleIJDpT_EEERNSD_IJDpT0_EEENS_15__tuple_indicesIJXspT1_EEEENSM_IJXspT2_EEEE, symObjAddr: 0x1C890, symBinAddr: 0x1D740, symSize: 0x50 }
  - { offsetInCU: 0x6AD01, offset: 0x6AD01, size: 0x8, addend: 0x0, symName: __ZNSt3__112__tuple_leafILm0EONS_12basic_stringIcNS_11char_traitsIcEENS_9allocatorIcEEEELb0EE3getB7v160006Ev, symObjAddr: 0x1C900, symBinAddr: 0x1D7B0, symSize: 0x20 }
  - { offsetInCU: 0x6AD27, offset: 0x6AD27, size: 0x8, addend: 0x0, symName: __ZNSt3__117__compressed_pairIPNS_11__hash_nodeINS_17__hash_value_typeINS_12basic_stringIcNS_11char_traitsIcEENS_9allocatorIcEEEEPvEES9_EENS_22__hash_node_destructorINS6_ISB_EEEEE6secondB7v160006Ev, symObjAddr: 0x1C920, symBinAddr: 0x1D7D0, symSize: 0x20 }
  - { offsetInCU: 0x6AD4D, offset: 0x6AD4D, size: 0x8, addend: 0x0, symName: __ZNSt3__122__compressed_pair_elemINS_22__hash_node_destructorINS_9allocatorINS_11__hash_nodeINS_17__hash_value_typeINS_12basic_stringIcNS_11char_traitsIcEENS2_IcEEEEPvEESA_EEEEEELi1ELb0EE5__getB7v160006Ev, symObjAddr: 0x1C940, symBinAddr: 0x1D7F0, symSize: 0x10 }
  - { offsetInCU: 0x6AD73, offset: 0x6AD73, size: 0x8, addend: 0x0, symName: __ZNSt3__117__compressed_pairImNS_22__unordered_map_hasherINS_12basic_stringIcNS_11char_traitsIcEENS_9allocatorIcEEEENS_17__hash_value_typeIS7_PvEENS_4hashIS7_EENS_8equal_toIS7_EELb1EEEE5firstB7v160006Ev, symObjAddr: 0x1C950, symBinAddr: 0x1D800, symSize: 0x20 }
  - { offsetInCU: 0x6AD99, offset: 0x6AD99, size: 0x8, addend: 0x0, symName: __ZNSt3__117__compressed_pairIfNS_21__unordered_map_equalINS_12basic_stringIcNS_11char_traitsIcEENS_9allocatorIcEEEENS_17__hash_value_typeIS7_PvEENS_8equal_toIS7_EENS_4hashIS7_EELb1EEEE5firstB7v160006Ev, symObjAddr: 0x1C970, symBinAddr: 0x1D820, symSize: 0x20 }
  - { offsetInCU: 0x6ADBF, offset: 0x6ADBF, size: 0x8, addend: 0x0, symName: __ZNSt3__112__hash_tableINS_17__hash_value_typeINS_12basic_stringIcNS_11char_traitsIcEENS_9allocatorIcEEEEPvEENS_22__unordered_map_hasherIS7_S9_NS_4hashIS7_EENS_8equal_toIS7_EELb1EEENS_21__unordered_map_equalIS7_S9_SE_SC_Lb1EEENS5_IS9_EEE8__rehashILb1EEEvm, symObjAddr: 0x1C990, symBinAddr: 0x1D840, symSize: 0x230 }
  - { offsetInCU: 0x6AE0F, offset: 0x6AE0F, size: 0x8, addend: 0x0, symName: __ZNSt3__112__hash_tableINS_17__hash_value_typeINS_12basic_stringIcNS_11char_traitsIcEENS_9allocatorIcEEEEPvEENS_22__unordered_map_hasherIS7_S9_NS_4hashIS7_EENS_8equal_toIS7_EELb1EEENS_21__unordered_map_equalIS7_S9_SE_SC_Lb1EEENS5_IS9_EEE11__do_rehashILb1EEEvm, symObjAddr: 0x1CBC0, symBinAddr: 0x1DA70, symSize: 0x260 }
  - { offsetInCU: 0x6AEF2, offset: 0x6AEF2, size: 0x8, addend: 0x0, symName: __ZNSt3__110unique_ptrIA_PNS_16__hash_node_baseIPNS_11__hash_nodeINS_17__hash_value_typeINS_12basic_stringIcNS_11char_traitsIcEENS_9allocatorIcEEEEPvEESA_EEEENS_25__bucket_list_deallocatorINS7_ISF_EEEEE11get_deleterB7v160006Ev, symObjAddr: 0x1CE30, symBinAddr: 0x1DCE0, symSize: 0x20 }
  - { offsetInCU: 0x6AF18, offset: 0x6AF18, size: 0x8, addend: 0x0, symName: __ZNSt3__125__bucket_list_deallocatorINS_9allocatorIPNS_16__hash_node_baseIPNS_11__hash_nodeINS_17__hash_value_typeINS_12basic_stringIcNS_11char_traitsIcEENS1_IcEEEEPvEESA_EEEEEEE7__allocB7v160006Ev, symObjAddr: 0x1CE50, symBinAddr: 0x1DD00, symSize: 0x20 }
  - { offsetInCU: 0x6AF3E, offset: 0x6AF3E, size: 0x8, addend: 0x0, symName: __ZNSt3__110unique_ptrIA_PNS_16__hash_node_baseIPNS_11__hash_nodeINS_17__hash_value_typeINS_12basic_stringIcNS_11char_traitsIcEENS_9allocatorIcEEEEPvEESA_EEEENS_25__bucket_list_deallocatorINS7_ISF_EEEEE5resetB7v160006IPSF_EENS_9enable_ifIXsr28_CheckArrayPointerConversionIT_EE5valueEvE4typeESO_, symObjAddr: 0x1CE70, symBinAddr: 0x1DD20, symSize: 0x70 }
  - { offsetInCU: 0x6AF8B, offset: 0x6AF8B, size: 0x8, addend: 0x0, symName: __ZNSt3__116allocator_traitsINS_9allocatorIPNS_16__hash_node_baseIPNS_11__hash_nodeINS_17__hash_value_typeINS_12basic_stringIcNS_11char_traitsIcEENS1_IcEEEEPvEESA_EEEEEEE8allocateB7v160006ERSG_m, symObjAddr: 0x1CEE0, symBinAddr: 0x1DD90, symSize: 0x30 }
  - { offsetInCU: 0x6AFBE, offset: 0x6AFBE, size: 0x8, addend: 0x0, symName: __ZNSt3__125__bucket_list_deallocatorINS_9allocatorIPNS_16__hash_node_baseIPNS_11__hash_nodeINS_17__hash_value_typeINS_12basic_stringIcNS_11char_traitsIcEENS1_IcEEEEPvEESA_EEEEEEE4sizeB7v160006Ev, symObjAddr: 0x1CF10, symBinAddr: 0x1DDC0, symSize: 0x20 }
  - { offsetInCU: 0x6AFE4, offset: 0x6AFE4, size: 0x8, addend: 0x0, symName: __ZNSt3__117__compressed_pairIPPNS_16__hash_node_baseIPNS_11__hash_nodeINS_17__hash_value_typeINS_12basic_stringIcNS_11char_traitsIcEENS_9allocatorIcEEEEPvEESA_EEEENS_25__bucket_list_deallocatorINS7_ISF_EEEEE6secondB7v160006Ev, symObjAddr: 0x1CF30, symBinAddr: 0x1DDE0, symSize: 0x20 }
  - { offsetInCU: 0x6B00A, offset: 0x6B00A, size: 0x8, addend: 0x0, symName: __ZNSt3__122__compressed_pair_elemINS_25__bucket_list_deallocatorINS_9allocatorIPNS_16__hash_node_baseIPNS_11__hash_nodeINS_17__hash_value_typeINS_12basic_stringIcNS_11char_traitsIcEENS2_IcEEEEPvEESB_EEEEEEEELi1ELb0EE5__getB7v160006Ev, symObjAddr: 0x1CF50, symBinAddr: 0x1DE00, symSize: 0x10 }
  - { offsetInCU: 0x6B030, offset: 0x6B030, size: 0x8, addend: 0x0, symName: __ZNSt3__117__compressed_pairImNS_9allocatorIPNS_16__hash_node_baseIPNS_11__hash_nodeINS_17__hash_value_typeINS_12basic_stringIcNS_11char_traitsIcEENS1_IcEEEEPvEESA_EEEEEEE6secondB7v160006Ev, symObjAddr: 0x1CF60, symBinAddr: 0x1DE10, symSize: 0x20 }
  - { offsetInCU: 0x6B056, offset: 0x6B056, size: 0x8, addend: 0x0, symName: __ZNSt3__122__compressed_pair_elemINS_9allocatorIPNS_16__hash_node_baseIPNS_11__hash_nodeINS_17__hash_value_typeINS_12basic_stringIcNS_11char_traitsIcEENS1_IcEEEEPvEESA_EEEEEELi1ELb1EE5__getB7v160006Ev, symObjAddr: 0x1CF80, symBinAddr: 0x1DE30, symSize: 0x10 }
  - { offsetInCU: 0x6B07C, offset: 0x6B07C, size: 0x8, addend: 0x0, symName: __ZNSt3__117__compressed_pairIPPNS_16__hash_node_baseIPNS_11__hash_nodeINS_17__hash_value_typeINS_12basic_stringIcNS_11char_traitsIcEENS_9allocatorIcEEEEPvEESA_EEEENS_25__bucket_list_deallocatorINS7_ISF_EEEEE5firstB7v160006Ev, symObjAddr: 0x1CF90, symBinAddr: 0x1DE40, symSize: 0x20 }
  - { offsetInCU: 0x6B0A2, offset: 0x6B0A2, size: 0x8, addend: 0x0, symName: __ZNSt3__125__bucket_list_deallocatorINS_9allocatorIPNS_16__hash_node_baseIPNS_11__hash_nodeINS_17__hash_value_typeINS_12basic_stringIcNS_11char_traitsIcEENS1_IcEEEEPvEESA_EEEEEEEclB7v160006EPSF_, symObjAddr: 0x1CFB0, symBinAddr: 0x1DE60, symSize: 0x50 }
  - { offsetInCU: 0x6B0D7, offset: 0x6B0D7, size: 0x8, addend: 0x0, symName: __ZNSt3__122__compressed_pair_elemIPPNS_16__hash_node_baseIPNS_11__hash_nodeINS_17__hash_value_typeINS_12basic_stringIcNS_11char_traitsIcEENS_9allocatorIcEEEEPvEESA_EEEELi0ELb0EE5__getB7v160006Ev, symObjAddr: 0x1D000, symBinAddr: 0x1DEB0, symSize: 0x10 }
  - { offsetInCU: 0x6B0FD, offset: 0x6B0FD, size: 0x8, addend: 0x0, symName: __ZNSt3__116allocator_traitsINS_9allocatorIPNS_16__hash_node_baseIPNS_11__hash_nodeINS_17__hash_value_typeINS_12basic_stringIcNS_11char_traitsIcEENS1_IcEEEEPvEESA_EEEEEEE10deallocateB7v160006ERSG_PSF_m, symObjAddr: 0x1D010, symBinAddr: 0x1DEC0, symSize: 0x30 }
  - { offsetInCU: 0x6B13F, offset: 0x6B13F, size: 0x8, addend: 0x0, symName: __ZNSt3__19allocatorIPNS_16__hash_node_baseIPNS_11__hash_nodeINS_17__hash_value_typeINS_12basic_stringIcNS_11char_traitsIcEENS0_IcEEEEPvEES9_EEEEE10deallocateB7v160006EPSE_m, symObjAddr: 0x1D040, symBinAddr: 0x1DEF0, symSize: 0x40 }
  - { offsetInCU: 0x6B181, offset: 0x6B181, size: 0x8, addend: 0x0, symName: __ZNSt3__19allocatorIPNS_16__hash_node_baseIPNS_11__hash_nodeINS_17__hash_value_typeINS_12basic_stringIcNS_11char_traitsIcEENS0_IcEEEEPvEES9_EEEEE8allocateB7v160006Em, symObjAddr: 0x1D080, symBinAddr: 0x1DF30, symSize: 0x50 }
  - { offsetInCU: 0x6B1C0, offset: 0x6B1C0, size: 0x8, addend: 0x0, symName: __ZNSt3__116allocator_traitsINS_9allocatorIPNS_16__hash_node_baseIPNS_11__hash_nodeINS_17__hash_value_typeINS_12basic_stringIcNS_11char_traitsIcEENS1_IcEEEEPvEESA_EEEEEEE8max_sizeB7v160006ISG_vvEEmRKSG_, symObjAddr: 0x1D0D0, symBinAddr: 0x1DF80, symSize: 0x20 }
  - { offsetInCU: 0x6B1EC, offset: 0x6B1EC, size: 0x8, addend: 0x0, symName: __ZNSt3__117__compressed_pairImNS_9allocatorIPNS_16__hash_node_baseIPNS_11__hash_nodeINS_17__hash_value_typeINS_12basic_stringIcNS_11char_traitsIcEENS1_IcEEEEPvEESA_EEEEEEE5firstB7v160006Ev, symObjAddr: 0x1D0F0, symBinAddr: 0x1DFA0, symSize: 0x20 }
  - { offsetInCU: 0x6B212, offset: 0x6B212, size: 0x8, addend: 0x0, symName: __ZNSt3__122__compressed_pair_elemINS_16__hash_node_baseIPNS_11__hash_nodeINS_17__hash_value_typeINS_12basic_stringIcNS_11char_traitsIcEENS_9allocatorIcEEEEPvEESA_EEEELi0ELb0EE5__getB7v160006Ev, symObjAddr: 0x1D110, symBinAddr: 0x1DFC0, symSize: 0x10 }
  - { offsetInCU: 0x6B238, offset: 0x6B238, size: 0x8, addend: 0x0, symName: __ZNKSt3__117__compressed_pairIPNS_11__hash_nodeINS_17__hash_value_typeINS_12basic_stringIcNS_11char_traitsIcEENS_9allocatorIcEEEEPvEES9_EENS_22__hash_node_destructorINS6_ISB_EEEEE5firstB7v160006Ev, symObjAddr: 0x1D120, symBinAddr: 0x1DFD0, symSize: 0x20 }
  - { offsetInCU: 0x6B25E, offset: 0x6B25E, size: 0x8, addend: 0x0, symName: __ZNKSt3__122__compressed_pair_elemIPNS_11__hash_nodeINS_17__hash_value_typeINS_12basic_stringIcNS_11char_traitsIcEENS_9allocatorIcEEEEPvEES9_EELi0ELb0EE5__getB7v160006Ev, symObjAddr: 0x1D140, symBinAddr: 0x1DFF0, symSize: 0x10 }
  - { offsetInCU: 0x6B284, offset: 0x6B284, size: 0x8, addend: 0x0, symName: __ZNSt3__117__compressed_pairIPNS_11__hash_nodeINS_17__hash_value_typeINS_12basic_stringIcNS_11char_traitsIcEENS_9allocatorIcEEEEPvEES9_EENS_22__hash_node_destructorINS6_ISB_EEEEE5firstB7v160006Ev, symObjAddr: 0x1D150, symBinAddr: 0x1E000, symSize: 0x20 }
  - { offsetInCU: 0x6B2AA, offset: 0x6B2AA, size: 0x8, addend: 0x0, symName: __ZNSt3__122__compressed_pair_elemIPNS_11__hash_nodeINS_17__hash_value_typeINS_12basic_stringIcNS_11char_traitsIcEENS_9allocatorIcEEEEPvEES9_EELi0ELb0EE5__getB7v160006Ev, symObjAddr: 0x1D170, symBinAddr: 0x1E020, symSize: 0x10 }
  - { offsetInCU: 0x6B2D0, offset: 0x6B2D0, size: 0x8, addend: 0x0, symName: __ZNSt3__110unique_ptrINS_11__hash_nodeINS_17__hash_value_typeINS_12basic_stringIcNS_11char_traitsIcEENS_9allocatorIcEEEEPvEES9_EENS_22__hash_node_destructorINS6_ISB_EEEEED2B7v160006Ev, symObjAddr: 0x1D180, symBinAddr: 0x1E030, symSize: 0x20 }
  - { offsetInCU: 0x6B2FA, offset: 0x6B2FA, size: 0x8, addend: 0x0, symName: __ZNSt3__110unique_ptrINS_11__hash_nodeINS_17__hash_value_typeINS_12basic_stringIcNS_11char_traitsIcEENS_9allocatorIcEEEEPvEES9_EENS_22__hash_node_destructorINS6_ISB_EEEEE5resetB7v160006EPSB_, symObjAddr: 0x1D1A0, symBinAddr: 0x1E050, symSize: 0x70 }
  - { offsetInCU: 0x6B33E, offset: 0x6B33E, size: 0x8, addend: 0x0, symName: __ZNSt3__122__hash_node_destructorINS_9allocatorINS_11__hash_nodeINS_17__hash_value_typeINS_12basic_stringIcNS_11char_traitsIcEENS1_IcEEEEPvEES9_EEEEEclB7v160006EPSB_, symObjAddr: 0x1D210, symBinAddr: 0x1E0C0, symSize: 0x90 }
  - { offsetInCU: 0x6B373, offset: 0x6B373, size: 0x8, addend: 0x0, symName: __ZNSt3__116allocator_traitsINS_9allocatorINS_11__hash_nodeINS_17__hash_value_typeINS_12basic_stringIcNS_11char_traitsIcEENS1_IcEEEEPvEES9_EEEEE7destroyB7v160006INS_4pairIKS8_S9_EEvvEEvRSC_PT_, symObjAddr: 0x1D2A0, symBinAddr: 0x1E150, symSize: 0x20 }
  - { offsetInCU: 0x6B3AE, offset: 0x6B3AE, size: 0x8, addend: 0x0, symName: __ZNSt3__116allocator_traitsINS_9allocatorINS_11__hash_nodeINS_17__hash_value_typeINS_12basic_stringIcNS_11char_traitsIcEENS1_IcEEEEPvEES9_EEEEE10deallocateB7v160006ERSC_PSB_m, symObjAddr: 0x1D2C0, symBinAddr: 0x1E170, symSize: 0x30 }
  - { offsetInCU: 0x6B3F0, offset: 0x6B3F0, size: 0x8, addend: 0x0, symName: __ZNSt3__14pairIKNS_12basic_stringIcNS_11char_traitsIcEENS_9allocatorIcEEEEPvED1Ev, symObjAddr: 0x1D330, symBinAddr: 0x1E1E0, symSize: 0x20 }
  - { offsetInCU: 0x6B41C, offset: 0x6B41C, size: 0x8, addend: 0x0, symName: __ZNSt3__14pairIKNS_12basic_stringIcNS_11char_traitsIcEENS_9allocatorIcEEEEPvED2Ev, symObjAddr: 0x1D350, symBinAddr: 0x1E200, symSize: 0x20 }
  - { offsetInCU: 0x6B448, offset: 0x6B448, size: 0x8, addend: 0x0, symName: __ZNSt3__19allocatorINS_11__hash_nodeINS_17__hash_value_typeINS_12basic_stringIcNS_11char_traitsIcEENS0_IcEEEEPvEES8_EEE10deallocateB7v160006EPSA_m, symObjAddr: 0x1D370, symBinAddr: 0x1E220, symSize: 0x50 }
  - { offsetInCU: 0x6B48A, offset: 0x6B48A, size: 0x8, addend: 0x0, symName: __ZNSt3__115__hash_iteratorIPNS_11__hash_nodeINS_17__hash_value_typeINS_12basic_stringIcNS_11char_traitsIcEENS_9allocatorIcEEEEPvEES9_EEEC2B7v160006EPNS_16__hash_node_baseISC_EEPKv, symObjAddr: 0x1D3C0, symBinAddr: 0x1E270, symSize: 0x20 }
  - { offsetInCU: 0x6B4D2, offset: 0x6B4D2, size: 0x8, addend: 0x0, symName: __ZNSt3__14pairINS_15__hash_iteratorIPNS_11__hash_nodeINS_17__hash_value_typeINS_12basic_stringIcNS_11char_traitsIcEENS_9allocatorIcEEEEPvEESA_EEEEbEC2B7v160006ISE_RbLSA_0EEEOT_OT0_, symObjAddr: 0x1D3E0, symBinAddr: 0x1E290, symSize: 0x30 }
  - { offsetInCU: 0x6B530, offset: 0x6B530, size: 0x8, addend: 0x0, symName: __ZNSt3__15tupleIJONS_12basic_stringIcNS_11char_traitsIcEENS_9allocatorIcEEEEEEC1B7v160006IJS6_ELi0EEEDpOT_, symObjAddr: 0x1D410, symBinAddr: 0x1E2C0, symSize: 0x30 }
  - { offsetInCU: 0x6B57A, offset: 0x6B57A, size: 0x8, addend: 0x0, symName: __ZNSt3__15tupleIJONS_12basic_stringIcNS_11char_traitsIcEENS_9allocatorIcEEEEEEC2B7v160006IJS6_ELi0EEEDpOT_, symObjAddr: 0x1D440, symBinAddr: 0x1E2F0, symSize: 0x30 }
  - { offsetInCU: 0x6B5C4, offset: 0x6B5C4, size: 0x8, addend: 0x0, symName: __ZNSt3__112__tuple_implINS_15__tuple_indicesIJLm0EEEEJONS_12basic_stringIcNS_11char_traitsIcEENS_9allocatorIcEEEEEEC1B7v160006IJLm0EEJS9_EJEJEJS8_EEENS1_IJXspT_EEEENS_13__tuple_typesIJDpT0_EEENS1_IJXspT1_EEEENSD_IJDpT2_EEEDpOT3_, symObjAddr: 0x1D470, symBinAddr: 0x1E320, symSize: 0x30 }
  - { offsetInCU: 0x6B659, offset: 0x6B659, size: 0x8, addend: 0x0, symName: __ZNSt3__112__tuple_implINS_15__tuple_indicesIJLm0EEEEJONS_12basic_stringIcNS_11char_traitsIcEENS_9allocatorIcEEEEEEC2B7v160006IJLm0EEJS9_EJEJEJS8_EEENS1_IJXspT_EEEENS_13__tuple_typesIJDpT0_EEENS1_IJXspT1_EEEENSD_IJDpT2_EEEDpOT3_, symObjAddr: 0x1D4A0, symBinAddr: 0x1E350, symSize: 0x30 }
  - { offsetInCU: 0x6B6EE, offset: 0x6B6EE, size: 0x8, addend: 0x0, symName: __ZNSt3__112__tuple_leafILm0EONS_12basic_stringIcNS_11char_traitsIcEENS_9allocatorIcEEEELb0EEC2B7v160006IS6_vEEOT_, symObjAddr: 0x1D4D0, symBinAddr: 0x1E380, symSize: 0x20 }
  - { offsetInCU: 0x6B731, offset: 0x6B731, size: 0x8, addend: 0x0, symName: __ZNSt3__114pointer_traitsIPNS_17__hash_value_typeINS_12basic_stringIcNS_11char_traitsIcEENS_9allocatorIcEEEEPvEEE10pointer_toB7v160006ERS9_, symObjAddr: 0x1D4F0, symBinAddr: 0x1E3A0, symSize: 0x10 }
  - { offsetInCU: 0x6B754, offset: 0x6B754, size: 0x8, addend: 0x0, symName: __ZN8pybind116detail15local_internals31shared_loader_life_support_dataC2Ev, symObjAddr: 0x1D530, symBinAddr: 0x1E3E0, symSize: 0x60 }
  - { offsetInCU: 0x6B77E, offset: 0x6B77E, size: 0x8, addend: 0x0, symName: __ZNSt3__112forward_listIPFvSt13exception_ptrENS_9allocatorIS3_EEED2Ev, symObjAddr: 0x1D590, symBinAddr: 0x1E440, symSize: 0x20 }
  - { offsetInCU: 0x6B7AB, offset: 0x6B7AB, size: 0x8, addend: 0x0, symName: __ZNSt3__119__forward_list_baseIPFvSt13exception_ptrENS_9allocatorIS3_EEED2Ev, symObjAddr: 0x1D5B0, symBinAddr: 0x1E460, symSize: 0x20 }
  - { offsetInCU: 0x6B7D7, offset: 0x6B7D7, size: 0x8, addend: 0x0, symName: __ZNSt3__119__forward_list_baseIPFvSt13exception_ptrENS_9allocatorIS3_EEE5clearEv, symObjAddr: 0x1D5D0, symBinAddr: 0x1E480, symSize: 0xA0 }
  - { offsetInCU: 0x6B838, offset: 0x6B838, size: 0x8, addend: 0x0, symName: __ZNSt3__116allocator_traitsINS_9allocatorINS_19__forward_list_nodeIPFvSt13exception_ptrEPvEEEEE7destroyB7v160006IS5_vvEEvRS8_PT_, symObjAddr: 0x1D670, symBinAddr: 0x1E520, symSize: 0x20 }
  - { offsetInCU: 0x6B873, offset: 0x6B873, size: 0x8, addend: 0x0, symName: __ZNSt3__113unordered_mapINS_10type_indexEPN8pybind116detail9type_infoENS3_9type_hashENS3_13type_equal_toENS_9allocatorINS_4pairIKS1_S5_EEEEED2B7v160006Ev, symObjAddr: 0x1D6C0, symBinAddr: 0x1E570, symSize: 0x20 }
  - { offsetInCU: 0x6B89D, offset: 0x6B89D, size: 0x8, addend: 0x0, symName: __ZNSt3__112__hash_tableINS_17__hash_value_typeINS_10type_indexEPN8pybind116detail9type_infoEEENS_22__unordered_map_hasherIS2_S7_NS4_9type_hashENS4_13type_equal_toELb1EEENS_21__unordered_map_equalIS2_S7_SA_S9_Lb1EEENS_9allocatorIS7_EEED1Ev, symObjAddr: 0x1D6E0, symBinAddr: 0x1E590, symSize: 0x20 }
  - { offsetInCU: 0x6B8C9, offset: 0x6B8C9, size: 0x8, addend: 0x0, symName: __ZNSt3__112__hash_tableINS_17__hash_value_typeINS_10type_indexEPN8pybind116detail9type_infoEEENS_22__unordered_map_hasherIS2_S7_NS4_9type_hashENS4_13type_equal_toELb1EEENS_21__unordered_map_equalIS2_S7_SA_S9_Lb1EEENS_9allocatorIS7_EEED2Ev, symObjAddr: 0x1D700, symBinAddr: 0x1E5B0, symSize: 0x50 }
  - { offsetInCU: 0x6B8F5, offset: 0x6B8F5, size: 0x8, addend: 0x0, symName: __ZNSt3__112__hash_tableINS_17__hash_value_typeINS_10type_indexEPN8pybind116detail9type_infoEEENS_22__unordered_map_hasherIS2_S7_NS4_9type_hashENS4_13type_equal_toELb1EEENS_21__unordered_map_equalIS2_S7_SA_S9_Lb1EEENS_9allocatorIS7_EEE17__deallocate_nodeEPNS_16__hash_node_baseIPNS_11__hash_nodeIS7_PvEEEE, symObjAddr: 0x1D750, symBinAddr: 0x1E600, symSize: 0xA0 }
  - { offsetInCU: 0x6B95F, offset: 0x6B95F, size: 0x8, addend: 0x0, symName: __ZNSt3__117__compressed_pairINS_16__hash_node_baseIPNS_11__hash_nodeINS_17__hash_value_typeINS_10type_indexEPN8pybind116detail9type_infoEEEPvEEEENS_9allocatorISB_EEE5firstB7v160006Ev, symObjAddr: 0x1D7F0, symBinAddr: 0x1E6A0, symSize: 0x20 }
  - { offsetInCU: 0x6B985, offset: 0x6B985, size: 0x8, addend: 0x0, symName: __ZNSt3__110unique_ptrIA_PNS_16__hash_node_baseIPNS_11__hash_nodeINS_17__hash_value_typeINS_10type_indexEPN8pybind116detail9type_infoEEEPvEEEENS_25__bucket_list_deallocatorINS_9allocatorISE_EEEEED1B7v160006Ev, symObjAddr: 0x1D820, symBinAddr: 0x1E6D0, symSize: 0x20 }
  - { offsetInCU: 0x6B9AF, offset: 0x6B9AF, size: 0x8, addend: 0x0, symName: __ZNSt3__112__hash_tableINS_17__hash_value_typeINS_10type_indexEPN8pybind116detail9type_infoEEENS_22__unordered_map_hasherIS2_S7_NS4_9type_hashENS4_13type_equal_toELb1EEENS_21__unordered_map_equalIS2_S7_SA_S9_Lb1EEENS_9allocatorIS7_EEE12__node_allocB7v160006Ev, symObjAddr: 0x1D840, symBinAddr: 0x1E6F0, symSize: 0x20 }
  - { offsetInCU: 0x6B9D5, offset: 0x6B9D5, size: 0x8, addend: 0x0, symName: __ZNSt3__116__hash_node_baseIPNS_11__hash_nodeINS_17__hash_value_typeINS_10type_indexEPN8pybind116detail9type_infoEEEPvEEE8__upcastB7v160006Ev, symObjAddr: 0x1D860, symBinAddr: 0x1E710, symSize: 0x20 }
  - { offsetInCU: 0x6B9FB, offset: 0x6B9FB, size: 0x8, addend: 0x0, symName: __ZNSt3__116allocator_traitsINS_9allocatorINS_11__hash_nodeINS_17__hash_value_typeINS_10type_indexEPN8pybind116detail9type_infoEEEPvEEEEE7destroyB7v160006INS_4pairIKS4_S8_EEvvEEvRSC_PT_, symObjAddr: 0x1D880, symBinAddr: 0x1E730, symSize: 0x20 }
  - { offsetInCU: 0x6BA36, offset: 0x6BA36, size: 0x8, addend: 0x0, symName: __ZNSt3__122__hash_key_value_typesINS_17__hash_value_typeINS_10type_indexEPN8pybind116detail9type_infoEEEE9__get_ptrB7v160006ERS7_, symObjAddr: 0x1D8A0, symBinAddr: 0x1E750, symSize: 0x20 }
  - { offsetInCU: 0x6BA59, offset: 0x6BA59, size: 0x8, addend: 0x0, symName: __ZNSt3__116allocator_traitsINS_9allocatorINS_11__hash_nodeINS_17__hash_value_typeINS_10type_indexEPN8pybind116detail9type_infoEEEPvEEEEE10deallocateB7v160006ERSC_PSB_m, symObjAddr: 0x1D8C0, symBinAddr: 0x1E770, symSize: 0x30 }
  - { offsetInCU: 0x6BA9B, offset: 0x6BA9B, size: 0x8, addend: 0x0, symName: __ZNSt3__117__compressed_pairINS_16__hash_node_baseIPNS_11__hash_nodeINS_17__hash_value_typeINS_10type_indexEPN8pybind116detail9type_infoEEEPvEEEENS_9allocatorISB_EEE6secondB7v160006Ev, symObjAddr: 0x1D8F0, symBinAddr: 0x1E7A0, symSize: 0x20 }
  - { offsetInCU: 0x6BAC1, offset: 0x6BAC1, size: 0x8, addend: 0x0, symName: __ZNSt3__122__compressed_pair_elemINS_9allocatorINS_11__hash_nodeINS_17__hash_value_typeINS_10type_indexEPN8pybind116detail9type_infoEEEPvEEEELi1ELb1EE5__getB7v160006Ev, symObjAddr: 0x1D910, symBinAddr: 0x1E7C0, symSize: 0x10 }
  - { offsetInCU: 0x6BAE7, offset: 0x6BAE7, size: 0x8, addend: 0x0, symName: __ZNSt3__114pointer_traitsIPNS_16__hash_node_baseIPNS_11__hash_nodeINS_17__hash_value_typeINS_10type_indexEPN8pybind116detail9type_infoEEEPvEEEEE10pointer_toB7v160006ERSD_, symObjAddr: 0x1D920, symBinAddr: 0x1E7D0, symSize: 0x10 }
  - { offsetInCU: 0x6BB0A, offset: 0x6BB0A, size: 0x8, addend: 0x0, symName: __ZNSt3__117__hash_value_typeINS_10type_indexEPN8pybind116detail9type_infoEE11__get_valueB7v160006Ev, symObjAddr: 0x1D960, symBinAddr: 0x1E810, symSize: 0x20 }
  - { offsetInCU: 0x6BB30, offset: 0x6BB30, size: 0x8, addend: 0x0, symName: __ZNSt3__19allocatorINS_11__hash_nodeINS_17__hash_value_typeINS_10type_indexEPN8pybind116detail9type_infoEEEPvEEE10deallocateB7v160006EPSA_m, symObjAddr: 0x1D9B0, symBinAddr: 0x1E860, symSize: 0x40 }
  - { offsetInCU: 0x6BB72, offset: 0x6BB72, size: 0x8, addend: 0x0, symName: __ZNSt3__122__compressed_pair_elemINS_16__hash_node_baseIPNS_11__hash_nodeINS_17__hash_value_typeINS_10type_indexEPN8pybind116detail9type_infoEEEPvEEEELi0ELb0EE5__getB7v160006Ev, symObjAddr: 0x1D9F0, symBinAddr: 0x1E8A0, symSize: 0x10 }
  - { offsetInCU: 0x6BB98, offset: 0x6BB98, size: 0x8, addend: 0x0, symName: __ZNSt3__110unique_ptrIA_PNS_16__hash_node_baseIPNS_11__hash_nodeINS_17__hash_value_typeINS_10type_indexEPN8pybind116detail9type_infoEEEPvEEEENS_25__bucket_list_deallocatorINS_9allocatorISE_EEEEED2B7v160006Ev, symObjAddr: 0x1DA00, symBinAddr: 0x1E8B0, symSize: 0x20 }
  - { offsetInCU: 0x6BBC2, offset: 0x6BBC2, size: 0x8, addend: 0x0, symName: __ZNSt3__110unique_ptrIA_PNS_16__hash_node_baseIPNS_11__hash_nodeINS_17__hash_value_typeINS_10type_indexEPN8pybind116detail9type_infoEEEPvEEEENS_25__bucket_list_deallocatorINS_9allocatorISE_EEEEE5resetB7v160006EDn, symObjAddr: 0x1DA20, symBinAddr: 0x1E8D0, symSize: 0x60 }
  - { offsetInCU: 0x6BC03, offset: 0x6BC03, size: 0x8, addend: 0x0, symName: __ZNSt3__117__compressed_pairIPPNS_16__hash_node_baseIPNS_11__hash_nodeINS_17__hash_value_typeINS_10type_indexEPN8pybind116detail9type_infoEEEPvEEEENS_25__bucket_list_deallocatorINS_9allocatorISE_EEEEE5firstB7v160006Ev, symObjAddr: 0x1DA80, symBinAddr: 0x1E930, symSize: 0x20 }
  - { offsetInCU: 0x6BC29, offset: 0x6BC29, size: 0x8, addend: 0x0, symName: __ZNSt3__117__compressed_pairIPPNS_16__hash_node_baseIPNS_11__hash_nodeINS_17__hash_value_typeINS_10type_indexEPN8pybind116detail9type_infoEEEPvEEEENS_25__bucket_list_deallocatorINS_9allocatorISE_EEEEE6secondB7v160006Ev, symObjAddr: 0x1DAA0, symBinAddr: 0x1E950, symSize: 0x20 }
  - { offsetInCU: 0x6BC4F, offset: 0x6BC4F, size: 0x8, addend: 0x0, symName: __ZNSt3__125__bucket_list_deallocatorINS_9allocatorIPNS_16__hash_node_baseIPNS_11__hash_nodeINS_17__hash_value_typeINS_10type_indexEPN8pybind116detail9type_infoEEEPvEEEEEEEclB7v160006EPSF_, symObjAddr: 0x1DAC0, symBinAddr: 0x1E970, symSize: 0x50 }
  - { offsetInCU: 0x6BC84, offset: 0x6BC84, size: 0x8, addend: 0x0, symName: __ZNSt3__122__compressed_pair_elemIPPNS_16__hash_node_baseIPNS_11__hash_nodeINS_17__hash_value_typeINS_10type_indexEPN8pybind116detail9type_infoEEEPvEEEELi0ELb0EE5__getB7v160006Ev, symObjAddr: 0x1DB10, symBinAddr: 0x1E9C0, symSize: 0x10 }
  - { offsetInCU: 0x6BCAA, offset: 0x6BCAA, size: 0x8, addend: 0x0, symName: __ZNSt3__122__compressed_pair_elemINS_25__bucket_list_deallocatorINS_9allocatorIPNS_16__hash_node_baseIPNS_11__hash_nodeINS_17__hash_value_typeINS_10type_indexEPN8pybind116detail9type_infoEEEPvEEEEEEEELi1ELb0EE5__getB7v160006Ev, symObjAddr: 0x1DB20, symBinAddr: 0x1E9D0, symSize: 0x10 }
  - { offsetInCU: 0x6BCD0, offset: 0x6BCD0, size: 0x8, addend: 0x0, symName: __ZNSt3__116allocator_traitsINS_9allocatorIPNS_16__hash_node_baseIPNS_11__hash_nodeINS_17__hash_value_typeINS_10type_indexEPN8pybind116detail9type_infoEEEPvEEEEEEE10deallocateB7v160006ERSG_PSF_m, symObjAddr: 0x1DB30, symBinAddr: 0x1E9E0, symSize: 0x30 }
  - { offsetInCU: 0x6BD12, offset: 0x6BD12, size: 0x8, addend: 0x0, symName: __ZNSt3__125__bucket_list_deallocatorINS_9allocatorIPNS_16__hash_node_baseIPNS_11__hash_nodeINS_17__hash_value_typeINS_10type_indexEPN8pybind116detail9type_infoEEEPvEEEEEEE7__allocB7v160006Ev, symObjAddr: 0x1DB60, symBinAddr: 0x1EA10, symSize: 0x20 }
  - { offsetInCU: 0x6BD38, offset: 0x6BD38, size: 0x8, addend: 0x0, symName: __ZNSt3__125__bucket_list_deallocatorINS_9allocatorIPNS_16__hash_node_baseIPNS_11__hash_nodeINS_17__hash_value_typeINS_10type_indexEPN8pybind116detail9type_infoEEEPvEEEEEEE4sizeB7v160006Ev, symObjAddr: 0x1DB80, symBinAddr: 0x1EA30, symSize: 0x20 }
  - { offsetInCU: 0x6BD5E, offset: 0x6BD5E, size: 0x8, addend: 0x0, symName: __ZNSt3__19allocatorIPNS_16__hash_node_baseIPNS_11__hash_nodeINS_17__hash_value_typeINS_10type_indexEPN8pybind116detail9type_infoEEEPvEEEEE10deallocateB7v160006EPSE_m, symObjAddr: 0x1DBA0, symBinAddr: 0x1EA50, symSize: 0x40 }
  - { offsetInCU: 0x6BDA0, offset: 0x6BDA0, size: 0x8, addend: 0x0, symName: __ZNSt3__117__compressed_pairImNS_9allocatorIPNS_16__hash_node_baseIPNS_11__hash_nodeINS_17__hash_value_typeINS_10type_indexEPN8pybind116detail9type_infoEEEPvEEEEEEE6secondB7v160006Ev, symObjAddr: 0x1DBE0, symBinAddr: 0x1EA90, symSize: 0x20 }
  - { offsetInCU: 0x6BDC6, offset: 0x6BDC6, size: 0x8, addend: 0x0, symName: __ZNSt3__122__compressed_pair_elemINS_9allocatorIPNS_16__hash_node_baseIPNS_11__hash_nodeINS_17__hash_value_typeINS_10type_indexEPN8pybind116detail9type_infoEEEPvEEEEEELi1ELb1EE5__getB7v160006Ev, symObjAddr: 0x1DC00, symBinAddr: 0x1EAB0, symSize: 0x10 }
  - { offsetInCU: 0x6BDEC, offset: 0x6BDEC, size: 0x8, addend: 0x0, symName: __ZNSt3__117__compressed_pairImNS_9allocatorIPNS_16__hash_node_baseIPNS_11__hash_nodeINS_17__hash_value_typeINS_10type_indexEPN8pybind116detail9type_infoEEEPvEEEEEEE5firstB7v160006Ev, symObjAddr: 0x1DC10, symBinAddr: 0x1EAC0, symSize: 0x20 }
  - { offsetInCU: 0x6BE12, offset: 0x6BE12, size: 0x8, addend: 0x0, symName: __ZNSt3__112__hash_tableINS_17__hash_value_typeINS_10type_indexEPN8pybind116detail9type_infoEEENS_22__unordered_map_hasherIS2_S7_NS4_9type_hashENS4_13type_equal_toELb1EEENS_21__unordered_map_equalIS2_S7_SA_S9_Lb1EEENS_9allocatorIS7_EEE4findIS2_EENS_15__hash_iteratorIPNS_11__hash_nodeIS7_PvEEEERKT_, symObjAddr: 0x1DC30, symBinAddr: 0x1EAE0, symSize: 0x180 }
  - { offsetInCU: 0x6BE9C, offset: 0x6BE9C, size: 0x8, addend: 0x0, symName: __ZNSt3__119__hash_map_iteratorINS_15__hash_iteratorIPNS_11__hash_nodeINS_17__hash_value_typeINS_10type_indexEPN8pybind116detail9type_infoEEEPvEEEEEC1B7v160006ESD_, symObjAddr: 0x1DDB0, symBinAddr: 0x1EC60, symSize: 0x30 }
  - { offsetInCU: 0x6BED5, offset: 0x6BED5, size: 0x8, addend: 0x0, symName: __ZNSt3__112__hash_tableINS_17__hash_value_typeINS_10type_indexEPN8pybind116detail9type_infoEEENS_22__unordered_map_hasherIS2_S7_NS4_9type_hashENS4_13type_equal_toELb1EEENS_21__unordered_map_equalIS2_S7_SA_S9_Lb1EEENS_9allocatorIS7_EEE13hash_functionB7v160006Ev, symObjAddr: 0x1DDE0, symBinAddr: 0x1EC90, symSize: 0x20 }
  - { offsetInCU: 0x6BEFB, offset: 0x6BEFB, size: 0x8, addend: 0x0, symName: __ZNKSt3__122__unordered_map_hasherINS_10type_indexENS_17__hash_value_typeIS1_PN8pybind116detail9type_infoEEENS4_9type_hashENS4_13type_equal_toELb1EEclB7v160006ERKS1_, symObjAddr: 0x1DE00, symBinAddr: 0x1ECB0, symSize: 0x30 }
  - { offsetInCU: 0x6BF30, offset: 0x6BF30, size: 0x8, addend: 0x0, symName: __ZNKSt3__112__hash_tableINS_17__hash_value_typeINS_10type_indexEPN8pybind116detail9type_infoEEENS_22__unordered_map_hasherIS2_S7_NS4_9type_hashENS4_13type_equal_toELb1EEENS_21__unordered_map_equalIS2_S7_SA_S9_Lb1EEENS_9allocatorIS7_EEE12bucket_countB7v160006Ev, symObjAddr: 0x1DE30, symBinAddr: 0x1ECE0, symSize: 0x30 }
  - { offsetInCU: 0x6BF56, offset: 0x6BF56, size: 0x8, addend: 0x0, symName: __ZNKSt3__110unique_ptrIA_PNS_16__hash_node_baseIPNS_11__hash_nodeINS_17__hash_value_typeINS_10type_indexEPN8pybind116detail9type_infoEEEPvEEEENS_25__bucket_list_deallocatorINS_9allocatorISE_EEEEEixB7v160006Em, symObjAddr: 0x1DE60, symBinAddr: 0x1ED10, symSize: 0x30 }
  - { offsetInCU: 0x6BF8B, offset: 0x6BF8B, size: 0x8, addend: 0x0, symName: __ZNKSt3__116__hash_node_baseIPNS_11__hash_nodeINS_17__hash_value_typeINS_10type_indexEPN8pybind116detail9type_infoEEEPvEEE6__hashB7v160006Ev, symObjAddr: 0x1DE90, symBinAddr: 0x1ED40, symSize: 0x20 }
  - { offsetInCU: 0x6BFB1, offset: 0x6BFB1, size: 0x8, addend: 0x0, symName: __ZNSt3__112__hash_tableINS_17__hash_value_typeINS_10type_indexEPN8pybind116detail9type_infoEEENS_22__unordered_map_hasherIS2_S7_NS4_9type_hashENS4_13type_equal_toELb1EEENS_21__unordered_map_equalIS2_S7_SA_S9_Lb1EEENS_9allocatorIS7_EEE6key_eqB7v160006Ev, symObjAddr: 0x1DEB0, symBinAddr: 0x1ED60, symSize: 0x20 }
  - { offsetInCU: 0x6BFD7, offset: 0x6BFD7, size: 0x8, addend: 0x0, symName: __ZNKSt3__121__unordered_map_equalINS_10type_indexENS_17__hash_value_typeIS1_PN8pybind116detail9type_infoEEENS4_13type_equal_toENS4_9type_hashELb1EEclB7v160006ERKS7_RKS1_, symObjAddr: 0x1DED0, symBinAddr: 0x1ED80, symSize: 0x40 }
  - { offsetInCU: 0x6C01B, offset: 0x6C01B, size: 0x8, addend: 0x0, symName: __ZNSt3__115__hash_iteratorIPNS_11__hash_nodeINS_17__hash_value_typeINS_10type_indexEPN8pybind116detail9type_infoEEEPvEEEC1B7v160006EPNS_16__hash_node_baseISB_EEPKv, symObjAddr: 0x1DF10, symBinAddr: 0x1EDC0, symSize: 0x30 }
  - { offsetInCU: 0x6C063, offset: 0x6C063, size: 0x8, addend: 0x0, symName: __ZNSt3__112__hash_tableINS_17__hash_value_typeINS_10type_indexEPN8pybind116detail9type_infoEEENS_22__unordered_map_hasherIS2_S7_NS4_9type_hashENS4_13type_equal_toELb1EEENS_21__unordered_map_equalIS2_S7_SA_S9_Lb1EEENS_9allocatorIS7_EEE3endEv, symObjAddr: 0x1DF40, symBinAddr: 0x1EDF0, symSize: 0x30 }
  - { offsetInCU: 0x6C08B, offset: 0x6C08B, size: 0x8, addend: 0x0, symName: __ZNSt3__117__compressed_pairImNS_22__unordered_map_hasherINS_10type_indexENS_17__hash_value_typeIS2_PN8pybind116detail9type_infoEEENS5_9type_hashENS5_13type_equal_toELb1EEEE6secondB7v160006Ev, symObjAddr: 0x1DF70, symBinAddr: 0x1EE20, symSize: 0x20 }
  - { offsetInCU: 0x6C0B1, offset: 0x6C0B1, size: 0x8, addend: 0x0, symName: __ZNSt3__122__compressed_pair_elemINS_22__unordered_map_hasherINS_10type_indexENS_17__hash_value_typeIS2_PN8pybind116detail9type_infoEEENS5_9type_hashENS5_13type_equal_toELb1EEELi1ELb1EE5__getB7v160006Ev, symObjAddr: 0x1DF90, symBinAddr: 0x1EE40, symSize: 0x10 }
  - { offsetInCU: 0x6C0D7, offset: 0x6C0D7, size: 0x8, addend: 0x0, symName: __ZNK8pybind116detail9type_hashclERKNSt3__110type_indexE, symObjAddr: 0x1DFA0, symBinAddr: 0x1EE50, symSize: 0x70 }
  - { offsetInCU: 0x6C135, offset: 0x6C135, size: 0x8, addend: 0x0, symName: __ZNKSt3__110unique_ptrIA_PNS_16__hash_node_baseIPNS_11__hash_nodeINS_17__hash_value_typeINS_10type_indexEPN8pybind116detail9type_infoEEEPvEEEENS_25__bucket_list_deallocatorINS_9allocatorISE_EEEEE11get_deleterB7v160006Ev, symObjAddr: 0x1E010, symBinAddr: 0x1EEC0, symSize: 0x20 }
  - { offsetInCU: 0x6C15B, offset: 0x6C15B, size: 0x8, addend: 0x0, symName: __ZNKSt3__125__bucket_list_deallocatorINS_9allocatorIPNS_16__hash_node_baseIPNS_11__hash_nodeINS_17__hash_value_typeINS_10type_indexEPN8pybind116detail9type_infoEEEPvEEEEEEE4sizeB7v160006Ev, symObjAddr: 0x1E030, symBinAddr: 0x1EEE0, symSize: 0x20 }
  - { offsetInCU: 0x6C181, offset: 0x6C181, size: 0x8, addend: 0x0, symName: __ZNKSt3__117__compressed_pairIPPNS_16__hash_node_baseIPNS_11__hash_nodeINS_17__hash_value_typeINS_10type_indexEPN8pybind116detail9type_infoEEEPvEEEENS_25__bucket_list_deallocatorINS_9allocatorISE_EEEEE6secondB7v160006Ev, symObjAddr: 0x1E050, symBinAddr: 0x1EF00, symSize: 0x20 }
  - { offsetInCU: 0x6C1A7, offset: 0x6C1A7, size: 0x8, addend: 0x0, symName: __ZNKSt3__122__compressed_pair_elemINS_25__bucket_list_deallocatorINS_9allocatorIPNS_16__hash_node_baseIPNS_11__hash_nodeINS_17__hash_value_typeINS_10type_indexEPN8pybind116detail9type_infoEEEPvEEEEEEEELi1ELb0EE5__getB7v160006Ev, symObjAddr: 0x1E070, symBinAddr: 0x1EF20, symSize: 0x10 }
  - { offsetInCU: 0x6C1CD, offset: 0x6C1CD, size: 0x8, addend: 0x0, symName: __ZNKSt3__117__compressed_pairImNS_9allocatorIPNS_16__hash_node_baseIPNS_11__hash_nodeINS_17__hash_value_typeINS_10type_indexEPN8pybind116detail9type_infoEEEPvEEEEEEE5firstB7v160006Ev, symObjAddr: 0x1E080, symBinAddr: 0x1EF30, symSize: 0x20 }
  - { offsetInCU: 0x6C1F3, offset: 0x6C1F3, size: 0x8, addend: 0x0, symName: __ZNKSt3__117__compressed_pairIPPNS_16__hash_node_baseIPNS_11__hash_nodeINS_17__hash_value_typeINS_10type_indexEPN8pybind116detail9type_infoEEEPvEEEENS_25__bucket_list_deallocatorINS_9allocatorISE_EEEEE5firstB7v160006Ev, symObjAddr: 0x1E0A0, symBinAddr: 0x1EF50, symSize: 0x20 }
  - { offsetInCU: 0x6C219, offset: 0x6C219, size: 0x8, addend: 0x0, symName: __ZNKSt3__122__compressed_pair_elemIPPNS_16__hash_node_baseIPNS_11__hash_nodeINS_17__hash_value_typeINS_10type_indexEPN8pybind116detail9type_infoEEEPvEEEELi0ELb0EE5__getB7v160006Ev, symObjAddr: 0x1E0C0, symBinAddr: 0x1EF70, symSize: 0x10 }
  - { offsetInCU: 0x6C23F, offset: 0x6C23F, size: 0x8, addend: 0x0, symName: __ZNSt3__117__compressed_pairIfNS_21__unordered_map_equalINS_10type_indexENS_17__hash_value_typeIS2_PN8pybind116detail9type_infoEEENS5_13type_equal_toENS5_9type_hashELb1EEEE6secondB7v160006Ev, symObjAddr: 0x1E0D0, symBinAddr: 0x1EF80, symSize: 0x20 }
  - { offsetInCU: 0x6C265, offset: 0x6C265, size: 0x8, addend: 0x0, symName: __ZNSt3__122__compressed_pair_elemINS_21__unordered_map_equalINS_10type_indexENS_17__hash_value_typeIS2_PN8pybind116detail9type_infoEEENS5_13type_equal_toENS5_9type_hashELb1EEELi1ELb1EE5__getB7v160006Ev, symObjAddr: 0x1E0F0, symBinAddr: 0x1EFA0, symSize: 0x10 }
  - { offsetInCU: 0x6C28B, offset: 0x6C28B, size: 0x8, addend: 0x0, symName: __ZNK8pybind116detail13type_equal_toclERKNSt3__110type_indexES5_, symObjAddr: 0x1E100, symBinAddr: 0x1EFB0, symSize: 0x80 }
  - { offsetInCU: 0x6C2CD, offset: 0x6C2CD, size: 0x8, addend: 0x0, symName: __ZNKSt3__117__hash_value_typeINS_10type_indexEPN8pybind116detail9type_infoEE11__get_valueB7v160006Ev, symObjAddr: 0x1E180, symBinAddr: 0x1F030, symSize: 0x20 }
  - { offsetInCU: 0x6C2F3, offset: 0x6C2F3, size: 0x8, addend: 0x0, symName: __ZNSt3__115__hash_iteratorIPNS_11__hash_nodeINS_17__hash_value_typeINS_10type_indexEPN8pybind116detail9type_infoEEEPvEEEC2B7v160006EPNS_16__hash_node_baseISB_EEPKv, symObjAddr: 0x1E1D0, symBinAddr: 0x1F080, symSize: 0x20 }
  - { offsetInCU: 0x6C33B, offset: 0x6C33B, size: 0x8, addend: 0x0, symName: __ZNSt3__119__hash_map_iteratorINS_15__hash_iteratorIPNS_11__hash_nodeINS_17__hash_value_typeINS_10type_indexEPN8pybind116detail9type_infoEEEPvEEEEEC2B7v160006ESD_, symObjAddr: 0x1E1F0, symBinAddr: 0x1F0A0, symSize: 0x20 }
  - { offsetInCU: 0x6C374, offset: 0x6C374, size: 0x8, addend: 0x0, symName: __ZNSt3__114pointer_traitsIPNS_4pairIKNS_10type_indexEPN8pybind116detail9type_infoEEEE10pointer_toB7v160006ERS8_, symObjAddr: 0x1E270, symBinAddr: 0x1F120, symSize: 0x10 }
  - { offsetInCU: 0x6C397, offset: 0x6C397, size: 0x8, addend: 0x0, symName: __ZNKSt3__115__hash_iteratorIPNS_11__hash_nodeINS_17__hash_value_typeINS_10type_indexEPN8pybind116detail9type_infoEEEPvEEEptB7v160006Ev, symObjAddr: 0x1E280, symBinAddr: 0x1F130, symSize: 0x30 }
  - { offsetInCU: 0x6C3BD, offset: 0x6C3BD, size: 0x8, addend: 0x0, symName: __ZNSt3__114pointer_traitsIPNS_17__hash_value_typeINS_10type_indexEPN8pybind116detail9type_infoEEEE10pointer_toB7v160006ERS7_, symObjAddr: 0x1E2B0, symBinAddr: 0x1F160, symSize: 0x10 }
  - { offsetInCU: 0x6C3E0, offset: 0x6C3E0, size: 0x8, addend: 0x0, symName: __ZNSt3__110type_indexC2B7v160006ERKSt9type_info, symObjAddr: 0x1E2C0, symBinAddr: 0x1F170, symSize: 0x20 }
  - { offsetInCU: 0x6C418, offset: 0x6C418, size: 0x8, addend: 0x0, symName: __ZN8pybind116detail8accessorINS0_17accessor_policies8str_attrEEC1ENS_6handleEPKc, symObjAddr: 0x1E2E0, symBinAddr: 0x1F190, symSize: 0x30 }
  - { offsetInCU: 0x6C460, offset: 0x6C460, size: 0x8, addend: 0x0, symName: __ZN8pybind116detail8accessorINS0_17accessor_policies8str_attrEEC2ENS_6handleEPKc, symObjAddr: 0x1E310, symBinAddr: 0x1F1C0, symSize: 0x40 }
  - { offsetInCU: 0x6C4A8, offset: 0x6C4A8, size: 0x8, addend: 0x0, symName: __ZNK8pybind116detail8accessorINS0_17accessor_policies8str_attrEE9get_cacheEv, symObjAddr: 0x1E350, symBinAddr: 0x1F200, symSize: 0x70 }
  - { offsetInCU: 0x6C4D3, offset: 0x6C4D3, size: 0x8, addend: 0x0, symName: __ZNKR8pybind116object4castINSt3__112basic_stringIcNS2_11char_traitsIcEENS2_9allocatorIcEEEEEET_v, symObjAddr: 0x1E3C0, symBinAddr: 0x1F270, symSize: 0x30 }
  - { offsetInCU: 0x6C505, offset: 0x6C505, size: 0x8, addend: 0x0, symName: __ZN8pybind116detail17accessor_policies8str_attr3getENS_6handleEPKc, symObjAddr: 0x1E3F0, symBinAddr: 0x1F2A0, symSize: 0x40 }
  - { offsetInCU: 0x6C538, offset: 0x6C538, size: 0x8, addend: 0x0, symName: __ZN8pybind116detail8accessorINS0_17accessor_policies8str_attrEED2Ev, symObjAddr: 0x1E4F0, symBinAddr: 0x1F3A0, symSize: 0x20 }
  - { offsetInCU: 0x6C564, offset: 0x6C564, size: 0x8, addend: 0x0, symName: __ZNKSt3__16vectorIN8pybind116detail15argument_recordENS_9allocatorIS3_EEE8capacityB7v160006Ev, symObjAddr: 0x1E510, symBinAddr: 0x1F3C0, symSize: 0x30 }
  - { offsetInCU: 0x6C58A, offset: 0x6C58A, size: 0x8, addend: 0x0, symName: __ZNSt3__16vectorIN8pybind116detail15argument_recordENS_9allocatorIS3_EEE7__allocB7v160006Ev, symObjAddr: 0x1E540, symBinAddr: 0x1F3F0, symSize: 0x20 }
  - { offsetInCU: 0x6C5B0, offset: 0x6C5B0, size: 0x8, addend: 0x0, symName: __ZNSt3__114__split_bufferIN8pybind116detail15argument_recordERNS_9allocatorIS3_EEEC1EmmS6_, symObjAddr: 0x1E560, symBinAddr: 0x1F410, symSize: 0x40 }
  - { offsetInCU: 0x6C606, offset: 0x6C606, size: 0x8, addend: 0x0, symName: __ZNSt3__114__split_bufferIN8pybind116detail15argument_recordERNS_9allocatorIS3_EEED1Ev, symObjAddr: 0x1E6D0, symBinAddr: 0x1F580, symSize: 0x20 }
  - { offsetInCU: 0x6C632, offset: 0x6C632, size: 0x8, addend: 0x0, symName: __ZNKSt3__16vectorIN8pybind116detail15argument_recordENS_9allocatorIS3_EEE9__end_capB7v160006Ev, symObjAddr: 0x1E6F0, symBinAddr: 0x1F5A0, symSize: 0x20 }
  - { offsetInCU: 0x6C658, offset: 0x6C658, size: 0x8, addend: 0x0, symName: __ZNKSt3__117__compressed_pairIPN8pybind116detail15argument_recordENS_9allocatorIS3_EEE5firstB7v160006Ev, symObjAddr: 0x1E710, symBinAddr: 0x1F5C0, symSize: 0x20 }
  - { offsetInCU: 0x6C67E, offset: 0x6C67E, size: 0x8, addend: 0x0, symName: __ZNKSt3__122__compressed_pair_elemIPN8pybind116detail15argument_recordELi0ELb0EE5__getB7v160006Ev, symObjAddr: 0x1E730, symBinAddr: 0x1F5E0, symSize: 0x10 }
  - { offsetInCU: 0x6C6A4, offset: 0x6C6A4, size: 0x8, addend: 0x0, symName: __ZNSt3__117__compressed_pairIPN8pybind116detail15argument_recordENS_9allocatorIS3_EEE6secondB7v160006Ev, symObjAddr: 0x1E740, symBinAddr: 0x1F5F0, symSize: 0x20 }
  - { offsetInCU: 0x6C6CA, offset: 0x6C6CA, size: 0x8, addend: 0x0, symName: __ZNSt3__122__compressed_pair_elemINS_9allocatorIN8pybind116detail15argument_recordEEELi1ELb1EE5__getB7v160006Ev, symObjAddr: 0x1E760, symBinAddr: 0x1F610, symSize: 0x10 }
  - { offsetInCU: 0x6C6F0, offset: 0x6C6F0, size: 0x8, addend: 0x0, symName: __ZNSt3__114__split_bufferIN8pybind116detail15argument_recordERNS_9allocatorIS3_EEEC2EmmS6_, symObjAddr: 0x1E770, symBinAddr: 0x1F620, symSize: 0xD0 }
  - { offsetInCU: 0x6C763, offset: 0x6C763, size: 0x8, addend: 0x0, symName: __ZNSt3__117__compressed_pairIPN8pybind116detail15argument_recordERNS_9allocatorIS3_EEEC1B7v160006IDnS7_EEOT_OT0_, symObjAddr: 0x1E840, symBinAddr: 0x1F6F0, symSize: 0x30 }
  - { offsetInCU: 0x6C7BB, offset: 0x6C7BB, size: 0x8, addend: 0x0, symName: __ZNSt3__114__split_bufferIN8pybind116detail15argument_recordERNS_9allocatorIS3_EEE7__allocB7v160006Ev, symObjAddr: 0x1E8B0, symBinAddr: 0x1F760, symSize: 0x20 }
  - { offsetInCU: 0x6C7E1, offset: 0x6C7E1, size: 0x8, addend: 0x0, symName: __ZNSt3__114__split_bufferIN8pybind116detail15argument_recordERNS_9allocatorIS3_EEE9__end_capB7v160006Ev, symObjAddr: 0x1E8D0, symBinAddr: 0x1F780, symSize: 0x20 }
  - { offsetInCU: 0x6C807, offset: 0x6C807, size: 0x8, addend: 0x0, symName: __ZNSt3__117__compressed_pairIPN8pybind116detail15argument_recordERNS_9allocatorIS3_EEEC2B7v160006IDnS7_EEOT_OT0_, symObjAddr: 0x1E8F0, symBinAddr: 0x1F7A0, symSize: 0x40 }
  - { offsetInCU: 0x6C85F, offset: 0x6C85F, size: 0x8, addend: 0x0, symName: __ZNSt3__122__compressed_pair_elemIRNS_9allocatorIN8pybind116detail15argument_recordEEELi1ELb0EEC2B7v160006IS6_vEEOT_, symObjAddr: 0x1E930, symBinAddr: 0x1F7E0, symSize: 0x20 }
  - { offsetInCU: 0x6C8A1, offset: 0x6C8A1, size: 0x8, addend: 0x0, symName: __ZNSt3__19allocatorIN8pybind116detail15argument_recordEE8allocateB7v160006Em, symObjAddr: 0x1E950, symBinAddr: 0x1F800, symSize: 0x50 }
  - { offsetInCU: 0x6C8E0, offset: 0x6C8E0, size: 0x8, addend: 0x0, symName: __ZNSt3__116allocator_traitsINS_9allocatorIN8pybind116detail15argument_recordEEEE8max_sizeB7v160006IS5_vvEEmRKS5_, symObjAddr: 0x1E9A0, symBinAddr: 0x1F850, symSize: 0x20 }
  - { offsetInCU: 0x6C90C, offset: 0x6C90C, size: 0x8, addend: 0x0, symName: __ZNSt3__117__compressed_pairIPN8pybind116detail15argument_recordERNS_9allocatorIS3_EEE6secondB7v160006Ev, symObjAddr: 0x1E9C0, symBinAddr: 0x1F870, symSize: 0x20 }
  - { offsetInCU: 0x6C932, offset: 0x6C932, size: 0x8, addend: 0x0, symName: __ZNSt3__122__compressed_pair_elemIRNS_9allocatorIN8pybind116detail15argument_recordEEELi1ELb0EE5__getB7v160006Ev, symObjAddr: 0x1E9E0, symBinAddr: 0x1F890, symSize: 0x20 }
  - { offsetInCU: 0x6C958, offset: 0x6C958, size: 0x8, addend: 0x0, symName: __ZNSt3__117__compressed_pairIPN8pybind116detail15argument_recordERNS_9allocatorIS3_EEE5firstB7v160006Ev, symObjAddr: 0x1EA00, symBinAddr: 0x1F8B0, symSize: 0x20 }
  - { offsetInCU: 0x6C97E, offset: 0x6C97E, size: 0x8, addend: 0x0, symName: __ZNSt3__122__compressed_pair_elemIPN8pybind116detail15argument_recordELi0ELb0EE5__getB7v160006Ev, symObjAddr: 0x1EA20, symBinAddr: 0x1F8D0, symSize: 0x10 }
  - { offsetInCU: 0x6C9A4, offset: 0x6C9A4, size: 0x8, addend: 0x0, symName: __ZNKSt3__16vectorIN8pybind116detail15argument_recordENS_9allocatorIS3_EEE17__annotate_deleteB7v160006Ev, symObjAddr: 0x1EA30, symBinAddr: 0x1F8E0, symSize: 0xB0 }
  - { offsetInCU: 0x6C9CA, offset: 0x6C9CA, size: 0x8, addend: 0x0, symName: __ZNSt3__116reverse_iteratorIPN8pybind116detail15argument_recordEEC1B7v160006ES4_, symObjAddr: 0x1EB50, symBinAddr: 0x1FA00, symSize: 0x30 }
  - { offsetInCU: 0x6CA02, offset: 0x6CA02, size: 0x8, addend: 0x0, symName: __ZNKSt3__116reverse_iteratorIPN8pybind116detail15argument_recordEE4baseB7v160006Ev, symObjAddr: 0x1EB80, symBinAddr: 0x1FA30, symSize: 0x20 }
  - { offsetInCU: 0x6CA28, offset: 0x6CA28, size: 0x8, addend: 0x0, symName: __ZNSt3__16vectorIN8pybind116detail15argument_recordENS_9allocatorIS3_EEE9__end_capB7v160006Ev, symObjAddr: 0x1EBE0, symBinAddr: 0x1FA90, symSize: 0x20 }
  - { offsetInCU: 0x6CA4E, offset: 0x6CA4E, size: 0x8, addend: 0x0, symName: __ZNKSt3__16vectorIN8pybind116detail15argument_recordENS_9allocatorIS3_EEE14__annotate_newB7v160006Em, symObjAddr: 0x1EC00, symBinAddr: 0x1FAB0, symSize: 0xB0 }
  - { offsetInCU: 0x6CA83, offset: 0x6CA83, size: 0x8, addend: 0x0, symName: __ZNKSt3__16vectorIN8pybind116detail15argument_recordENS_9allocatorIS3_EEE31__annotate_contiguous_containerB7v160006EPKvS8_S8_S8_, symObjAddr: 0x1ECC0, symBinAddr: 0x1FB70, symSize: 0x20 }
  - { offsetInCU: 0x6CAD9, offset: 0x6CAD9, size: 0x8, addend: 0x0, symName: __ZNKSt3__16vectorIN8pybind116detail15argument_recordENS_9allocatorIS3_EEE4dataB7v160006Ev, symObjAddr: 0x1ECE0, symBinAddr: 0x1FB90, symSize: 0x20 }
  - { offsetInCU: 0x6CB1B, offset: 0x6CB1B, size: 0x8, addend: 0x0, symName: __ZNKSt3__111__move_loopINS_17_ClassicAlgPolicyEEclB7v160006INS_16reverse_iteratorIPN8pybind116detail15argument_recordEEES9_S9_EENS_4pairIT_T1_EESB_T0_SC_, symObjAddr: 0x1F120, symBinAddr: 0x1FFD0, symSize: 0xB0 }
  - { offsetInCU: 0x6CB86, offset: 0x6CB86, size: 0x8, addend: 0x0, symName: __ZNSt3__119__unwrap_range_implINS_16reverse_iteratorIPN8pybind116detail15argument_recordEEES6_E8__unwrapB7v160006ES6_S6_, symObjAddr: 0x1F310, symBinAddr: 0x201C0, symSize: 0x90 }
  - { offsetInCU: 0x6CBBD, offset: 0x6CBBD, size: 0x8, addend: 0x0, symName: __ZNSt3__14pairINS_16reverse_iteratorIPN8pybind116detail15argument_recordEEES6_EC1B7v160006IS6_S6_LPv0EEEOT_OT0_, symObjAddr: 0x1F3A0, symBinAddr: 0x20250, symSize: 0x30 }
  - { offsetInCU: 0x6CC1B, offset: 0x6CC1B, size: 0x8, addend: 0x0, symName: __ZNSt3__14pairINS_16reverse_iteratorIPN8pybind116detail15argument_recordEEES6_EC2B7v160006IS6_S6_LPv0EEEOT_OT0_, symObjAddr: 0x1F3D0, symBinAddr: 0x20280, symSize: 0x40 }
  - { offsetInCU: 0x6CC7F, offset: 0x6CC7F, size: 0x8, addend: 0x0, symName: __ZNSt3__18_IterOpsINS_17_ClassicAlgPolicyEE11__iter_moveB7v160006IRNS_16reverse_iteratorIPN8pybind116detail15argument_recordEEEEENS_9enable_ifIXsr12is_referenceIDTdeclsr3stdE7declvalIRT_EEEEE5valueEDTclsr3stdE4movedeclsr3stdE7declvalISD_EEEEE4typeEOSC_, symObjAddr: 0x1F450, symBinAddr: 0x20300, symSize: 0x20 }
  - { offsetInCU: 0x6CCAB, offset: 0x6CCAB, size: 0x8, addend: 0x0, symName: __ZNKSt3__116reverse_iteratorIPN8pybind116detail15argument_recordEEdeB7v160006Ev, symObjAddr: 0x1F470, symBinAddr: 0x20320, symSize: 0x30 }
  - { offsetInCU: 0x6CCDF, offset: 0x6CCDF, size: 0x8, addend: 0x0, symName: __ZNSt3__116reverse_iteratorIPN8pybind116detail15argument_recordEEppB7v160006Ev, symObjAddr: 0x1F4A0, symBinAddr: 0x20350, symSize: 0x20 }
  - { offsetInCU: 0x6CD05, offset: 0x6CD05, size: 0x8, addend: 0x0, symName: __ZNSt3__18_IterOpsINS_17_ClassicAlgPolicyEE25__validate_iter_referenceB7v160006IRNS_16reverse_iteratorIPN8pybind116detail15argument_recordEEEEEvv, symObjAddr: 0x1F4C0, symBinAddr: 0x20370, symSize: 0x10 }
  - { offsetInCU: 0x6CD23, offset: 0x6CD23, size: 0x8, addend: 0x0, symName: __ZNSt3__118__unwrap_iter_implINS_16reverse_iteratorIPN8pybind116detail15argument_recordEEELb0EE8__unwrapB7v160006ES6_, symObjAddr: 0x1F4D0, symBinAddr: 0x20380, symSize: 0x20 }
  - { offsetInCU: 0x6CD46, offset: 0x6CD46, size: 0x8, addend: 0x0, symName: __ZNSt3__119__unwrap_range_implINS_16reverse_iteratorIPN8pybind116detail15argument_recordEEES6_E8__rewrapB7v160006ES6_S6_, symObjAddr: 0x1F4F0, symBinAddr: 0x203A0, symSize: 0x60 }
  - { offsetInCU: 0x6CD77, offset: 0x6CD77, size: 0x8, addend: 0x0, symName: __ZNSt3__118__unwrap_iter_implINS_16reverse_iteratorIPN8pybind116detail15argument_recordEEELb0EE8__rewrapB7v160006ES6_S6_, symObjAddr: 0x1F550, symBinAddr: 0x20400, symSize: 0x30 }
  - { offsetInCU: 0x6CDA5, offset: 0x6CDA5, size: 0x8, addend: 0x0, symName: __ZNSt3__116reverse_iteratorIPN8pybind116detail15argument_recordEEC2B7v160006ES4_, symObjAddr: 0x1F580, symBinAddr: 0x20430, symSize: 0x30 }
  - { offsetInCU: 0x6CDDD, offset: 0x6CDDD, size: 0x8, addend: 0x0, symName: __ZNSt3__117__compressed_pairIPN8pybind116detail15argument_recordENS_9allocatorIS3_EEE5firstB7v160006Ev, symObjAddr: 0x1F5B0, symBinAddr: 0x20460, symSize: 0x20 }
  - { offsetInCU: 0x6CE03, offset: 0x6CE03, size: 0x8, addend: 0x0, symName: __ZNSt3__114__split_bufferIN8pybind116detail15argument_recordERNS_9allocatorIS3_EEED2Ev, symObjAddr: 0x1F5D0, symBinAddr: 0x20480, symSize: 0x70 }
  - { offsetInCU: 0x6CE2F, offset: 0x6CE2F, size: 0x8, addend: 0x0, symName: __ZNSt3__114__split_bufferIN8pybind116detail15argument_recordERNS_9allocatorIS3_EEE5clearB7v160006Ev, symObjAddr: 0x1F640, symBinAddr: 0x204F0, symSize: 0x20 }
  - { offsetInCU: 0x6CE55, offset: 0x6CE55, size: 0x8, addend: 0x0, symName: __ZNSt3__116allocator_traitsINS_9allocatorIN8pybind116detail15argument_recordEEEE10deallocateB7v160006ERS5_PS4_m, symObjAddr: 0x1F660, symBinAddr: 0x20510, symSize: 0x30 }
  - { offsetInCU: 0x6CE97, offset: 0x6CE97, size: 0x8, addend: 0x0, symName: __ZNKSt3__114__split_bufferIN8pybind116detail15argument_recordERNS_9allocatorIS3_EEE8capacityB7v160006Ev, symObjAddr: 0x1F690, symBinAddr: 0x20540, symSize: 0x30 }
  - { offsetInCU: 0x6CEBD, offset: 0x6CEBD, size: 0x8, addend: 0x0, symName: __ZNSt3__114__split_bufferIN8pybind116detail15argument_recordERNS_9allocatorIS3_EEE17__destruct_at_endB7v160006EPS3_, symObjAddr: 0x1F6C0, symBinAddr: 0x20570, symSize: 0x30 }
  - { offsetInCU: 0x6CEF1, offset: 0x6CEF1, size: 0x8, addend: 0x0, symName: __ZNSt3__114__split_bufferIN8pybind116detail15argument_recordERNS_9allocatorIS3_EEE17__destruct_at_endB7v160006EPS3_NS_17integral_constantIbLb0EEE, symObjAddr: 0x1F6F0, symBinAddr: 0x205A0, symSize: 0x80 }
  - { offsetInCU: 0x6CF32, offset: 0x6CF32, size: 0x8, addend: 0x0, symName: __ZNSt3__116allocator_traitsINS_9allocatorIN8pybind116detail15argument_recordEEEE7destroyB7v160006IS4_vvEEvRS5_PT_, symObjAddr: 0x1F770, symBinAddr: 0x20620, symSize: 0x20 }
  - { offsetInCU: 0x6CF6D, offset: 0x6CF6D, size: 0x8, addend: 0x0, symName: __ZNSt3__19allocatorIN8pybind116detail15argument_recordEE10deallocateB7v160006EPS3_m, symObjAddr: 0x1F7C0, symBinAddr: 0x20670, symSize: 0x40 }
  - { offsetInCU: 0x6CFAF, offset: 0x6CFAF, size: 0x8, addend: 0x0, symName: __ZNKSt3__114__split_bufferIN8pybind116detail15argument_recordERNS_9allocatorIS3_EEE9__end_capB7v160006Ev, symObjAddr: 0x1F800, symBinAddr: 0x206B0, symSize: 0x20 }
  - { offsetInCU: 0x6CFD5, offset: 0x6CFD5, size: 0x8, addend: 0x0, symName: __ZNKSt3__117__compressed_pairIPN8pybind116detail15argument_recordERNS_9allocatorIS3_EEE5firstB7v160006Ev, symObjAddr: 0x1F820, symBinAddr: 0x206D0, symSize: 0x20 }
  - { offsetInCU: 0x6CFFB, offset: 0x6CFFB, size: 0x8, addend: 0x0, symName: __ZN8pybind117capsule6check_ENS_6handleE, symObjAddr: 0x1F840, symBinAddr: 0x206F0, symSize: 0x60 }
  - { offsetInCU: 0x6D01F, offset: 0x6D01F, size: 0x8, addend: 0x0, symName: __ZN8pybind117capsuleC1ENS_6handleENS_6object10borrowed_tE, symObjAddr: 0x1F8A0, symBinAddr: 0x20750, symSize: 0x30 }
  - { offsetInCU: 0x6D064, offset: 0x6D064, size: 0x8, addend: 0x0, symName: __ZN8pybind117capsuleC2ENS_6handleENS_6object10borrowed_tE, symObjAddr: 0x1F8D0, symBinAddr: 0x20780, symSize: 0x30 }
  - { offsetInCU: 0x6D0A9, offset: 0x6D0A9, size: 0x8, addend: 0x0, symName: __ZNK8pybind117capsule4nameEv, symObjAddr: 0x1F900, symBinAddr: 0x207B0, symSize: 0xA0 }
  - { offsetInCU: 0x6D0DD, offset: 0x6D0DD, size: 0x8, addend: 0x0, symName: __ZL16PyTuple_GET_SIZEP7_object, symObjAddr: 0x1F9A0, symBinAddr: 0x20850, symSize: 0x80 }
  - { offsetInCU: 0x6D118, offset: 0x6D118, size: 0x8, addend: 0x0, symName: __ZN8pybind116detail16value_and_holderC1Ev, symObjAddr: 0x1FA20, symBinAddr: 0x208D0, symSize: 0x20 }
  - { offsetInCU: 0x6D142, offset: 0x6D142, size: 0x8, addend: 0x0, symName: __ZN8pybind116detail8instance20get_value_and_holderEPKNS0_9type_infoEb, symObjAddr: 0x1FAC0, symBinAddr: 0x20970, symSize: 0x2F0 }
  - { offsetInCU: 0x6D1A8, offset: 0x6D1A8, size: 0x8, addend: 0x0, symName: __ZNK8pybind116detail16value_and_holder19instance_registeredEv, symObjAddr: 0x1FDB0, symBinAddr: 0x20C60, symSize: 0x70 }
  - { offsetInCU: 0x6D1CE, offset: 0x6D1CE, size: 0x8, addend: 0x0, symName: __ZNSt3__16vectorIN8pybind116detail13function_callENS_9allocatorIS3_EEEC1B7v160006Ev, symObjAddr: 0x1FE20, symBinAddr: 0x20CD0, symSize: 0x20 }
  - { offsetInCU: 0x6D1F8, offset: 0x6D1F8, size: 0x8, addend: 0x0, symName: __ZN8pybind116detail13function_callC1ERKNS0_15function_recordENS_6handleE, symObjAddr: 0x1FE40, symBinAddr: 0x20CF0, symSize: 0x30 }
  - { offsetInCU: 0x6D243, offset: 0x6D243, size: 0x8, addend: 0x0, symName: __ZNK8pybind116detail16value_and_holdercvbEv, symObjAddr: 0x1FE70, symBinAddr: 0x20D20, symSize: 0x30 }
  - { offsetInCU: 0x6D26F, offset: 0x6D26F, size: 0x8, addend: 0x0, symName: __ZNSt3__16vectorIN8pybind116handleENS_9allocatorIS2_EEE12emplace_backIJP7_objectEEERS2_DpOT_, symObjAddr: 0x1FEA0, symBinAddr: 0x20D50, symSize: 0x70 }
  - { offsetInCU: 0x6D2B1, offset: 0x6D2B1, size: 0x8, addend: 0x0, symName: __ZNSt3__16vectorIbNS_9allocatorIbEEE9push_backERKb, symObjAddr: 0x1FF10, symBinAddr: 0x20DC0, symSize: 0xA0 }
  - { offsetInCU: 0x6D2E8, offset: 0x6D2E8, size: 0x8, addend: 0x0, symName: __ZNKSt3__16vectorIN8pybind116detail15argument_recordENS_9allocatorIS3_EEEixB7v160006Em, symObjAddr: 0x1FFB0, symBinAddr: 0x20E60, symSize: 0x20 }
  - { offsetInCU: 0x6D31F, offset: 0x6D31F, size: 0x8, addend: 0x0, symName: __ZNSt3__16vectorIN8pybind116handleENS_9allocatorIS2_EEE9push_backB7v160006ERKS2_, symObjAddr: 0x1FFD0, symBinAddr: 0x20E80, symSize: 0x60 }
  - { offsetInCU: 0x6D362, offset: 0x6D362, size: 0x8, addend: 0x0, symName: __ZN8pybind114dictaSEOS0_, symObjAddr: 0x200B0, symBinAddr: 0x20F60, symSize: 0x30 }
  - { offsetInCU: 0x6D394, offset: 0x6D394, size: 0x8, addend: 0x0, symName: __ZNKSt3__16vectorIN8pybind116handleENS_9allocatorIS2_EEE4sizeB7v160006Ev, symObjAddr: 0x200E0, symBinAddr: 0x20F90, symSize: 0x20 }
  - { offsetInCU: 0x6D3BA, offset: 0x6D3BA, size: 0x8, addend: 0x0, symName: __ZNSt3__16vectorIN8pybind116handleENS_9allocatorIS2_EEE9push_backB7v160006EOS2_, symObjAddr: 0x20100, symBinAddr: 0x20FB0, symSize: 0x60 }
  - { offsetInCU: 0x6D3F1, offset: 0x6D3F1, size: 0x8, addend: 0x0, symName: __ZNK8pybind114dict5emptyEv, symObjAddr: 0x20160, symBinAddr: 0x21010, symSize: 0x30 }
  - { offsetInCU: 0x6D417, offset: 0x6D417, size: 0x8, addend: 0x0, symName: __ZN8pybind115tupleC1IlLi0EEET_, symObjAddr: 0x20190, symBinAddr: 0x21040, symSize: 0x30 }
  - { offsetInCU: 0x6D46B, offset: 0x6D46B, size: 0x8, addend: 0x0, symName: __ZN8pybind115tupleaSEOS0_, symObjAddr: 0x20200, symBinAddr: 0x210B0, symSize: 0x30 }
  - { offsetInCU: 0x6D49D, offset: 0x6D49D, size: 0x8, addend: 0x0, symName: __ZN8pybind115tupleD1Ev, symObjAddr: 0x20230, symBinAddr: 0x210E0, symSize: 0x20 }
  - { offsetInCU: 0x6D4CA, offset: 0x6D4CA, size: 0x8, addend: 0x0, symName: __ZN8pybind115tupleC1IiLi0EEET_, symObjAddr: 0x20250, symBinAddr: 0x21100, symSize: 0x30 }
  - { offsetInCU: 0x6D512, offset: 0x6D512, size: 0x8, addend: 0x0, symName: __ZN8pybind115tupleC1ImLi0EEET_, symObjAddr: 0x20280, symBinAddr: 0x21130, symSize: 0x30 }
  - { offsetInCU: 0x6D55A, offset: 0x6D55A, size: 0x8, addend: 0x0, symName: __ZNK8pybind115tupleixEm, symObjAddr: 0x202B0, symBinAddr: 0x21160, symSize: 0x40 }
  - { offsetInCU: 0x6D58F, offset: 0x6D58F, size: 0x8, addend: 0x0, symName: __ZNO8pybind116detail8accessorINS0_17accessor_policies10tuple_itemEEaSIRP7_objectEEvOT_, symObjAddr: 0x202F0, symBinAddr: 0x211A0, symSize: 0x50 }
  - { offsetInCU: 0x6D5CD, offset: 0x6D5CD, size: 0x8, addend: 0x0, symName: __ZN8pybind116detail8accessorINS0_17accessor_policies10tuple_itemEED1Ev, symObjAddr: 0x20340, symBinAddr: 0x211F0, symSize: 0x20 }
  - { offsetInCU: 0x6D5F9, offset: 0x6D5F9, size: 0x8, addend: 0x0, symName: __ZN8pybind114dictC1Ev, symObjAddr: 0x20360, symBinAddr: 0x21210, symSize: 0x20 }
  - { offsetInCU: 0x6D623, offset: 0x6D623, size: 0x8, addend: 0x0, symName: __ZNKSt3__16vectorIbNS_9allocatorIbEEE4sizeB7v160006Ev, symObjAddr: 0x20380, symBinAddr: 0x21230, symSize: 0x20 }
  - { offsetInCU: 0x6D649, offset: 0x6D649, size: 0x8, addend: 0x0, symName: __ZNSt3__16vectorIbNS_9allocatorIbEEEC1B7v160006Ev, symObjAddr: 0x203A0, symBinAddr: 0x21250, symSize: 0x20 }
  - { offsetInCU: 0x6D675, offset: 0x6D675, size: 0x8, addend: 0x0, symName: __ZNSt3__16vectorIbNS_9allocatorIbEEE6resizeEmb, symObjAddr: 0x203C0, symBinAddr: 0x21270, symSize: 0x240 }
  - { offsetInCU: 0x6D713, offset: 0x6D713, size: 0x8, addend: 0x0, symName: __ZNSt3__16vectorIbNS_9allocatorIbEEE4swapERS3_, symObjAddr: 0x20600, symBinAddr: 0x214B0, symSize: 0x80 }
  - { offsetInCU: 0x6D74A, offset: 0x6D74A, size: 0x8, addend: 0x0, symName: __ZN8pybind116detail19loader_life_supportC1Ev, symObjAddr: 0x20680, symBinAddr: 0x21530, symSize: 0x20 }
  - { offsetInCU: 0x6D774, offset: 0x6D774, size: 0x8, addend: 0x0, symName: __ZN8pybind116detail19loader_life_supportD1Ev, symObjAddr: 0x206A0, symBinAddr: 0x21550, symSize: 0x20 }
  - { offsetInCU: 0x6D79E, offset: 0x6D79E, size: 0x8, addend: 0x0, symName: __ZNSt3__16vectorIN8pybind116detail13function_callENS_9allocatorIS3_EEE9push_backB7v160006EOS3_, symObjAddr: 0x206C0, symBinAddr: 0x21570, symSize: 0x60 }
  - { offsetInCU: 0x6D7D5, offset: 0x6D7D5, size: 0x8, addend: 0x0, symName: __ZNSt3__16vectorIbNS_9allocatorIbEEED1B7v160006Ev, symObjAddr: 0x20720, symBinAddr: 0x215D0, symSize: 0x20 }
  - { offsetInCU: 0x6D7FF, offset: 0x6D7FF, size: 0x8, addend: 0x0, symName: __ZN8pybind116detail13function_callD1Ev, symObjAddr: 0x20740, symBinAddr: 0x215F0, symSize: 0x20 }
  - { offsetInCU: 0x6D82C, offset: 0x6D82C, size: 0x8, addend: 0x0, symName: __ZNKSt3__16vectorIN8pybind116detail13function_callENS_9allocatorIS3_EEE5emptyB7v160006Ev, symObjAddr: 0x20760, symBinAddr: 0x21610, symSize: 0x20 }
  - { offsetInCU: 0x6D852, offset: 0x6D852, size: 0x8, addend: 0x0, symName: __ZNSt3__16vectorIN8pybind116detail13function_callENS_9allocatorIS3_EEE5beginB7v160006Ev, symObjAddr: 0x20780, symBinAddr: 0x21630, symSize: 0x30 }
  - { offsetInCU: 0x6D87A, offset: 0x6D87A, size: 0x8, addend: 0x0, symName: __ZNSt3__16vectorIN8pybind116detail13function_callENS_9allocatorIS3_EEE3endB7v160006Ev, symObjAddr: 0x207B0, symBinAddr: 0x21660, symSize: 0x30 }
  - { offsetInCU: 0x6D8A2, offset: 0x6D8A2, size: 0x8, addend: 0x0, symName: __ZNKSt3__111__wrap_iterIPN8pybind116detail13function_callEEdeB7v160006Ev, symObjAddr: 0x20810, symBinAddr: 0x216C0, symSize: 0x20 }
  - { offsetInCU: 0x6D8C8, offset: 0x6D8C8, size: 0x8, addend: 0x0, symName: __ZNSt3__111__wrap_iterIPN8pybind116detail13function_callEEppB7v160006Ev, symObjAddr: 0x20830, symBinAddr: 0x216E0, symSize: 0x20 }
  - { offsetInCU: 0x6D8EE, offset: 0x6D8EE, size: 0x8, addend: 0x0, symName: __ZNSt3__16vectorIN8pybind116detail13function_callENS_9allocatorIS3_EEED1B7v160006Ev, symObjAddr: 0x20850, symBinAddr: 0x21700, symSize: 0x20 }
  - { offsetInCU: 0x6D918, offset: 0x6D918, size: 0x8, addend: 0x0, symName: __ZNKSt3__112basic_stringIcNS_11char_traitsIcEENS_9allocatorIcEEE4findB7v160006EPKcm, symObjAddr: 0x209F0, symBinAddr: 0x218A0, symSize: 0x70 }
  - { offsetInCU: 0x6D95E, offset: 0x6D95E, size: 0x8, addend: 0x0, symName: __ZNKSt3__112basic_stringIcNS_11char_traitsIcEENS_9allocatorIcEEE5rfindB7v160006EPKcm, symObjAddr: 0x20A60, symBinAddr: 0x21910, symSize: 0x70 }
  - { offsetInCU: 0x6D9A4, offset: 0x6D9A4, size: 0x8, addend: 0x0, symName: __ZNK8pybind115tuple4sizeEv, symObjAddr: 0x20AD0, symBinAddr: 0x21980, symSize: 0x20 }
  - { offsetInCU: 0x6D9CA, offset: 0x6D9CA, size: 0x8, addend: 0x0, symName: __ZNK8pybind116detail8accessorINS0_17accessor_policies10tuple_itemEEcvNS_6objectEEv, symObjAddr: 0x20AF0, symBinAddr: 0x219A0, symSize: 0x40 }
  - { offsetInCU: 0x6D9F0, offset: 0x6D9F0, size: 0x8, addend: 0x0, symName: __ZNK8pybind114dict5beginEv, symObjAddr: 0x20B30, symBinAddr: 0x219E0, symSize: 0x40 }
  - { offsetInCU: 0x6DA16, offset: 0x6DA16, size: 0x8, addend: 0x0, symName: __ZNK8pybind114dict3endEv, symObjAddr: 0x20B70, symBinAddr: 0x21A20, symSize: 0x40 }
  - { offsetInCU: 0x6DA3C, offset: 0x6DA3C, size: 0x8, addend: 0x0, symName: __ZNK8pybind116detail16generic_iteratorINS0_17iterator_policies13dict_readonlyEEdeEv, symObjAddr: 0x20BE0, symBinAddr: 0x21A90, symSize: 0x30 }
  - { offsetInCU: 0x6DA62, offset: 0x6DA62, size: 0x8, addend: 0x0, symName: __ZNK8pybind113str6formatIJRKNS_6handleEEEES0_DpOT_, symObjAddr: 0x20C10, symBinAddr: 0x21AC0, symSize: 0xE0 }
  - { offsetInCU: 0x6DAA2, offset: 0x6DAA2, size: 0x8, addend: 0x0, symName: __ZN8pybind116detail16generic_iteratorINS0_17iterator_policies13dict_readonlyEEppEv, symObjAddr: 0x20CF0, symBinAddr: 0x21BA0, symSize: 0x30 }
  - { offsetInCU: 0x6DAD8, offset: 0x6DAD8, size: 0x8, addend: 0x0, symName: __ZZN8pybind1112cpp_function10dispatcherEP7_objectS2_S2_ENKUlRNSt3__112basic_stringIcNS3_11char_traitsIcEENS3_9allocatorIcEEEEE_clESA_, symObjAddr: 0x20D20, symBinAddr: 0x21BD0, symSize: 0x50 }
  - { offsetInCU: 0x6DB10, offset: 0x6DB10, size: 0x8, addend: 0x0, symName: __ZL7Py_SIZEP7_object, symObjAddr: 0x20D70, symBinAddr: 0x21C20, symSize: 0x20 }
  - { offsetInCU: 0x6DB4B, offset: 0x6DB4B, size: 0x8, addend: 0x0, symName: __ZN8pybind116detail16value_and_holderC2Ev, symObjAddr: 0x20D90, symBinAddr: 0x21C40, symSize: 0x30 }
  - { offsetInCU: 0x6DB75, offset: 0x6DB75, size: 0x8, addend: 0x0, symName: __ZNKSt3__16vectorIPN8pybind116detail9type_infoENS_9allocatorIS4_EEE5frontB7v160006Ev, symObjAddr: 0x20DC0, symBinAddr: 0x21C70, symSize: 0x20 }
  - { offsetInCU: 0x6DB9B, offset: 0x6DB9B, size: 0x8, addend: 0x0, symName: __ZN8pybind116detail16value_and_holderC1EPNS0_8instanceEPKNS0_9type_infoEmm, symObjAddr: 0x20DE0, symBinAddr: 0x21C90, symSize: 0x40 }
  - { offsetInCU: 0x6DC01, offset: 0x6DC01, size: 0x8, addend: 0x0, symName: __ZN8pybind116detail18values_and_holdersC1EPNS0_8instanceE, symObjAddr: 0x20E20, symBinAddr: 0x21CD0, symSize: 0x30 }
  - { offsetInCU: 0x6DC3A, offset: 0x6DC3A, size: 0x8, addend: 0x0, symName: __ZN8pybind116detail18values_and_holders4findEPKNS0_9type_infoE, symObjAddr: 0x20E50, symBinAddr: 0x21D00, symSize: 0xA0 }
  - { offsetInCU: 0x6DC8F, offset: 0x6DC8F, size: 0x8, addend: 0x0, symName: __ZN8pybind116detail16value_and_holderC2EPNS0_8instanceEPKNS0_9type_infoEmm, symObjAddr: 0x20EF0, symBinAddr: 0x21DA0, symSize: 0x90 }
  - { offsetInCU: 0x6DCF5, offset: 0x6DCF5, size: 0x8, addend: 0x0, symName: __ZN8pybind116detail18values_and_holdersC2EPNS0_8instanceE, symObjAddr: 0x20F80, symBinAddr: 0x21E30, symSize: 0x50 }
  - { offsetInCU: 0x6DD2E, offset: 0x6DD2E, size: 0x8, addend: 0x0, symName: __ZN8pybind116detail18values_and_holders8iteratorptEv, symObjAddr: 0x20FD0, symBinAddr: 0x21E80, symSize: 0x20 }
  - { offsetInCU: 0x6DD54, offset: 0x6DD54, size: 0x8, addend: 0x0, symName: __ZNSt3__16vectorIN8pybind116detail13function_callENS_9allocatorIS3_EEEC2B7v160006Ev, symObjAddr: 0x20FF0, symBinAddr: 0x21EA0, symSize: 0x60 }
  - { offsetInCU: 0x6DD7E, offset: 0x6DD7E, size: 0x8, addend: 0x0, symName: __ZNSt3__117__compressed_pairIPN8pybind116detail13function_callENS_9allocatorIS3_EEEC1B7v160006IDnNS_18__default_init_tagEEEOT_OT0_, symObjAddr: 0x21050, symBinAddr: 0x21F00, symSize: 0x30 }
  - { offsetInCU: 0x6DDD6, offset: 0x6DDD6, size: 0x8, addend: 0x0, symName: __ZNSt3__117__compressed_pairIPN8pybind116detail13function_callENS_9allocatorIS3_EEEC2B7v160006IDnNS_18__default_init_tagEEEOT_OT0_, symObjAddr: 0x21090, symBinAddr: 0x21F40, symSize: 0x40 }
  - { offsetInCU: 0x6DE2E, offset: 0x6DE2E, size: 0x8, addend: 0x0, symName: __ZNSt3__122__compressed_pair_elemIPN8pybind116detail13function_callELi0ELb0EEC2B7v160006IDnvEEOT_, symObjAddr: 0x210D0, symBinAddr: 0x21F80, symSize: 0x20 }
  - { offsetInCU: 0x6DE70, offset: 0x6DE70, size: 0x8, addend: 0x0, symName: __ZNSt3__122__compressed_pair_elemINS_9allocatorIN8pybind116detail13function_callEEELi1ELb1EEC2B7v160006ENS_18__default_init_tagE, symObjAddr: 0x210F0, symBinAddr: 0x21FA0, symSize: 0x20 }
  - { offsetInCU: 0x6DEA5, offset: 0x6DEA5, size: 0x8, addend: 0x0, symName: __ZNSt3__19allocatorIN8pybind116detail13function_callEEC2B7v160006Ev, symObjAddr: 0x21110, symBinAddr: 0x21FC0, symSize: 0x20 }
  - { offsetInCU: 0x6DECF, offset: 0x6DECF, size: 0x8, addend: 0x0, symName: __ZNSt3__116__non_trivial_ifILb1ENS_9allocatorIN8pybind116detail13function_callEEEEC2B7v160006Ev, symObjAddr: 0x21130, symBinAddr: 0x21FE0, symSize: 0x10 }
  - { offsetInCU: 0x6DEF9, offset: 0x6DEF9, size: 0x8, addend: 0x0, symName: __ZN8pybind116detail13function_callC2ERKNS0_15function_recordENS_6handleE, symObjAddr: 0x21140, symBinAddr: 0x21FF0, symSize: 0xF0 }
  - { offsetInCU: 0x6DF44, offset: 0x6DF44, size: 0x8, addend: 0x0, symName: __ZNSt3__16vectorIN8pybind116handleENS_9allocatorIS2_EEEC1B7v160006Ev, symObjAddr: 0x21230, symBinAddr: 0x220E0, symSize: 0x20 }
  - { offsetInCU: 0x6DF6E, offset: 0x6DF6E, size: 0x8, addend: 0x0, symName: __ZNSt3__16vectorIN8pybind116handleENS_9allocatorIS2_EEE7reserveEm, symObjAddr: 0x21250, symBinAddr: 0x22100, symSize: 0xF0 }
  - { offsetInCU: 0x6DFC9, offset: 0x6DFC9, size: 0x8, addend: 0x0, symName: __ZNSt3__16vectorIbNS_9allocatorIbEEE7reserveEm, symObjAddr: 0x21340, symBinAddr: 0x221F0, symSize: 0x130 }
  - { offsetInCU: 0x6E015, offset: 0x6E015, size: 0x8, addend: 0x0, symName: __ZNSt3__16vectorIN8pybind116handleENS_9allocatorIS2_EEED1B7v160006Ev, symObjAddr: 0x21470, symBinAddr: 0x22320, symSize: 0x20 }
  - { offsetInCU: 0x6E03F, offset: 0x6E03F, size: 0x8, addend: 0x0, symName: __ZNSt3__16vectorIN8pybind116handleENS_9allocatorIS2_EEEC2B7v160006Ev, symObjAddr: 0x21490, symBinAddr: 0x22340, symSize: 0x60 }
  - { offsetInCU: 0x6E069, offset: 0x6E069, size: 0x8, addend: 0x0, symName: __ZNSt3__117__compressed_pairIPN8pybind116handleENS_9allocatorIS2_EEEC1B7v160006IDnNS_18__default_init_tagEEEOT_OT0_, symObjAddr: 0x214F0, symBinAddr: 0x223A0, symSize: 0x30 }
  - { offsetInCU: 0x6E0C1, offset: 0x6E0C1, size: 0x8, addend: 0x0, symName: __ZNSt3__117__compressed_pairIPN8pybind116handleENS_9allocatorIS2_EEEC2B7v160006IDnNS_18__default_init_tagEEEOT_OT0_, symObjAddr: 0x21530, symBinAddr: 0x223E0, symSize: 0x40 }
  - { offsetInCU: 0x6E119, offset: 0x6E119, size: 0x8, addend: 0x0, symName: __ZNSt3__122__compressed_pair_elemIPN8pybind116handleELi0ELb0EEC2B7v160006IDnvEEOT_, symObjAddr: 0x21570, symBinAddr: 0x22420, symSize: 0x20 }
  - { offsetInCU: 0x6E15B, offset: 0x6E15B, size: 0x8, addend: 0x0, symName: __ZNSt3__122__compressed_pair_elemINS_9allocatorIN8pybind116handleEEELi1ELb1EEC2B7v160006ENS_18__default_init_tagE, symObjAddr: 0x21590, symBinAddr: 0x22440, symSize: 0x20 }
  - { offsetInCU: 0x6E190, offset: 0x6E190, size: 0x8, addend: 0x0, symName: __ZNSt3__19allocatorIN8pybind116handleEEC2B7v160006Ev, symObjAddr: 0x215B0, symBinAddr: 0x22460, symSize: 0x20 }
  - { offsetInCU: 0x6E1BA, offset: 0x6E1BA, size: 0x8, addend: 0x0, symName: __ZNSt3__116__non_trivial_ifILb1ENS_9allocatorIN8pybind116handleEEEEC2B7v160006Ev, symObjAddr: 0x215D0, symBinAddr: 0x22480, symSize: 0x10 }
  - { offsetInCU: 0x6E1E4, offset: 0x6E1E4, size: 0x8, addend: 0x0, symName: __ZNKSt3__16vectorIN8pybind116handleENS_9allocatorIS2_EEE8capacityB7v160006Ev, symObjAddr: 0x215E0, symBinAddr: 0x22490, symSize: 0x30 }
  - { offsetInCU: 0x6E20A, offset: 0x6E20A, size: 0x8, addend: 0x0, symName: __ZNKSt3__16vectorIN8pybind116handleENS_9allocatorIS2_EEE8max_sizeEv, symObjAddr: 0x21610, symBinAddr: 0x224C0, symSize: 0x60 }
  - { offsetInCU: 0x6E232, offset: 0x6E232, size: 0x8, addend: 0x0, symName: __ZNKSt3__16vectorIN8pybind116handleENS_9allocatorIS2_EEE20__throw_length_errorB7v160006Ev, symObjAddr: 0x21670, symBinAddr: 0x22520, symSize: 0x20 }
  - { offsetInCU: 0x6E258, offset: 0x6E258, size: 0x8, addend: 0x0, symName: __ZNSt3__16vectorIN8pybind116handleENS_9allocatorIS2_EEE7__allocB7v160006Ev, symObjAddr: 0x21690, symBinAddr: 0x22540, symSize: 0x20 }
  - { offsetInCU: 0x6E27E, offset: 0x6E27E, size: 0x8, addend: 0x0, symName: __ZNSt3__114__split_bufferIN8pybind116handleERNS_9allocatorIS2_EEEC1EmmS5_, symObjAddr: 0x216B0, symBinAddr: 0x22560, symSize: 0x40 }
  - { offsetInCU: 0x6E2D4, offset: 0x6E2D4, size: 0x8, addend: 0x0, symName: __ZNSt3__114__split_bufferIN8pybind116handleERNS_9allocatorIS2_EEED1Ev, symObjAddr: 0x21820, symBinAddr: 0x226D0, symSize: 0x20 }
  - { offsetInCU: 0x6E300, offset: 0x6E300, size: 0x8, addend: 0x0, symName: __ZNKSt3__16vectorIN8pybind116handleENS_9allocatorIS2_EEE9__end_capB7v160006Ev, symObjAddr: 0x21840, symBinAddr: 0x226F0, symSize: 0x20 }
  - { offsetInCU: 0x6E326, offset: 0x6E326, size: 0x8, addend: 0x0, symName: __ZNKSt3__117__compressed_pairIPN8pybind116handleENS_9allocatorIS2_EEE5firstB7v160006Ev, symObjAddr: 0x21860, symBinAddr: 0x22710, symSize: 0x20 }
  - { offsetInCU: 0x6E34C, offset: 0x6E34C, size: 0x8, addend: 0x0, symName: __ZNKSt3__122__compressed_pair_elemIPN8pybind116handleELi0ELb0EE5__getB7v160006Ev, symObjAddr: 0x21880, symBinAddr: 0x22730, symSize: 0x10 }
  - { offsetInCU: 0x6E37D, offset: 0x6E37D, size: 0x8, addend: 0x0, symName: __ZNSt3__116allocator_traitsINS_9allocatorIN8pybind116handleEEEE8max_sizeB7v160006IS4_vvEEmRKS4_, symObjAddr: 0x21890, symBinAddr: 0x22740, symSize: 0x20 }
  - { offsetInCU: 0x6E3A9, offset: 0x6E3A9, size: 0x8, addend: 0x0, symName: __ZNKSt3__16vectorIN8pybind116handleENS_9allocatorIS2_EEE7__allocB7v160006Ev, symObjAddr: 0x218B0, symBinAddr: 0x22760, symSize: 0x20 }
  - { offsetInCU: 0x6E3CF, offset: 0x6E3CF, size: 0x8, addend: 0x0, symName: __ZNKSt3__117__compressed_pairIPN8pybind116handleENS_9allocatorIS2_EEE6secondB7v160006Ev, symObjAddr: 0x218D0, symBinAddr: 0x22780, symSize: 0x20 }
  - { offsetInCU: 0x6E3F5, offset: 0x6E3F5, size: 0x8, addend: 0x0, symName: __ZNKSt3__122__compressed_pair_elemINS_9allocatorIN8pybind116handleEEELi1ELb1EE5__getB7v160006Ev, symObjAddr: 0x218F0, symBinAddr: 0x227A0, symSize: 0x10 }
  - { offsetInCU: 0x6E41B, offset: 0x6E41B, size: 0x8, addend: 0x0, symName: __ZNSt3__117__compressed_pairIPN8pybind116handleENS_9allocatorIS2_EEE6secondB7v160006Ev, symObjAddr: 0x21900, symBinAddr: 0x227B0, symSize: 0x20 }
  - { offsetInCU: 0x6E441, offset: 0x6E441, size: 0x8, addend: 0x0, symName: __ZNSt3__122__compressed_pair_elemINS_9allocatorIN8pybind116handleEEELi1ELb1EE5__getB7v160006Ev, symObjAddr: 0x21920, symBinAddr: 0x227D0, symSize: 0x10 }
  - { offsetInCU: 0x6E467, offset: 0x6E467, size: 0x8, addend: 0x0, symName: __ZNSt3__114__split_bufferIN8pybind116handleERNS_9allocatorIS2_EEEC2EmmS5_, symObjAddr: 0x21930, symBinAddr: 0x227E0, symSize: 0xD0 }
  - { offsetInCU: 0x6E4DA, offset: 0x6E4DA, size: 0x8, addend: 0x0, symName: __ZNSt3__117__compressed_pairIPN8pybind116handleERNS_9allocatorIS2_EEEC1B7v160006IDnS6_EEOT_OT0_, symObjAddr: 0x21A00, symBinAddr: 0x228B0, symSize: 0x30 }
  - { offsetInCU: 0x6E532, offset: 0x6E532, size: 0x8, addend: 0x0, symName: __ZNSt3__114__split_bufferIN8pybind116handleERNS_9allocatorIS2_EEE7__allocB7v160006Ev, symObjAddr: 0x21A70, symBinAddr: 0x22920, symSize: 0x20 }
  - { offsetInCU: 0x6E558, offset: 0x6E558, size: 0x8, addend: 0x0, symName: __ZNSt3__114__split_bufferIN8pybind116handleERNS_9allocatorIS2_EEE9__end_capB7v160006Ev, symObjAddr: 0x21A90, symBinAddr: 0x22940, symSize: 0x20 }
  - { offsetInCU: 0x6E57E, offset: 0x6E57E, size: 0x8, addend: 0x0, symName: __ZNSt3__117__compressed_pairIPN8pybind116handleERNS_9allocatorIS2_EEEC2B7v160006IDnS6_EEOT_OT0_, symObjAddr: 0x21AB0, symBinAddr: 0x22960, symSize: 0x40 }
  - { offsetInCU: 0x6E5D6, offset: 0x6E5D6, size: 0x8, addend: 0x0, symName: __ZNSt3__122__compressed_pair_elemIRNS_9allocatorIN8pybind116handleEEELi1ELb0EEC2B7v160006IS5_vEEOT_, symObjAddr: 0x21AF0, symBinAddr: 0x229A0, symSize: 0x20 }
  - { offsetInCU: 0x6E618, offset: 0x6E618, size: 0x8, addend: 0x0, symName: __ZNSt3__19allocatorIN8pybind116handleEE8allocateB7v160006Em, symObjAddr: 0x21B10, symBinAddr: 0x229C0, symSize: 0x50 }
  - { offsetInCU: 0x6E64C, offset: 0x6E64C, size: 0x8, addend: 0x0, symName: __ZNSt3__117__compressed_pairIPN8pybind116handleERNS_9allocatorIS2_EEE6secondB7v160006Ev, symObjAddr: 0x21B60, symBinAddr: 0x22A10, symSize: 0x20 }
  - { offsetInCU: 0x6E672, offset: 0x6E672, size: 0x8, addend: 0x0, symName: __ZNSt3__122__compressed_pair_elemIRNS_9allocatorIN8pybind116handleEEELi1ELb0EE5__getB7v160006Ev, symObjAddr: 0x21B80, symBinAddr: 0x22A30, symSize: 0x20 }
  - { offsetInCU: 0x6E698, offset: 0x6E698, size: 0x8, addend: 0x0, symName: __ZNSt3__117__compressed_pairIPN8pybind116handleERNS_9allocatorIS2_EEE5firstB7v160006Ev, symObjAddr: 0x21BA0, symBinAddr: 0x22A50, symSize: 0x20 }
  - { offsetInCU: 0x6E6BE, offset: 0x6E6BE, size: 0x8, addend: 0x0, symName: __ZNSt3__122__compressed_pair_elemIPN8pybind116handleELi0ELb0EE5__getB7v160006Ev, symObjAddr: 0x21BC0, symBinAddr: 0x22A70, symSize: 0x10 }
  - { offsetInCU: 0x6E6E4, offset: 0x6E6E4, size: 0x8, addend: 0x0, symName: __ZNKSt3__16vectorIN8pybind116handleENS_9allocatorIS2_EEE17__annotate_deleteB7v160006Ev, symObjAddr: 0x21BD0, symBinAddr: 0x22A80, symSize: 0xB0 }
  - { offsetInCU: 0x6E70A, offset: 0x6E70A, size: 0x8, addend: 0x0, symName: __ZNSt3__116reverse_iteratorIPN8pybind116handleEEC1B7v160006ES3_, symObjAddr: 0x21CF0, symBinAddr: 0x22BA0, symSize: 0x30 }
  - { offsetInCU: 0x6E742, offset: 0x6E742, size: 0x8, addend: 0x0, symName: __ZNKSt3__116reverse_iteratorIPN8pybind116handleEE4baseB7v160006Ev, symObjAddr: 0x21D20, symBinAddr: 0x22BD0, symSize: 0x20 }
  - { offsetInCU: 0x6E768, offset: 0x6E768, size: 0x8, addend: 0x0, symName: __ZNSt3__16vectorIN8pybind116handleENS_9allocatorIS2_EEE9__end_capB7v160006Ev, symObjAddr: 0x21D80, symBinAddr: 0x22C30, symSize: 0x20 }
  - { offsetInCU: 0x6E78E, offset: 0x6E78E, size: 0x8, addend: 0x0, symName: __ZNKSt3__16vectorIN8pybind116handleENS_9allocatorIS2_EEE14__annotate_newB7v160006Em, symObjAddr: 0x21DA0, symBinAddr: 0x22C50, symSize: 0xB0 }
  - { offsetInCU: 0x6E7C3, offset: 0x6E7C3, size: 0x8, addend: 0x0, symName: __ZNKSt3__16vectorIN8pybind116handleENS_9allocatorIS2_EEE31__annotate_contiguous_containerB7v160006EPKvS7_S7_S7_, symObjAddr: 0x21E60, symBinAddr: 0x22D10, symSize: 0x20 }
  - { offsetInCU: 0x6E819, offset: 0x6E819, size: 0x8, addend: 0x0, symName: __ZNKSt3__16vectorIN8pybind116handleENS_9allocatorIS2_EEE4dataB7v160006Ev, symObjAddr: 0x21E80, symBinAddr: 0x22D30, symSize: 0x20 }
  - { offsetInCU: 0x6E85B, offset: 0x6E85B, size: 0x8, addend: 0x0, symName: __ZNKSt3__111__move_loopINS_17_ClassicAlgPolicyEEclB7v160006INS_16reverse_iteratorIPN8pybind116handleEEES8_S8_EENS_4pairIT_T1_EESA_T0_SB_, symObjAddr: 0x222C0, symBinAddr: 0x23170, symSize: 0xA0 }
  - { offsetInCU: 0x6E8C6, offset: 0x6E8C6, size: 0x8, addend: 0x0, symName: __ZNSt3__119__unwrap_range_implINS_16reverse_iteratorIPN8pybind116handleEEES5_E8__unwrapB7v160006ES5_S5_, symObjAddr: 0x224A0, symBinAddr: 0x23350, symSize: 0x90 }
  - { offsetInCU: 0x6E8FD, offset: 0x6E8FD, size: 0x8, addend: 0x0, symName: __ZNSt3__14pairINS_16reverse_iteratorIPN8pybind116handleEEES5_EC1B7v160006IS5_S5_LPv0EEEOT_OT0_, symObjAddr: 0x22530, symBinAddr: 0x233E0, symSize: 0x30 }
  - { offsetInCU: 0x6E95B, offset: 0x6E95B, size: 0x8, addend: 0x0, symName: __ZNSt3__14pairINS_16reverse_iteratorIPN8pybind116handleEEES5_EC2B7v160006IS5_S5_LPv0EEEOT_OT0_, symObjAddr: 0x22560, symBinAddr: 0x23410, symSize: 0x40 }
  - { offsetInCU: 0x6E9B9, offset: 0x6E9B9, size: 0x8, addend: 0x0, symName: __ZNSt3__18_IterOpsINS_17_ClassicAlgPolicyEE11__iter_moveB7v160006IRNS_16reverse_iteratorIPN8pybind116handleEEEEENS_9enable_ifIXsr12is_referenceIDTdeclsr3stdE7declvalIRT_EEEEE5valueEDTclsr3stdE4movedeclsr3stdE7declvalISC_EEEEE4typeEOSB_, symObjAddr: 0x225E0, symBinAddr: 0x23490, symSize: 0x20 }
  - { offsetInCU: 0x6E9E5, offset: 0x6E9E5, size: 0x8, addend: 0x0, symName: __ZNKSt3__116reverse_iteratorIPN8pybind116handleEEdeB7v160006Ev, symObjAddr: 0x22600, symBinAddr: 0x234B0, symSize: 0x30 }
  - { offsetInCU: 0x6EA19, offset: 0x6EA19, size: 0x8, addend: 0x0, symName: __ZNSt3__116reverse_iteratorIPN8pybind116handleEEppB7v160006Ev, symObjAddr: 0x22630, symBinAddr: 0x234E0, symSize: 0x20 }
  - { offsetInCU: 0x6EA3F, offset: 0x6EA3F, size: 0x8, addend: 0x0, symName: __ZNSt3__18_IterOpsINS_17_ClassicAlgPolicyEE25__validate_iter_referenceB7v160006IRNS_16reverse_iteratorIPN8pybind116handleEEEEEvv, symObjAddr: 0x22650, symBinAddr: 0x23500, symSize: 0x10 }
  - { offsetInCU: 0x6EA5D, offset: 0x6EA5D, size: 0x8, addend: 0x0, symName: __ZNSt3__118__unwrap_iter_implINS_16reverse_iteratorIPN8pybind116handleEEELb0EE8__unwrapB7v160006ES5_, symObjAddr: 0x22660, symBinAddr: 0x23510, symSize: 0x20 }
  - { offsetInCU: 0x6EA80, offset: 0x6EA80, size: 0x8, addend: 0x0, symName: __ZNSt3__119__unwrap_range_implINS_16reverse_iteratorIPN8pybind116handleEEES5_E8__rewrapB7v160006ES5_S5_, symObjAddr: 0x22680, symBinAddr: 0x23530, symSize: 0x60 }
  - { offsetInCU: 0x6EAB1, offset: 0x6EAB1, size: 0x8, addend: 0x0, symName: __ZNSt3__118__unwrap_iter_implINS_16reverse_iteratorIPN8pybind116handleEEELb0EE8__rewrapB7v160006ES5_S5_, symObjAddr: 0x226E0, symBinAddr: 0x23590, symSize: 0x30 }
  - { offsetInCU: 0x6EADF, offset: 0x6EADF, size: 0x8, addend: 0x0, symName: __ZNSt3__116reverse_iteratorIPN8pybind116handleEEC2B7v160006ES3_, symObjAddr: 0x22710, symBinAddr: 0x235C0, symSize: 0x30 }
  - { offsetInCU: 0x6EB17, offset: 0x6EB17, size: 0x8, addend: 0x0, symName: __ZNSt3__117__compressed_pairIPN8pybind116handleENS_9allocatorIS2_EEE5firstB7v160006Ev, symObjAddr: 0x22740, symBinAddr: 0x235F0, symSize: 0x20 }
  - { offsetInCU: 0x6EB3D, offset: 0x6EB3D, size: 0x8, addend: 0x0, symName: __ZNSt3__114__split_bufferIN8pybind116handleERNS_9allocatorIS2_EEED2Ev, symObjAddr: 0x22760, symBinAddr: 0x23610, symSize: 0x70 }
  - { offsetInCU: 0x6EB69, offset: 0x6EB69, size: 0x8, addend: 0x0, symName: __ZNSt3__114__split_bufferIN8pybind116handleERNS_9allocatorIS2_EEE5clearB7v160006Ev, symObjAddr: 0x227D0, symBinAddr: 0x23680, symSize: 0x20 }
  - { offsetInCU: 0x6EB8F, offset: 0x6EB8F, size: 0x8, addend: 0x0, symName: __ZNSt3__116allocator_traitsINS_9allocatorIN8pybind116handleEEEE10deallocateB7v160006ERS4_PS3_m, symObjAddr: 0x227F0, symBinAddr: 0x236A0, symSize: 0x30 }
  - { offsetInCU: 0x6EBD1, offset: 0x6EBD1, size: 0x8, addend: 0x0, symName: __ZNKSt3__114__split_bufferIN8pybind116handleERNS_9allocatorIS2_EEE8capacityB7v160006Ev, symObjAddr: 0x22820, symBinAddr: 0x236D0, symSize: 0x30 }
  - { offsetInCU: 0x6EBF7, offset: 0x6EBF7, size: 0x8, addend: 0x0, symName: __ZNSt3__114__split_bufferIN8pybind116handleERNS_9allocatorIS2_EEE17__destruct_at_endB7v160006EPS2_, symObjAddr: 0x22850, symBinAddr: 0x23700, symSize: 0x30 }
  - { offsetInCU: 0x6EC2B, offset: 0x6EC2B, size: 0x8, addend: 0x0, symName: __ZNSt3__114__split_bufferIN8pybind116handleERNS_9allocatorIS2_EEE17__destruct_at_endB7v160006EPS2_NS_17integral_constantIbLb0EEE, symObjAddr: 0x22880, symBinAddr: 0x23730, symSize: 0x80 }
  - { offsetInCU: 0x6EC6C, offset: 0x6EC6C, size: 0x8, addend: 0x0, symName: __ZNSt3__116allocator_traitsINS_9allocatorIN8pybind116handleEEEE7destroyB7v160006IS3_vvEEvRS4_PT_, symObjAddr: 0x22900, symBinAddr: 0x237B0, symSize: 0x20 }
  - { offsetInCU: 0x6ECA7, offset: 0x6ECA7, size: 0x8, addend: 0x0, symName: __ZNSt3__19allocatorIN8pybind116handleEE10deallocateB7v160006EPS2_m, symObjAddr: 0x22950, symBinAddr: 0x23800, symSize: 0x40 }
  - { offsetInCU: 0x6ECE9, offset: 0x6ECE9, size: 0x8, addend: 0x0, symName: __ZNKSt3__114__split_bufferIN8pybind116handleERNS_9allocatorIS2_EEE9__end_capB7v160006Ev, symObjAddr: 0x22990, symBinAddr: 0x23840, symSize: 0x20 }
  - { offsetInCU: 0x6ED0F, offset: 0x6ED0F, size: 0x8, addend: 0x0, symName: __ZNKSt3__117__compressed_pairIPN8pybind116handleERNS_9allocatorIS2_EEE5firstB7v160006Ev, symObjAddr: 0x229B0, symBinAddr: 0x23860, symSize: 0x20 }
  - { offsetInCU: 0x6ED35, offset: 0x6ED35, size: 0x8, addend: 0x0, symName: __ZNKSt3__16vectorIbNS_9allocatorIbEEE8capacityB7v160006Ev, symObjAddr: 0x229D0, symBinAddr: 0x23880, symSize: 0x30 }
  - { offsetInCU: 0x6ED5B, offset: 0x6ED5B, size: 0x8, addend: 0x0, symName: __ZNKSt3__16vectorIbNS_9allocatorIbEEE8max_sizeEv, symObjAddr: 0x22A00, symBinAddr: 0x238B0, symSize: 0x70 }
  - { offsetInCU: 0x6EDA1, offset: 0x6EDA1, size: 0x8, addend: 0x0, symName: __ZNKSt3__16vectorIbNS_9allocatorIbEEE20__throw_length_errorB7v160006Ev, symObjAddr: 0x22A70, symBinAddr: 0x23920, symSize: 0x20 }
  - { offsetInCU: 0x6EDC7, offset: 0x6EDC7, size: 0x8, addend: 0x0, symName: __ZNKSt3__16vectorIbNS_9allocatorIbEEE13get_allocatorB7v160006Ev, symObjAddr: 0x22A90, symBinAddr: 0x23940, symSize: 0x30 }
  - { offsetInCU: 0x6EDED, offset: 0x6EDED, size: 0x8, addend: 0x0, symName: __ZNSt3__16vectorIbNS_9allocatorIbEEEC1B7v160006ERKS2_, symObjAddr: 0x22AC0, symBinAddr: 0x23970, symSize: 0x30 }
  - { offsetInCU: 0x6EE28, offset: 0x6EE28, size: 0x8, addend: 0x0, symName: __ZNSt3__16vectorIbNS_9allocatorIbEEE11__vallocateB7v160006Em, symObjAddr: 0x22AF0, symBinAddr: 0x239A0, symSize: 0xA0 }
  - { offsetInCU: 0x6EE6C, offset: 0x6EE6C, size: 0x8, addend: 0x0, symName: __ZNSt3__16vectorIbNS_9allocatorIbEEE18__construct_at_endINS_14__bit_iteratorIS3_Lb0ELm0EEEEENS_9enable_ifIXsr27__is_cpp17_forward_iteratorIT_EE5valueEvE4typeES8_S8_, symObjAddr: 0x22B90, symBinAddr: 0x23A40, symSize: 0x140 }
  - { offsetInCU: 0x6EECC, offset: 0x6EECC, size: 0x8, addend: 0x0, symName: __ZNSt3__16vectorIbNS_9allocatorIbEEE5beginB7v160006Ev, symObjAddr: 0x22CD0, symBinAddr: 0x23B80, symSize: 0x30 }
  - { offsetInCU: 0x6EEF2, offset: 0x6EEF2, size: 0x8, addend: 0x0, symName: __ZNSt3__16vectorIbNS_9allocatorIbEEE3endB7v160006Ev, symObjAddr: 0x22D00, symBinAddr: 0x23BB0, symSize: 0x30 }
  - { offsetInCU: 0x6EF18, offset: 0x6EF18, size: 0x8, addend: 0x0, symName: __ZNSt3__16vectorIbNS_9allocatorIbEEE26__internal_cap_to_externalB7v160006Em, symObjAddr: 0x22D40, symBinAddr: 0x23BF0, symSize: 0x20 }
  - { offsetInCU: 0x6EF3C, offset: 0x6EF3C, size: 0x8, addend: 0x0, symName: __ZNKSt3__16vectorIbNS_9allocatorIbEEE5__capB7v160006Ev, symObjAddr: 0x22D60, symBinAddr: 0x23C10, symSize: 0x20 }
  - { offsetInCU: 0x6EF62, offset: 0x6EF62, size: 0x8, addend: 0x0, symName: __ZNKSt3__117__compressed_pairImNS_9allocatorImEEE5firstB7v160006Ev, symObjAddr: 0x22D80, symBinAddr: 0x23C30, symSize: 0x20 }
  - { offsetInCU: 0x6EF93, offset: 0x6EF93, size: 0x8, addend: 0x0, symName: __ZNSt3__116allocator_traitsINS_9allocatorImEEE8max_sizeB7v160006IS2_vvEEmRKS2_, symObjAddr: 0x22DA0, symBinAddr: 0x23C50, symSize: 0x20 }
  - { offsetInCU: 0x6EFBF, offset: 0x6EFBF, size: 0x8, addend: 0x0, symName: __ZNKSt3__16vectorIbNS_9allocatorIbEEE7__allocB7v160006Ev, symObjAddr: 0x22DC0, symBinAddr: 0x23C70, symSize: 0x20 }
  - { offsetInCU: 0x6EFE5, offset: 0x6EFE5, size: 0x8, addend: 0x0, symName: __ZNKSt3__117__compressed_pairImNS_9allocatorImEEE6secondB7v160006Ev, symObjAddr: 0x22DE0, symBinAddr: 0x23C90, symSize: 0x20 }
  - { offsetInCU: 0x6F00B, offset: 0x6F00B, size: 0x8, addend: 0x0, symName: __ZNKSt3__122__compressed_pair_elemINS_9allocatorImEELi1ELb1EE5__getB7v160006Ev, symObjAddr: 0x22E00, symBinAddr: 0x23CB0, symSize: 0x10 }
  - { offsetInCU: 0x6F031, offset: 0x6F031, size: 0x8, addend: 0x0, symName: __ZNSt3__19allocatorIbEC1B7v160006ImEERKNS0_IT_EE, symObjAddr: 0x22E10, symBinAddr: 0x23CC0, symSize: 0x30 }
  - { offsetInCU: 0x6F06F, offset: 0x6F06F, size: 0x8, addend: 0x0, symName: __ZNSt3__19allocatorIbEC2B7v160006ImEERKNS0_IT_EE, symObjAddr: 0x22E40, symBinAddr: 0x23CF0, symSize: 0x20 }
  - { offsetInCU: 0x6F0AD, offset: 0x6F0AD, size: 0x8, addend: 0x0, symName: __ZNSt3__116__non_trivial_ifILb1ENS_9allocatorIbEEEC2B7v160006Ev, symObjAddr: 0x22E60, symBinAddr: 0x23D10, symSize: 0x10 }
  - { offsetInCU: 0x6F0D7, offset: 0x6F0D7, size: 0x8, addend: 0x0, symName: __ZNSt3__16vectorIbNS_9allocatorIbEEEC2B7v160006ERKS2_, symObjAddr: 0x22E70, symBinAddr: 0x23D20, symSize: 0x70 }
  - { offsetInCU: 0x6F11D, offset: 0x6F11D, size: 0x8, addend: 0x0, symName: __ZNSt3__19allocatorImEC1B7v160006IbEERKNS0_IT_EE, symObjAddr: 0x22EE0, symBinAddr: 0x23D90, symSize: 0x30 }
  - { offsetInCU: 0x6F161, offset: 0x6F161, size: 0x8, addend: 0x0, symName: __ZNSt3__117__compressed_pairImNS_9allocatorImEEEC1B7v160006IiS2_EEOT_OT0_, symObjAddr: 0x22F10, symBinAddr: 0x23DC0, symSize: 0x30 }
  - { offsetInCU: 0x6F1B9, offset: 0x6F1B9, size: 0x8, addend: 0x0, symName: __ZNSt3__19allocatorImEC2B7v160006IbEERKNS0_IT_EE, symObjAddr: 0x22F40, symBinAddr: 0x23DF0, symSize: 0x20 }
  - { offsetInCU: 0x6F1F7, offset: 0x6F1F7, size: 0x8, addend: 0x0, symName: __ZNSt3__116__non_trivial_ifILb1ENS_9allocatorImEEEC2B7v160006Ev, symObjAddr: 0x22F60, symBinAddr: 0x23E10, symSize: 0x10 }
  - { offsetInCU: 0x6F221, offset: 0x6F221, size: 0x8, addend: 0x0, symName: __ZNSt3__117__compressed_pairImNS_9allocatorImEEEC2B7v160006IiS2_EEOT_OT0_, symObjAddr: 0x22F70, symBinAddr: 0x23E20, symSize: 0x40 }
  - { offsetInCU: 0x6F279, offset: 0x6F279, size: 0x8, addend: 0x0, symName: __ZNSt3__122__compressed_pair_elemINS_9allocatorImEELi1ELb1EEC2B7v160006IS2_vEEOT_, symObjAddr: 0x22FB0, symBinAddr: 0x23E60, symSize: 0x10 }
  - { offsetInCU: 0x6F2BB, offset: 0x6F2BB, size: 0x8, addend: 0x0, symName: __ZNSt3__16vectorIbNS_9allocatorIbEEE7__allocB7v160006Ev, symObjAddr: 0x23000, symBinAddr: 0x23EB0, symSize: 0x20 }
  - { offsetInCU: 0x6F2E1, offset: 0x6F2E1, size: 0x8, addend: 0x0, symName: __ZNSt3__16vectorIbNS_9allocatorIbEEE26__external_cap_to_internalB7v160006Em, symObjAddr: 0x23020, symBinAddr: 0x23ED0, symSize: 0x20 }
  - { offsetInCU: 0x6F305, offset: 0x6F305, size: 0x8, addend: 0x0, symName: __ZNSt3__16vectorIbNS_9allocatorIbEEE5__capB7v160006Ev, symObjAddr: 0x23040, symBinAddr: 0x23EF0, symSize: 0x20 }
  - { offsetInCU: 0x6F32B, offset: 0x6F32B, size: 0x8, addend: 0x0, symName: __ZNSt3__19allocatorImE8allocateB7v160006Em, symObjAddr: 0x23060, symBinAddr: 0x23F10, symSize: 0x50 }
  - { offsetInCU: 0x6F35F, offset: 0x6F35F, size: 0x8, addend: 0x0, symName: __ZNSt3__117__compressed_pairImNS_9allocatorImEEE6secondB7v160006Ev, symObjAddr: 0x230B0, symBinAddr: 0x23F60, symSize: 0x20 }
  - { offsetInCU: 0x6F385, offset: 0x6F385, size: 0x8, addend: 0x0, symName: __ZNSt3__122__compressed_pair_elemINS_9allocatorImEELi1ELb1EE5__getB7v160006Ev, symObjAddr: 0x230D0, symBinAddr: 0x23F80, symSize: 0x10 }
  - { offsetInCU: 0x6F3AB, offset: 0x6F3AB, size: 0x8, addend: 0x0, symName: __ZNSt3__117__compressed_pairImNS_9allocatorImEEE5firstB7v160006Ev, symObjAddr: 0x230E0, symBinAddr: 0x23F90, symSize: 0x20 }
  - { offsetInCU: 0x6F3D1, offset: 0x6F3D1, size: 0x8, addend: 0x0, symName: __ZNSt3__114__bit_iteratorINS_6vectorIbNS_9allocatorIbEEEELb0ELm0EEC1B7v160006ERKS5_, symObjAddr: 0x23150, symBinAddr: 0x24000, symSize: 0x30 }
  - { offsetInCU: 0x6F40A, offset: 0x6F40A, size: 0x8, addend: 0x0, symName: __ZNSt3__16vectorIbNS_9allocatorIbEEE11__make_iterB7v160006Em, symObjAddr: 0x23280, symBinAddr: 0x24130, symSize: 0x50 }
  - { offsetInCU: 0x6F43F, offset: 0x6F43F, size: 0x8, addend: 0x0, symName: __ZNSt3__114__bit_iteratorINS_6vectorIbNS_9allocatorIbEEEELb0ELm0EEC2B7v160006ERKS5_, symObjAddr: 0x23340, symBinAddr: 0x241F0, symSize: 0x30 }
  - { offsetInCU: 0x6F482, offset: 0x6F482, size: 0x8, addend: 0x0, symName: __ZNKSt3__16__lessIllEclB7v160006ERKlS3_, symObjAddr: 0x23BC0, symBinAddr: 0x24A70, symSize: 0x30 }
  - { offsetInCU: 0x6F4E0, offset: 0x6F4E0, size: 0x8, addend: 0x0, symName: __ZNKSt3__114__copy_trivialclB7v160006ImmLi0EEENS_4pairIPT_PT0_EES4_S4_S6_, symObjAddr: 0x23DA0, symBinAddr: 0x24C50, symSize: 0x40 }
  - { offsetInCU: 0x6F548, offset: 0x6F548, size: 0x8, addend: 0x0, symName: __ZNSt3__119__unwrap_range_implIPmS1_E8__unwrapB7v160006ES1_S1_, symObjAddr: 0x23EA0, symBinAddr: 0x24D50, symSize: 0x50 }
  - { offsetInCU: 0x6F57F, offset: 0x6F57F, size: 0x8, addend: 0x0, symName: __ZNSt3__14pairIPmS1_EC1B7v160006IS1_S1_LPv0EEEOT_OT0_, symObjAddr: 0x23EF0, symBinAddr: 0x24DA0, symSize: 0x30 }
  - { offsetInCU: 0x6F5DD, offset: 0x6F5DD, size: 0x8, addend: 0x0, symName: __ZNSt3__14pairIPmS1_EC2B7v160006IS1_S1_LPv0EEEOT_OT0_, symObjAddr: 0x23F20, symBinAddr: 0x24DD0, symSize: 0x30 }
  - { offsetInCU: 0x6F641, offset: 0x6F641, size: 0x8, addend: 0x0, symName: __ZNSt3__14pairIPmS1_EC1B7v160006IRS1_S1_LPv0EEEOT_OT0_, symObjAddr: 0x23FF0, symBinAddr: 0x24EA0, symSize: 0x30 }
  - { offsetInCU: 0x6F69F, offset: 0x6F69F, size: 0x8, addend: 0x0, symName: __ZNSt3__14pairIPmS1_EC2B7v160006IRS1_S1_LPv0EEEOT_OT0_, symObjAddr: 0x24020, symBinAddr: 0x24ED0, symSize: 0x30 }
  - { offsetInCU: 0x6F6FD, offset: 0x6F6FD, size: 0x8, addend: 0x0, symName: __ZNSt3__118__unwrap_iter_implIPmLb1EE8__unwrapB7v160006ES1_, symObjAddr: 0x24050, symBinAddr: 0x24F00, symSize: 0x20 }
  - { offsetInCU: 0x6F720, offset: 0x6F720, size: 0x8, addend: 0x0, symName: __ZNSt3__119__unwrap_range_implIPmS1_E8__rewrapB7v160006ES1_S1_, symObjAddr: 0x24070, symBinAddr: 0x24F20, symSize: 0x30 }
  - { offsetInCU: 0x6F751, offset: 0x6F751, size: 0x8, addend: 0x0, symName: __ZNSt3__118__unwrap_iter_implIPmLb1EE8__rewrapB7v160006ES1_S1_, symObjAddr: 0x240A0, symBinAddr: 0x24F50, symSize: 0x50 }
  - { offsetInCU: 0x6F782, offset: 0x6F782, size: 0x8, addend: 0x0, symName: __ZNSt3__114__bit_iteratorINS_6vectorIbNS_9allocatorIbEEEELb0ELm0EEC1B7v160006EPmj, symObjAddr: 0x240F0, symBinAddr: 0x24FA0, symSize: 0x30 }
  - { offsetInCU: 0x6F7CA, offset: 0x6F7CA, size: 0x8, addend: 0x0, symName: __ZNSt3__114__bit_iteratorINS_6vectorIbNS_9allocatorIbEEEELb0ELm0EEC2B7v160006EPmj, symObjAddr: 0x24120, symBinAddr: 0x24FD0, symSize: 0x30 }
  - { offsetInCU: 0x6F812, offset: 0x6F812, size: 0x8, addend: 0x0, symName: __ZNSt3__16vectorIN8pybind116handleENS_9allocatorIS2_EEED2B7v160006Ev, symObjAddr: 0x24150, symBinAddr: 0x25000, symSize: 0x40 }
  - { offsetInCU: 0x6F83C, offset: 0x6F83C, size: 0x8, addend: 0x0, symName: __ZNSt3__16vectorIN8pybind116handleENS_9allocatorIS2_EEE16__destroy_vectorC1ERS5_, symObjAddr: 0x24190, symBinAddr: 0x25040, symSize: 0x30 }
  - { offsetInCU: 0x6F875, offset: 0x6F875, size: 0x8, addend: 0x0, symName: __ZNSt3__16vectorIN8pybind116handleENS_9allocatorIS2_EEE16__destroy_vectorclB7v160006Ev, symObjAddr: 0x241C0, symBinAddr: 0x25070, symSize: 0x90 }
  - { offsetInCU: 0x6F89B, offset: 0x6F89B, size: 0x8, addend: 0x0, symName: __ZNSt3__16vectorIN8pybind116handleENS_9allocatorIS2_EEE16__destroy_vectorC2ERS5_, symObjAddr: 0x24250, symBinAddr: 0x25100, symSize: 0x20 }
  - { offsetInCU: 0x6F8D4, offset: 0x6F8D4, size: 0x8, addend: 0x0, symName: __ZNSt3__16vectorIN8pybind116handleENS_9allocatorIS2_EEE7__clearB7v160006Ev, symObjAddr: 0x24280, symBinAddr: 0x25130, symSize: 0x20 }
  - { offsetInCU: 0x6F8FA, offset: 0x6F8FA, size: 0x8, addend: 0x0, symName: __ZNSt3__16vectorIN8pybind116handleENS_9allocatorIS2_EEE22__base_destruct_at_endB7v160006EPS2_, symObjAddr: 0x242A0, symBinAddr: 0x25150, symSize: 0x80 }
  - { offsetInCU: 0x6F93E, offset: 0x6F93E, size: 0x8, addend: 0x0, symName: __ZNK8pybind116detail16value_and_holder9value_ptrIvEERPT_v, symObjAddr: 0x24320, symBinAddr: 0x251D0, symSize: 0x20 }
  - { offsetInCU: 0x6F969, offset: 0x6F969, size: 0x8, addend: 0x0, symName: __ZNSt3__16vectorIN8pybind116handleENS_9allocatorIS2_EEE22__construct_one_at_endB7v160006IJP7_objectEEEvDpOT_, symObjAddr: 0x24340, symBinAddr: 0x251F0, symSize: 0x90 }
  - { offsetInCU: 0x6F9B8, offset: 0x6F9B8, size: 0x8, addend: 0x0, symName: __ZNSt3__16vectorIN8pybind116handleENS_9allocatorIS2_EEE24__emplace_back_slow_pathIJP7_objectEEEvDpOT_, symObjAddr: 0x243D0, symBinAddr: 0x25280, symSize: 0xD0 }
  - { offsetInCU: 0x6FA18, offset: 0x6FA18, size: 0x8, addend: 0x0, symName: __ZNSt3__16vectorIN8pybind116handleENS_9allocatorIS2_EEE4backB7v160006Ev, symObjAddr: 0x244A0, symBinAddr: 0x25350, symSize: 0x20 }
  - { offsetInCU: 0x6FA59, offset: 0x6FA59, size: 0x8, addend: 0x0, symName: __ZNSt3__16vectorIN8pybind116handleENS_9allocatorIS2_EEE21_ConstructTransactionC1B7v160006ERS5_m, symObjAddr: 0x244C0, symBinAddr: 0x25370, symSize: 0x30 }
  - { offsetInCU: 0x6FAA1, offset: 0x6FAA1, size: 0x8, addend: 0x0, symName: __ZNSt3__116allocator_traitsINS_9allocatorIN8pybind116handleEEEE9constructB7v160006IS3_JP7_objectEvvEEvRS4_PT_DpOT0_, symObjAddr: 0x244F0, symBinAddr: 0x253A0, symSize: 0x30 }
  - { offsetInCU: 0x6FAF6, offset: 0x6FAF6, size: 0x8, addend: 0x0, symName: __ZNSt3__16vectorIN8pybind116handleENS_9allocatorIS2_EEE21_ConstructTransactionD1B7v160006Ev, symObjAddr: 0x24520, symBinAddr: 0x253D0, symSize: 0x20 }
