---
triple:          'x86_64-apple-darwin'
binary-path:     mygameengine.so
relocations:
  - { offsetInCU: 0x5F3D, offset: 0x5F3D, size: 0x8, addend: 0x0, symName: __ZNSt3__17advanceB7v160006IPNS_10unique_ptrI15EnemyGameEntityNS_14default_deleteIS2_EEEEllvEEvRT_T0_, symObjAddr: 0x2D70, symBinAddr: 0x3800, symSize: 0x50 }
  - { offsetInCU: 0x61BD, offset: 0x61BD, size: 0x8, addend: 0x0, symName: __ZNSt3__17advanceB7v160006INS_16reverse_iteratorIPNS_10unique_ptrI15EnemyGameEntityNS_14default_deleteIS3_EEEEEEllvEEvRT_T0_, symObjAddr: 0x3170, symBinAddr: 0x3C00, symSize: 0x50 }
  - { offsetInCU: 0x7AF7, offset: 0x7AF7, size: 0x8, addend: 0x0, symName: __ZNSt3__111make_sharedB7v160006I15SpriteComponentJEvEENS_10shared_ptrIT_EEDpOT0_, symObjAddr: 0x600, symBinAddr: 0x1090, symSize: 0x40 }
  - { offsetInCU: 0x7D41, offset: 0x7D41, size: 0x8, addend: 0x0, symName: __ZNSt3__111make_uniqueB7v160006I15EnemyGameEntityJRP12SDL_RendererEEENS_11__unique_ifIT_E15__unique_singleEDpOT0_, symObjAddr: 0x690, symBinAddr: 0x1120, symSize: 0x80 }
  - { offsetInCU: 0x7D83, offset: 0x7D83, size: 0x8, addend: 0x0, symName: __ZNSt3__111make_uniqueB7v160006I16PlayerGameEntityJRP12SDL_RendererEEENS_11__unique_ifIT_E15__unique_singleEDpOT0_, symObjAddr: 0x820, symBinAddr: 0x12B0, symSize: 0x80 }
  - { offsetInCU: 0x7DC5, offset: 0x7DC5, size: 0x8, addend: 0x0, symName: __ZNSt3__119__debug_db_insert_cB7v160006INS_6vectorINS_10unique_ptrI15EnemyGameEntityNS_14default_deleteIS3_EEEENS_9allocatorIS6_EEEEEEvPT_, symObjAddr: 0x1160, symBinAddr: 0x1BF0, symSize: 0x10 }
  - { offsetInCU: 0x7DF6, offset: 0x7DF6, size: 0x8, addend: 0x0, symName: __ZNSt3__118__debug_db_erase_cB7v160006INS_6vectorINS_10unique_ptrI15EnemyGameEntityNS_14default_deleteIS3_EEEENS_9allocatorIS6_EEEEEEvPT_, symObjAddr: 0x14B0, symBinAddr: 0x1F40, symSize: 0x10 }
  - { offsetInCU: 0x7E27, offset: 0x7E27, size: 0x8, addend: 0x0, symName: __ZNSt3__112__to_addressB7v160006INS_10unique_ptrI15EnemyGameEntityNS_14default_deleteIS2_EEEEEEPT_S7_, symObjAddr: 0x15A0, symBinAddr: 0x2030, symSize: 0x10 }
  - { offsetInCU: 0x7E5C, offset: 0x7E5C, size: 0x8, addend: 0x0, symName: __ZNSt3__110destroy_atB7v160006INS_10unique_ptrI15EnemyGameEntityNS_14default_deleteIS2_EEEELi0EEEvPT_, symObjAddr: 0x1650, symBinAddr: 0x20E0, symSize: 0x20 }
  - { offsetInCU: 0x7E93, offset: 0x7E93, size: 0x8, addend: 0x0, symName: __ZNSt3__112__destroy_atB7v160006INS_10unique_ptrI15EnemyGameEntityNS_14default_deleteIS2_EEEELi0EEEvPT_, symObjAddr: 0x1670, symBinAddr: 0x2100, symSize: 0x20 }
  - { offsetInCU: 0x7ECA, offset: 0x7ECA, size: 0x8, addend: 0x0, symName: __ZNSt3__119__libcpp_deallocateB7v160006EPvmm, symObjAddr: 0x16D0, symBinAddr: 0x2160, symSize: 0x60 }
  - { offsetInCU: 0x7F2F, offset: 0x7F2F, size: 0x8, addend: 0x0, symName: __ZNSt3__124__is_overaligned_for_newB7v160006Em, symObjAddr: 0x1730, symBinAddr: 0x21C0, symSize: 0x20 }
  - { offsetInCU: 0x7F5D, offset: 0x7F5D, size: 0x8, addend: 0x0, symName: __ZNSt3__127__do_deallocate_handle_sizeB7v160006IJSt11align_val_tEEEvPvmDpT_, symObjAddr: 0x1750, symBinAddr: 0x21E0, symSize: 0x30 }
  - { offsetInCU: 0x7FB0, offset: 0x7FB0, size: 0x8, addend: 0x0, symName: __ZNSt3__127__do_deallocate_handle_sizeB7v160006IJEEEvPvmDpT_, symObjAddr: 0x1780, symBinAddr: 0x2210, symSize: 0x20 }
  - { offsetInCU: 0x7FEE, offset: 0x7FEE, size: 0x8, addend: 0x0, symName: __ZNSt3__124__libcpp_operator_deleteB7v160006IJPvSt11align_val_tEEEvDpT_, symObjAddr: 0x17A0, symBinAddr: 0x2230, symSize: 0x30 }
  - { offsetInCU: 0x8037, offset: 0x8037, size: 0x8, addend: 0x0, symName: __ZNSt3__124__libcpp_operator_deleteB7v160006IJPvEEEvDpT_, symObjAddr: 0x17D0, symBinAddr: 0x2260, symSize: 0x20 }
  - { offsetInCU: 0x806C, offset: 0x806C, size: 0x8, addend: 0x0, symName: __ZNSt3__119__debug_db_insert_cB7v160006INS_12basic_stringIcNS_11char_traitsIcEENS_9allocatorIcEEEEEEvPT_, symObjAddr: 0x1930, symBinAddr: 0x23C0, symSize: 0x10 }
  - { offsetInCU: 0x809D, offset: 0x809D, size: 0x8, addend: 0x0, symName: __ZNSt3__118__constexpr_strlenB7v160006EPKc, symObjAddr: 0x19D0, symBinAddr: 0x2460, symSize: 0x20 }
  - { offsetInCU: 0x80EE, offset: 0x80EE, size: 0x8, addend: 0x0, symName: __ZNSt3__112construct_atB7v160006INS_10unique_ptrI15EnemyGameEntityNS_14default_deleteIS2_EEEEJS5_EPS5_EEPT_S8_DpOT0_, symObjAddr: 0x1C60, symBinAddr: 0x26F0, symSize: 0x40 }
  - { offsetInCU: 0x815E, offset: 0x815E, size: 0x8, addend: 0x0, symName: __ZNSt3__13maxB7v160006ImEERKT_S3_S3_, symObjAddr: 0x2160, symBinAddr: 0x2BF0, symSize: 0x30 }
  - { offsetInCU: 0x81A1, offset: 0x81A1, size: 0x8, addend: 0x0, symName: __ZNSt3__13minB7v160006ImEERKT_S3_S3_, symObjAddr: 0x2190, symBinAddr: 0x2C20, symSize: 0x30 }
  - { offsetInCU: 0x83CE, offset: 0x83CE, size: 0x8, addend: 0x0, symName: __ZNSt3__13minB7v160006ImNS_6__lessImmEEEERKT_S5_S5_T0_, symObjAddr: 0x2210, symBinAddr: 0x2CA0, symSize: 0x50 }
  - { offsetInCU: 0x864F, offset: 0x864F, size: 0x8, addend: 0x0, symName: __ZNSt3__120__throw_length_errorB7v160006EPKc, symObjAddr: 0x22F0, symBinAddr: 0x2D80, symSize: 0x70 }
  - { offsetInCU: 0x8677, offset: 0x8677, size: 0x8, addend: 0x0, symName: __ZNSt3__13maxB7v160006ImNS_6__lessImmEEEERKT_S5_S5_T0_, symObjAddr: 0x23D0, symBinAddr: 0x2E60, symSize: 0x50 }
  - { offsetInCU: 0x86D1, offset: 0x86D1, size: 0x8, addend: 0x0, symName: __ZNSt3__119__allocate_at_leastB7v160006INS_9allocatorINS_10unique_ptrI15EnemyGameEntityNS_14default_deleteIS3_EEEEEEEENS_19__allocation_resultINS_16allocator_traitsIT_E7pointerEEERSA_m, symObjAddr: 0x2520, symBinAddr: 0x2FB0, symSize: 0x40 }
  - { offsetInCU: 0x8714, offset: 0x8714, size: 0x8, addend: 0x0, symName: __ZNSt3__117__libcpp_allocateB7v160006Emm, symObjAddr: 0x2690, symBinAddr: 0x3120, symSize: 0x60 }
  - { offsetInCU: 0x876E, offset: 0x876E, size: 0x8, addend: 0x0, symName: __ZNSt3__121__libcpp_operator_newB7v160006IJmSt11align_val_tEEEPvDpT_, symObjAddr: 0x26F0, symBinAddr: 0x3180, symSize: 0x30 }
  - { offsetInCU: 0x87BB, offset: 0x87BB, size: 0x8, addend: 0x0, symName: __ZNSt3__121__libcpp_operator_newB7v160006IJmEEEPvDpT_, symObjAddr: 0x2720, symBinAddr: 0x31B0, symSize: 0x20 }
  - { offsetInCU: 0x87F4, offset: 0x87F4, size: 0x8, addend: 0x0, symName: __ZNSt3__142__uninitialized_allocator_move_if_noexceptB7v160006INS_9allocatorINS_10unique_ptrI15EnemyGameEntityNS_14default_deleteIS3_EEEEEENS_16reverse_iteratorIPS6_EESA_SA_EET2_RT_T0_T1_SB_, symObjAddr: 0x27A0, symBinAddr: 0x3230, symSize: 0x180 }
  - { offsetInCU: 0x8893, offset: 0x8893, size: 0x8, addend: 0x0, symName: __ZNSt3__14swapB7v160006IPNS_10unique_ptrI15EnemyGameEntityNS_14default_deleteIS2_EEEEEENS_9enable_ifIXaasr21is_move_constructibleIT_EE5valuesr18is_move_assignableIS8_EE5valueEvE4typeERS8_SB_, symObjAddr: 0x2970, symBinAddr: 0x3400, symSize: 0x40 }
  - { offsetInCU: 0x88E4, offset: 0x88E4, size: 0x8, addend: 0x0, symName: __ZNSt3__125__debug_db_invalidate_allB7v160006INS_6vectorINS_10unique_ptrI15EnemyGameEntityNS_14default_deleteIS3_EEEENS_9allocatorIS6_EEEEEEvPT_, symObjAddr: 0x2A60, symBinAddr: 0x34F0, symSize: 0x10 }
  - { offsetInCU: 0x8915, offset: 0x8915, size: 0x8, addend: 0x0, symName: __ZNSt3__122__make_exception_guardB7v160006INS_29_AllocatorDestroyRangeReverseINS_9allocatorINS_10unique_ptrI15EnemyGameEntityNS_14default_deleteIS4_EEEEEENS_16reverse_iteratorIPS7_EEEEEENS_28__exception_guard_exceptionsIT_EESE_, symObjAddr: 0x2A70, symBinAddr: 0x3500, symSize: 0x60 }
  - { offsetInCU: 0x894A, offset: 0x894A, size: 0x8, addend: 0x0, symName: __ZNSt3__1neB7v160006IPNS_10unique_ptrI15EnemyGameEntityNS_14default_deleteIS2_EEEES6_EEbRKNS_16reverse_iteratorIT_EERKNS7_IT0_EE, symObjAddr: 0x2B10, symBinAddr: 0x35A0, symSize: 0x40 }
  - { offsetInCU: 0x8996, offset: 0x8996, size: 0x8, addend: 0x0, symName: __ZNSt3__112__to_addressB7v160006INS_16reverse_iteratorIPNS_10unique_ptrI15EnemyGameEntityNS_14default_deleteIS3_EEEEEEvEENS_5decayIDTclsr19__to_address_helperIT_EE6__callclsr3stdE7declvalIRKSA_EEEEE4typeESC_, symObjAddr: 0x2B50, symBinAddr: 0x35E0, symSize: 0x20 }
  - { offsetInCU: 0x89F5, offset: 0x89F5, size: 0x8, addend: 0x0, symName: __ZNSt3__14prevB7v160006IPNS_10unique_ptrI15EnemyGameEntityNS_14default_deleteIS2_EEEEEENS_9enable_ifIXsr25__is_cpp17_input_iteratorIT_EE5valueES8_E4typeES8_NS_15iterator_traitsIS8_E15difference_typeE, symObjAddr: 0x2D20, symBinAddr: 0x37B0, symSize: 0x50 }
  - { offsetInCU: 0x8A38, offset: 0x8A38, size: 0x8, addend: 0x0, symName: __ZNSt3__121__convert_to_integralB7v160006El, symObjAddr: 0x2DC0, symBinAddr: 0x3850, symSize: 0x10 }
  - { offsetInCU: 0x8A64, offset: 0x8A64, size: 0x8, addend: 0x0, symName: __ZNSt3__19__advanceB7v160006IPNS_10unique_ptrI15EnemyGameEntityNS_14default_deleteIS2_EEEEEEvRT_NS_15iterator_traitsIS7_E15difference_typeENS_26random_access_iterator_tagE, symObjAddr: 0x2DD0, symBinAddr: 0x3860, symSize: 0x20 }
  - { offsetInCU: 0x8AAD, offset: 0x8AAD, size: 0x8, addend: 0x0, symName: __ZNSt3__119__allocator_destroyB7v160006INS_9allocatorINS_10unique_ptrI15EnemyGameEntityNS_14default_deleteIS3_EEEEEENS_16reverse_iteratorINS8_IPS6_EEEESB_EEvRT_T0_T1_, symObjAddr: 0x2F20, symBinAddr: 0x39B0, symSize: 0x70 }
  - { offsetInCU: 0x8B10, offset: 0x8B10, size: 0x8, addend: 0x0, symName: __ZNSt3__1neB7v160006INS_16reverse_iteratorIPNS_10unique_ptrI15EnemyGameEntityNS_14default_deleteIS3_EEEEEES8_EEbRKNS1_IT_EERKNS1_IT0_EE, symObjAddr: 0x2FC0, symBinAddr: 0x3A50, symSize: 0x50 }
  - { offsetInCU: 0x8B5C, offset: 0x8B5C, size: 0x8, addend: 0x0, symName: __ZNSt3__112__to_addressB7v160006INS_16reverse_iteratorINS1_IPNS_10unique_ptrI15EnemyGameEntityNS_14default_deleteIS3_EEEEEEEEvEENS_5decayIDTclsr19__to_address_helperIT_EE6__callclsr3stdE7declvalIRKSB_EEEEE4typeESD_, symObjAddr: 0x3010, symBinAddr: 0x3AA0, symSize: 0x20 }
  - { offsetInCU: 0x8BBB, offset: 0x8BBB, size: 0x8, addend: 0x0, symName: __ZNSt3__14prevB7v160006INS_16reverse_iteratorIPNS_10unique_ptrI15EnemyGameEntityNS_14default_deleteIS3_EEEEEEEENS_9enable_ifIXsr25__is_cpp17_input_iteratorIT_EE5valueESA_E4typeESA_NS_15iterator_traitsISA_E15difference_typeE, symObjAddr: 0x3110, symBinAddr: 0x3BA0, symSize: 0x60 }
  - { offsetInCU: 0x8BFE, offset: 0x8BFE, size: 0x8, addend: 0x0, symName: __ZNSt3__19__advanceB7v160006INS_16reverse_iteratorIPNS_10unique_ptrI15EnemyGameEntityNS_14default_deleteIS3_EEEEEEEEvRT_NS_15iterator_traitsIS9_E15difference_typeENS_26random_access_iterator_tagE, symObjAddr: 0x31C0, symBinAddr: 0x3C50, symSize: 0x30 }
  - { offsetInCU: 0x8C47, offset: 0x8C47, size: 0x8, addend: 0x0, symName: __ZNSt3__115allocate_sharedB7v160006I15SpriteComponentNS_9allocatorIS1_EEJEvEENS_10shared_ptrIT_EERKT0_DpOT1_, symObjAddr: 0x3660, symBinAddr: 0x40F0, symSize: 0xA0 }
  - { offsetInCU: 0x8F68, offset: 0x8F68, size: 0x8, addend: 0x0, symName: __ZNSt3__112construct_atB7v160006I15SpriteComponentJEPS1_EEPT_S4_DpOT0_, symObjAddr: 0x3CF0, symBinAddr: 0x4780, symSize: 0x30 }
  - { offsetInCU: 0x8FC4, offset: 0x8FC4, size: 0x8, addend: 0x0, symName: __ZNSt3__110destroy_atB7v160006I15SpriteComponentLi0EEEvPT_, symObjAddr: 0x3DA0, symBinAddr: 0x4830, symSize: 0x20 }
  - { offsetInCU: 0x8FFB, offset: 0x8FFB, size: 0x8, addend: 0x0, symName: __ZNSt3__112__destroy_atB7v160006I15SpriteComponentLi0EEEvPT_, symObjAddr: 0x3DC0, symBinAddr: 0x4850, symSize: 0x20 }
  - { offsetInCU: 0x9065, offset: 0x9065, size: 0x8, addend: 0x0, symName: __ZNSt3__134__libcpp_atomic_refcount_decrementB7v160006IlEET_RS1_, symObjAddr: 0x4040, symBinAddr: 0x4AD0, symSize: 0x30 }
  - { offsetInCU: 0x909A, offset: 0x909A, size: 0x8, addend: 0x0, symName: __ZNSt3__134__libcpp_atomic_refcount_incrementB7v160006IlEET_RS1_, symObjAddr: 0x4240, symBinAddr: 0x4CD0, symSize: 0x30 }
  - { offsetInCU: 0x94EF, offset: 0x94EF, size: 0x8, addend: 0x0, symName: __ZSt28__throw_bad_array_new_lengthB7v160006v, symObjAddr: 0x2650, symBinAddr: 0x30E0, symSize: 0x40 }
  - { offsetInCU: 0x9E94, offset: 0x9E94, size: 0x8, addend: 0x0, symName: __ZNSt3__16vectorINS_10unique_ptrI15EnemyGameEntityNS_14default_deleteIS2_EEEENS_9allocatorIS5_EEE26__swap_out_circular_bufferERNS_14__split_bufferIS5_RS7_EE, symObjAddr: 0x1F90, symBinAddr: 0x2A20, symSize: 0x130 }
  - { offsetInCU: 0xC665, offset: 0xC665, size: 0x8, addend: 0x0, symName: __ZN11ApplicationC2Ev, symObjAddr: 0x0, symBinAddr: 0xA90, symSize: 0x70 }
  - { offsetInCU: 0xC690, offset: 0xC690, size: 0x8, addend: 0x0, symName: __ZNSt3__16vectorINS_10unique_ptrI15EnemyGameEntityNS_14default_deleteIS2_EEEENS_9allocatorIS5_EEEC1B7v160006Ev, symObjAddr: 0x70, symBinAddr: 0xB00, symSize: 0x20 }
  - { offsetInCU: 0xC6B9, offset: 0xC6B9, size: 0x8, addend: 0x0, symName: __ZNSt3__110unique_ptrI16PlayerGameEntityNS_14default_deleteIS1_EEEC1B7v160006ILb1EvEEv, symObjAddr: 0x90, symBinAddr: 0xB20, symSize: 0x20 }
  - { offsetInCU: 0xC6ED, offset: 0xC6ED, size: 0x8, addend: 0x0, symName: __ZN11Application7StartUpEv, symObjAddr: 0xB0, symBinAddr: 0xB40, symSize: 0x440 }
  - { offsetInCU: 0xC786, offset: 0xC786, size: 0x8, addend: 0x0, symName: __ZNSt3__110unique_ptrI16PlayerGameEntityNS_14default_deleteIS1_EEED1B7v160006Ev, symObjAddr: 0x4F0, symBinAddr: 0xF80, symSize: 0x20 }
  - { offsetInCU: 0xC7AF, offset: 0xC7AF, size: 0x8, addend: 0x0, symName: __ZNSt3__16vectorINS_10unique_ptrI15EnemyGameEntityNS_14default_deleteIS2_EEEENS_9allocatorIS5_EEED1B7v160006Ev, symObjAddr: 0x510, symBinAddr: 0xFA0, symSize: 0x20 }
  - { offsetInCU: 0xC7D8, offset: 0xC7D8, size: 0x8, addend: 0x0, symName: __ZN11ApplicationC1Ev, symObjAddr: 0x530, symBinAddr: 0xFC0, symSize: 0x20 }
  - { offsetInCU: 0xC803, offset: 0xC803, size: 0x8, addend: 0x0, symName: __ZN11ApplicationD2Ev, symObjAddr: 0x550, symBinAddr: 0xFE0, symSize: 0x50 }
  - { offsetInCU: 0xC82E, offset: 0xC82E, size: 0x8, addend: 0x0, symName: __ZN11Application8ShutdownEv, symObjAddr: 0x5A0, symBinAddr: 0x1030, symSize: 0x30 }
  - { offsetInCU: 0xC855, offset: 0xC855, size: 0x8, addend: 0x0, symName: __ZN11ApplicationD1Ev, symObjAddr: 0x5E0, symBinAddr: 0x1070, symSize: 0x20 }
  - { offsetInCU: 0xC8A3, offset: 0xC8A3, size: 0x8, addend: 0x0, symName: __ZNKSt3__110shared_ptrI15SpriteComponentEptB7v160006Ev, symObjAddr: 0x640, symBinAddr: 0x10D0, symSize: 0x20 }
  - { offsetInCU: 0xC8CD, offset: 0xC8CD, size: 0x8, addend: 0x0, symName: __ZNSt3__112basic_stringIcNS_11char_traitsIcEENS_9allocatorIcEEEC1B7v160006IDnEEPKc, symObjAddr: 0x660, symBinAddr: 0x10F0, symSize: 0x30 }
  - { offsetInCU: 0xC90A, offset: 0xC90A, size: 0x8, addend: 0x0, symName: __ZNKSt3__110unique_ptrI15EnemyGameEntityNS_14default_deleteIS1_EEEptB7v160006Ev, symObjAddr: 0x710, symBinAddr: 0x11A0, symSize: 0x20 }
  - { offsetInCU: 0xC92F, offset: 0xC92F, size: 0x8, addend: 0x0, symName: __ZNSt3__110shared_ptrI9ComponentEC1B7v160006I15SpriteComponentvEERKNS0_IT_EE, symObjAddr: 0x730, symBinAddr: 0x11C0, symSize: 0x30 }
  - { offsetInCU: 0xC971, offset: 0xC971, size: 0x8, addend: 0x0, symName: __ZNSt3__110shared_ptrI9ComponentED1B7v160006Ev, symObjAddr: 0x760, symBinAddr: 0x11F0, symSize: 0x20 }
  - { offsetInCU: 0xC99A, offset: 0xC99A, size: 0x8, addend: 0x0, symName: __ZNSt3__16vectorINS_10unique_ptrI15EnemyGameEntityNS_14default_deleteIS2_EEEENS_9allocatorIS5_EEE9push_backB7v160006EOS5_, symObjAddr: 0x780, symBinAddr: 0x1210, symSize: 0x60 }
  - { offsetInCU: 0xC9CF, offset: 0xC9CF, size: 0x8, addend: 0x0, symName: __ZNSt3__110unique_ptrI15EnemyGameEntityNS_14default_deleteIS1_EEED1B7v160006Ev, symObjAddr: 0x7E0, symBinAddr: 0x1270, symSize: 0x20 }
  - { offsetInCU: 0xC9F8, offset: 0xC9F8, size: 0x8, addend: 0x0, symName: __ZNSt3__110shared_ptrI15SpriteComponentED1B7v160006Ev, symObjAddr: 0x800, symBinAddr: 0x1290, symSize: 0x20 }
  - { offsetInCU: 0xCA21, offset: 0xCA21, size: 0x8, addend: 0x0, symName: __ZNSt3__110unique_ptrI16PlayerGameEntityNS_14default_deleteIS1_EEEaSB7v160006EOS4_, symObjAddr: 0x8A0, symBinAddr: 0x1330, symSize: 0x50 }
  - { offsetInCU: 0xCA54, offset: 0xCA54, size: 0x8, addend: 0x0, symName: __ZNKSt3__110unique_ptrI16PlayerGameEntityNS_14default_deleteIS1_EEEptB7v160006Ev, symObjAddr: 0x8F0, symBinAddr: 0x1380, symSize: 0x20 }
  - { offsetInCU: 0xCA79, offset: 0xCA79, size: 0x8, addend: 0x0, symName: __ZN11Application5InputEf, symObjAddr: 0x910, symBinAddr: 0x13A0, symSize: 0xF0 }
  - { offsetInCU: 0xCABF, offset: 0xCABF, size: 0x8, addend: 0x0, symName: __ZN11Application6UpdateEf, symObjAddr: 0xA00, symBinAddr: 0x1490, symSize: 0x2F0 }
  - { offsetInCU: 0xCB2D, offset: 0xCB2D, size: 0x8, addend: 0x0, symName: __ZNKSt3__16vectorINS_10unique_ptrI15EnemyGameEntityNS_14default_deleteIS2_EEEENS_9allocatorIS5_EEE4sizeB7v160006Ev, symObjAddr: 0xCF0, symBinAddr: 0x1780, symSize: 0x20 }
  - { offsetInCU: 0xCB52, offset: 0xCB52, size: 0x8, addend: 0x0, symName: __ZNSt3__16vectorINS_10unique_ptrI15EnemyGameEntityNS_14default_deleteIS2_EEEENS_9allocatorIS5_EEEixB7v160006Em, symObjAddr: 0xD10, symBinAddr: 0x17A0, symSize: 0x20 }
  - { offsetInCU: 0xCB87, offset: 0xCB87, size: 0x8, addend: 0x0, symName: __ZNSt3__110shared_ptrI10GameEntityEC1B7v160006I10ProjectilevEEONS0_IT_EE, symObjAddr: 0xD30, symBinAddr: 0x17C0, symSize: 0x30 }
  - { offsetInCU: 0xCBC9, offset: 0xCBC9, size: 0x8, addend: 0x0, symName: __ZNSt3__110shared_ptrI10GameEntityED1B7v160006Ev, symObjAddr: 0xD60, symBinAddr: 0x17F0, symSize: 0x20 }
  - { offsetInCU: 0xCBF2, offset: 0xCBF2, size: 0x8, addend: 0x0, symName: __ZNSt3__110shared_ptrI10ProjectileED1B7v160006Ev, symObjAddr: 0xD80, symBinAddr: 0x1810, symSize: 0x20 }
  - { offsetInCU: 0xCC1B, offset: 0xCC1B, size: 0x8, addend: 0x0, symName: __ZN11Application6RenderEv, symObjAddr: 0xDA0, symBinAddr: 0x1830, symSize: 0xF0 }
  - { offsetInCU: 0xCC5E, offset: 0xCC5E, size: 0x8, addend: 0x0, symName: __ZN11Application4LoopEf, symObjAddr: 0xE90, symBinAddr: 0x1920, symSize: 0x240 }
  - { offsetInCU: 0xCD12, offset: 0xCD12, size: 0x8, addend: 0x0, symName: __ZNSt3__16vectorINS_10unique_ptrI15EnemyGameEntityNS_14default_deleteIS2_EEEENS_9allocatorIS5_EEEC2B7v160006Ev, symObjAddr: 0x10D0, symBinAddr: 0x1B60, symSize: 0x60 }
  - { offsetInCU: 0xCD45, offset: 0xCD45, size: 0x8, addend: 0x0, symName: __ZNSt3__117__compressed_pairIPNS_10unique_ptrI15EnemyGameEntityNS_14default_deleteIS2_EEEENS_9allocatorIS5_EEEC1B7v160006IDnNS_18__default_init_tagEEEOT_OT0_, symObjAddr: 0x1130, symBinAddr: 0x1BC0, symSize: 0x30 }
  - { offsetInCU: 0xCD9C, offset: 0xCD9C, size: 0x8, addend: 0x0, symName: __ZNSt3__117__compressed_pairIPNS_10unique_ptrI15EnemyGameEntityNS_14default_deleteIS2_EEEENS_9allocatorIS5_EEEC2B7v160006IDnNS_18__default_init_tagEEEOT_OT0_, symObjAddr: 0x1170, symBinAddr: 0x1C00, symSize: 0x40 }
  - { offsetInCU: 0xCDF3, offset: 0xCDF3, size: 0x8, addend: 0x0, symName: __ZNSt3__122__compressed_pair_elemIPNS_10unique_ptrI15EnemyGameEntityNS_14default_deleteIS2_EEEELi0ELb0EEC2B7v160006IDnvEEOT_, symObjAddr: 0x11B0, symBinAddr: 0x1C40, symSize: 0x20 }
  - { offsetInCU: 0xCE34, offset: 0xCE34, size: 0x8, addend: 0x0, symName: __ZNSt3__122__compressed_pair_elemINS_9allocatorINS_10unique_ptrI15EnemyGameEntityNS_14default_deleteIS3_EEEEEELi1ELb1EEC2B7v160006ENS_18__default_init_tagE, symObjAddr: 0x11D0, symBinAddr: 0x1C60, symSize: 0x20 }
  - { offsetInCU: 0xCE67, offset: 0xCE67, size: 0x8, addend: 0x0, symName: __ZNSt3__19allocatorINS_10unique_ptrI15EnemyGameEntityNS_14default_deleteIS2_EEEEEC2B7v160006Ev, symObjAddr: 0x11F0, symBinAddr: 0x1C80, symSize: 0x20 }
  - { offsetInCU: 0xCE90, offset: 0xCE90, size: 0x8, addend: 0x0, symName: __ZNSt3__116__non_trivial_ifILb1ENS_9allocatorINS_10unique_ptrI15EnemyGameEntityNS_14default_deleteIS3_EEEEEEEC2B7v160006Ev, symObjAddr: 0x1210, symBinAddr: 0x1CA0, symSize: 0x10 }
  - { offsetInCU: 0xCEB9, offset: 0xCEB9, size: 0x8, addend: 0x0, symName: __ZNSt3__110unique_ptrI16PlayerGameEntityNS_14default_deleteIS1_EEEC2B7v160006ILb1EvEEv, symObjAddr: 0x1220, symBinAddr: 0x1CB0, symSize: 0x30 }
  - { offsetInCU: 0xCEF2, offset: 0xCEF2, size: 0x8, addend: 0x0, symName: __ZNSt3__117__compressed_pairIP16PlayerGameEntityNS_14default_deleteIS1_EEEC1B7v160006INS_16__value_init_tagES7_EEOT_OT0_, symObjAddr: 0x1250, symBinAddr: 0x1CE0, symSize: 0x30 }
  - { offsetInCU: 0xCF49, offset: 0xCF49, size: 0x8, addend: 0x0, symName: __ZNSt3__117__compressed_pairIP16PlayerGameEntityNS_14default_deleteIS1_EEEC2B7v160006INS_16__value_init_tagES7_EEOT_OT0_, symObjAddr: 0x1280, symBinAddr: 0x1D10, symSize: 0x30 }
  - { offsetInCU: 0xCFA0, offset: 0xCFA0, size: 0x8, addend: 0x0, symName: __ZNSt3__122__compressed_pair_elemIP16PlayerGameEntityLi0ELb0EEC2B7v160006ENS_16__value_init_tagE, symObjAddr: 0x12B0, symBinAddr: 0x1D40, symSize: 0x20 }
  - { offsetInCU: 0xCFD3, offset: 0xCFD3, size: 0x8, addend: 0x0, symName: __ZNSt3__122__compressed_pair_elemINS_14default_deleteI16PlayerGameEntityEELi1ELb1EEC2B7v160006ENS_16__value_init_tagE, symObjAddr: 0x12D0, symBinAddr: 0x1D60, symSize: 0x10 }
  - { offsetInCU: 0xD006, offset: 0xD006, size: 0x8, addend: 0x0, symName: __ZNSt3__16vectorINS_10unique_ptrI15EnemyGameEntityNS_14default_deleteIS2_EEEENS_9allocatorIS5_EEED2B7v160006Ev, symObjAddr: 0x12E0, symBinAddr: 0x1D70, symSize: 0x40 }
  - { offsetInCU: 0xD02F, offset: 0xD02F, size: 0x8, addend: 0x0, symName: __ZNSt3__16vectorINS_10unique_ptrI15EnemyGameEntityNS_14default_deleteIS2_EEEENS_9allocatorIS5_EEE16__destroy_vectorC1ERS8_, symObjAddr: 0x1320, symBinAddr: 0x1DB0, symSize: 0x30 }
  - { offsetInCU: 0xD067, offset: 0xD067, size: 0x8, addend: 0x0, symName: __ZNSt3__16vectorINS_10unique_ptrI15EnemyGameEntityNS_14default_deleteIS2_EEEENS_9allocatorIS5_EEE16__destroy_vectorclB7v160006Ev, symObjAddr: 0x1350, symBinAddr: 0x1DE0, symSize: 0x90 }
  - { offsetInCU: 0xD08C, offset: 0xD08C, size: 0x8, addend: 0x0, symName: __ZNSt3__16vectorINS_10unique_ptrI15EnemyGameEntityNS_14default_deleteIS2_EEEENS_9allocatorIS5_EEE16__destroy_vectorC2ERS8_, symObjAddr: 0x13E0, symBinAddr: 0x1E70, symSize: 0x20 }
  - { offsetInCU: 0xD0C4, offset: 0xD0C4, size: 0x8, addend: 0x0, symName: __ZNKSt3__16vectorINS_10unique_ptrI15EnemyGameEntityNS_14default_deleteIS2_EEEENS_9allocatorIS5_EEE17__annotate_deleteB7v160006Ev, symObjAddr: 0x1400, symBinAddr: 0x1E90, symSize: 0xB0 }
  - { offsetInCU: 0xD0E9, offset: 0xD0E9, size: 0x8, addend: 0x0, symName: __ZNSt3__16vectorINS_10unique_ptrI15EnemyGameEntityNS_14default_deleteIS2_EEEENS_9allocatorIS5_EEE7__clearB7v160006Ev, symObjAddr: 0x14C0, symBinAddr: 0x1F50, symSize: 0x20 }
  - { offsetInCU: 0xD10E, offset: 0xD10E, size: 0x8, addend: 0x0, symName: __ZNSt3__116allocator_traitsINS_9allocatorINS_10unique_ptrI15EnemyGameEntityNS_14default_deleteIS3_EEEEEEE10deallocateB7v160006ERS7_PS6_m, symObjAddr: 0x14E0, symBinAddr: 0x1F70, symSize: 0x30 }
  - { offsetInCU: 0xD150, offset: 0xD150, size: 0x8, addend: 0x0, symName: __ZNSt3__16vectorINS_10unique_ptrI15EnemyGameEntityNS_14default_deleteIS2_EEEENS_9allocatorIS5_EEE7__allocB7v160006Ev, symObjAddr: 0x1510, symBinAddr: 0x1FA0, symSize: 0x20 }
  - { offsetInCU: 0xD175, offset: 0xD175, size: 0x8, addend: 0x0, symName: __ZNKSt3__16vectorINS_10unique_ptrI15EnemyGameEntityNS_14default_deleteIS2_EEEENS_9allocatorIS5_EEE8capacityB7v160006Ev, symObjAddr: 0x1530, symBinAddr: 0x1FC0, symSize: 0x30 }
  - { offsetInCU: 0xD19A, offset: 0xD19A, size: 0x8, addend: 0x0, symName: __ZNKSt3__16vectorINS_10unique_ptrI15EnemyGameEntityNS_14default_deleteIS2_EEEENS_9allocatorIS5_EEE31__annotate_contiguous_containerB7v160006EPKvSA_SA_SA_, symObjAddr: 0x1560, symBinAddr: 0x1FF0, symSize: 0x20 }
  - { offsetInCU: 0xD1EF, offset: 0xD1EF, size: 0x8, addend: 0x0, symName: __ZNKSt3__16vectorINS_10unique_ptrI15EnemyGameEntityNS_14default_deleteIS2_EEEENS_9allocatorIS5_EEE4dataB7v160006Ev, symObjAddr: 0x1580, symBinAddr: 0x2010, symSize: 0x20 }
  - { offsetInCU: 0xD214, offset: 0xD214, size: 0x8, addend: 0x0, symName: __ZNSt3__16vectorINS_10unique_ptrI15EnemyGameEntityNS_14default_deleteIS2_EEEENS_9allocatorIS5_EEE22__base_destruct_at_endB7v160006EPS5_, symObjAddr: 0x15B0, symBinAddr: 0x2040, symSize: 0x80 }
  - { offsetInCU: 0xD257, offset: 0xD257, size: 0x8, addend: 0x0, symName: __ZNSt3__116allocator_traitsINS_9allocatorINS_10unique_ptrI15EnemyGameEntityNS_14default_deleteIS3_EEEEEEE7destroyB7v160006IS6_vvEEvRS7_PT_, symObjAddr: 0x1630, symBinAddr: 0x20C0, symSize: 0x20 }
  - { offsetInCU: 0xD292, offset: 0xD292, size: 0x8, addend: 0x0, symName: __ZNSt3__19allocatorINS_10unique_ptrI15EnemyGameEntityNS_14default_deleteIS2_EEEEE10deallocateB7v160006EPS5_m, symObjAddr: 0x1690, symBinAddr: 0x2120, symSize: 0x40 }
  - { offsetInCU: 0xD2D3, offset: 0xD2D3, size: 0x8, addend: 0x0, symName: __ZNSt3__117__compressed_pairIPNS_10unique_ptrI15EnemyGameEntityNS_14default_deleteIS2_EEEENS_9allocatorIS5_EEE6secondB7v160006Ev, symObjAddr: 0x17F0, symBinAddr: 0x2280, symSize: 0x20 }
  - { offsetInCU: 0xD2F8, offset: 0xD2F8, size: 0x8, addend: 0x0, symName: __ZNSt3__122__compressed_pair_elemINS_9allocatorINS_10unique_ptrI15EnemyGameEntityNS_14default_deleteIS3_EEEEEELi1ELb1EE5__getB7v160006Ev, symObjAddr: 0x1810, symBinAddr: 0x22A0, symSize: 0x10 }
  - { offsetInCU: 0xD31D, offset: 0xD31D, size: 0x8, addend: 0x0, symName: __ZNKSt3__16vectorINS_10unique_ptrI15EnemyGameEntityNS_14default_deleteIS2_EEEENS_9allocatorIS5_EEE9__end_capB7v160006Ev, symObjAddr: 0x1820, symBinAddr: 0x22B0, symSize: 0x20 }
  - { offsetInCU: 0xD342, offset: 0xD342, size: 0x8, addend: 0x0, symName: __ZNKSt3__117__compressed_pairIPNS_10unique_ptrI15EnemyGameEntityNS_14default_deleteIS2_EEEENS_9allocatorIS5_EEE5firstB7v160006Ev, symObjAddr: 0x1840, symBinAddr: 0x22D0, symSize: 0x20 }
  - { offsetInCU: 0xD367, offset: 0xD367, size: 0x8, addend: 0x0, symName: __ZNKSt3__122__compressed_pair_elemIPNS_10unique_ptrI15EnemyGameEntityNS_14default_deleteIS2_EEEELi0ELb0EE5__getB7v160006Ev, symObjAddr: 0x1860, symBinAddr: 0x22F0, symSize: 0x10 }
  - { offsetInCU: 0xD38C, offset: 0xD38C, size: 0x8, addend: 0x0, symName: __ZNSt3__112basic_stringIcNS_11char_traitsIcEENS_9allocatorIcEEEC2B7v160006IDnEEPKc, symObjAddr: 0x1870, symBinAddr: 0x2300, symSize: 0x60 }
  - { offsetInCU: 0xD3C9, offset: 0xD3C9, size: 0x8, addend: 0x0, symName: __ZNSt3__117__compressed_pairINS_12basic_stringIcNS_11char_traitsIcEENS_9allocatorIcEEE5__repES5_EC1B7v160006INS_18__default_init_tagESA_EEOT_OT0_, symObjAddr: 0x18D0, symBinAddr: 0x2360, symSize: 0x30 }
  - { offsetInCU: 0xD420, offset: 0xD420, size: 0x8, addend: 0x0, symName: __ZNSt3__111char_traitsIcE6lengthEPKc, symObjAddr: 0x1900, symBinAddr: 0x2390, symSize: 0x30 }
  - { offsetInCU: 0xD443, offset: 0xD443, size: 0x8, addend: 0x0, symName: __ZNSt3__117__compressed_pairINS_12basic_stringIcNS_11char_traitsIcEENS_9allocatorIcEEE5__repES5_EC2B7v160006INS_18__default_init_tagESA_EEOT_OT0_, symObjAddr: 0x1940, symBinAddr: 0x23D0, symSize: 0x30 }
  - { offsetInCU: 0xD49A, offset: 0xD49A, size: 0x8, addend: 0x0, symName: __ZNSt3__122__compressed_pair_elemINS_12basic_stringIcNS_11char_traitsIcEENS_9allocatorIcEEE5__repELi0ELb0EEC2B7v160006ENS_18__default_init_tagE, symObjAddr: 0x1970, symBinAddr: 0x2400, symSize: 0x10 }
  - { offsetInCU: 0xD4CD, offset: 0xD4CD, size: 0x8, addend: 0x0, symName: __ZNSt3__122__compressed_pair_elemINS_9allocatorIcEELi1ELb1EEC2B7v160006ENS_18__default_init_tagE, symObjAddr: 0x1980, symBinAddr: 0x2410, symSize: 0x20 }
  - { offsetInCU: 0xD500, offset: 0xD500, size: 0x8, addend: 0x0, symName: __ZNSt3__19allocatorIcEC2B7v160006Ev, symObjAddr: 0x19A0, symBinAddr: 0x2430, symSize: 0x20 }
  - { offsetInCU: 0xD529, offset: 0xD529, size: 0x8, addend: 0x0, symName: __ZNSt3__116__non_trivial_ifILb1ENS_9allocatorIcEEEC2B7v160006Ev, symObjAddr: 0x19C0, symBinAddr: 0x2450, symSize: 0x10 }
  - { offsetInCU: 0xD552, offset: 0xD552, size: 0x8, addend: 0x0, symName: __ZNSt3__16vectorINS_10unique_ptrI15EnemyGameEntityNS_14default_deleteIS2_EEEENS_9allocatorIS5_EEE9__end_capB7v160006Ev, symObjAddr: 0x19F0, symBinAddr: 0x2480, symSize: 0x20 }
  - { offsetInCU: 0xD577, offset: 0xD577, size: 0x8, addend: 0x0, symName: __ZNSt3__16vectorINS_10unique_ptrI15EnemyGameEntityNS_14default_deleteIS2_EEEENS_9allocatorIS5_EEE22__construct_one_at_endB7v160006IJS5_EEEvDpOT_, symObjAddr: 0x1A10, symBinAddr: 0x24A0, symSize: 0x90 }
  - { offsetInCU: 0xD5C5, offset: 0xD5C5, size: 0x8, addend: 0x0, symName: __ZNSt3__16vectorINS_10unique_ptrI15EnemyGameEntityNS_14default_deleteIS2_EEEENS_9allocatorIS5_EEE21__push_back_slow_pathIS5_EEvOT_, symObjAddr: 0x1AA0, symBinAddr: 0x2530, symSize: 0xD0 }
  - { offsetInCU: 0xD621, offset: 0xD621, size: 0x8, addend: 0x0, symName: __ZNSt3__117__compressed_pairIPNS_10unique_ptrI15EnemyGameEntityNS_14default_deleteIS2_EEEENS_9allocatorIS5_EEE5firstB7v160006Ev, symObjAddr: 0x1B70, symBinAddr: 0x2600, symSize: 0x20 }
  - { offsetInCU: 0xD646, offset: 0xD646, size: 0x8, addend: 0x0, symName: __ZNSt3__122__compressed_pair_elemIPNS_10unique_ptrI15EnemyGameEntityNS_14default_deleteIS2_EEEELi0ELb0EE5__getB7v160006Ev, symObjAddr: 0x1B90, symBinAddr: 0x2620, symSize: 0x10 }
  - { offsetInCU: 0xD684, offset: 0xD684, size: 0x8, addend: 0x0, symName: __ZNSt3__16vectorINS_10unique_ptrI15EnemyGameEntityNS_14default_deleteIS2_EEEENS_9allocatorIS5_EEE21_ConstructTransactionC1B7v160006ERS8_m, symObjAddr: 0x1BA0, symBinAddr: 0x2630, symSize: 0x30 }
  - { offsetInCU: 0xD6CB, offset: 0xD6CB, size: 0x8, addend: 0x0, symName: __ZNSt3__116allocator_traitsINS_9allocatorINS_10unique_ptrI15EnemyGameEntityNS_14default_deleteIS3_EEEEEEE9constructB7v160006IS6_JS6_EvvEEvRS7_PT_DpOT0_, symObjAddr: 0x1BD0, symBinAddr: 0x2660, symSize: 0x30 }
  - { offsetInCU: 0xD720, offset: 0xD720, size: 0x8, addend: 0x0, symName: __ZNSt3__16vectorINS_10unique_ptrI15EnemyGameEntityNS_14default_deleteIS2_EEEENS_9allocatorIS5_EEE21_ConstructTransactionD1B7v160006Ev, symObjAddr: 0x1C00, symBinAddr: 0x2690, symSize: 0x20 }
  - { offsetInCU: 0xD749, offset: 0xD749, size: 0x8, addend: 0x0, symName: __ZNSt3__16vectorINS_10unique_ptrI15EnemyGameEntityNS_14default_deleteIS2_EEEENS_9allocatorIS5_EEE21_ConstructTransactionC2B7v160006ERS8_m, symObjAddr: 0x1C20, symBinAddr: 0x26B0, symSize: 0x40 }
  - { offsetInCU: 0xD790, offset: 0xD790, size: 0x8, addend: 0x0, symName: __ZNSt3__110unique_ptrI15EnemyGameEntityNS_14default_deleteIS1_EEEC1B7v160006EOS4_, symObjAddr: 0x1CA0, symBinAddr: 0x2730, symSize: 0x30 }
  - { offsetInCU: 0xD7C7, offset: 0xD7C7, size: 0x8, addend: 0x0, symName: __ZNSt3__110unique_ptrI15EnemyGameEntityNS_14default_deleteIS1_EEEC2B7v160006EOS4_, symObjAddr: 0x1CD0, symBinAddr: 0x2760, symSize: 0x60 }
  - { offsetInCU: 0xD7FE, offset: 0xD7FE, size: 0x8, addend: 0x0, symName: __ZNSt3__110unique_ptrI15EnemyGameEntityNS_14default_deleteIS1_EEE7releaseB7v160006Ev, symObjAddr: 0x1D30, symBinAddr: 0x27C0, symSize: 0x40 }
  - { offsetInCU: 0xD832, offset: 0xD832, size: 0x8, addend: 0x0, symName: __ZNSt3__110unique_ptrI15EnemyGameEntityNS_14default_deleteIS1_EEE11get_deleterB7v160006Ev, symObjAddr: 0x1D70, symBinAddr: 0x2800, symSize: 0x20 }
  - { offsetInCU: 0xD861, offset: 0xD861, size: 0x8, addend: 0x0, symName: __ZNSt3__117__compressed_pairIP15EnemyGameEntityNS_14default_deleteIS1_EEEC1B7v160006IS2_S4_EEOT_OT0_, symObjAddr: 0x1D90, symBinAddr: 0x2820, symSize: 0x30 }
  - { offsetInCU: 0xD8B8, offset: 0xD8B8, size: 0x8, addend: 0x0, symName: __ZNSt3__117__compressed_pairIP15EnemyGameEntityNS_14default_deleteIS1_EEE5firstB7v160006Ev, symObjAddr: 0x1DC0, symBinAddr: 0x2850, symSize: 0x20 }
  - { offsetInCU: 0xD8DD, offset: 0xD8DD, size: 0x8, addend: 0x0, symName: __ZNSt3__122__compressed_pair_elemIP15EnemyGameEntityLi0ELb0EE5__getB7v160006Ev, symObjAddr: 0x1DE0, symBinAddr: 0x2870, symSize: 0x10 }
  - { offsetInCU: 0xD902, offset: 0xD902, size: 0x8, addend: 0x0, symName: __ZNSt3__117__compressed_pairIP15EnemyGameEntityNS_14default_deleteIS1_EEE6secondB7v160006Ev, symObjAddr: 0x1DF0, symBinAddr: 0x2880, symSize: 0x20 }
  - { offsetInCU: 0xD927, offset: 0xD927, size: 0x8, addend: 0x0, symName: __ZNSt3__122__compressed_pair_elemINS_14default_deleteI15EnemyGameEntityEELi1ELb1EE5__getB7v160006Ev, symObjAddr: 0x1E10, symBinAddr: 0x28A0, symSize: 0x10 }
  - { offsetInCU: 0xD94C, offset: 0xD94C, size: 0x8, addend: 0x0, symName: __ZNSt3__117__compressed_pairIP15EnemyGameEntityNS_14default_deleteIS1_EEEC2B7v160006IS2_S4_EEOT_OT0_, symObjAddr: 0x1E20, symBinAddr: 0x28B0, symSize: 0x40 }
  - { offsetInCU: 0xD9A3, offset: 0xD9A3, size: 0x8, addend: 0x0, symName: __ZNSt3__122__compressed_pair_elemIP15EnemyGameEntityLi0ELb0EEC2B7v160006IS2_vEEOT_, symObjAddr: 0x1E60, symBinAddr: 0x28F0, symSize: 0x20 }
  - { offsetInCU: 0xD9E4, offset: 0xD9E4, size: 0x8, addend: 0x0, symName: __ZNSt3__122__compressed_pair_elemINS_14default_deleteI15EnemyGameEntityEELi1ELb1EEC2B7v160006IS3_vEEOT_, symObjAddr: 0x1E80, symBinAddr: 0x2910, symSize: 0x10 }
  - { offsetInCU: 0xDA25, offset: 0xDA25, size: 0x8, addend: 0x0, symName: __ZNSt3__16vectorINS_10unique_ptrI15EnemyGameEntityNS_14default_deleteIS2_EEEENS_9allocatorIS5_EEE21_ConstructTransactionD2B7v160006Ev, symObjAddr: 0x1E90, symBinAddr: 0x2920, symSize: 0x20 }
  - { offsetInCU: 0xDA4E, offset: 0xDA4E, size: 0x8, addend: 0x0, symName: __ZNKSt3__16vectorINS_10unique_ptrI15EnemyGameEntityNS_14default_deleteIS2_EEEENS_9allocatorIS5_EEE11__recommendB7v160006Em, symObjAddr: 0x1EB0, symBinAddr: 0x2940, symSize: 0xA0 }
  - { offsetInCU: 0xDAA1, offset: 0xDAA1, size: 0x8, addend: 0x0, symName: __ZNSt3__114__split_bufferINS_10unique_ptrI15EnemyGameEntityNS_14default_deleteIS2_EEEERNS_9allocatorIS5_EEEC1EmmS8_, symObjAddr: 0x1F50, symBinAddr: 0x29E0, symSize: 0x40 }
  - { offsetInCU: 0xDAF6, offset: 0xDAF6, size: 0x8, addend: 0x0, symName: __ZNSt3__114__split_bufferINS_10unique_ptrI15EnemyGameEntityNS_14default_deleteIS2_EEEERNS_9allocatorIS5_EEED1Ev, symObjAddr: 0x20C0, symBinAddr: 0x2B50, symSize: 0x20 }
  - { offsetInCU: 0xDB21, offset: 0xDB21, size: 0x8, addend: 0x0, symName: __ZNKSt3__16vectorINS_10unique_ptrI15EnemyGameEntityNS_14default_deleteIS2_EEEENS_9allocatorIS5_EEE8max_sizeEv, symObjAddr: 0x20E0, symBinAddr: 0x2B70, symSize: 0x60 }
  - { offsetInCU: 0xDB47, offset: 0xDB47, size: 0x8, addend: 0x0, symName: __ZNKSt3__16vectorINS_10unique_ptrI15EnemyGameEntityNS_14default_deleteIS2_EEEENS_9allocatorIS5_EEE20__throw_length_errorB7v160006Ev, symObjAddr: 0x2140, symBinAddr: 0x2BD0, symSize: 0x20 }
  - { offsetInCU: 0xDB76, offset: 0xDB76, size: 0x8, addend: 0x0, symName: __ZNSt3__116allocator_traitsINS_9allocatorINS_10unique_ptrI15EnemyGameEntityNS_14default_deleteIS3_EEEEEEE8max_sizeB7v160006IS7_vvEEmRKS7_, symObjAddr: 0x21C0, symBinAddr: 0x2C50, symSize: 0x20 }
  - { offsetInCU: 0xDBA2, offset: 0xDBA2, size: 0x8, addend: 0x0, symName: __ZNKSt3__16vectorINS_10unique_ptrI15EnemyGameEntityNS_14default_deleteIS2_EEEENS_9allocatorIS5_EEE7__allocB7v160006Ev, symObjAddr: 0x21E0, symBinAddr: 0x2C70, symSize: 0x20 }
  - { offsetInCU: 0xDBC7, offset: 0xDBC7, size: 0x8, addend: 0x0, symName: __ZNSt3__114numeric_limitsIlE3maxB7v160006Ev, symObjAddr: 0x2200, symBinAddr: 0x2C90, symSize: 0x10 }
  - { offsetInCU: 0xDBEF, offset: 0xDBEF, size: 0x8, addend: 0x0, symName: __ZNKSt3__16__lessImmEclB7v160006ERKmS3_, symObjAddr: 0x2260, symBinAddr: 0x2CF0, symSize: 0x30 }
  - { offsetInCU: 0xDC30, offset: 0xDC30, size: 0x8, addend: 0x0, symName: __ZNSt3__114numeric_limitsImE3maxB7v160006Ev, symObjAddr: 0x2290, symBinAddr: 0x2D20, symSize: 0x10 }
  - { offsetInCU: 0xDC44, offset: 0xDC44, size: 0x8, addend: 0x0, symName: __ZNSt3__123__libcpp_numeric_limitsImLb1EE3maxB7v160006Ev, symObjAddr: 0x22A0, symBinAddr: 0x2D30, symSize: 0x10 }
  - { offsetInCU: 0xDC58, offset: 0xDC58, size: 0x8, addend: 0x0, symName: __ZNKSt3__117__compressed_pairIPNS_10unique_ptrI15EnemyGameEntityNS_14default_deleteIS2_EEEENS_9allocatorIS5_EEE6secondB7v160006Ev, symObjAddr: 0x22B0, symBinAddr: 0x2D40, symSize: 0x20 }
  - { offsetInCU: 0xDC7D, offset: 0xDC7D, size: 0x8, addend: 0x0, symName: __ZNKSt3__122__compressed_pair_elemINS_9allocatorINS_10unique_ptrI15EnemyGameEntityNS_14default_deleteIS3_EEEEEELi1ELb1EE5__getB7v160006Ev, symObjAddr: 0x22D0, symBinAddr: 0x2D60, symSize: 0x10 }
  - { offsetInCU: 0xDCA2, offset: 0xDCA2, size: 0x8, addend: 0x0, symName: __ZNSt3__123__libcpp_numeric_limitsIlLb1EE3maxB7v160006Ev, symObjAddr: 0x22E0, symBinAddr: 0x2D70, symSize: 0x10 }
  - { offsetInCU: 0xDCB6, offset: 0xDCB6, size: 0x8, addend: 0x0, symName: __ZNSt12length_errorC1B7v160006EPKc, symObjAddr: 0x2360, symBinAddr: 0x2DF0, symSize: 0x30 }
  - { offsetInCU: 0xDCED, offset: 0xDCED, size: 0x8, addend: 0x0, symName: __ZNSt12length_errorC2B7v160006EPKc, symObjAddr: 0x2390, symBinAddr: 0x2E20, symSize: 0x40 }
  - { offsetInCU: 0xDD24, offset: 0xDD24, size: 0x8, addend: 0x0, symName: __ZNSt3__114__split_bufferINS_10unique_ptrI15EnemyGameEntityNS_14default_deleteIS2_EEEERNS_9allocatorIS5_EEEC2EmmS8_, symObjAddr: 0x2420, symBinAddr: 0x2EB0, symSize: 0xD0 }
  - { offsetInCU: 0xDD96, offset: 0xDD96, size: 0x8, addend: 0x0, symName: __ZNSt3__117__compressed_pairIPNS_10unique_ptrI15EnemyGameEntityNS_14default_deleteIS2_EEEERNS_9allocatorIS5_EEEC1B7v160006IDnS9_EEOT_OT0_, symObjAddr: 0x24F0, symBinAddr: 0x2F80, symSize: 0x30 }
  - { offsetInCU: 0xDDED, offset: 0xDDED, size: 0x8, addend: 0x0, symName: __ZNSt3__114__split_bufferINS_10unique_ptrI15EnemyGameEntityNS_14default_deleteIS2_EEEERNS_9allocatorIS5_EEE7__allocB7v160006Ev, symObjAddr: 0x2560, symBinAddr: 0x2FF0, symSize: 0x20 }
  - { offsetInCU: 0xDE12, offset: 0xDE12, size: 0x8, addend: 0x0, symName: __ZNSt3__114__split_bufferINS_10unique_ptrI15EnemyGameEntityNS_14default_deleteIS2_EEEERNS_9allocatorIS5_EEE9__end_capB7v160006Ev, symObjAddr: 0x2580, symBinAddr: 0x3010, symSize: 0x20 }
  - { offsetInCU: 0xDE37, offset: 0xDE37, size: 0x8, addend: 0x0, symName: __ZNSt3__117__compressed_pairIPNS_10unique_ptrI15EnemyGameEntityNS_14default_deleteIS2_EEEERNS_9allocatorIS5_EEEC2B7v160006IDnS9_EEOT_OT0_, symObjAddr: 0x25A0, symBinAddr: 0x3030, symSize: 0x40 }
  - { offsetInCU: 0xDE8E, offset: 0xDE8E, size: 0x8, addend: 0x0, symName: __ZNSt3__122__compressed_pair_elemIRNS_9allocatorINS_10unique_ptrI15EnemyGameEntityNS_14default_deleteIS3_EEEEEELi1ELb0EEC2B7v160006IS8_vEEOT_, symObjAddr: 0x25E0, symBinAddr: 0x3070, symSize: 0x20 }
  - { offsetInCU: 0xDECF, offset: 0xDECF, size: 0x8, addend: 0x0, symName: __ZNSt3__19allocatorINS_10unique_ptrI15EnemyGameEntityNS_14default_deleteIS2_EEEEE8allocateB7v160006Em, symObjAddr: 0x2600, symBinAddr: 0x3090, symSize: 0x50 }
  - { offsetInCU: 0xDF02, offset: 0xDF02, size: 0x8, addend: 0x0, symName: __ZNSt3__117__compressed_pairIPNS_10unique_ptrI15EnemyGameEntityNS_14default_deleteIS2_EEEERNS_9allocatorIS5_EEE6secondB7v160006Ev, symObjAddr: 0x2740, symBinAddr: 0x31D0, symSize: 0x20 }
  - { offsetInCU: 0xDF27, offset: 0xDF27, size: 0x8, addend: 0x0, symName: __ZNSt3__122__compressed_pair_elemIRNS_9allocatorINS_10unique_ptrI15EnemyGameEntityNS_14default_deleteIS3_EEEEEELi1ELb0EE5__getB7v160006Ev, symObjAddr: 0x2760, symBinAddr: 0x31F0, symSize: 0x20 }
  - { offsetInCU: 0xDF4C, offset: 0xDF4C, size: 0x8, addend: 0x0, symName: __ZNSt3__117__compressed_pairIPNS_10unique_ptrI15EnemyGameEntityNS_14default_deleteIS2_EEEERNS_9allocatorIS5_EEE5firstB7v160006Ev, symObjAddr: 0x2780, symBinAddr: 0x3210, symSize: 0x20 }
  - { offsetInCU: 0xDF71, offset: 0xDF71, size: 0x8, addend: 0x0, symName: __ZNSt3__116reverse_iteratorIPNS_10unique_ptrI15EnemyGameEntityNS_14default_deleteIS2_EEEEEC1B7v160006ES6_, symObjAddr: 0x2920, symBinAddr: 0x33B0, symSize: 0x30 }
  - { offsetInCU: 0xDFA8, offset: 0xDFA8, size: 0x8, addend: 0x0, symName: __ZNKSt3__116reverse_iteratorIPNS_10unique_ptrI15EnemyGameEntityNS_14default_deleteIS2_EEEEE4baseB7v160006Ev, symObjAddr: 0x2950, symBinAddr: 0x33E0, symSize: 0x20 }
  - { offsetInCU: 0xDFCD, offset: 0xDFCD, size: 0x8, addend: 0x0, symName: __ZNKSt3__16vectorINS_10unique_ptrI15EnemyGameEntityNS_14default_deleteIS2_EEEENS_9allocatorIS5_EEE14__annotate_newB7v160006Em, symObjAddr: 0x29B0, symBinAddr: 0x3440, symSize: 0xB0 }
  - { offsetInCU: 0xE001, offset: 0xE001, size: 0x8, addend: 0x0, symName: __ZNSt3__129_AllocatorDestroyRangeReverseINS_9allocatorINS_10unique_ptrI15EnemyGameEntityNS_14default_deleteIS3_EEEEEENS_16reverse_iteratorIPS6_EEEC1B7v160006ERS7_RSA_SD_, symObjAddr: 0x2AD0, symBinAddr: 0x3560, symSize: 0x40 }
  - { offsetInCU: 0xE057, offset: 0xE057, size: 0x8, addend: 0x0, symName: __ZNKSt3__116reverse_iteratorIPNS_10unique_ptrI15EnemyGameEntityNS_14default_deleteIS2_EEEEEdeB7v160006Ev, symObjAddr: 0x2B70, symBinAddr: 0x3600, symSize: 0x30 }
  - { offsetInCU: 0xE08A, offset: 0xE08A, size: 0x8, addend: 0x0, symName: __ZNSt3__116reverse_iteratorIPNS_10unique_ptrI15EnemyGameEntityNS_14default_deleteIS2_EEEEEppB7v160006Ev, symObjAddr: 0x2BA0, symBinAddr: 0x3630, symSize: 0x20 }
  - { offsetInCU: 0xE0AF, offset: 0xE0AF, size: 0x8, addend: 0x0, symName: __ZNSt3__128__exception_guard_exceptionsINS_29_AllocatorDestroyRangeReverseINS_9allocatorINS_10unique_ptrI15EnemyGameEntityNS_14default_deleteIS4_EEEEEENS_16reverse_iteratorIPS7_EEEEE10__completeB7v160006Ev, symObjAddr: 0x2BC0, symBinAddr: 0x3650, symSize: 0x20 }
  - { offsetInCU: 0xE0D4, offset: 0xE0D4, size: 0x8, addend: 0x0, symName: __ZNSt3__128__exception_guard_exceptionsINS_29_AllocatorDestroyRangeReverseINS_9allocatorINS_10unique_ptrI15EnemyGameEntityNS_14default_deleteIS4_EEEEEENS_16reverse_iteratorIPS7_EEEEED1B7v160006Ev, symObjAddr: 0x2BE0, symBinAddr: 0x3670, symSize: 0x20 }
  - { offsetInCU: 0xE0FD, offset: 0xE0FD, size: 0x8, addend: 0x0, symName: __ZNSt3__128__exception_guard_exceptionsINS_29_AllocatorDestroyRangeReverseINS_9allocatorINS_10unique_ptrI15EnemyGameEntityNS_14default_deleteIS4_EEEEEENS_16reverse_iteratorIPS7_EEEEEC1B7v160006ESC_, symObjAddr: 0x2C00, symBinAddr: 0x3690, symSize: 0x40 }
  - { offsetInCU: 0xE134, offset: 0xE134, size: 0x8, addend: 0x0, symName: __ZNSt3__128__exception_guard_exceptionsINS_29_AllocatorDestroyRangeReverseINS_9allocatorINS_10unique_ptrI15EnemyGameEntityNS_14default_deleteIS4_EEEEEENS_16reverse_iteratorIPS7_EEEEEC2B7v160006ESC_, symObjAddr: 0x2C40, symBinAddr: 0x36D0, symSize: 0x30 }
  - { offsetInCU: 0xE16B, offset: 0xE16B, size: 0x8, addend: 0x0, symName: __ZNSt3__129_AllocatorDestroyRangeReverseINS_9allocatorINS_10unique_ptrI15EnemyGameEntityNS_14default_deleteIS3_EEEEEENS_16reverse_iteratorIPS6_EEEC2B7v160006ERS7_RSA_SD_, symObjAddr: 0x2C70, symBinAddr: 0x3700, symSize: 0x40 }
  - { offsetInCU: 0xE1C6, offset: 0xE1C6, size: 0x8, addend: 0x0, symName: __ZNSt3__119__to_address_helperINS_16reverse_iteratorIPNS_10unique_ptrI15EnemyGameEntityNS_14default_deleteIS3_EEEEEEvE6__callB7v160006ERKS8_, symObjAddr: 0x2CB0, symBinAddr: 0x3740, symSize: 0x40 }
  - { offsetInCU: 0xE1E9, offset: 0xE1E9, size: 0x8, addend: 0x0, symName: __ZNKSt3__116reverse_iteratorIPNS_10unique_ptrI15EnemyGameEntityNS_14default_deleteIS2_EEEEEptB7v160006Ev, symObjAddr: 0x2CF0, symBinAddr: 0x3780, symSize: 0x30 }
  - { offsetInCU: 0xE20E, offset: 0xE20E, size: 0x8, addend: 0x0, symName: __ZNSt3__128__exception_guard_exceptionsINS_29_AllocatorDestroyRangeReverseINS_9allocatorINS_10unique_ptrI15EnemyGameEntityNS_14default_deleteIS4_EEEEEENS_16reverse_iteratorIPS7_EEEEED2B7v160006Ev, symObjAddr: 0x2DF0, symBinAddr: 0x3880, symSize: 0x40 }
  - { offsetInCU: 0xE237, offset: 0xE237, size: 0x8, addend: 0x0, symName: __ZNKSt3__129_AllocatorDestroyRangeReverseINS_9allocatorINS_10unique_ptrI15EnemyGameEntityNS_14default_deleteIS3_EEEEEENS_16reverse_iteratorIPS6_EEEclB7v160006Ev, symObjAddr: 0x2E30, symBinAddr: 0x38C0, symSize: 0xF0 }
  - { offsetInCU: 0xE25D, offset: 0xE25D, size: 0x8, addend: 0x0, symName: __ZNSt3__116reverse_iteratorINS0_IPNS_10unique_ptrI15EnemyGameEntityNS_14default_deleteIS2_EEEEEEEC1B7v160006ES7_, symObjAddr: 0x2F90, symBinAddr: 0x3A20, symSize: 0x30 }
  - { offsetInCU: 0xE294, offset: 0xE294, size: 0x8, addend: 0x0, symName: __ZNSt3__116reverse_iteratorINS0_IPNS_10unique_ptrI15EnemyGameEntityNS_14default_deleteIS2_EEEEEEEppB7v160006Ev, symObjAddr: 0x3030, symBinAddr: 0x3AC0, symSize: 0x30 }
  - { offsetInCU: 0xE2B9, offset: 0xE2B9, size: 0x8, addend: 0x0, symName: __ZNKSt3__116reverse_iteratorINS0_IPNS_10unique_ptrI15EnemyGameEntityNS_14default_deleteIS2_EEEEEEE4baseB7v160006Ev, symObjAddr: 0x3060, symBinAddr: 0x3AF0, symSize: 0x20 }
  - { offsetInCU: 0xE2E3, offset: 0xE2E3, size: 0x8, addend: 0x0, symName: __ZNSt3__119__to_address_helperINS_16reverse_iteratorINS1_IPNS_10unique_ptrI15EnemyGameEntityNS_14default_deleteIS3_EEEEEEEEvE6__callB7v160006ERKS9_, symObjAddr: 0x3080, symBinAddr: 0x3B10, symSize: 0x40 }
  - { offsetInCU: 0xE306, offset: 0xE306, size: 0x8, addend: 0x0, symName: __ZNKSt3__116reverse_iteratorINS0_IPNS_10unique_ptrI15EnemyGameEntityNS_14default_deleteIS2_EEEEEEEptB7v160006Ev, symObjAddr: 0x30C0, symBinAddr: 0x3B50, symSize: 0x50 }
  - { offsetInCU: 0xE32B, offset: 0xE32B, size: 0x8, addend: 0x0, symName: __ZNSt3__116reverse_iteratorIPNS_10unique_ptrI15EnemyGameEntityNS_14default_deleteIS2_EEEEEpLB7v160006El, symObjAddr: 0x31F0, symBinAddr: 0x3C80, symSize: 0x30 }
  - { offsetInCU: 0xE35E, offset: 0xE35E, size: 0x8, addend: 0x0, symName: __ZNSt3__116reverse_iteratorIPNS_10unique_ptrI15EnemyGameEntityNS_14default_deleteIS2_EEEEEmmB7v160006Ev, symObjAddr: 0x3220, symBinAddr: 0x3CB0, symSize: 0x20 }
  - { offsetInCU: 0xE383, offset: 0xE383, size: 0x8, addend: 0x0, symName: __ZNSt3__116reverse_iteratorINS0_IPNS_10unique_ptrI15EnemyGameEntityNS_14default_deleteIS2_EEEEEEEC2B7v160006ES7_, symObjAddr: 0x3240, symBinAddr: 0x3CD0, symSize: 0x40 }
  - { offsetInCU: 0xE3BA, offset: 0xE3BA, size: 0x8, addend: 0x0, symName: __ZNSt3__116reverse_iteratorIPNS_10unique_ptrI15EnemyGameEntityNS_14default_deleteIS2_EEEEEC2B7v160006ES6_, symObjAddr: 0x3280, symBinAddr: 0x3D10, symSize: 0x30 }
  - { offsetInCU: 0xE3F1, offset: 0xE3F1, size: 0x8, addend: 0x0, symName: __ZNSt3__114__split_bufferINS_10unique_ptrI15EnemyGameEntityNS_14default_deleteIS2_EEEERNS_9allocatorIS5_EEED2Ev, symObjAddr: 0x32B0, symBinAddr: 0x3D40, symSize: 0x70 }
  - { offsetInCU: 0xE41C, offset: 0xE41C, size: 0x8, addend: 0x0, symName: __ZNSt3__114__split_bufferINS_10unique_ptrI15EnemyGameEntityNS_14default_deleteIS2_EEEERNS_9allocatorIS5_EEE5clearB7v160006Ev, symObjAddr: 0x3320, symBinAddr: 0x3DB0, symSize: 0x20 }
  - { offsetInCU: 0xE441, offset: 0xE441, size: 0x8, addend: 0x0, symName: __ZNKSt3__114__split_bufferINS_10unique_ptrI15EnemyGameEntityNS_14default_deleteIS2_EEEERNS_9allocatorIS5_EEE8capacityB7v160006Ev, symObjAddr: 0x3340, symBinAddr: 0x3DD0, symSize: 0x30 }
  - { offsetInCU: 0xE466, offset: 0xE466, size: 0x8, addend: 0x0, symName: __ZNSt3__114__split_bufferINS_10unique_ptrI15EnemyGameEntityNS_14default_deleteIS2_EEEERNS_9allocatorIS5_EEE17__destruct_at_endB7v160006EPS5_, symObjAddr: 0x3370, symBinAddr: 0x3E00, symSize: 0x30 }
  - { offsetInCU: 0xE499, offset: 0xE499, size: 0x8, addend: 0x0, symName: __ZNSt3__114__split_bufferINS_10unique_ptrI15EnemyGameEntityNS_14default_deleteIS2_EEEERNS_9allocatorIS5_EEE17__destruct_at_endB7v160006EPS5_NS_17integral_constantIbLb0EEE, symObjAddr: 0x33A0, symBinAddr: 0x3E30, symSize: 0x80 }
  - { offsetInCU: 0xE4D7, offset: 0xE4D7, size: 0x8, addend: 0x0, symName: __ZNKSt3__114__split_bufferINS_10unique_ptrI15EnemyGameEntityNS_14default_deleteIS2_EEEERNS_9allocatorIS5_EEE9__end_capB7v160006Ev, symObjAddr: 0x3420, symBinAddr: 0x3EB0, symSize: 0x20 }
  - { offsetInCU: 0xE4FC, offset: 0xE4FC, size: 0x8, addend: 0x0, symName: __ZNKSt3__117__compressed_pairIPNS_10unique_ptrI15EnemyGameEntityNS_14default_deleteIS2_EEEERNS_9allocatorIS5_EEE5firstB7v160006Ev, symObjAddr: 0x3440, symBinAddr: 0x3ED0, symSize: 0x20 }
  - { offsetInCU: 0xE521, offset: 0xE521, size: 0x8, addend: 0x0, symName: __ZNSt3__110unique_ptrI15EnemyGameEntityNS_14default_deleteIS1_EEED2B7v160006Ev, symObjAddr: 0x3460, symBinAddr: 0x3EF0, symSize: 0x20 }
  - { offsetInCU: 0xE54A, offset: 0xE54A, size: 0x8, addend: 0x0, symName: __ZNSt3__110unique_ptrI15EnemyGameEntityNS_14default_deleteIS1_EEE5resetB7v160006EPS1_, symObjAddr: 0x3480, symBinAddr: 0x3F10, symSize: 0x70 }
  - { offsetInCU: 0xE58D, offset: 0xE58D, size: 0x8, addend: 0x0, symName: __ZNKSt3__114default_deleteI15EnemyGameEntityEclB7v160006EPS1_, symObjAddr: 0x34F0, symBinAddr: 0x3F80, symSize: 0x40 }
  - { offsetInCU: 0xE5C0, offset: 0xE5C0, size: 0x8, addend: 0x0, symName: __ZNSt3__110unique_ptrI16PlayerGameEntityNS_14default_deleteIS1_EEED2B7v160006Ev, symObjAddr: 0x3530, symBinAddr: 0x3FC0, symSize: 0x20 }
  - { offsetInCU: 0xE5E9, offset: 0xE5E9, size: 0x8, addend: 0x0, symName: __ZNSt3__110unique_ptrI16PlayerGameEntityNS_14default_deleteIS1_EEE5resetB7v160006EPS1_, symObjAddr: 0x3550, symBinAddr: 0x3FE0, symSize: 0x70 }
  - { offsetInCU: 0xE62C, offset: 0xE62C, size: 0x8, addend: 0x0, symName: __ZNSt3__117__compressed_pairIP16PlayerGameEntityNS_14default_deleteIS1_EEE5firstB7v160006Ev, symObjAddr: 0x35C0, symBinAddr: 0x4050, symSize: 0x20 }
  - { offsetInCU: 0xE651, offset: 0xE651, size: 0x8, addend: 0x0, symName: __ZNSt3__117__compressed_pairIP16PlayerGameEntityNS_14default_deleteIS1_EEE6secondB7v160006Ev, symObjAddr: 0x35E0, symBinAddr: 0x4070, symSize: 0x20 }
  - { offsetInCU: 0xE676, offset: 0xE676, size: 0x8, addend: 0x0, symName: __ZNKSt3__114default_deleteI16PlayerGameEntityEclB7v160006EPS1_, symObjAddr: 0x3600, symBinAddr: 0x4090, symSize: 0x40 }
  - { offsetInCU: 0xE6A9, offset: 0xE6A9, size: 0x8, addend: 0x0, symName: __ZNSt3__122__compressed_pair_elemIP16PlayerGameEntityLi0ELb0EE5__getB7v160006Ev, symObjAddr: 0x3640, symBinAddr: 0x40D0, symSize: 0x10 }
  - { offsetInCU: 0xE6CE, offset: 0xE6CE, size: 0x8, addend: 0x0, symName: __ZNSt3__122__compressed_pair_elemINS_14default_deleteI16PlayerGameEntityEELi1ELb1EE5__getB7v160006Ev, symObjAddr: 0x3650, symBinAddr: 0x40E0, symSize: 0x10 }
  - { offsetInCU: 0xE6F3, offset: 0xE6F3, size: 0x8, addend: 0x0, symName: __ZNSt3__19allocatorI15SpriteComponentEC1B7v160006Ev, symObjAddr: 0x3700, symBinAddr: 0x4190, symSize: 0x20 }
  - { offsetInCU: 0xE73A, offset: 0xE73A, size: 0x8, addend: 0x0, symName: __ZNSt3__118__allocation_guardINS_9allocatorINS_20__shared_ptr_emplaceI15SpriteComponentNS1_IS3_EEEEEEEC1B7v160006IS4_EET_m, symObjAddr: 0x3720, symBinAddr: 0x41B0, symSize: 0x30 }
  - { offsetInCU: 0xE788, offset: 0xE788, size: 0x8, addend: 0x0, symName: __ZNKSt3__118__allocation_guardINS_9allocatorINS_20__shared_ptr_emplaceI15SpriteComponentNS1_IS3_EEEEEEE5__getB7v160006Ev, symObjAddr: 0x3750, symBinAddr: 0x41E0, symSize: 0x20 }
  - { offsetInCU: 0xE7AD, offset: 0xE7AD, size: 0x8, addend: 0x0, symName: __ZNSt3__120__shared_ptr_emplaceI15SpriteComponentNS_9allocatorIS1_EEEC1B7v160006IJEEES3_DpOT_, symObjAddr: 0x3770, symBinAddr: 0x4200, symSize: 0x20 }
  - { offsetInCU: 0xE7EA, offset: 0xE7EA, size: 0x8, addend: 0x0, symName: __ZNSt3__118__allocation_guardINS_9allocatorINS_20__shared_ptr_emplaceI15SpriteComponentNS1_IS3_EEEEEEE13__release_ptrB7v160006Ev, symObjAddr: 0x3790, symBinAddr: 0x4220, symSize: 0x30 }
  - { offsetInCU: 0xE81D, offset: 0xE81D, size: 0x8, addend: 0x0, symName: __ZNSt3__110shared_ptrI15SpriteComponentE27__create_with_control_blockB7v160006IS1_NS_20__shared_ptr_emplaceIS1_NS_9allocatorIS1_EEEEEES2_PT_PT0_, symObjAddr: 0x37C0, symBinAddr: 0x4250, symSize: 0x70 }
  - { offsetInCU: 0xE872, offset: 0xE872, size: 0x8, addend: 0x0, symName: __ZNSt3__120__shared_ptr_emplaceI15SpriteComponentNS_9allocatorIS1_EEE10__get_elemB7v160006Ev, symObjAddr: 0x3830, symBinAddr: 0x42C0, symSize: 0x20 }
  - { offsetInCU: 0xE897, offset: 0xE897, size: 0x8, addend: 0x0, symName: __ZNSt3__118__allocation_guardINS_9allocatorINS_20__shared_ptr_emplaceI15SpriteComponentNS1_IS3_EEEEEEED1B7v160006Ev, symObjAddr: 0x3850, symBinAddr: 0x42E0, symSize: 0x20 }
  - { offsetInCU: 0xE8C0, offset: 0xE8C0, size: 0x8, addend: 0x0, symName: __ZNSt3__118__allocation_guardINS_9allocatorINS_20__shared_ptr_emplaceI15SpriteComponentNS1_IS3_EEEEEEEC2B7v160006IS4_EET_m, symObjAddr: 0x3870, symBinAddr: 0x4300, symSize: 0x50 }
  - { offsetInCU: 0xE90E, offset: 0xE90E, size: 0x8, addend: 0x0, symName: __ZNSt3__19allocatorINS_20__shared_ptr_emplaceI15SpriteComponentNS0_IS2_EEEEEC1B7v160006IS2_EERKNS0_IT_EE, symObjAddr: 0x38C0, symBinAddr: 0x4350, symSize: 0x30 }
  - { offsetInCU: 0xE94A, offset: 0xE94A, size: 0x8, addend: 0x0, symName: __ZNSt3__116allocator_traitsINS_9allocatorINS_20__shared_ptr_emplaceI15SpriteComponentNS1_IS3_EEEEEEE8allocateB7v160006ERS6_m, symObjAddr: 0x38F0, symBinAddr: 0x4380, symSize: 0x30 }
  - { offsetInCU: 0xE97D, offset: 0xE97D, size: 0x8, addend: 0x0, symName: __ZNSt3__19allocatorINS_20__shared_ptr_emplaceI15SpriteComponentNS0_IS2_EEEEEC2B7v160006IS2_EERKNS0_IT_EE, symObjAddr: 0x3920, symBinAddr: 0x43B0, symSize: 0x20 }
  - { offsetInCU: 0xE9B9, offset: 0xE9B9, size: 0x8, addend: 0x0, symName: __ZNSt3__116__non_trivial_ifILb1ENS_9allocatorINS_20__shared_ptr_emplaceI15SpriteComponentNS1_IS3_EEEEEEEC2B7v160006Ev, symObjAddr: 0x3940, symBinAddr: 0x43D0, symSize: 0x10 }
  - { offsetInCU: 0xE9E2, offset: 0xE9E2, size: 0x8, addend: 0x0, symName: __ZNSt3__19allocatorINS_20__shared_ptr_emplaceI15SpriteComponentNS0_IS2_EEEEE8allocateB7v160006Em, symObjAddr: 0x3950, symBinAddr: 0x43E0, symSize: 0x50 }
  - { offsetInCU: 0xEA1F, offset: 0xEA1F, size: 0x8, addend: 0x0, symName: __ZNSt3__116allocator_traitsINS_9allocatorINS_20__shared_ptr_emplaceI15SpriteComponentNS1_IS3_EEEEEEE8max_sizeB7v160006IS6_vvEEmRKS6_, symObjAddr: 0x39A0, symBinAddr: 0x4430, symSize: 0x20 }
  - { offsetInCU: 0xEA4B, offset: 0xEA4B, size: 0x8, addend: 0x0, symName: __ZNSt3__120__shared_ptr_emplaceI15SpriteComponentNS_9allocatorIS1_EEEC2B7v160006IJEEES3_DpOT_, symObjAddr: 0x39C0, symBinAddr: 0x4450, symSize: 0xB0 }
  - { offsetInCU: 0xEAAA, offset: 0xEAAA, size: 0x8, addend: 0x0, symName: __ZNSt3__119__shared_weak_countC2B7v160006El, symObjAddr: 0x3A70, symBinAddr: 0x4500, symSize: 0x50 }
  - { offsetInCU: 0xEAE1, offset: 0xEAE1, size: 0x8, addend: 0x0, symName: __ZNSt3__120__shared_ptr_emplaceI15SpriteComponentNS_9allocatorIS1_EEE8_StorageC1B7v160006EOS3_, symObjAddr: 0x3AC0, symBinAddr: 0x4550, symSize: 0x30 }
  - { offsetInCU: 0xEB19, offset: 0xEB19, size: 0x8, addend: 0x0, symName: __ZNSt3__120__shared_ptr_emplaceI15SpriteComponentNS_9allocatorIS1_EEE11__get_allocB7v160006Ev, symObjAddr: 0x3AF0, symBinAddr: 0x4580, symSize: 0x20 }
  - { offsetInCU: 0xEB43, offset: 0xEB43, size: 0x8, addend: 0x0, symName: __ZNSt3__116allocator_traitsINS_9allocatorI15SpriteComponentEEE9constructB7v160006IS2_JEvvEEvRS3_PT_DpOT0_, symObjAddr: 0x3B10, symBinAddr: 0x45A0, symSize: 0x20 }
  - { offsetInCU: 0xEB83, offset: 0xEB83, size: 0x8, addend: 0x0, symName: __ZNSt3__120__shared_ptr_emplaceI15SpriteComponentNS_9allocatorIS1_EEE8_StorageD1B7v160006Ev, symObjAddr: 0x3B30, symBinAddr: 0x45C0, symSize: 0x20 }
  - { offsetInCU: 0xEBAC, offset: 0xEBAC, size: 0x8, addend: 0x0, symName: __ZNSt3__120__shared_ptr_emplaceI15SpriteComponentNS_9allocatorIS1_EEED1Ev, symObjAddr: 0x3B50, symBinAddr: 0x45E0, symSize: 0x20 }
  - { offsetInCU: 0xEBD8, offset: 0xEBD8, size: 0x8, addend: 0x0, symName: __ZNSt3__120__shared_ptr_emplaceI15SpriteComponentNS_9allocatorIS1_EEED0Ev, symObjAddr: 0x3B70, symBinAddr: 0x4600, symSize: 0x30 }
  - { offsetInCU: 0xEC04, offset: 0xEC04, size: 0x8, addend: 0x0, symName: __ZNSt3__120__shared_ptr_emplaceI15SpriteComponentNS_9allocatorIS1_EEE16__on_zero_sharedEv, symObjAddr: 0x3BA0, symBinAddr: 0x4630, symSize: 0x50 }
  - { offsetInCU: 0xEC4B, offset: 0xEC4B, size: 0x8, addend: 0x0, symName: __ZNSt3__120__shared_ptr_emplaceI15SpriteComponentNS_9allocatorIS1_EEE21__on_zero_shared_weakEv, symObjAddr: 0x3BF0, symBinAddr: 0x4680, symSize: 0x60 }
  - { offsetInCU: 0xEC8B, offset: 0xEC8B, size: 0x8, addend: 0x0, symName: __ZNSt3__114__shared_countC2B7v160006El, symObjAddr: 0x3C50, symBinAddr: 0x46E0, symSize: 0x30 }
  - { offsetInCU: 0xECC2, offset: 0xECC2, size: 0x8, addend: 0x0, symName: __ZNSt3__120__shared_ptr_emplaceI15SpriteComponentNS_9allocatorIS1_EEE8_StorageC2B7v160006EOS3_, symObjAddr: 0x3C80, symBinAddr: 0x4710, symSize: 0x20 }
  - { offsetInCU: 0xECFA, offset: 0xECFA, size: 0x8, addend: 0x0, symName: __ZNSt3__120__shared_ptr_emplaceI15SpriteComponentNS_9allocatorIS1_EEE8_Storage11__get_allocEv, symObjAddr: 0x3CA0, symBinAddr: 0x4730, symSize: 0x40 }
  - { offsetInCU: 0xED4C, offset: 0xED4C, size: 0x8, addend: 0x0, symName: __ZNSt3__117__compressed_pairINS_9allocatorI15SpriteComponentEES2_E16__get_first_baseB7v160006EPS4_, symObjAddr: 0x3CE0, symBinAddr: 0x4770, symSize: 0x10 }
  - { offsetInCU: 0xED6F, offset: 0xED6F, size: 0x8, addend: 0x0, symName: __ZNSt3__120__shared_ptr_emplaceI15SpriteComponentNS_9allocatorIS1_EEE8_StorageD2B7v160006Ev, symObjAddr: 0x3D20, symBinAddr: 0x47B0, symSize: 0x20 }
  - { offsetInCU: 0xED98, offset: 0xED98, size: 0x8, addend: 0x0, symName: __ZNSt3__120__shared_ptr_emplaceI15SpriteComponentNS_9allocatorIS1_EEED2Ev, symObjAddr: 0x3D40, symBinAddr: 0x47D0, symSize: 0x40 }
  - { offsetInCU: 0xEDC4, offset: 0xEDC4, size: 0x8, addend: 0x0, symName: __ZNSt3__116allocator_traitsINS_9allocatorI15SpriteComponentEEE7destroyB7v160006IS2_vvEEvRS3_PT_, symObjAddr: 0x3D80, symBinAddr: 0x4810, symSize: 0x20 }
  - { offsetInCU: 0xEDFF, offset: 0xEDFF, size: 0x8, addend: 0x0, symName: __ZNSt3__116allocator_traitsINS_9allocatorINS_20__shared_ptr_emplaceI15SpriteComponentNS1_IS3_EEEEEEE10deallocateB7v160006ERS6_PS5_m, symObjAddr: 0x3DE0, symBinAddr: 0x4870, symSize: 0x30 }
  - { offsetInCU: 0xEE46, offset: 0xEE46, size: 0x8, addend: 0x0, symName: __ZNSt3__114pointer_traitsIPNS_20__shared_ptr_emplaceI15SpriteComponentNS_9allocatorIS2_EEEEE10pointer_toB7v160006ERS5_, symObjAddr: 0x3E10, symBinAddr: 0x48A0, symSize: 0x10 }
  - { offsetInCU: 0xEE69, offset: 0xEE69, size: 0x8, addend: 0x0, symName: __ZNSt3__19allocatorINS_20__shared_ptr_emplaceI15SpriteComponentNS0_IS2_EEEEE10deallocateB7v160006EPS4_m, symObjAddr: 0x3E20, symBinAddr: 0x48B0, symSize: 0x40 }
  - { offsetInCU: 0xEEAA, offset: 0xEEAA, size: 0x8, addend: 0x0, symName: __ZNSt3__110shared_ptrI15SpriteComponentEC1B7v160006Ev, symObjAddr: 0x3E60, symBinAddr: 0x48F0, symSize: 0x20 }
  - { offsetInCU: 0xEED3, offset: 0xEED3, size: 0x8, addend: 0x0, symName: __ZNSt3__110shared_ptrI15SpriteComponentE18__enable_weak_thisB7v160006Ez, symObjAddr: 0x3E80, symBinAddr: 0x4910, symSize: 0x10 }
  - { offsetInCU: 0xEEF9, offset: 0xEEF9, size: 0x8, addend: 0x0, symName: __ZNSt3__110shared_ptrI15SpriteComponentEC2B7v160006Ev, symObjAddr: 0x3E90, symBinAddr: 0x4920, symSize: 0x20 }
  - { offsetInCU: 0xEF22, offset: 0xEF22, size: 0x8, addend: 0x0, symName: __ZNSt3__120__shared_ptr_emplaceI15SpriteComponentNS_9allocatorIS1_EEE8_Storage10__get_elemEv, symObjAddr: 0x3EB0, symBinAddr: 0x4940, symSize: 0x40 }
  - { offsetInCU: 0xEF74, offset: 0xEF74, size: 0x8, addend: 0x0, symName: __ZNSt3__117__compressed_pairINS_9allocatorI15SpriteComponentEES2_E17__get_second_baseB7v160006EPS4_, symObjAddr: 0x3EF0, symBinAddr: 0x4980, symSize: 0x10 }
  - { offsetInCU: 0xEF97, offset: 0xEF97, size: 0x8, addend: 0x0, symName: __ZNSt3__118__allocation_guardINS_9allocatorINS_20__shared_ptr_emplaceI15SpriteComponentNS1_IS3_EEEEEEED2B7v160006Ev, symObjAddr: 0x3F00, symBinAddr: 0x4990, symSize: 0x40 }
  - { offsetInCU: 0xEFC0, offset: 0xEFC0, size: 0x8, addend: 0x0, symName: __ZNSt3__19allocatorI15SpriteComponentEC2B7v160006Ev, symObjAddr: 0x3F40, symBinAddr: 0x49D0, symSize: 0x20 }
  - { offsetInCU: 0xEFE9, offset: 0xEFE9, size: 0x8, addend: 0x0, symName: __ZNSt3__116__non_trivial_ifILb1ENS_9allocatorI15SpriteComponentEEEC2B7v160006Ev, symObjAddr: 0x3F60, symBinAddr: 0x49F0, symSize: 0x10 }
  - { offsetInCU: 0xF012, offset: 0xF012, size: 0x8, addend: 0x0, symName: __ZNSt3__110shared_ptrI15SpriteComponentED2B7v160006Ev, symObjAddr: 0x3F70, symBinAddr: 0x4A00, symSize: 0x40 }
  - { offsetInCU: 0xF03B, offset: 0xF03B, size: 0x8, addend: 0x0, symName: __ZNSt3__119__shared_weak_count16__release_sharedB7v160006Ev, symObjAddr: 0x3FB0, symBinAddr: 0x4A40, symSize: 0x40 }
  - { offsetInCU: 0xF060, offset: 0xF060, size: 0x8, addend: 0x0, symName: __ZNSt3__114__shared_count16__release_sharedB7v160006Ev, symObjAddr: 0x3FF0, symBinAddr: 0x4A80, symSize: 0x50 }
  - { offsetInCU: 0xF085, offset: 0xF085, size: 0x8, addend: 0x0, symName: __ZNSt3__110unique_ptrI15EnemyGameEntityNS_14default_deleteIS1_EEEC1B7v160006ILb1EvEEPS1_, symObjAddr: 0x4070, symBinAddr: 0x4B00, symSize: 0x30 }
  - { offsetInCU: 0xF0C7, offset: 0xF0C7, size: 0x8, addend: 0x0, symName: __ZNSt3__110unique_ptrI15EnemyGameEntityNS_14default_deleteIS1_EEEC2B7v160006ILb1EvEEPS1_, symObjAddr: 0x40A0, symBinAddr: 0x4B30, symSize: 0x40 }
  - { offsetInCU: 0xF109, offset: 0xF109, size: 0x8, addend: 0x0, symName: __ZNSt3__117__compressed_pairIP15EnemyGameEntityNS_14default_deleteIS1_EEEC1B7v160006IRS2_NS_16__value_init_tagEEEOT_OT0_, symObjAddr: 0x40E0, symBinAddr: 0x4B70, symSize: 0x30 }
  - { offsetInCU: 0xF160, offset: 0xF160, size: 0x8, addend: 0x0, symName: __ZNSt3__117__compressed_pairIP15EnemyGameEntityNS_14default_deleteIS1_EEEC2B7v160006IRS2_NS_16__value_init_tagEEEOT_OT0_, symObjAddr: 0x4110, symBinAddr: 0x4BA0, symSize: 0x40 }
  - { offsetInCU: 0xF1B7, offset: 0xF1B7, size: 0x8, addend: 0x0, symName: __ZNSt3__122__compressed_pair_elemIP15EnemyGameEntityLi0ELb0EEC2B7v160006IRS2_vEEOT_, symObjAddr: 0x4150, symBinAddr: 0x4BE0, symSize: 0x20 }
  - { offsetInCU: 0xF1F8, offset: 0xF1F8, size: 0x8, addend: 0x0, symName: __ZNSt3__122__compressed_pair_elemINS_14default_deleteI15EnemyGameEntityEELi1ELb1EEC2B7v160006ENS_16__value_init_tagE, symObjAddr: 0x4170, symBinAddr: 0x4C00, symSize: 0x10 }
  - { offsetInCU: 0xF22B, offset: 0xF22B, size: 0x8, addend: 0x0, symName: __ZNKSt3__117__compressed_pairIP15EnemyGameEntityNS_14default_deleteIS1_EEE5firstB7v160006Ev, symObjAddr: 0x4180, symBinAddr: 0x4C10, symSize: 0x20 }
  - { offsetInCU: 0xF250, offset: 0xF250, size: 0x8, addend: 0x0, symName: __ZNKSt3__122__compressed_pair_elemIP15EnemyGameEntityLi0ELb0EE5__getB7v160006Ev, symObjAddr: 0x41A0, symBinAddr: 0x4C30, symSize: 0x10 }
  - { offsetInCU: 0xF275, offset: 0xF275, size: 0x8, addend: 0x0, symName: __ZNSt3__110shared_ptrI9ComponentEC2B7v160006I15SpriteComponentvEERKNS0_IT_EE, symObjAddr: 0x41B0, symBinAddr: 0x4C40, symSize: 0x50 }
  - { offsetInCU: 0xF2B7, offset: 0xF2B7, size: 0x8, addend: 0x0, symName: __ZNSt3__119__shared_weak_count12__add_sharedB7v160006Ev, symObjAddr: 0x4200, symBinAddr: 0x4C90, symSize: 0x20 }
  - { offsetInCU: 0xF2DC, offset: 0xF2DC, size: 0x8, addend: 0x0, symName: __ZNSt3__114__shared_count12__add_sharedB7v160006Ev, symObjAddr: 0x4220, symBinAddr: 0x4CB0, symSize: 0x20 }
  - { offsetInCU: 0xF301, offset: 0xF301, size: 0x8, addend: 0x0, symName: __ZNSt3__110shared_ptrI9ComponentED2B7v160006Ev, symObjAddr: 0x4270, symBinAddr: 0x4D00, symSize: 0x40 }
  - { offsetInCU: 0xF32A, offset: 0xF32A, size: 0x8, addend: 0x0, symName: __ZNSt3__110unique_ptrI16PlayerGameEntityNS_14default_deleteIS1_EEEC1B7v160006ILb1EvEEPS1_, symObjAddr: 0x42B0, symBinAddr: 0x4D40, symSize: 0x30 }
  - { offsetInCU: 0xF36C, offset: 0xF36C, size: 0x8, addend: 0x0, symName: __ZNSt3__110unique_ptrI16PlayerGameEntityNS_14default_deleteIS1_EEEC2B7v160006ILb1EvEEPS1_, symObjAddr: 0x42E0, symBinAddr: 0x4D70, symSize: 0x40 }
  - { offsetInCU: 0xF3AE, offset: 0xF3AE, size: 0x8, addend: 0x0, symName: __ZNSt3__117__compressed_pairIP16PlayerGameEntityNS_14default_deleteIS1_EEEC1B7v160006IRS2_NS_16__value_init_tagEEEOT_OT0_, symObjAddr: 0x4320, symBinAddr: 0x4DB0, symSize: 0x30 }
  - { offsetInCU: 0xF405, offset: 0xF405, size: 0x8, addend: 0x0, symName: __ZNSt3__117__compressed_pairIP16PlayerGameEntityNS_14default_deleteIS1_EEEC2B7v160006IRS2_NS_16__value_init_tagEEEOT_OT0_, symObjAddr: 0x4350, symBinAddr: 0x4DE0, symSize: 0x40 }
  - { offsetInCU: 0xF45C, offset: 0xF45C, size: 0x8, addend: 0x0, symName: __ZNSt3__122__compressed_pair_elemIP16PlayerGameEntityLi0ELb0EEC2B7v160006IRS2_vEEOT_, symObjAddr: 0x4390, symBinAddr: 0x4E20, symSize: 0x20 }
  - { offsetInCU: 0xF49D, offset: 0xF49D, size: 0x8, addend: 0x0, symName: __ZNSt3__110unique_ptrI16PlayerGameEntityNS_14default_deleteIS1_EEE7releaseB7v160006Ev, symObjAddr: 0x43B0, symBinAddr: 0x4E40, symSize: 0x40 }
  - { offsetInCU: 0xF4D1, offset: 0xF4D1, size: 0x8, addend: 0x0, symName: __ZNSt3__110unique_ptrI16PlayerGameEntityNS_14default_deleteIS1_EEE11get_deleterB7v160006Ev, symObjAddr: 0x43F0, symBinAddr: 0x4E80, symSize: 0x20 }
  - { offsetInCU: 0xF4F6, offset: 0xF4F6, size: 0x8, addend: 0x0, symName: __ZNKSt3__117__compressed_pairIP16PlayerGameEntityNS_14default_deleteIS1_EEE5firstB7v160006Ev, symObjAddr: 0x4410, symBinAddr: 0x4EA0, symSize: 0x20 }
  - { offsetInCU: 0xF51B, offset: 0xF51B, size: 0x8, addend: 0x0, symName: __ZNKSt3__122__compressed_pair_elemIP16PlayerGameEntityLi0ELb0EE5__getB7v160006Ev, symObjAddr: 0x4430, symBinAddr: 0x4EC0, symSize: 0x10 }
  - { offsetInCU: 0xF540, offset: 0xF540, size: 0x8, addend: 0x0, symName: __ZNSt3__110shared_ptrI10ProjectileED2B7v160006Ev, symObjAddr: 0x4440, symBinAddr: 0x4ED0, symSize: 0x40 }
  - { offsetInCU: 0xF569, offset: 0xF569, size: 0x8, addend: 0x0, symName: __ZNSt3__110shared_ptrI10GameEntityEC2B7v160006I10ProjectilevEEONS0_IT_EE, symObjAddr: 0x4480, symBinAddr: 0x4F10, symSize: 0x40 }
  - { offsetInCU: 0xF5AB, offset: 0xF5AB, size: 0x8, addend: 0x0, symName: __ZNSt3__110shared_ptrI10GameEntityED2B7v160006Ev, symObjAddr: 0x44C0, symBinAddr: 0x4F50, symSize: 0x32 }
  - { offsetInCU: 0x32BB, offset: 0x13876, size: 0x8, addend: 0x0, symName: __ZNSt3__120dynamic_pointer_castB7v160006I15SpriteComponent9ComponentEENS_10shared_ptrIT_EERKNS3_IT0_EE, symObjAddr: 0x930, symBinAddr: 0x57A0, symSize: 0xA0 }
  - { offsetInCU: 0x404A, offset: 0x14605, size: 0x8, addend: 0x0, symName: __ZNSt3__111make_sharedB7v160006I10ProjectileJEvEENS_10shared_ptrIT_EEDpOT0_, symObjAddr: 0x2C0, symBinAddr: 0x51C0, symSize: 0x40 }
  - { offsetInCU: 0x4078, offset: 0x14633, size: 0x8, addend: 0x0, symName: __ZNSt3__1neB7v160006IPNS_10shared_ptrI9ComponentEEEEbRKNS_11__wrap_iterIT_EES9_, symObjAddr: 0x5B0, symBinAddr: 0x5420, symSize: 0x30 }
  - { offsetInCU: 0x40BB, offset: 0x14676, size: 0x8, addend: 0x0, symName: __ZNSt3__1eqB7v160006IPNS_10shared_ptrI9ComponentEEEEbRKNS_11__wrap_iterIT_EES9_, symObjAddr: 0xD40, symBinAddr: 0x5A20, symSize: 0x40 }
  - { offsetInCU: 0x40FE, offset: 0x146B9, size: 0x8, addend: 0x0, symName: __ZNSt3__115allocate_sharedB7v160006I10ProjectileNS_9allocatorIS1_EEJEvEENS_10shared_ptrIT_EERKT0_DpOT1_, symObjAddr: 0x1A20, symBinAddr: 0x5A80, symSize: 0xA0 }
  - { offsetInCU: 0x441F, offset: 0x149DA, size: 0x8, addend: 0x0, symName: __ZNSt3__112construct_atB7v160006I10ProjectileJEPS1_EEPT_S4_DpOT0_, symObjAddr: 0x2040, symBinAddr: 0x60A0, symSize: 0x30 }
  - { offsetInCU: 0x447B, offset: 0x14A36, size: 0x8, addend: 0x0, symName: __ZNSt3__110destroy_atB7v160006I10ProjectileLi0EEEvPT_, symObjAddr: 0x20F0, symBinAddr: 0x6150, symSize: 0x20 }
  - { offsetInCU: 0x44B2, offset: 0x14A6D, size: 0x8, addend: 0x0, symName: __ZNSt3__112__destroy_atB7v160006I10ProjectileLi0EEEvPT_, symObjAddr: 0x2110, symBinAddr: 0x6170, symSize: 0x20 }
  - { offsetInCU: 0x451C, offset: 0x14AD7, size: 0x8, addend: 0x0, symName: __ZNSt3__14swapB7v160006IP10ProjectileEENS_9enable_ifIXaasr21is_move_constructibleIT_EE5valuesr18is_move_assignableIS4_EE5valueEvE4typeERS4_S7_, symObjAddr: 0x2340, symBinAddr: 0x63A0, symSize: 0x40 }
  - { offsetInCU: 0x456D, offset: 0x14B28, size: 0x8, addend: 0x0, symName: __ZNSt3__14swapB7v160006IPNS_19__shared_weak_countEEENS_9enable_ifIXaasr21is_move_constructibleIT_EE5valuesr18is_move_assignableIS4_EE5valueEvE4typeERS4_S7_, symObjAddr: 0x2380, symBinAddr: 0x63E0, symSize: 0x40 }
  - { offsetInCU: 0x688F, offset: 0x16E4A, size: 0x8, addend: 0x0, symName: __ZN15EnemyGameEntityC2EP12SDL_Renderer, symObjAddr: 0x0, symBinAddr: 0x4F90, symSize: 0x210 }
  - { offsetInCU: 0x68DD, offset: 0x16E98, size: 0x8, addend: 0x0, symName: __ZNSt3__110shared_ptrI10ProjectileEC1B7v160006Ev, symObjAddr: 0x210, symBinAddr: 0x51A0, symSize: 0x20 }
  - { offsetInCU: 0x690B, offset: 0x16EC6, size: 0x8, addend: 0x0, symName: __ZNSt3__110shared_ptrI10ProjectileEaSB7v160006EOS2_, symObjAddr: 0x300, symBinAddr: 0x5200, symSize: 0x50 }
  - { offsetInCU: 0x693F, offset: 0x16EFA, size: 0x8, addend: 0x0, symName: __ZNKSt3__110shared_ptrI10ProjectileEptB7v160006Ev, symObjAddr: 0x370, symBinAddr: 0x5250, symSize: 0x20 }
  - { offsetInCU: 0x6964, offset: 0x16F1F, size: 0x8, addend: 0x0, symName: __ZN15EnemyGameEntityC1EP12SDL_Renderer, symObjAddr: 0x400, symBinAddr: 0x5270, symSize: 0x30 }
  - { offsetInCU: 0x699D, offset: 0x16F58, size: 0x8, addend: 0x0, symName: __ZN15EnemyGameEntityD2Ev, symObjAddr: 0x430, symBinAddr: 0x52A0, symSize: 0x40 }
  - { offsetInCU: 0x69C8, offset: 0x16F83, size: 0x8, addend: 0x0, symName: __ZN15EnemyGameEntityD1Ev, symObjAddr: 0x470, symBinAddr: 0x52E0, symSize: 0x20 }
  - { offsetInCU: 0x69F3, offset: 0x16FAE, size: 0x8, addend: 0x0, symName: __ZN15EnemyGameEntityD0Ev, symObjAddr: 0x490, symBinAddr: 0x5300, symSize: 0x30 }
  - { offsetInCU: 0x6A1E, offset: 0x16FD9, size: 0x8, addend: 0x0, symName: __ZN15EnemyGameEntity5InputEf, symObjAddr: 0x4C0, symBinAddr: 0x5330, symSize: 0x90 }
  - { offsetInCU: 0x6AA4, offset: 0x1705F, size: 0x8, addend: 0x0, symName: __ZNSt3__16vectorINS_10shared_ptrI9ComponentEENS_9allocatorIS3_EEE5beginB7v160006Ev, symObjAddr: 0x550, symBinAddr: 0x53C0, symSize: 0x30 }
  - { offsetInCU: 0x6ACA, offset: 0x17085, size: 0x8, addend: 0x0, symName: __ZNSt3__16vectorINS_10shared_ptrI9ComponentEENS_9allocatorIS3_EEE3endB7v160006Ev, symObjAddr: 0x580, symBinAddr: 0x53F0, symSize: 0x30 }
  - { offsetInCU: 0x6AF0, offset: 0x170AB, size: 0x8, addend: 0x0, symName: __ZNKSt3__111__wrap_iterIPNS_10shared_ptrI9ComponentEEEdeB7v160006Ev, symObjAddr: 0x5E0, symBinAddr: 0x5450, symSize: 0x20 }
  - { offsetInCU: 0x6B15, offset: 0x170D0, size: 0x8, addend: 0x0, symName: __ZNKSt3__110shared_ptrI9ComponentEptB7v160006Ev, symObjAddr: 0x600, symBinAddr: 0x5470, symSize: 0x20 }
  - { offsetInCU: 0x6B3A, offset: 0x170F5, size: 0x8, addend: 0x0, symName: __ZNSt3__111__wrap_iterIPNS_10shared_ptrI9ComponentEEEppB7v160006Ev, symObjAddr: 0x620, symBinAddr: 0x5490, symSize: 0x20 }
  - { offsetInCU: 0x6B5F, offset: 0x1711A, size: 0x8, addend: 0x0, symName: __ZN15EnemyGameEntity6UpdateEf, symObjAddr: 0x640, symBinAddr: 0x54B0, symSize: 0x2F0 }
  - { offsetInCU: 0x6BF5, offset: 0x171B0, size: 0x8, addend: 0x0, symName: __ZNSt3__16vectorINS_10shared_ptrI9ComponentEENS_9allocatorIS3_EEEixB7v160006Em, symObjAddr: 0x9D0, symBinAddr: 0x5840, symSize: 0x20 }
  - { offsetInCU: 0x6C2A, offset: 0x171E5, size: 0x8, addend: 0x0, symName: __ZN15EnemyGameEntity6RenderEP12SDL_Renderer, symObjAddr: 0x9F0, symBinAddr: 0x5860, symSize: 0xC0 }
  - { offsetInCU: 0x6CB0, offset: 0x1726B, size: 0x8, addend: 0x0, symName: __ZNK15EnemyGameEntity13GetProjectileEv, symObjAddr: 0xAB0, symBinAddr: 0x5920, symSize: 0x30 }
  - { offsetInCU: 0x6CD7, offset: 0x17292, size: 0x8, addend: 0x0, symName: __ZNSt3__110shared_ptrI10ProjectileEC1B7v160006ERKS2_, symObjAddr: 0xAE0, symBinAddr: 0x5950, symSize: 0x30 }
  - { offsetInCU: 0x6D0F, offset: 0x172CA, size: 0x8, addend: 0x0, symName: __ZNSt3__110shared_ptrI10ProjectileEC2B7v160006Ev, symObjAddr: 0xB10, symBinAddr: 0x5980, symSize: 0x20 }
  - { offsetInCU: 0x6D38, offset: 0x172F3, size: 0x8, addend: 0x0, symName: __ZNSt3__16vectorINS_10shared_ptrI9ComponentEENS_9allocatorIS3_EEE11__make_iterB7v160006EPS3_, symObjAddr: 0xCC0, symBinAddr: 0x59A0, symSize: 0x30 }
  - { offsetInCU: 0x6D6C, offset: 0x17327, size: 0x8, addend: 0x0, symName: __ZNSt3__111__wrap_iterIPNS_10shared_ptrI9ComponentEEEC1B7v160006EPKvS4_, symObjAddr: 0xCF0, symBinAddr: 0x59D0, symSize: 0x30 }
  - { offsetInCU: 0x6DB1, offset: 0x1736C, size: 0x8, addend: 0x0, symName: __ZNSt3__111__wrap_iterIPNS_10shared_ptrI9ComponentEEEC2B7v160006EPKvS4_, symObjAddr: 0xD20, symBinAddr: 0x5A00, symSize: 0x20 }
  - { offsetInCU: 0x6DF6, offset: 0x173B1, size: 0x8, addend: 0x0, symName: __ZNKSt3__111__wrap_iterIPNS_10shared_ptrI9ComponentEEE4baseB7v160006Ev, symObjAddr: 0xD80, symBinAddr: 0x5A60, symSize: 0x20 }
  - { offsetInCU: 0x6E1B, offset: 0x173D6, size: 0x8, addend: 0x0, symName: __ZNSt3__19allocatorI10ProjectileEC1B7v160006Ev, symObjAddr: 0x1AC0, symBinAddr: 0x5B20, symSize: 0x20 }
  - { offsetInCU: 0x6E62, offset: 0x1741D, size: 0x8, addend: 0x0, symName: __ZNSt3__118__allocation_guardINS_9allocatorINS_20__shared_ptr_emplaceI10ProjectileNS1_IS3_EEEEEEEC1B7v160006IS4_EET_m, symObjAddr: 0x1AE0, symBinAddr: 0x5B40, symSize: 0x30 }
  - { offsetInCU: 0x6EB0, offset: 0x1746B, size: 0x8, addend: 0x0, symName: __ZNKSt3__118__allocation_guardINS_9allocatorINS_20__shared_ptr_emplaceI10ProjectileNS1_IS3_EEEEEEE5__getB7v160006Ev, symObjAddr: 0x1B10, symBinAddr: 0x5B70, symSize: 0x20 }
  - { offsetInCU: 0x6ED5, offset: 0x17490, size: 0x8, addend: 0x0, symName: __ZNSt3__120__shared_ptr_emplaceI10ProjectileNS_9allocatorIS1_EEEC1B7v160006IJEEES3_DpOT_, symObjAddr: 0x1B30, symBinAddr: 0x5B90, symSize: 0x20 }
  - { offsetInCU: 0x6F12, offset: 0x174CD, size: 0x8, addend: 0x0, symName: __ZNSt3__118__allocation_guardINS_9allocatorINS_20__shared_ptr_emplaceI10ProjectileNS1_IS3_EEEEEEE13__release_ptrB7v160006Ev, symObjAddr: 0x1B50, symBinAddr: 0x5BB0, symSize: 0x30 }
  - { offsetInCU: 0x6F45, offset: 0x17500, size: 0x8, addend: 0x0, symName: __ZNSt3__110shared_ptrI10ProjectileE27__create_with_control_blockB7v160006IS1_NS_20__shared_ptr_emplaceIS1_NS_9allocatorIS1_EEEEEES2_PT_PT0_, symObjAddr: 0x1B80, symBinAddr: 0x5BE0, symSize: 0x70 }
  - { offsetInCU: 0x6F9A, offset: 0x17555, size: 0x8, addend: 0x0, symName: __ZNSt3__120__shared_ptr_emplaceI10ProjectileNS_9allocatorIS1_EEE10__get_elemB7v160006Ev, symObjAddr: 0x1BF0, symBinAddr: 0x5C50, symSize: 0x20 }
  - { offsetInCU: 0x6FBF, offset: 0x1757A, size: 0x8, addend: 0x0, symName: __ZNSt3__118__allocation_guardINS_9allocatorINS_20__shared_ptr_emplaceI10ProjectileNS1_IS3_EEEEEEED1B7v160006Ev, symObjAddr: 0x1C10, symBinAddr: 0x5C70, symSize: 0x20 }
  - { offsetInCU: 0x6FE8, offset: 0x175A3, size: 0x8, addend: 0x0, symName: __ZNSt3__118__allocation_guardINS_9allocatorINS_20__shared_ptr_emplaceI10ProjectileNS1_IS3_EEEEEEEC2B7v160006IS4_EET_m, symObjAddr: 0x1C30, symBinAddr: 0x5C90, symSize: 0x50 }
  - { offsetInCU: 0x7036, offset: 0x175F1, size: 0x8, addend: 0x0, symName: __ZNSt3__19allocatorINS_20__shared_ptr_emplaceI10ProjectileNS0_IS2_EEEEEC1B7v160006IS2_EERKNS0_IT_EE, symObjAddr: 0x1C80, symBinAddr: 0x5CE0, symSize: 0x30 }
  - { offsetInCU: 0x7072, offset: 0x1762D, size: 0x8, addend: 0x0, symName: __ZNSt3__116allocator_traitsINS_9allocatorINS_20__shared_ptr_emplaceI10ProjectileNS1_IS3_EEEEEEE8allocateB7v160006ERS6_m, symObjAddr: 0x1CB0, symBinAddr: 0x5D10, symSize: 0x30 }
  - { offsetInCU: 0x70A5, offset: 0x17660, size: 0x8, addend: 0x0, symName: __ZNSt3__19allocatorINS_20__shared_ptr_emplaceI10ProjectileNS0_IS2_EEEEEC2B7v160006IS2_EERKNS0_IT_EE, symObjAddr: 0x1CE0, symBinAddr: 0x5D40, symSize: 0x20 }
  - { offsetInCU: 0x70E1, offset: 0x1769C, size: 0x8, addend: 0x0, symName: __ZNSt3__116__non_trivial_ifILb1ENS_9allocatorINS_20__shared_ptr_emplaceI10ProjectileNS1_IS3_EEEEEEEC2B7v160006Ev, symObjAddr: 0x1D00, symBinAddr: 0x5D60, symSize: 0x10 }
  - { offsetInCU: 0x710A, offset: 0x176C5, size: 0x8, addend: 0x0, symName: __ZNSt3__19allocatorINS_20__shared_ptr_emplaceI10ProjectileNS0_IS2_EEEEE8allocateB7v160006Em, symObjAddr: 0x1D10, symBinAddr: 0x5D70, symSize: 0x50 }
  - { offsetInCU: 0x7147, offset: 0x17702, size: 0x8, addend: 0x0, symName: __ZNSt3__116allocator_traitsINS_9allocatorINS_20__shared_ptr_emplaceI10ProjectileNS1_IS3_EEEEEEE8max_sizeB7v160006IS6_vvEEmRKS6_, symObjAddr: 0x1D60, symBinAddr: 0x5DC0, symSize: 0x30 }
  - { offsetInCU: 0x7173, offset: 0x1772E, size: 0x8, addend: 0x0, symName: __ZNSt3__120__shared_ptr_emplaceI10ProjectileNS_9allocatorIS1_EEEC2B7v160006IJEEES3_DpOT_, symObjAddr: 0x1D90, symBinAddr: 0x5DF0, symSize: 0xB0 }
  - { offsetInCU: 0x71D2, offset: 0x1778D, size: 0x8, addend: 0x0, symName: __ZNSt3__120__shared_ptr_emplaceI10ProjectileNS_9allocatorIS1_EEE8_StorageC1B7v160006EOS3_, symObjAddr: 0x1E40, symBinAddr: 0x5EA0, symSize: 0x30 }
  - { offsetInCU: 0x720A, offset: 0x177C5, size: 0x8, addend: 0x0, symName: __ZNSt3__120__shared_ptr_emplaceI10ProjectileNS_9allocatorIS1_EEE11__get_allocB7v160006Ev, symObjAddr: 0x1E70, symBinAddr: 0x5ED0, symSize: 0x20 }
  - { offsetInCU: 0x7234, offset: 0x177EF, size: 0x8, addend: 0x0, symName: __ZNSt3__116allocator_traitsINS_9allocatorI10ProjectileEEE9constructB7v160006IS2_JEvvEEvRS3_PT_DpOT0_, symObjAddr: 0x1E90, symBinAddr: 0x5EF0, symSize: 0x20 }
  - { offsetInCU: 0x7274, offset: 0x1782F, size: 0x8, addend: 0x0, symName: __ZNSt3__120__shared_ptr_emplaceI10ProjectileNS_9allocatorIS1_EEE8_StorageD1B7v160006Ev, symObjAddr: 0x1EB0, symBinAddr: 0x5F10, symSize: 0x20 }
  - { offsetInCU: 0x729D, offset: 0x17858, size: 0x8, addend: 0x0, symName: __ZNSt3__120__shared_ptr_emplaceI10ProjectileNS_9allocatorIS1_EEED1Ev, symObjAddr: 0x1ED0, symBinAddr: 0x5F30, symSize: 0x20 }
  - { offsetInCU: 0x72C9, offset: 0x17884, size: 0x8, addend: 0x0, symName: __ZNSt3__120__shared_ptr_emplaceI10ProjectileNS_9allocatorIS1_EEED0Ev, symObjAddr: 0x1EF0, symBinAddr: 0x5F50, symSize: 0x30 }
  - { offsetInCU: 0x72F5, offset: 0x178B0, size: 0x8, addend: 0x0, symName: __ZNSt3__120__shared_ptr_emplaceI10ProjectileNS_9allocatorIS1_EEE16__on_zero_sharedEv, symObjAddr: 0x1F20, symBinAddr: 0x5F80, symSize: 0x50 }
  - { offsetInCU: 0x733C, offset: 0x178F7, size: 0x8, addend: 0x0, symName: __ZNSt3__120__shared_ptr_emplaceI10ProjectileNS_9allocatorIS1_EEE21__on_zero_shared_weakEv, symObjAddr: 0x1F70, symBinAddr: 0x5FD0, symSize: 0x60 }
  - { offsetInCU: 0x737C, offset: 0x17937, size: 0x8, addend: 0x0, symName: __ZNSt3__120__shared_ptr_emplaceI10ProjectileNS_9allocatorIS1_EEE8_StorageC2B7v160006EOS3_, symObjAddr: 0x1FD0, symBinAddr: 0x6030, symSize: 0x20 }
  - { offsetInCU: 0x73B4, offset: 0x1796F, size: 0x8, addend: 0x0, symName: __ZNSt3__120__shared_ptr_emplaceI10ProjectileNS_9allocatorIS1_EEE8_Storage11__get_allocEv, symObjAddr: 0x1FF0, symBinAddr: 0x6050, symSize: 0x40 }
  - { offsetInCU: 0x7406, offset: 0x179C1, size: 0x8, addend: 0x0, symName: __ZNSt3__117__compressed_pairINS_9allocatorI10ProjectileEES2_E16__get_first_baseB7v160006EPS4_, symObjAddr: 0x2030, symBinAddr: 0x6090, symSize: 0x10 }
  - { offsetInCU: 0x7429, offset: 0x179E4, size: 0x8, addend: 0x0, symName: __ZNSt3__120__shared_ptr_emplaceI10ProjectileNS_9allocatorIS1_EEE8_StorageD2B7v160006Ev, symObjAddr: 0x2070, symBinAddr: 0x60D0, symSize: 0x20 }
  - { offsetInCU: 0x7452, offset: 0x17A0D, size: 0x8, addend: 0x0, symName: __ZNSt3__120__shared_ptr_emplaceI10ProjectileNS_9allocatorIS1_EEED2Ev, symObjAddr: 0x2090, symBinAddr: 0x60F0, symSize: 0x40 }
  - { offsetInCU: 0x747E, offset: 0x17A39, size: 0x8, addend: 0x0, symName: __ZNSt3__116allocator_traitsINS_9allocatorI10ProjectileEEE7destroyB7v160006IS2_vvEEvRS3_PT_, symObjAddr: 0x20D0, symBinAddr: 0x6130, symSize: 0x20 }
  - { offsetInCU: 0x74B9, offset: 0x17A74, size: 0x8, addend: 0x0, symName: __ZNSt3__116allocator_traitsINS_9allocatorINS_20__shared_ptr_emplaceI10ProjectileNS1_IS3_EEEEEEE10deallocateB7v160006ERS6_PS5_m, symObjAddr: 0x2130, symBinAddr: 0x6190, symSize: 0x30 }
  - { offsetInCU: 0x7500, offset: 0x17ABB, size: 0x8, addend: 0x0, symName: __ZNSt3__114pointer_traitsIPNS_20__shared_ptr_emplaceI10ProjectileNS_9allocatorIS2_EEEEE10pointer_toB7v160006ERS5_, symObjAddr: 0x2160, symBinAddr: 0x61C0, symSize: 0x10 }
  - { offsetInCU: 0x7523, offset: 0x17ADE, size: 0x8, addend: 0x0, symName: __ZNSt3__19allocatorINS_20__shared_ptr_emplaceI10ProjectileNS0_IS2_EEEEE10deallocateB7v160006EPS4_m, symObjAddr: 0x2170, symBinAddr: 0x61D0, symSize: 0x50 }
  - { offsetInCU: 0x7564, offset: 0x17B1F, size: 0x8, addend: 0x0, symName: __ZNSt3__110shared_ptrI10ProjectileE18__enable_weak_thisB7v160006Ez, symObjAddr: 0x21C0, symBinAddr: 0x6220, symSize: 0x10 }
  - { offsetInCU: 0x758A, offset: 0x17B45, size: 0x8, addend: 0x0, symName: __ZNSt3__120__shared_ptr_emplaceI10ProjectileNS_9allocatorIS1_EEE8_Storage10__get_elemEv, symObjAddr: 0x21D0, symBinAddr: 0x6230, symSize: 0x40 }
  - { offsetInCU: 0x75DC, offset: 0x17B97, size: 0x8, addend: 0x0, symName: __ZNSt3__117__compressed_pairINS_9allocatorI10ProjectileEES2_E17__get_second_baseB7v160006EPS4_, symObjAddr: 0x2210, symBinAddr: 0x6270, symSize: 0x10 }
  - { offsetInCU: 0x75FF, offset: 0x17BBA, size: 0x8, addend: 0x0, symName: __ZNSt3__118__allocation_guardINS_9allocatorINS_20__shared_ptr_emplaceI10ProjectileNS1_IS3_EEEEEEED2B7v160006Ev, symObjAddr: 0x2220, symBinAddr: 0x6280, symSize: 0x40 }
  - { offsetInCU: 0x7628, offset: 0x17BE3, size: 0x8, addend: 0x0, symName: __ZNSt3__19allocatorI10ProjectileEC2B7v160006Ev, symObjAddr: 0x2260, symBinAddr: 0x62C0, symSize: 0x20 }
  - { offsetInCU: 0x7651, offset: 0x17C0C, size: 0x8, addend: 0x0, symName: __ZNSt3__116__non_trivial_ifILb1ENS_9allocatorI10ProjectileEEEC2B7v160006Ev, symObjAddr: 0x2280, symBinAddr: 0x62E0, symSize: 0x10 }
  - { offsetInCU: 0x767A, offset: 0x17C35, size: 0x8, addend: 0x0, symName: __ZNSt3__110shared_ptrI10ProjectileEC1B7v160006EOS2_, symObjAddr: 0x2290, symBinAddr: 0x62F0, symSize: 0x30 }
  - { offsetInCU: 0x76B2, offset: 0x17C6D, size: 0x8, addend: 0x0, symName: __ZNSt3__110shared_ptrI10ProjectileE4swapB7v160006ERS2_, symObjAddr: 0x22C0, symBinAddr: 0x6320, symSize: 0x40 }
  - { offsetInCU: 0x76E6, offset: 0x17CA1, size: 0x8, addend: 0x0, symName: __ZNSt3__110shared_ptrI10ProjectileEC2B7v160006EOS2_, symObjAddr: 0x2300, symBinAddr: 0x6360, symSize: 0x40 }
  - { offsetInCU: 0x771E, offset: 0x17CD9, size: 0x8, addend: 0x0, symName: __ZNKSt3__110shared_ptrI9ComponentE3getB7v160006Ev, symObjAddr: 0x24C0, symBinAddr: 0x6420, symSize: 0x20 }
  - { offsetInCU: 0x7743, offset: 0x17CFE, size: 0x8, addend: 0x0, symName: __ZNSt3__110shared_ptrI15SpriteComponentEC1B7v160006I9ComponentEERKNS0_IT_EEPS1_, symObjAddr: 0x24E0, symBinAddr: 0x6440, symSize: 0x30 }
  - { offsetInCU: 0x7793, offset: 0x17D4E, size: 0x8, addend: 0x0, symName: __ZNSt3__110shared_ptrI15SpriteComponentEC2B7v160006I9ComponentEERKNS0_IT_EEPS1_, symObjAddr: 0x2510, symBinAddr: 0x6470, symSize: 0x50 }
  - { offsetInCU: 0x77E3, offset: 0x17D9E, size: 0x8, addend: 0x0, symName: __ZNSt3__110shared_ptrI10ProjectileEC2B7v160006ERKS2_, symObjAddr: 0x2560, symBinAddr: 0x64C0, symSize: 0x4C }
  - { offsetInCU: 0x179B, offset: 0x195C5, size: 0x8, addend: 0x0, symName: __ZNSt3__17advanceB7v160006IPNS_10shared_ptrI9ComponentEEllvEEvRT_T0_, symObjAddr: 0x2390, symBinAddr: 0x7FD0, symSize: 0x50 }
  - { offsetInCU: 0x1A1B, offset: 0x19845, size: 0x8, addend: 0x0, symName: __ZNSt3__17advanceB7v160006INS_16reverse_iteratorIPNS_10shared_ptrI9ComponentEEEEllvEEvRT_T0_, symObjAddr: 0x2790, symBinAddr: 0x83C0, symSize: 0x50 }
  - { offsetInCU: 0x276A, offset: 0x1A594, size: 0x8, addend: 0x0, symName: __ZNSt3__119__debug_db_insert_cB7v160006INS_6vectorINS_10shared_ptrI9ComponentEENS_9allocatorIS4_EEEEEEvPT_, symObjAddr: 0x7C0, symBinAddr: 0x6AD0, symSize: 0x10 }
  - { offsetInCU: 0x279B, offset: 0x1A5C5, size: 0x8, addend: 0x0, symName: __ZNSt3__118__debug_db_erase_cB7v160006INS_6vectorINS_10shared_ptrI9ComponentEENS_9allocatorIS4_EEEEEEvPT_, symObjAddr: 0xA50, symBinAddr: 0x6D60, symSize: 0x10 }
  - { offsetInCU: 0x27CC, offset: 0x1A5F6, size: 0x8, addend: 0x0, symName: __ZNSt3__112__to_addressB7v160006INS_10shared_ptrI9ComponentEEEEPT_S5_, symObjAddr: 0xB60, symBinAddr: 0x6E70, symSize: 0x10 }
  - { offsetInCU: 0x2801, offset: 0x1A62B, size: 0x8, addend: 0x0, symName: __ZNSt3__110destroy_atB7v160006INS_10shared_ptrI9ComponentEELi0EEEvPT_, symObjAddr: 0xC10, symBinAddr: 0x6F20, symSize: 0x20 }
  - { offsetInCU: 0x2838, offset: 0x1A662, size: 0x8, addend: 0x0, symName: __ZNSt3__112__destroy_atB7v160006INS_10shared_ptrI9ComponentEELi0EEEvPT_, symObjAddr: 0xC30, symBinAddr: 0x6F40, symSize: 0x20 }
  - { offsetInCU: 0x2894, offset: 0x1A6BE, size: 0x8, addend: 0x0, symName: __ZNSt3__112construct_atB7v160006INS_10shared_ptrI9ComponentEEJRKS3_EPS3_EEPT_S8_DpOT0_, symObjAddr: 0x12A0, symBinAddr: 0x7290, symSize: 0x40 }
  - { offsetInCU: 0x2904, offset: 0x1A72E, size: 0x8, addend: 0x0, symName: __ZNSt3__119__allocate_at_leastB7v160006INS_9allocatorINS_10shared_ptrI9ComponentEEEEEENS_19__allocation_resultINS_16allocator_traitsIT_E7pointerEEERS8_m, symObjAddr: 0x1A60, symBinAddr: 0x7790, symSize: 0x40 }
  - { offsetInCU: 0x2947, offset: 0x1A771, size: 0x8, addend: 0x0, symName: __ZNSt3__142__uninitialized_allocator_move_if_noexceptB7v160006INS_9allocatorINS_10shared_ptrI9ComponentEEEENS_16reverse_iteratorIPS4_EES8_S8_EET2_RT_T0_T1_S9_, symObjAddr: 0x1CE0, symBinAddr: 0x7920, symSize: 0x180 }
  - { offsetInCU: 0x29E6, offset: 0x1A810, size: 0x8, addend: 0x0, symName: __ZNSt3__14swapB7v160006IPNS_10shared_ptrI9ComponentEEEENS_9enable_ifIXaasr21is_move_constructibleIT_EE5valuesr18is_move_assignableIS6_EE5valueEvE4typeERS6_S9_, symObjAddr: 0x1EB0, symBinAddr: 0x7AF0, symSize: 0x40 }
  - { offsetInCU: 0x2A37, offset: 0x1A861, size: 0x8, addend: 0x0, symName: __ZNSt3__125__debug_db_invalidate_allB7v160006INS_6vectorINS_10shared_ptrI9ComponentEENS_9allocatorIS4_EEEEEEvPT_, symObjAddr: 0x1FA0, symBinAddr: 0x7BE0, symSize: 0x10 }
  - { offsetInCU: 0x2A68, offset: 0x1A892, size: 0x8, addend: 0x0, symName: __ZNSt3__122__make_exception_guardB7v160006INS_29_AllocatorDestroyRangeReverseINS_9allocatorINS_10shared_ptrI9ComponentEEEENS_16reverse_iteratorIPS5_EEEEEENS_28__exception_guard_exceptionsIT_EESC_, symObjAddr: 0x1FB0, symBinAddr: 0x7BF0, symSize: 0x60 }
  - { offsetInCU: 0x2A9D, offset: 0x1A8C7, size: 0x8, addend: 0x0, symName: __ZNSt3__1neB7v160006IPNS_10shared_ptrI9ComponentEES4_EEbRKNS_16reverse_iteratorIT_EERKNS5_IT0_EE, symObjAddr: 0x2050, symBinAddr: 0x7C90, symSize: 0x40 }
  - { offsetInCU: 0x2AE9, offset: 0x1A913, size: 0x8, addend: 0x0, symName: __ZNSt3__112__to_addressB7v160006INS_16reverse_iteratorIPNS_10shared_ptrI9ComponentEEEEvEENS_5decayIDTclsr19__to_address_helperIT_EE6__callclsr3stdE7declvalIRKS8_EEEEE4typeESA_, symObjAddr: 0x20C0, symBinAddr: 0x7D00, symSize: 0x20 }
  - { offsetInCU: 0x2B1F, offset: 0x1A949, size: 0x8, addend: 0x0, symName: __ZNSt3__112construct_atB7v160006INS_10shared_ptrI9ComponentEEJS3_EPS3_EEPT_S6_DpOT0_, symObjAddr: 0x2220, symBinAddr: 0x7E60, symSize: 0x40 }
  - { offsetInCU: 0x2BB8, offset: 0x1A9E2, size: 0x8, addend: 0x0, symName: __ZNSt3__14prevB7v160006IPNS_10shared_ptrI9ComponentEEEENS_9enable_ifIXsr25__is_cpp17_input_iteratorIT_EE5valueES6_E4typeES6_NS_15iterator_traitsIS6_E15difference_typeE, symObjAddr: 0x2340, symBinAddr: 0x7F80, symSize: 0x50 }
  - { offsetInCU: 0x2BFB, offset: 0x1AA25, size: 0x8, addend: 0x0, symName: __ZNSt3__19__advanceB7v160006IPNS_10shared_ptrI9ComponentEEEEvRT_NS_15iterator_traitsIS5_E15difference_typeENS_26random_access_iterator_tagE, symObjAddr: 0x23F0, symBinAddr: 0x8020, symSize: 0x20 }
  - { offsetInCU: 0x2C44, offset: 0x1AA6E, size: 0x8, addend: 0x0, symName: __ZNSt3__119__allocator_destroyB7v160006INS_9allocatorINS_10shared_ptrI9ComponentEEEENS_16reverse_iteratorINS6_IPS4_EEEES9_EEvRT_T0_T1_, symObjAddr: 0x2540, symBinAddr: 0x8170, symSize: 0x70 }
  - { offsetInCU: 0x2CA7, offset: 0x1AAD1, size: 0x8, addend: 0x0, symName: __ZNSt3__1neB7v160006INS_16reverse_iteratorIPNS_10shared_ptrI9ComponentEEEES6_EEbRKNS1_IT_EERKNS1_IT0_EE, symObjAddr: 0x25E0, symBinAddr: 0x8210, symSize: 0x50 }
  - { offsetInCU: 0x2CF3, offset: 0x1AB1D, size: 0x8, addend: 0x0, symName: __ZNSt3__112__to_addressB7v160006INS_16reverse_iteratorINS1_IPNS_10shared_ptrI9ComponentEEEEEEvEENS_5decayIDTclsr19__to_address_helperIT_EE6__callclsr3stdE7declvalIRKS9_EEEEE4typeESB_, symObjAddr: 0x2630, symBinAddr: 0x8260, symSize: 0x20 }
  - { offsetInCU: 0x2D52, offset: 0x1AB7C, size: 0x8, addend: 0x0, symName: __ZNSt3__14prevB7v160006INS_16reverse_iteratorIPNS_10shared_ptrI9ComponentEEEEEENS_9enable_ifIXsr25__is_cpp17_input_iteratorIT_EE5valueES8_E4typeES8_NS_15iterator_traitsIS8_E15difference_typeE, symObjAddr: 0x2730, symBinAddr: 0x8360, symSize: 0x60 }
  - { offsetInCU: 0x2D95, offset: 0x1ABBF, size: 0x8, addend: 0x0, symName: __ZNSt3__19__advanceB7v160006INS_16reverse_iteratorIPNS_10shared_ptrI9ComponentEEEEEEvRT_NS_15iterator_traitsIS7_E15difference_typeENS_26random_access_iterator_tagE, symObjAddr: 0x27E0, symBinAddr: 0x8410, symSize: 0x30 }
  - { offsetInCU: 0x301F, offset: 0x1AE49, size: 0x8, addend: 0x0, symName: __ZNSt3__16vectorINS_10shared_ptrI9ComponentEENS_9allocatorIS3_EEE26__swap_out_circular_bufferERNS_14__split_bufferIS3_RS5_EE, symObjAddr: 0x14D0, symBinAddr: 0x7450, symSize: 0x130 }
  - { offsetInCU: 0x507A, offset: 0x1CEA4, size: 0x8, addend: 0x0, symName: __ZN10GameEntityC2Ev, symObjAddr: 0x0, symBinAddr: 0x6510, symSize: 0x40 }
  - { offsetInCU: 0x50A5, offset: 0x1CECF, size: 0x8, addend: 0x0, symName: __ZNSt3__16vectorINS_10shared_ptrI9ComponentEENS_9allocatorIS3_EEEC1B7v160006Ev, symObjAddr: 0x40, symBinAddr: 0x6550, symSize: 0x20 }
  - { offsetInCU: 0x50CE, offset: 0x1CEF8, size: 0x8, addend: 0x0, symName: __ZN10GameEntityC1Ev, symObjAddr: 0x60, symBinAddr: 0x6570, symSize: 0x20 }
  - { offsetInCU: 0x50F9, offset: 0x1CF23, size: 0x8, addend: 0x0, symName: __ZN10GameEntityD2Ev, symObjAddr: 0x80, symBinAddr: 0x6590, symSize: 0x30 }
  - { offsetInCU: 0x5124, offset: 0x1CF4E, size: 0x8, addend: 0x0, symName: __ZNSt3__16vectorINS_10shared_ptrI9ComponentEENS_9allocatorIS3_EEED1B7v160006Ev, symObjAddr: 0xB0, symBinAddr: 0x65C0, symSize: 0x20 }
  - { offsetInCU: 0x514D, offset: 0x1CF77, size: 0x8, addend: 0x0, symName: __ZN10GameEntityD1Ev, symObjAddr: 0xD0, symBinAddr: 0x65E0, symSize: 0x20 }
  - { offsetInCU: 0x5178, offset: 0x1CFA2, size: 0x8, addend: 0x0, symName: __ZN10GameEntityD0Ev, symObjAddr: 0xF0, symBinAddr: 0x6600, symSize: 0x30 }
  - { offsetInCU: 0x51A3, offset: 0x1CFCD, size: 0x8, addend: 0x0, symName: __ZN10GameEntity5InputEf, symObjAddr: 0x120, symBinAddr: 0x6630, symSize: 0x90 }
  - { offsetInCU: 0x5229, offset: 0x1D053, size: 0x8, addend: 0x0, symName: __ZN10GameEntity6UpdateEf, symObjAddr: 0x2A0, symBinAddr: 0x66C0, symSize: 0x90 }
  - { offsetInCU: 0x52AF, offset: 0x1D0D9, size: 0x8, addend: 0x0, symName: __ZN10GameEntity6RenderEP12SDL_Renderer, symObjAddr: 0x330, symBinAddr: 0x6750, symSize: 0x90 }
  - { offsetInCU: 0x5335, offset: 0x1D15F, size: 0x8, addend: 0x0, symName: __ZN10GameEntity12AddComponentENSt3__110shared_ptrI9ComponentEE, symObjAddr: 0x3C0, symBinAddr: 0x67E0, symSize: 0x30 }
  - { offsetInCU: 0x536A, offset: 0x1D194, size: 0x8, addend: 0x0, symName: __ZNSt3__16vectorINS_10shared_ptrI9ComponentEENS_9allocatorIS3_EEE9push_backB7v160006ERKS3_, symObjAddr: 0x3F0, symBinAddr: 0x6810, symSize: 0x60 }
  - { offsetInCU: 0x53A0, offset: 0x1D1CA, size: 0x8, addend: 0x0, symName: __ZN10GameEntity13SetRenderableEb, symObjAddr: 0x450, symBinAddr: 0x6870, symSize: 0x20 }
  - { offsetInCU: 0x53D5, offset: 0x1D1FF, size: 0x8, addend: 0x0, symName: __ZNK10GameEntity12IsRenderableEv, symObjAddr: 0x470, symBinAddr: 0x6890, symSize: 0x20 }
  - { offsetInCU: 0x53FC, offset: 0x1D226, size: 0x8, addend: 0x0, symName: __ZN10GameEntity10IntersectsENSt3__110shared_ptrIS_EE, symObjAddr: 0x490, symBinAddr: 0x68B0, symSize: 0x170 }
  - { offsetInCU: 0x545E, offset: 0x1D288, size: 0x8, addend: 0x0, symName: __ZNKSt3__110shared_ptrI10GameEntityEptB7v160006Ev, symObjAddr: 0x6A0, symBinAddr: 0x6A20, symSize: 0x20 }
  - { offsetInCU: 0x5483, offset: 0x1D2AD, size: 0x8, addend: 0x0, symName: __ZNSt3__16vectorINS_10shared_ptrI9ComponentEENS_9allocatorIS3_EEEC2B7v160006Ev, symObjAddr: 0x720, symBinAddr: 0x6A40, symSize: 0x60 }
  - { offsetInCU: 0x54B6, offset: 0x1D2E0, size: 0x8, addend: 0x0, symName: __ZNSt3__117__compressed_pairIPNS_10shared_ptrI9ComponentEENS_9allocatorIS3_EEEC1B7v160006IDnNS_18__default_init_tagEEEOT_OT0_, symObjAddr: 0x780, symBinAddr: 0x6AA0, symSize: 0x30 }
  - { offsetInCU: 0x550D, offset: 0x1D337, size: 0x8, addend: 0x0, symName: __ZNSt3__117__compressed_pairIPNS_10shared_ptrI9ComponentEENS_9allocatorIS3_EEEC2B7v160006IDnNS_18__default_init_tagEEEOT_OT0_, symObjAddr: 0x7D0, symBinAddr: 0x6AE0, symSize: 0x40 }
  - { offsetInCU: 0x5564, offset: 0x1D38E, size: 0x8, addend: 0x0, symName: __ZNSt3__122__compressed_pair_elemIPNS_10shared_ptrI9ComponentEELi0ELb0EEC2B7v160006IDnvEEOT_, symObjAddr: 0x810, symBinAddr: 0x6B20, symSize: 0x20 }
  - { offsetInCU: 0x55A5, offset: 0x1D3CF, size: 0x8, addend: 0x0, symName: __ZNSt3__122__compressed_pair_elemINS_9allocatorINS_10shared_ptrI9ComponentEEEELi1ELb1EEC2B7v160006ENS_18__default_init_tagE, symObjAddr: 0x830, symBinAddr: 0x6B40, symSize: 0x20 }
  - { offsetInCU: 0x55D8, offset: 0x1D402, size: 0x8, addend: 0x0, symName: __ZNSt3__19allocatorINS_10shared_ptrI9ComponentEEEC2B7v160006Ev, symObjAddr: 0x850, symBinAddr: 0x6B60, symSize: 0x20 }
  - { offsetInCU: 0x5601, offset: 0x1D42B, size: 0x8, addend: 0x0, symName: __ZNSt3__116__non_trivial_ifILb1ENS_9allocatorINS_10shared_ptrI9ComponentEEEEEC2B7v160006Ev, symObjAddr: 0x870, symBinAddr: 0x6B80, symSize: 0x10 }
  - { offsetInCU: 0x562A, offset: 0x1D454, size: 0x8, addend: 0x0, symName: __ZNSt3__16vectorINS_10shared_ptrI9ComponentEENS_9allocatorIS3_EEED2B7v160006Ev, symObjAddr: 0x880, symBinAddr: 0x6B90, symSize: 0x40 }
  - { offsetInCU: 0x5653, offset: 0x1D47D, size: 0x8, addend: 0x0, symName: __ZNSt3__16vectorINS_10shared_ptrI9ComponentEENS_9allocatorIS3_EEE16__destroy_vectorC1ERS6_, symObjAddr: 0x8C0, symBinAddr: 0x6BD0, symSize: 0x30 }
  - { offsetInCU: 0x568B, offset: 0x1D4B5, size: 0x8, addend: 0x0, symName: __ZNSt3__16vectorINS_10shared_ptrI9ComponentEENS_9allocatorIS3_EEE16__destroy_vectorclB7v160006Ev, symObjAddr: 0x8F0, symBinAddr: 0x6C00, symSize: 0x90 }
  - { offsetInCU: 0x56B0, offset: 0x1D4DA, size: 0x8, addend: 0x0, symName: __ZNSt3__16vectorINS_10shared_ptrI9ComponentEENS_9allocatorIS3_EEE16__destroy_vectorC2ERS6_, symObjAddr: 0x980, symBinAddr: 0x6C90, symSize: 0x20 }
  - { offsetInCU: 0x56E8, offset: 0x1D512, size: 0x8, addend: 0x0, symName: __ZNKSt3__16vectorINS_10shared_ptrI9ComponentEENS_9allocatorIS3_EEE17__annotate_deleteB7v160006Ev, symObjAddr: 0x9A0, symBinAddr: 0x6CB0, symSize: 0xB0 }
  - { offsetInCU: 0x570D, offset: 0x1D537, size: 0x8, addend: 0x0, symName: __ZNSt3__16vectorINS_10shared_ptrI9ComponentEENS_9allocatorIS3_EEE7__clearB7v160006Ev, symObjAddr: 0xA60, symBinAddr: 0x6D70, symSize: 0x20 }
  - { offsetInCU: 0x5732, offset: 0x1D55C, size: 0x8, addend: 0x0, symName: __ZNSt3__116allocator_traitsINS_9allocatorINS_10shared_ptrI9ComponentEEEEE10deallocateB7v160006ERS5_PS4_m, symObjAddr: 0xA80, symBinAddr: 0x6D90, symSize: 0x30 }
  - { offsetInCU: 0x5774, offset: 0x1D59E, size: 0x8, addend: 0x0, symName: __ZNSt3__16vectorINS_10shared_ptrI9ComponentEENS_9allocatorIS3_EEE7__allocB7v160006Ev, symObjAddr: 0xAB0, symBinAddr: 0x6DC0, symSize: 0x20 }
  - { offsetInCU: 0x5799, offset: 0x1D5C3, size: 0x8, addend: 0x0, symName: __ZNKSt3__16vectorINS_10shared_ptrI9ComponentEENS_9allocatorIS3_EEE8capacityB7v160006Ev, symObjAddr: 0xAD0, symBinAddr: 0x6DE0, symSize: 0x30 }
  - { offsetInCU: 0x57BE, offset: 0x1D5E8, size: 0x8, addend: 0x0, symName: __ZNKSt3__16vectorINS_10shared_ptrI9ComponentEENS_9allocatorIS3_EEE31__annotate_contiguous_containerB7v160006EPKvS8_S8_S8_, symObjAddr: 0xB00, symBinAddr: 0x6E10, symSize: 0x20 }
  - { offsetInCU: 0x5813, offset: 0x1D63D, size: 0x8, addend: 0x0, symName: __ZNKSt3__16vectorINS_10shared_ptrI9ComponentEENS_9allocatorIS3_EEE4dataB7v160006Ev, symObjAddr: 0xB20, symBinAddr: 0x6E30, symSize: 0x20 }
  - { offsetInCU: 0x5838, offset: 0x1D662, size: 0x8, addend: 0x0, symName: __ZNKSt3__16vectorINS_10shared_ptrI9ComponentEENS_9allocatorIS3_EEE4sizeB7v160006Ev, symObjAddr: 0xB40, symBinAddr: 0x6E50, symSize: 0x20 }
  - { offsetInCU: 0x585D, offset: 0x1D687, size: 0x8, addend: 0x0, symName: __ZNSt3__16vectorINS_10shared_ptrI9ComponentEENS_9allocatorIS3_EEE22__base_destruct_at_endB7v160006EPS3_, symObjAddr: 0xB70, symBinAddr: 0x6E80, symSize: 0x80 }
  - { offsetInCU: 0x58A0, offset: 0x1D6CA, size: 0x8, addend: 0x0, symName: __ZNSt3__116allocator_traitsINS_9allocatorINS_10shared_ptrI9ComponentEEEEE7destroyB7v160006IS4_vvEEvRS5_PT_, symObjAddr: 0xBF0, symBinAddr: 0x6F00, symSize: 0x20 }
  - { offsetInCU: 0x58DB, offset: 0x1D705, size: 0x8, addend: 0x0, symName: __ZNSt3__19allocatorINS_10shared_ptrI9ComponentEEE10deallocateB7v160006EPS3_m, symObjAddr: 0xD70, symBinAddr: 0x6F60, symSize: 0x40 }
  - { offsetInCU: 0x591C, offset: 0x1D746, size: 0x8, addend: 0x0, symName: __ZNSt3__117__compressed_pairIPNS_10shared_ptrI9ComponentEENS_9allocatorIS3_EEE6secondB7v160006Ev, symObjAddr: 0xED0, symBinAddr: 0x6FA0, symSize: 0x20 }
  - { offsetInCU: 0x5941, offset: 0x1D76B, size: 0x8, addend: 0x0, symName: __ZNSt3__122__compressed_pair_elemINS_9allocatorINS_10shared_ptrI9ComponentEEEELi1ELb1EE5__getB7v160006Ev, symObjAddr: 0xEF0, symBinAddr: 0x6FC0, symSize: 0x10 }
  - { offsetInCU: 0x5966, offset: 0x1D790, size: 0x8, addend: 0x0, symName: __ZNKSt3__16vectorINS_10shared_ptrI9ComponentEENS_9allocatorIS3_EEE9__end_capB7v160006Ev, symObjAddr: 0xF00, symBinAddr: 0x6FD0, symSize: 0x20 }
  - { offsetInCU: 0x598B, offset: 0x1D7B5, size: 0x8, addend: 0x0, symName: __ZNKSt3__117__compressed_pairIPNS_10shared_ptrI9ComponentEENS_9allocatorIS3_EEE5firstB7v160006Ev, symObjAddr: 0xF20, symBinAddr: 0x6FF0, symSize: 0x20 }
  - { offsetInCU: 0x59B0, offset: 0x1D7DA, size: 0x8, addend: 0x0, symName: __ZNKSt3__122__compressed_pair_elemIPNS_10shared_ptrI9ComponentEELi0ELb0EE5__getB7v160006Ev, symObjAddr: 0xF40, symBinAddr: 0x7010, symSize: 0x10 }
  - { offsetInCU: 0x59D5, offset: 0x1D7FF, size: 0x8, addend: 0x0, symName: __ZNSt3__16vectorINS_10shared_ptrI9ComponentEENS_9allocatorIS3_EEE9__end_capB7v160006Ev, symObjAddr: 0x1030, symBinAddr: 0x7020, symSize: 0x20 }
  - { offsetInCU: 0x59FA, offset: 0x1D824, size: 0x8, addend: 0x0, symName: __ZNSt3__16vectorINS_10shared_ptrI9ComponentEENS_9allocatorIS3_EEE22__construct_one_at_endB7v160006IJRKS3_EEEvDpOT_, symObjAddr: 0x1050, symBinAddr: 0x7040, symSize: 0x90 }
  - { offsetInCU: 0x5A47, offset: 0x1D871, size: 0x8, addend: 0x0, symName: __ZNSt3__16vectorINS_10shared_ptrI9ComponentEENS_9allocatorIS3_EEE21__push_back_slow_pathIRKS3_EEvOT_, symObjAddr: 0x10E0, symBinAddr: 0x70D0, symSize: 0xD0 }
  - { offsetInCU: 0x5AA4, offset: 0x1D8CE, size: 0x8, addend: 0x0, symName: __ZNSt3__117__compressed_pairIPNS_10shared_ptrI9ComponentEENS_9allocatorIS3_EEE5firstB7v160006Ev, symObjAddr: 0x11B0, symBinAddr: 0x71A0, symSize: 0x20 }
  - { offsetInCU: 0x5AC9, offset: 0x1D8F3, size: 0x8, addend: 0x0, symName: __ZNSt3__122__compressed_pair_elemIPNS_10shared_ptrI9ComponentEELi0ELb0EE5__getB7v160006Ev, symObjAddr: 0x11D0, symBinAddr: 0x71C0, symSize: 0x10 }
  - { offsetInCU: 0x5B07, offset: 0x1D931, size: 0x8, addend: 0x0, symName: __ZNSt3__16vectorINS_10shared_ptrI9ComponentEENS_9allocatorIS3_EEE21_ConstructTransactionC1B7v160006ERS6_m, symObjAddr: 0x11E0, symBinAddr: 0x71D0, symSize: 0x30 }
  - { offsetInCU: 0x5B4E, offset: 0x1D978, size: 0x8, addend: 0x0, symName: __ZNSt3__116allocator_traitsINS_9allocatorINS_10shared_ptrI9ComponentEEEEE9constructB7v160006IS4_JRKS4_EvvEEvRS5_PT_DpOT0_, symObjAddr: 0x1210, symBinAddr: 0x7200, symSize: 0x30 }
  - { offsetInCU: 0x5BA3, offset: 0x1D9CD, size: 0x8, addend: 0x0, symName: __ZNSt3__16vectorINS_10shared_ptrI9ComponentEENS_9allocatorIS3_EEE21_ConstructTransactionD1B7v160006Ev, symObjAddr: 0x1240, symBinAddr: 0x7230, symSize: 0x20 }
  - { offsetInCU: 0x5BCC, offset: 0x1D9F6, size: 0x8, addend: 0x0, symName: __ZNSt3__16vectorINS_10shared_ptrI9ComponentEENS_9allocatorIS3_EEE21_ConstructTransactionC2B7v160006ERS6_m, symObjAddr: 0x1260, symBinAddr: 0x7250, symSize: 0x40 }
  - { offsetInCU: 0x5C13, offset: 0x1DA3D, size: 0x8, addend: 0x0, symName: __ZNSt3__110shared_ptrI9ComponentEC1B7v160006ERKS2_, symObjAddr: 0x12E0, symBinAddr: 0x72D0, symSize: 0x30 }
  - { offsetInCU: 0x5C4B, offset: 0x1DA75, size: 0x8, addend: 0x0, symName: __ZNSt3__110shared_ptrI9ComponentEC2B7v160006ERKS2_, symObjAddr: 0x1310, symBinAddr: 0x7300, symSize: 0x50 }
  - { offsetInCU: 0x5C83, offset: 0x1DAAD, size: 0x8, addend: 0x0, symName: __ZNSt3__16vectorINS_10shared_ptrI9ComponentEENS_9allocatorIS3_EEE21_ConstructTransactionD2B7v160006Ev, symObjAddr: 0x13D0, symBinAddr: 0x7350, symSize: 0x20 }
  - { offsetInCU: 0x5CAB, offset: 0x1DAD5, size: 0x8, addend: 0x0, symName: __ZNKSt3__16vectorINS_10shared_ptrI9ComponentEENS_9allocatorIS3_EEE11__recommendB7v160006Em, symObjAddr: 0x13F0, symBinAddr: 0x7370, symSize: 0xA0 }
  - { offsetInCU: 0x5CFF, offset: 0x1DB29, size: 0x8, addend: 0x0, symName: __ZNSt3__114__split_bufferINS_10shared_ptrI9ComponentEERNS_9allocatorIS3_EEEC1EmmS6_, symObjAddr: 0x1490, symBinAddr: 0x7410, symSize: 0x40 }
  - { offsetInCU: 0x5D54, offset: 0x1DB7E, size: 0x8, addend: 0x0, symName: __ZNSt3__114__split_bufferINS_10shared_ptrI9ComponentEERNS_9allocatorIS3_EEED1Ev, symObjAddr: 0x1600, symBinAddr: 0x7580, symSize: 0x20 }
  - { offsetInCU: 0x5D7E, offset: 0x1DBA8, size: 0x8, addend: 0x0, symName: __ZNKSt3__16vectorINS_10shared_ptrI9ComponentEENS_9allocatorIS3_EEE8max_sizeEv, symObjAddr: 0x1620, symBinAddr: 0x75A0, symSize: 0x60 }
  - { offsetInCU: 0x5DA5, offset: 0x1DBCF, size: 0x8, addend: 0x0, symName: __ZNKSt3__16vectorINS_10shared_ptrI9ComponentEENS_9allocatorIS3_EEE20__throw_length_errorB7v160006Ev, symObjAddr: 0x1680, symBinAddr: 0x7600, symSize: 0x20 }
  - { offsetInCU: 0x5DD4, offset: 0x1DBFE, size: 0x8, addend: 0x0, symName: __ZNSt3__116allocator_traitsINS_9allocatorINS_10shared_ptrI9ComponentEEEEE8max_sizeB7v160006IS5_vvEEmRKS5_, symObjAddr: 0x1700, symBinAddr: 0x7620, symSize: 0x20 }
  - { offsetInCU: 0x5E00, offset: 0x1DC2A, size: 0x8, addend: 0x0, symName: __ZNKSt3__16vectorINS_10shared_ptrI9ComponentEENS_9allocatorIS3_EEE7__allocB7v160006Ev, symObjAddr: 0x1720, symBinAddr: 0x7640, symSize: 0x20 }
  - { offsetInCU: 0x5E25, offset: 0x1DC4F, size: 0x8, addend: 0x0, symName: __ZNKSt3__117__compressed_pairIPNS_10shared_ptrI9ComponentEENS_9allocatorIS3_EEE6secondB7v160006Ev, symObjAddr: 0x17F0, symBinAddr: 0x7660, symSize: 0x20 }
  - { offsetInCU: 0x5E4A, offset: 0x1DC74, size: 0x8, addend: 0x0, symName: __ZNKSt3__122__compressed_pair_elemINS_9allocatorINS_10shared_ptrI9ComponentEEEELi1ELb1EE5__getB7v160006Ev, symObjAddr: 0x1810, symBinAddr: 0x7680, symSize: 0x10 }
  - { offsetInCU: 0x5E6F, offset: 0x1DC99, size: 0x8, addend: 0x0, symName: __ZNSt3__114__split_bufferINS_10shared_ptrI9ComponentEERNS_9allocatorIS3_EEEC2EmmS6_, symObjAddr: 0x1960, symBinAddr: 0x7690, symSize: 0xD0 }
  - { offsetInCU: 0x5EE1, offset: 0x1DD0B, size: 0x8, addend: 0x0, symName: __ZNSt3__117__compressed_pairIPNS_10shared_ptrI9ComponentEERNS_9allocatorIS3_EEEC1B7v160006IDnS7_EEOT_OT0_, symObjAddr: 0x1A30, symBinAddr: 0x7760, symSize: 0x30 }
  - { offsetInCU: 0x5F38, offset: 0x1DD62, size: 0x8, addend: 0x0, symName: __ZNSt3__114__split_bufferINS_10shared_ptrI9ComponentEERNS_9allocatorIS3_EEE7__allocB7v160006Ev, symObjAddr: 0x1AA0, symBinAddr: 0x77D0, symSize: 0x20 }
  - { offsetInCU: 0x5F5D, offset: 0x1DD87, size: 0x8, addend: 0x0, symName: __ZNSt3__114__split_bufferINS_10shared_ptrI9ComponentEERNS_9allocatorIS3_EEE9__end_capB7v160006Ev, symObjAddr: 0x1AC0, symBinAddr: 0x77F0, symSize: 0x20 }
  - { offsetInCU: 0x5F82, offset: 0x1DDAC, size: 0x8, addend: 0x0, symName: __ZNSt3__117__compressed_pairIPNS_10shared_ptrI9ComponentEERNS_9allocatorIS3_EEEC2B7v160006IDnS7_EEOT_OT0_, symObjAddr: 0x1AE0, symBinAddr: 0x7810, symSize: 0x40 }
  - { offsetInCU: 0x5FD9, offset: 0x1DE03, size: 0x8, addend: 0x0, symName: __ZNSt3__122__compressed_pair_elemIRNS_9allocatorINS_10shared_ptrI9ComponentEEEELi1ELb0EEC2B7v160006IS6_vEEOT_, symObjAddr: 0x1B20, symBinAddr: 0x7850, symSize: 0x20 }
  - { offsetInCU: 0x601A, offset: 0x1DE44, size: 0x8, addend: 0x0, symName: __ZNSt3__19allocatorINS_10shared_ptrI9ComponentEEE8allocateB7v160006Em, symObjAddr: 0x1B40, symBinAddr: 0x7870, symSize: 0x50 }
  - { offsetInCU: 0x604D, offset: 0x1DE77, size: 0x8, addend: 0x0, symName: __ZNSt3__117__compressed_pairIPNS_10shared_ptrI9ComponentEERNS_9allocatorIS3_EEE6secondB7v160006Ev, symObjAddr: 0x1C80, symBinAddr: 0x78C0, symSize: 0x20 }
  - { offsetInCU: 0x6072, offset: 0x1DE9C, size: 0x8, addend: 0x0, symName: __ZNSt3__122__compressed_pair_elemIRNS_9allocatorINS_10shared_ptrI9ComponentEEEELi1ELb0EE5__getB7v160006Ev, symObjAddr: 0x1CA0, symBinAddr: 0x78E0, symSize: 0x20 }
  - { offsetInCU: 0x6097, offset: 0x1DEC1, size: 0x8, addend: 0x0, symName: __ZNSt3__117__compressed_pairIPNS_10shared_ptrI9ComponentEERNS_9allocatorIS3_EEE5firstB7v160006Ev, symObjAddr: 0x1CC0, symBinAddr: 0x7900, symSize: 0x20 }
  - { offsetInCU: 0x60BC, offset: 0x1DEE6, size: 0x8, addend: 0x0, symName: __ZNSt3__116reverse_iteratorIPNS_10shared_ptrI9ComponentEEEC1B7v160006ES4_, symObjAddr: 0x1E60, symBinAddr: 0x7AA0, symSize: 0x30 }
  - { offsetInCU: 0x60F3, offset: 0x1DF1D, size: 0x8, addend: 0x0, symName: __ZNKSt3__116reverse_iteratorIPNS_10shared_ptrI9ComponentEEE4baseB7v160006Ev, symObjAddr: 0x1E90, symBinAddr: 0x7AD0, symSize: 0x20 }
  - { offsetInCU: 0x6118, offset: 0x1DF42, size: 0x8, addend: 0x0, symName: __ZNKSt3__16vectorINS_10shared_ptrI9ComponentEENS_9allocatorIS3_EEE14__annotate_newB7v160006Em, symObjAddr: 0x1EF0, symBinAddr: 0x7B30, symSize: 0xB0 }
  - { offsetInCU: 0x614C, offset: 0x1DF76, size: 0x8, addend: 0x0, symName: __ZNSt3__129_AllocatorDestroyRangeReverseINS_9allocatorINS_10shared_ptrI9ComponentEEEENS_16reverse_iteratorIPS4_EEEC1B7v160006ERS5_RS8_SB_, symObjAddr: 0x2010, symBinAddr: 0x7C50, symSize: 0x40 }
  - { offsetInCU: 0x61A2, offset: 0x1DFCC, size: 0x8, addend: 0x0, symName: __ZNSt3__116allocator_traitsINS_9allocatorINS_10shared_ptrI9ComponentEEEEE9constructB7v160006IS4_JS4_EvvEEvRS5_PT_DpOT0_, symObjAddr: 0x2090, symBinAddr: 0x7CD0, symSize: 0x30 }
  - { offsetInCU: 0x61F7, offset: 0x1E021, size: 0x8, addend: 0x0, symName: __ZNKSt3__116reverse_iteratorIPNS_10shared_ptrI9ComponentEEEdeB7v160006Ev, symObjAddr: 0x20E0, symBinAddr: 0x7D20, symSize: 0x30 }
  - { offsetInCU: 0x622A, offset: 0x1E054, size: 0x8, addend: 0x0, symName: __ZNSt3__116reverse_iteratorIPNS_10shared_ptrI9ComponentEEEppB7v160006Ev, symObjAddr: 0x2110, symBinAddr: 0x7D50, symSize: 0x20 }
  - { offsetInCU: 0x624F, offset: 0x1E079, size: 0x8, addend: 0x0, symName: __ZNSt3__128__exception_guard_exceptionsINS_29_AllocatorDestroyRangeReverseINS_9allocatorINS_10shared_ptrI9ComponentEEEENS_16reverse_iteratorIPS5_EEEEE10__completeB7v160006Ev, symObjAddr: 0x2130, symBinAddr: 0x7D70, symSize: 0x20 }
  - { offsetInCU: 0x6274, offset: 0x1E09E, size: 0x8, addend: 0x0, symName: __ZNSt3__128__exception_guard_exceptionsINS_29_AllocatorDestroyRangeReverseINS_9allocatorINS_10shared_ptrI9ComponentEEEENS_16reverse_iteratorIPS5_EEEEED1B7v160006Ev, symObjAddr: 0x2150, symBinAddr: 0x7D90, symSize: 0x20 }
  - { offsetInCU: 0x629D, offset: 0x1E0C7, size: 0x8, addend: 0x0, symName: __ZNSt3__128__exception_guard_exceptionsINS_29_AllocatorDestroyRangeReverseINS_9allocatorINS_10shared_ptrI9ComponentEEEENS_16reverse_iteratorIPS5_EEEEEC1B7v160006ESA_, symObjAddr: 0x2170, symBinAddr: 0x7DB0, symSize: 0x40 }
  - { offsetInCU: 0x62D4, offset: 0x1E0FE, size: 0x8, addend: 0x0, symName: __ZNSt3__128__exception_guard_exceptionsINS_29_AllocatorDestroyRangeReverseINS_9allocatorINS_10shared_ptrI9ComponentEEEENS_16reverse_iteratorIPS5_EEEEEC2B7v160006ESA_, symObjAddr: 0x21B0, symBinAddr: 0x7DF0, symSize: 0x30 }
  - { offsetInCU: 0x630B, offset: 0x1E135, size: 0x8, addend: 0x0, symName: __ZNSt3__129_AllocatorDestroyRangeReverseINS_9allocatorINS_10shared_ptrI9ComponentEEEENS_16reverse_iteratorIPS4_EEEC2B7v160006ERS5_RS8_SB_, symObjAddr: 0x21E0, symBinAddr: 0x7E20, symSize: 0x40 }
  - { offsetInCU: 0x6361, offset: 0x1E18B, size: 0x8, addend: 0x0, symName: __ZNSt3__110shared_ptrI9ComponentEC1B7v160006EOS2_, symObjAddr: 0x2260, symBinAddr: 0x7EA0, symSize: 0x30 }
  - { offsetInCU: 0x6399, offset: 0x1E1C3, size: 0x8, addend: 0x0, symName: __ZNSt3__110shared_ptrI9ComponentEC2B7v160006EOS2_, symObjAddr: 0x2290, symBinAddr: 0x7ED0, symSize: 0x40 }
  - { offsetInCU: 0x63D6, offset: 0x1E200, size: 0x8, addend: 0x0, symName: __ZNSt3__119__to_address_helperINS_16reverse_iteratorIPNS_10shared_ptrI9ComponentEEEEvE6__callB7v160006ERKS6_, symObjAddr: 0x22D0, symBinAddr: 0x7F10, symSize: 0x40 }
  - { offsetInCU: 0x63F9, offset: 0x1E223, size: 0x8, addend: 0x0, symName: __ZNKSt3__116reverse_iteratorIPNS_10shared_ptrI9ComponentEEEptB7v160006Ev, symObjAddr: 0x2310, symBinAddr: 0x7F50, symSize: 0x30 }
  - { offsetInCU: 0x641E, offset: 0x1E248, size: 0x8, addend: 0x0, symName: __ZNSt3__128__exception_guard_exceptionsINS_29_AllocatorDestroyRangeReverseINS_9allocatorINS_10shared_ptrI9ComponentEEEENS_16reverse_iteratorIPS5_EEEEED2B7v160006Ev, symObjAddr: 0x2410, symBinAddr: 0x8040, symSize: 0x40 }
  - { offsetInCU: 0x6447, offset: 0x1E271, size: 0x8, addend: 0x0, symName: __ZNKSt3__129_AllocatorDestroyRangeReverseINS_9allocatorINS_10shared_ptrI9ComponentEEEENS_16reverse_iteratorIPS4_EEEclB7v160006Ev, symObjAddr: 0x2450, symBinAddr: 0x8080, symSize: 0xF0 }
  - { offsetInCU: 0x646D, offset: 0x1E297, size: 0x8, addend: 0x0, symName: __ZNSt3__116reverse_iteratorINS0_IPNS_10shared_ptrI9ComponentEEEEEC1B7v160006ES5_, symObjAddr: 0x25B0, symBinAddr: 0x81E0, symSize: 0x30 }
  - { offsetInCU: 0x64A4, offset: 0x1E2CE, size: 0x8, addend: 0x0, symName: __ZNSt3__116reverse_iteratorINS0_IPNS_10shared_ptrI9ComponentEEEEEppB7v160006Ev, symObjAddr: 0x2650, symBinAddr: 0x8280, symSize: 0x30 }
  - { offsetInCU: 0x64C9, offset: 0x1E2F3, size: 0x8, addend: 0x0, symName: __ZNKSt3__116reverse_iteratorINS0_IPNS_10shared_ptrI9ComponentEEEEE4baseB7v160006Ev, symObjAddr: 0x2680, symBinAddr: 0x82B0, symSize: 0x20 }
  - { offsetInCU: 0x64F3, offset: 0x1E31D, size: 0x8, addend: 0x0, symName: __ZNSt3__119__to_address_helperINS_16reverse_iteratorINS1_IPNS_10shared_ptrI9ComponentEEEEEEvE6__callB7v160006ERKS7_, symObjAddr: 0x26A0, symBinAddr: 0x82D0, symSize: 0x40 }
  - { offsetInCU: 0x6516, offset: 0x1E340, size: 0x8, addend: 0x0, symName: __ZNKSt3__116reverse_iteratorINS0_IPNS_10shared_ptrI9ComponentEEEEEptB7v160006Ev, symObjAddr: 0x26E0, symBinAddr: 0x8310, symSize: 0x50 }
  - { offsetInCU: 0x653B, offset: 0x1E365, size: 0x8, addend: 0x0, symName: __ZNSt3__116reverse_iteratorIPNS_10shared_ptrI9ComponentEEEpLB7v160006El, symObjAddr: 0x2810, symBinAddr: 0x8440, symSize: 0x30 }
  - { offsetInCU: 0x656E, offset: 0x1E398, size: 0x8, addend: 0x0, symName: __ZNSt3__116reverse_iteratorIPNS_10shared_ptrI9ComponentEEEmmB7v160006Ev, symObjAddr: 0x2840, symBinAddr: 0x8470, symSize: 0x20 }
  - { offsetInCU: 0x6593, offset: 0x1E3BD, size: 0x8, addend: 0x0, symName: __ZNSt3__116reverse_iteratorINS0_IPNS_10shared_ptrI9ComponentEEEEEC2B7v160006ES5_, symObjAddr: 0x2860, symBinAddr: 0x8490, symSize: 0x40 }
  - { offsetInCU: 0x65CA, offset: 0x1E3F4, size: 0x8, addend: 0x0, symName: __ZNSt3__116reverse_iteratorIPNS_10shared_ptrI9ComponentEEEC2B7v160006ES4_, symObjAddr: 0x28A0, symBinAddr: 0x84D0, symSize: 0x30 }
  - { offsetInCU: 0x6601, offset: 0x1E42B, size: 0x8, addend: 0x0, symName: __ZNSt3__114__split_bufferINS_10shared_ptrI9ComponentEERNS_9allocatorIS3_EEED2Ev, symObjAddr: 0x28D0, symBinAddr: 0x8500, symSize: 0x70 }
  - { offsetInCU: 0x662C, offset: 0x1E456, size: 0x8, addend: 0x0, symName: __ZNSt3__114__split_bufferINS_10shared_ptrI9ComponentEERNS_9allocatorIS3_EEE5clearB7v160006Ev, symObjAddr: 0x2940, symBinAddr: 0x8570, symSize: 0x20 }
  - { offsetInCU: 0x6651, offset: 0x1E47B, size: 0x8, addend: 0x0, symName: __ZNKSt3__114__split_bufferINS_10shared_ptrI9ComponentEERNS_9allocatorIS3_EEE8capacityB7v160006Ev, symObjAddr: 0x2960, symBinAddr: 0x8590, symSize: 0x30 }
  - { offsetInCU: 0x6676, offset: 0x1E4A0, size: 0x8, addend: 0x0, symName: __ZNSt3__114__split_bufferINS_10shared_ptrI9ComponentEERNS_9allocatorIS3_EEE17__destruct_at_endB7v160006EPS3_, symObjAddr: 0x2990, symBinAddr: 0x85C0, symSize: 0x30 }
  - { offsetInCU: 0x66A8, offset: 0x1E4D2, size: 0x8, addend: 0x0, symName: __ZNSt3__114__split_bufferINS_10shared_ptrI9ComponentEERNS_9allocatorIS3_EEE17__destruct_at_endB7v160006EPS3_NS_17integral_constantIbLb0EEE, symObjAddr: 0x29C0, symBinAddr: 0x85F0, symSize: 0x80 }
  - { offsetInCU: 0x66E7, offset: 0x1E511, size: 0x8, addend: 0x0, symName: __ZNKSt3__114__split_bufferINS_10shared_ptrI9ComponentEERNS_9allocatorIS3_EEE9__end_capB7v160006Ev, symObjAddr: 0x2A40, symBinAddr: 0x8670, symSize: 0x20 }
  - { offsetInCU: 0x670C, offset: 0x1E536, size: 0x8, addend: 0x0, symName: __ZNKSt3__117__compressed_pairIPNS_10shared_ptrI9ComponentEERNS_9allocatorIS3_EEE5firstB7v160006Ev, symObjAddr: 0x2A60, symBinAddr: 0x8690, symSize: 0x20 }
  - { offsetInCU: 0x5A2A, offset: 0x23FF7, size: 0x8, addend: 0x0, symName: __ZN16PlayerGameEntityC2EP12SDL_Renderer, symObjAddr: 0x0, symBinAddr: 0x86B0, symSize: 0x1D0 }
  - { offsetInCU: 0x5A7D, offset: 0x2404A, size: 0x8, addend: 0x0, symName: __ZN16PlayerGameEntityC1EP12SDL_Renderer, symObjAddr: 0x3C0, symBinAddr: 0x8880, symSize: 0x30 }
  - { offsetInCU: 0x5AB6, offset: 0x24083, size: 0x8, addend: 0x0, symName: __ZN16PlayerGameEntityD2Ev, symObjAddr: 0x3F0, symBinAddr: 0x88B0, symSize: 0x40 }
  - { offsetInCU: 0x5AE1, offset: 0x240AE, size: 0x8, addend: 0x0, symName: __ZN16PlayerGameEntityD1Ev, symObjAddr: 0x430, symBinAddr: 0x88F0, symSize: 0x20 }
  - { offsetInCU: 0x5B0C, offset: 0x240D9, size: 0x8, addend: 0x0, symName: __ZN16PlayerGameEntityD0Ev, symObjAddr: 0x450, symBinAddr: 0x8910, symSize: 0x30 }
  - { offsetInCU: 0x5B37, offset: 0x24104, size: 0x8, addend: 0x0, symName: __ZN16PlayerGameEntity5InputEf, symObjAddr: 0x480, symBinAddr: 0x8940, symSize: 0x1F0 }
  - { offsetInCU: 0x5B87, offset: 0x24154, size: 0x8, addend: 0x0, symName: __ZN16PlayerGameEntity6UpdateEf, symObjAddr: 0x730, symBinAddr: 0x8B30, symSize: 0xB0 }
  - { offsetInCU: 0x5C0D, offset: 0x241DA, size: 0x8, addend: 0x0, symName: __ZN16PlayerGameEntity6RenderEP12SDL_Renderer, symObjAddr: 0x8D0, symBinAddr: 0x8BE0, symSize: 0xB0 }
  - { offsetInCU: 0x5C93, offset: 0x24260, size: 0x8, addend: 0x0, symName: __ZNK16PlayerGameEntity13GetProjectileEv, symObjAddr: 0x980, symBinAddr: 0x8C90, symSize: 0x30 }
  - { offsetInCU: 0x26, offset: 0x242C0, size: 0x8, addend: 0x0, symName: __ZN10ProjectileC2Ev, symObjAddr: 0x0, symBinAddr: 0x8CC0, symSize: 0x80 }
  - { offsetInCU: 0x5BEB, offset: 0x29E85, size: 0x8, addend: 0x0, symName: __ZN10ProjectileC2Ev, symObjAddr: 0x0, symBinAddr: 0x8CC0, symSize: 0x80 }
  - { offsetInCU: 0x5C16, offset: 0x29EB0, size: 0x8, addend: 0x0, symName: __ZN10ProjectileC1Ev, symObjAddr: 0x80, symBinAddr: 0x8D40, symSize: 0x20 }
  - { offsetInCU: 0x5C41, offset: 0x29EDB, size: 0x8, addend: 0x0, symName: __ZN10Projectile6LaunchEffbi, symObjAddr: 0xA0, symBinAddr: 0x8D60, symSize: 0x100 }
  - { offsetInCU: 0x5CB5, offset: 0x29F4F, size: 0x8, addend: 0x0, symName: __ZN10Projectile5InputEf, symObjAddr: 0x2A0, symBinAddr: 0x8E60, symSize: 0x90 }
  - { offsetInCU: 0x5D3B, offset: 0x29FD5, size: 0x8, addend: 0x0, symName: __ZN10Projectile6UpdateEf, symObjAddr: 0x420, symBinAddr: 0x8EF0, symSize: 0x1C0 }
  - { offsetInCU: 0x5D7E, offset: 0x2A018, size: 0x8, addend: 0x0, symName: __ZN10Projectile6RenderEP12SDL_Renderer, symObjAddr: 0x5E0, symBinAddr: 0x90B0, symSize: 0xB0 }
  - { offsetInCU: 0x5E04, offset: 0x2A09E, size: 0x8, addend: 0x0, symName: __ZN10ProjectileD1Ev, symObjAddr: 0x690, symBinAddr: 0x9160, symSize: 0x20 }
  - { offsetInCU: 0x5E2F, offset: 0x2A0C9, size: 0x8, addend: 0x0, symName: __ZN10ProjectileD0Ev, symObjAddr: 0x6B0, symBinAddr: 0x9180, symSize: 0x30 }
  - { offsetInCU: 0x5E5A, offset: 0x2A0F4, size: 0x8, addend: 0x0, symName: __ZN10ProjectileD2Ev, symObjAddr: 0x7C0, symBinAddr: 0x91B0, symSize: 0x20 }
  - { offsetInCU: 0x4C, offset: 0x2A170, size: 0x8, addend: 0x0, symName: __ZN15ResourceManager9mInstanceE, symObjAddr: 0x50528, symBinAddr: 0x5C630, symSize: 0x0 }
  - { offsetInCU: 0x5C2F, offset: 0x2FD53, size: 0x8, addend: 0x0, symName: __ZNSt3__1L19piecewise_constructE, symObjAddr: 0x5C85, symBinAddr: 0x57742, symSize: 0x0 }
  - { offsetInCU: 0x6C74, offset: 0x30D98, size: 0x8, addend: 0x0, symName: __ZNSt3__1eqB7v160006I11SDL_TextureEEbRKNS_10shared_ptrIT_EEDn, symObjAddr: 0x640, symBinAddr: 0x9810, symSize: 0x30 }
  - { offsetInCU: 0x6CB7, offset: 0x30DDB, size: 0x8, addend: 0x0, symName: __ZNSt3__119__debug_db_insert_cB7v160006INS_13unordered_mapINS_12basic_stringIcNS_11char_traitsIcEENS_9allocatorIcEEEENS_10shared_ptrI11SDL_TextureEENS_4hashIS7_EENS_8equal_toIS7_EENS5_INS_4pairIKS7_SA_EEEEEEEEvPT_, symObjAddr: 0x8E0, symBinAddr: 0x9AB0, symSize: 0x10 }
  - { offsetInCU: 0x6CE8, offset: 0x30E0C, size: 0x8, addend: 0x0, symName: __ZNSt3__1neB7v160006ERKNS_25__hash_map_const_iteratorINS_21__hash_const_iteratorIPNS_11__hash_nodeINS_17__hash_value_typeINS_12basic_stringIcNS_11char_traitsIcEENS_9allocatorIcEEEENS_10shared_ptrI11SDL_TextureEEEEPvEEEEEESK_, symObjAddr: 0xFC0, symBinAddr: 0xA180, symSize: 0x30 }
  - { offsetInCU: 0x6D25, offset: 0x30E49, size: 0x8, addend: 0x0, symName: __ZNSt3__1neB7v160006ERKNS_21__hash_const_iteratorIPNS_11__hash_nodeINS_17__hash_value_typeINS_12basic_stringIcNS_11char_traitsIcEENS_9allocatorIcEEEENS_10shared_ptrI11SDL_TextureEEEEPvEEEESI_, symObjAddr: 0x1060, symBinAddr: 0xA220, symSize: 0x30 }
  - { offsetInCU: 0x6D62, offset: 0x30E86, size: 0x8, addend: 0x0, symName: __ZNSt3__1eqB7v160006ERKNS_21__hash_const_iteratorIPNS_11__hash_nodeINS_17__hash_value_typeINS_12basic_stringIcNS_11char_traitsIcEENS_9allocatorIcEEEENS_10shared_ptrI11SDL_TextureEEEEPvEEEESI_, symObjAddr: 0x1090, symBinAddr: 0xA250, symSize: 0x30 }
  - { offsetInCU: 0x6D9F, offset: 0x30EC3, size: 0x8, addend: 0x0, symName: __ZNSt3__116__constrain_hashB7v160006Emm, symObjAddr: 0x1300, symBinAddr: 0xA4C0, symSize: 0x80 }
  - { offsetInCU: 0x6DD9, offset: 0x30EFD, size: 0x8, addend: 0x0, symName: __ZNSt3__116__do_string_hashB7v160006IPKcEEmT_S3_, symObjAddr: 0x1540, symBinAddr: 0xA700, symSize: 0x40 }
  - { offsetInCU: 0x6E1F, offset: 0x30F43, size: 0x8, addend: 0x0, symName: __ZNSt3__110__loadwordB7v160006ImEET_PKv, symObjAddr: 0x1EB0, symBinAddr: 0xB070, symSize: 0x20 }
  - { offsetInCU: 0x6E62, offset: 0x30F86, size: 0x8, addend: 0x0, symName: __ZNSt3__14swapB7v160006ImEENS_9enable_ifIXaasr21is_move_constructibleIT_EE5valuesr18is_move_assignableIS2_EE5valueEvE4typeERS2_S5_, symObjAddr: 0x2070, symBinAddr: 0xB230, symSize: 0x40 }
  - { offsetInCU: 0x6EB3, offset: 0x30FD7, size: 0x8, addend: 0x0, symName: __ZNSt3__110__loadwordB7v160006IjEET_PKv, symObjAddr: 0x2100, symBinAddr: 0xB2C0, symSize: 0x20 }
  - { offsetInCU: 0x6EF6, offset: 0x3101A, size: 0x8, addend: 0x0, symName: __ZNSt3__112__to_addressB7v160006IKcEEPT_S3_, symObjAddr: 0x2250, symBinAddr: 0xB410, symSize: 0x10 }
  - { offsetInCU: 0x6F5E, offset: 0x31082, size: 0x8, addend: 0x0, symName: __ZNSt3__1eqB7v160006INS_9allocatorIcEEEEbRKNS_12basic_stringIcNS_11char_traitsIcEET_EES9_, symObjAddr: 0x2510, symBinAddr: 0xB6D0, symSize: 0x110 }
  - { offsetInCU: 0x6FD1, offset: 0x310F5, size: 0x8, addend: 0x0, symName: __ZNSt3__118__constexpr_memcmpB7v160006IcEEiPKT_S3_m, symObjAddr: 0x2680, symBinAddr: 0xB840, symSize: 0x30 }
  - { offsetInCU: 0x7022, offset: 0x31146, size: 0x8, addend: 0x0, symName: __ZNSt3__17launderB7v160006IKNS_4pairIKNS_12basic_stringIcNS_11char_traitsIcEENS_9allocatorIcEEEENS_10shared_ptrI11SDL_TextureEEEEEEPT_SF_, symObjAddr: 0x26B0, symBinAddr: 0xB870, symSize: 0x20 }
  - { offsetInCU: 0x7059, offset: 0x3117D, size: 0x8, addend: 0x0, symName: __ZNSt3__19__launderB7v160006IKNS_4pairIKNS_12basic_stringIcNS_11char_traitsIcEENS_9allocatorIcEEEENS_10shared_ptrI11SDL_TextureEEEEEEPT_SF_, symObjAddr: 0x26D0, symBinAddr: 0xB890, symSize: 0x10 }
  - { offsetInCU: 0x70C3, offset: 0x311E7, size: 0x8, addend: 0x0, symName: __ZNSt3__116__is_hash_power2B7v160006Em, symObjAddr: 0x2F90, symBinAddr: 0xC120, symSize: 0x40 }
  - { offsetInCU: 0x7132, offset: 0x31256, size: 0x8, addend: 0x0, symName: __ZNSt3__112construct_atB7v160006INS_4pairIKNS_12basic_stringIcNS_11char_traitsIcEENS_9allocatorIcEEEENS_10shared_ptrI11SDL_TextureEEEEJSC_EPSC_EEPT_SF_DpOT0_, symObjAddr: 0x35D0, symBinAddr: 0xC630, symSize: 0x40 }
  - { offsetInCU: 0x71A2, offset: 0x312C6, size: 0x8, addend: 0x0, symName: __ZNSt3__17launderB7v160006INS_4pairIKNS_12basic_stringIcNS_11char_traitsIcEENS_9allocatorIcEEEENS_10shared_ptrI11SDL_TextureEEEEEEPT_SE_, symObjAddr: 0x3710, symBinAddr: 0xC770, symSize: 0x20 }
  - { offsetInCU: 0x71D9, offset: 0x312FD, size: 0x8, addend: 0x0, symName: __ZNSt3__19__launderB7v160006INS_4pairIKNS_12basic_stringIcNS_11char_traitsIcEENS_9allocatorIcEEEENS_10shared_ptrI11SDL_TextureEEEEEEPT_SE_, symObjAddr: 0x3730, symBinAddr: 0xC790, symSize: 0x10 }
  - { offsetInCU: 0x7210, offset: 0x31334, size: 0x8, addend: 0x0, symName: __ZNSt3__116__next_hash_pow2B7v160006Em, symObjAddr: 0x3C60, symBinAddr: 0xCCC0, symSize: 0x60 }
  - { offsetInCU: 0x723C, offset: 0x31360, size: 0x8, addend: 0x0, symName: __ZNSt3__125__debug_db_invalidate_allB7v160006INS_12__hash_tableINS_17__hash_value_typeINS_12basic_stringIcNS_11char_traitsIcEENS_9allocatorIcEEEENS_10shared_ptrI11SDL_TextureEEEENS_22__unordered_map_hasherIS8_SC_NS_4hashIS8_EENS_8equal_toIS8_EELb1EEENS_21__unordered_map_equalIS8_SC_SH_SF_Lb1EEENS6_ISC_EEEEEEvPT_, symObjAddr: 0x3CC0, symBinAddr: 0xCD20, symSize: 0x10 }
  - { offsetInCU: 0x726D, offset: 0x31391, size: 0x8, addend: 0x0, symName: __ZNSt3__112__libcpp_clzB7v160006Em, symObjAddr: 0x40B0, symBinAddr: 0xD010, symSize: 0x20 }
  - { offsetInCU: 0x7299, offset: 0x313BD, size: 0x8, addend: 0x0, symName: __ZNSt3__110destroy_atB7v160006INS_4pairIKNS_12basic_stringIcNS_11char_traitsIcEENS_9allocatorIcEEEENS_10shared_ptrI11SDL_TextureEEEELi0EEEvPT_, symObjAddr: 0x4330, symBinAddr: 0xD210, symSize: 0x20 }
  - { offsetInCU: 0x72D0, offset: 0x313F4, size: 0x8, addend: 0x0, symName: __ZNSt3__112__destroy_atB7v160006INS_4pairIKNS_12basic_stringIcNS_11char_traitsIcEENS_9allocatorIcEEEENS_10shared_ptrI11SDL_TextureEEEELi0EEEvPT_, symObjAddr: 0x4350, symBinAddr: 0xD230, symSize: 0x20 }
  - { offsetInCU: 0x733E, offset: 0x31462, size: 0x8, addend: 0x0, symName: __ZNSt3__116forward_as_tupleB7v160006IJRKNS_12basic_stringIcNS_11char_traitsIcEENS_9allocatorIcEEEEEEENS_5tupleIJDpOT_EEESC_, symObjAddr: 0x4AC0, symBinAddr: 0xD9A0, symSize: 0x30 }
  - { offsetInCU: 0x7377, offset: 0x3149B, size: 0x8, addend: 0x0, symName: __ZNSt3__116forward_as_tupleB7v160006IJEEENS_5tupleIJDpOT_EEES4_, symObjAddr: 0x4AF0, symBinAddr: 0xD9D0, symSize: 0x10 }
  - { offsetInCU: 0x739B, offset: 0x314BF, size: 0x8, addend: 0x0, symName: __ZNSt3__112construct_atB7v160006INS_4pairIKNS_12basic_stringIcNS_11char_traitsIcEENS_9allocatorIcEEEENS_10shared_ptrI11SDL_TextureEEEEJRKNS_21piecewise_construct_tENS_5tupleIJRS8_EEENSG_IJEEEEPSC_EEPT_SM_DpOT0_, symObjAddr: 0x4CC0, symBinAddr: 0xDBA0, symSize: 0x50 }
  - { offsetInCU: 0x743D, offset: 0x31561, size: 0x8, addend: 0x0, symName: __ZNSt3__13getB7v160006ILm0EJRKNS_12basic_stringIcNS_11char_traitsIcEENS_9allocatorIcEEEEEEERNS_13tuple_elementIXT_ENS_5tupleIJDpT0_EEEE4typeERSD_, symObjAddr: 0x4DC0, symBinAddr: 0xDCA0, symSize: 0x20 }
  - { offsetInCU: 0x7BB1, offset: 0x31CD5, size: 0x8, addend: 0x0, symName: __ZNSt3__14swapB7v160006IP11SDL_TextureEENS_9enable_ifIXaasr21is_move_constructibleIT_EE5valuesr18is_move_assignableIS4_EE5valueEvE4typeERS4_S7_, symObjAddr: 0x58C0, symBinAddr: 0xE5F0, symSize: 0x40 }
  - { offsetInCU: 0xA3C4, offset: 0x344E8, size: 0x8, addend: 0x0, symName: __Z19make_shared_textureP12SDL_RendererP11SDL_Surface, symObjAddr: 0x0, symBinAddr: 0x91D0, symSize: 0x70 }
  - { offsetInCU: 0xA44C, offset: 0x34570, size: 0x8, addend: 0x0, symName: __ZNSt3__110shared_ptrI11SDL_TextureEC1B7v160006IS1_21TextureFunctorDeletervEEPT_T0_, symObjAddr: 0x70, symBinAddr: 0x9240, symSize: 0x30 }
  - { offsetInCU: 0xA616, offset: 0x3473A, size: 0x8, addend: 0x0, symName: __ZN15SpriteComponentC2Ev, symObjAddr: 0xA0, symBinAddr: 0x9270, symSize: 0x70 }
  - { offsetInCU: 0xA641, offset: 0x34765, size: 0x8, addend: 0x0, symName: __ZN9ComponentC2Ev, symObjAddr: 0x110, symBinAddr: 0x92E0, symSize: 0x20 }
  - { offsetInCU: 0xA66A, offset: 0x3478E, size: 0x8, addend: 0x0, symName: __ZNSt3__110shared_ptrI11SDL_TextureEC1B7v160006Ev, symObjAddr: 0x130, symBinAddr: 0x9300, symSize: 0x20 }
  - { offsetInCU: 0xA693, offset: 0x347B7, size: 0x8, addend: 0x0, symName: __ZN15SpriteComponentC1Ev, symObjAddr: 0x150, symBinAddr: 0x9320, symSize: 0x20 }
  - { offsetInCU: 0xA6BE, offset: 0x347E2, size: 0x8, addend: 0x0, symName: __ZN15SpriteComponent21CreateSpriteComponentEP12SDL_RendererNSt3__112basic_stringIcNS2_11char_traitsIcEENS2_9allocatorIcEEEE, symObjAddr: 0x170, symBinAddr: 0x9340, symSize: 0xB0 }
  - { offsetInCU: 0xA702, offset: 0x34826, size: 0x8, addend: 0x0, symName: __ZN15ResourceManager8InstanceEv, symObjAddr: 0x220, symBinAddr: 0x93F0, symSize: 0x80 }
  - { offsetInCU: 0xA716, offset: 0x3483A, size: 0x8, addend: 0x0, symName: __ZN15ResourceManager11LoadTextureEP12SDL_RendererNSt3__112basic_stringIcNS2_11char_traitsIcEENS2_9allocatorIcEEEE, symObjAddr: 0x2A0, symBinAddr: 0x9470, symSize: 0x1F0 }
  - { offsetInCU: 0xA77B, offset: 0x3489F, size: 0x8, addend: 0x0, symName: __ZNSt3__110shared_ptrI11SDL_TextureEaSB7v160006EOS2_, symObjAddr: 0x490, symBinAddr: 0x9660, symSize: 0x50 }
  - { offsetInCU: 0xA7AF, offset: 0x348D3, size: 0x8, addend: 0x0, symName: __ZNSt3__110shared_ptrI11SDL_TextureED1B7v160006Ev, symObjAddr: 0x4E0, symBinAddr: 0x96B0, symSize: 0x20 }
  - { offsetInCU: 0xA7D8, offset: 0x348FC, size: 0x8, addend: 0x0, symName: __ZN15SpriteComponentD2Ev, symObjAddr: 0x500, symBinAddr: 0x96D0, symSize: 0x40 }
  - { offsetInCU: 0xA802, offset: 0x34926, size: 0x8, addend: 0x0, symName: __ZN9ComponentD2Ev, symObjAddr: 0x540, symBinAddr: 0x9710, symSize: 0x10 }
  - { offsetInCU: 0xA82B, offset: 0x3494F, size: 0x8, addend: 0x0, symName: __ZN15SpriteComponentD1Ev, symObjAddr: 0x550, symBinAddr: 0x9720, symSize: 0x20 }
  - { offsetInCU: 0xA855, offset: 0x34979, size: 0x8, addend: 0x0, symName: __ZN15SpriteComponentD0Ev, symObjAddr: 0x570, symBinAddr: 0x9740, symSize: 0x30 }
  - { offsetInCU: 0xA87F, offset: 0x349A3, size: 0x8, addend: 0x0, symName: __ZN15SpriteComponent5InputEf, symObjAddr: 0x5A0, symBinAddr: 0x9770, symSize: 0x10 }
  - { offsetInCU: 0xA8B4, offset: 0x349D8, size: 0x8, addend: 0x0, symName: __ZN15SpriteComponent6UpdateEf, symObjAddr: 0x5B0, symBinAddr: 0x9780, symSize: 0x10 }
  - { offsetInCU: 0xA8E9, offset: 0x34A0D, size: 0x8, addend: 0x0, symName: __ZN15SpriteComponent6RenderEP12SDL_Renderer, symObjAddr: 0x5C0, symBinAddr: 0x9790, symSize: 0x80 }
  - { offsetInCU: 0xA91E, offset: 0x34A42, size: 0x8, addend: 0x0, symName: __ZNKSt3__110shared_ptrI11SDL_TextureE3getB7v160006Ev, symObjAddr: 0x670, symBinAddr: 0x9840, symSize: 0x20 }
  - { offsetInCU: 0xA943, offset: 0x34A67, size: 0x8, addend: 0x0, symName: __ZN15SpriteComponent4SetWEf, symObjAddr: 0x690, symBinAddr: 0x9860, symSize: 0x20 }
  - { offsetInCU: 0xA978, offset: 0x34A9C, size: 0x8, addend: 0x0, symName: __ZN15SpriteComponent4SetXEf, symObjAddr: 0x6B0, symBinAddr: 0x9880, symSize: 0x20 }
  - { offsetInCU: 0xA9AD, offset: 0x34AD1, size: 0x8, addend: 0x0, symName: __ZN15SpriteComponent4SetYEf, symObjAddr: 0x6D0, symBinAddr: 0x98A0, symSize: 0x20 }
  - { offsetInCU: 0xA9E2, offset: 0x34B06, size: 0x8, addend: 0x0, symName: __ZNK15SpriteComponent4GetXEv, symObjAddr: 0x6F0, symBinAddr: 0x98C0, symSize: 0x20 }
  - { offsetInCU: 0xAA09, offset: 0x34B2D, size: 0x8, addend: 0x0, symName: __ZNK15SpriteComponent4GetYEv, symObjAddr: 0x710, symBinAddr: 0x98E0, symSize: 0x20 }
  - { offsetInCU: 0xAA30, offset: 0x34B54, size: 0x8, addend: 0x0, symName: __ZN15SpriteComponent4MoveEff, symObjAddr: 0x730, symBinAddr: 0x9900, symSize: 0x30 }
  - { offsetInCU: 0xAA73, offset: 0x34B97, size: 0x8, addend: 0x0, symName: __ZNK15SpriteComponent12GetRectangleEv, symObjAddr: 0x760, symBinAddr: 0x9930, symSize: 0x20 }
  - { offsetInCU: 0xAA9A, offset: 0x34BBE, size: 0x8, addend: 0x0, symName: __ZN9ComponentD1Ev, symObjAddr: 0x780, symBinAddr: 0x9950, symSize: 0x20 }
  - { offsetInCU: 0xAAC3, offset: 0x34BE7, size: 0x8, addend: 0x0, symName: __ZN9ComponentD0Ev, symObjAddr: 0x7A0, symBinAddr: 0x9970, symSize: 0x30 }
  - { offsetInCU: 0xAAEC, offset: 0x34C10, size: 0x8, addend: 0x0, symName: __ZN9Component5InputEf, symObjAddr: 0x7D0, symBinAddr: 0x99A0, symSize: 0x10 }
  - { offsetInCU: 0xAB1F, offset: 0x34C43, size: 0x8, addend: 0x0, symName: __ZN9Component6UpdateEf, symObjAddr: 0x7E0, symBinAddr: 0x99B0, symSize: 0x10 }
  - { offsetInCU: 0xAB52, offset: 0x34C76, size: 0x8, addend: 0x0, symName: __ZN9Component6RenderEP12SDL_Renderer, symObjAddr: 0x7F0, symBinAddr: 0x99C0, symSize: 0x10 }
  - { offsetInCU: 0xAB85, offset: 0x34CA9, size: 0x8, addend: 0x0, symName: __ZNSt3__110shared_ptrI11SDL_TextureEC2B7v160006Ev, symObjAddr: 0x800, symBinAddr: 0x99D0, symSize: 0x20 }
  - { offsetInCU: 0xABAE, offset: 0x34CD2, size: 0x8, addend: 0x0, symName: __ZN15ResourceManagerC1Ev, symObjAddr: 0x820, symBinAddr: 0x99F0, symSize: 0x20 }
  - { offsetInCU: 0xABD7, offset: 0x34CFB, size: 0x8, addend: 0x0, symName: __ZN15ResourceManagerC2Ev, symObjAddr: 0x840, symBinAddr: 0x9A10, symSize: 0x20 }
  - { offsetInCU: 0xAC00, offset: 0x34D24, size: 0x8, addend: 0x0, symName: __ZNSt3__113unordered_mapINS_12basic_stringIcNS_11char_traitsIcEENS_9allocatorIcEEEENS_10shared_ptrI11SDL_TextureEENS_4hashIS6_EENS_8equal_toIS6_EENS4_INS_4pairIKS6_S9_EEEEEC1B7v160006Ev, symObjAddr: 0x860, symBinAddr: 0x9A30, symSize: 0x20 }
  - { offsetInCU: 0xAC29, offset: 0x34D4D, size: 0x8, addend: 0x0, symName: __ZNSt3__113unordered_mapINS_12basic_stringIcNS_11char_traitsIcEENS_9allocatorIcEEEENS_10shared_ptrI11SDL_TextureEENS_4hashIS6_EENS_8equal_toIS6_EENS4_INS_4pairIKS6_S9_EEEEEC2B7v160006Ev, symObjAddr: 0x880, symBinAddr: 0x9A50, symSize: 0x40 }
  - { offsetInCU: 0xAC52, offset: 0x34D76, size: 0x8, addend: 0x0, symName: __ZNSt3__112__hash_tableINS_17__hash_value_typeINS_12basic_stringIcNS_11char_traitsIcEENS_9allocatorIcEEEENS_10shared_ptrI11SDL_TextureEEEENS_22__unordered_map_hasherIS7_SB_NS_4hashIS7_EENS_8equal_toIS7_EELb1EEENS_21__unordered_map_equalIS7_SB_SG_SE_Lb1EEENS5_ISB_EEEC1Ev, symObjAddr: 0x8C0, symBinAddr: 0x9A90, symSize: 0x20 }
  - { offsetInCU: 0xAC7D, offset: 0x34DA1, size: 0x8, addend: 0x0, symName: __ZNSt3__112__hash_tableINS_17__hash_value_typeINS_12basic_stringIcNS_11char_traitsIcEENS_9allocatorIcEEEENS_10shared_ptrI11SDL_TextureEEEENS_22__unordered_map_hasherIS7_SB_NS_4hashIS7_EENS_8equal_toIS7_EELb1EEENS_21__unordered_map_equalIS7_SB_SG_SE_Lb1EEENS5_ISB_EEEC2Ev, symObjAddr: 0x900, symBinAddr: 0x9AC0, symSize: 0x80 }
  - { offsetInCU: 0xACA8, offset: 0x34DCC, size: 0x8, addend: 0x0, symName: __ZNSt3__110unique_ptrIA_PNS_16__hash_node_baseIPNS_11__hash_nodeINS_17__hash_value_typeINS_12basic_stringIcNS_11char_traitsIcEENS_9allocatorIcEEEENS_10shared_ptrI11SDL_TextureEEEEPvEEEENS_25__bucket_list_deallocatorINS7_ISI_EEEEEC1B7v160006ILb1EvEEv, symObjAddr: 0x980, symBinAddr: 0x9B40, symSize: 0x20 }
  - { offsetInCU: 0xACDC, offset: 0x34E00, size: 0x8, addend: 0x0, symName: __ZNSt3__117__compressed_pairINS_16__hash_node_baseIPNS_11__hash_nodeINS_17__hash_value_typeINS_12basic_stringIcNS_11char_traitsIcEENS_9allocatorIcEEEENS_10shared_ptrI11SDL_TextureEEEEPvEEEENS7_ISF_EEEC1B7v160006ILb1EvEEv, symObjAddr: 0x9A0, symBinAddr: 0x9B60, symSize: 0x20 }
  - { offsetInCU: 0xAD1A, offset: 0x34E3E, size: 0x8, addend: 0x0, symName: __ZNSt3__117__compressed_pairImNS_22__unordered_map_hasherINS_12basic_stringIcNS_11char_traitsIcEENS_9allocatorIcEEEENS_17__hash_value_typeIS7_NS_10shared_ptrI11SDL_TextureEEEENS_4hashIS7_EENS_8equal_toIS7_EELb1EEEEC1B7v160006IiNS_18__default_init_tagEEEOT_OT0_, symObjAddr: 0x9C0, symBinAddr: 0x9B80, symSize: 0x30 }
  - { offsetInCU: 0xAD76, offset: 0x34E9A, size: 0x8, addend: 0x0, symName: __ZNSt3__117__compressed_pairIfNS_21__unordered_map_equalINS_12basic_stringIcNS_11char_traitsIcEENS_9allocatorIcEEEENS_17__hash_value_typeIS7_NS_10shared_ptrI11SDL_TextureEEEENS_8equal_toIS7_EENS_4hashIS7_EELb1EEEEC1B7v160006IfNS_18__default_init_tagEEEOT_OT0_, symObjAddr: 0x9F0, symBinAddr: 0x9BB0, symSize: 0x30 }
  - { offsetInCU: 0xADCD, offset: 0x34EF1, size: 0x8, addend: 0x0, symName: __ZNSt3__110unique_ptrIA_PNS_16__hash_node_baseIPNS_11__hash_nodeINS_17__hash_value_typeINS_12basic_stringIcNS_11char_traitsIcEENS_9allocatorIcEEEENS_10shared_ptrI11SDL_TextureEEEEPvEEEENS_25__bucket_list_deallocatorINS7_ISI_EEEEEC2B7v160006ILb1EvEEv, symObjAddr: 0xA20, symBinAddr: 0x9BE0, symSize: 0x30 }
  - { offsetInCU: 0xAE06, offset: 0x34F2A, size: 0x8, addend: 0x0, symName: __ZNSt3__117__compressed_pairIPPNS_16__hash_node_baseIPNS_11__hash_nodeINS_17__hash_value_typeINS_12basic_stringIcNS_11char_traitsIcEENS_9allocatorIcEEEENS_10shared_ptrI11SDL_TextureEEEEPvEEEENS_25__bucket_list_deallocatorINS7_ISI_EEEEEC1B7v160006INS_16__value_init_tagESP_EEOT_OT0_, symObjAddr: 0xA50, symBinAddr: 0x9C10, symSize: 0x30 }
  - { offsetInCU: 0xAE5D, offset: 0x34F81, size: 0x8, addend: 0x0, symName: __ZNSt3__117__compressed_pairIPPNS_16__hash_node_baseIPNS_11__hash_nodeINS_17__hash_value_typeINS_12basic_stringIcNS_11char_traitsIcEENS_9allocatorIcEEEENS_10shared_ptrI11SDL_TextureEEEEPvEEEENS_25__bucket_list_deallocatorINS7_ISI_EEEEEC2B7v160006INS_16__value_init_tagESP_EEOT_OT0_, symObjAddr: 0xA80, symBinAddr: 0x9C40, symSize: 0x40 }
  - { offsetInCU: 0xAEB4, offset: 0x34FD8, size: 0x8, addend: 0x0, symName: __ZNSt3__122__compressed_pair_elemIPPNS_16__hash_node_baseIPNS_11__hash_nodeINS_17__hash_value_typeINS_12basic_stringIcNS_11char_traitsIcEENS_9allocatorIcEEEENS_10shared_ptrI11SDL_TextureEEEEPvEEEELi0ELb0EEC2B7v160006ENS_16__value_init_tagE, symObjAddr: 0xAC0, symBinAddr: 0x9C80, symSize: 0x20 }
  - { offsetInCU: 0xAEE7, offset: 0x3500B, size: 0x8, addend: 0x0, symName: __ZNSt3__122__compressed_pair_elemINS_25__bucket_list_deallocatorINS_9allocatorIPNS_16__hash_node_baseIPNS_11__hash_nodeINS_17__hash_value_typeINS_12basic_stringIcNS_11char_traitsIcEENS2_IcEEEENS_10shared_ptrI11SDL_TextureEEEEPvEEEEEEEELi1ELb0EEC2B7v160006ENS_16__value_init_tagE, symObjAddr: 0xAE0, symBinAddr: 0x9CA0, symSize: 0x20 }
  - { offsetInCU: 0xAF1A, offset: 0x3503E, size: 0x8, addend: 0x0, symName: __ZNSt3__125__bucket_list_deallocatorINS_9allocatorIPNS_16__hash_node_baseIPNS_11__hash_nodeINS_17__hash_value_typeINS_12basic_stringIcNS_11char_traitsIcEENS1_IcEEEENS_10shared_ptrI11SDL_TextureEEEEPvEEEEEEEC1B7v160006Ev, symObjAddr: 0xB00, symBinAddr: 0x9CC0, symSize: 0x20 }
  - { offsetInCU: 0xAF43, offset: 0x35067, size: 0x8, addend: 0x0, symName: __ZNSt3__125__bucket_list_deallocatorINS_9allocatorIPNS_16__hash_node_baseIPNS_11__hash_nodeINS_17__hash_value_typeINS_12basic_stringIcNS_11char_traitsIcEENS1_IcEEEENS_10shared_ptrI11SDL_TextureEEEEPvEEEEEEEC2B7v160006Ev, symObjAddr: 0xB20, symBinAddr: 0x9CE0, symSize: 0x40 }
  - { offsetInCU: 0xAF6C, offset: 0x35090, size: 0x8, addend: 0x0, symName: __ZNSt3__117__compressed_pairImNS_9allocatorIPNS_16__hash_node_baseIPNS_11__hash_nodeINS_17__hash_value_typeINS_12basic_stringIcNS_11char_traitsIcEENS1_IcEEEENS_10shared_ptrI11SDL_TextureEEEEPvEEEEEEEC1B7v160006IiNS_18__default_init_tagEEEOT_OT0_, symObjAddr: 0xB60, symBinAddr: 0x9D20, symSize: 0x30 }
  - { offsetInCU: 0xAFC3, offset: 0x350E7, size: 0x8, addend: 0x0, symName: __ZNSt3__117__compressed_pairImNS_9allocatorIPNS_16__hash_node_baseIPNS_11__hash_nodeINS_17__hash_value_typeINS_12basic_stringIcNS_11char_traitsIcEENS1_IcEEEENS_10shared_ptrI11SDL_TextureEEEEPvEEEEEEEC2B7v160006IiNS_18__default_init_tagEEEOT_OT0_, symObjAddr: 0xB90, symBinAddr: 0x9D50, symSize: 0x40 }
  - { offsetInCU: 0xB01A, offset: 0x3513E, size: 0x8, addend: 0x0, symName: __ZNSt3__122__compressed_pair_elemImLi0ELb0EEC2B7v160006IivEEOT_, symObjAddr: 0xBD0, symBinAddr: 0x9D90, symSize: 0x20 }
  - { offsetInCU: 0xB05B, offset: 0x3517F, size: 0x8, addend: 0x0, symName: __ZNSt3__122__compressed_pair_elemINS_9allocatorIPNS_16__hash_node_baseIPNS_11__hash_nodeINS_17__hash_value_typeINS_12basic_stringIcNS_11char_traitsIcEENS1_IcEEEENS_10shared_ptrI11SDL_TextureEEEEPvEEEEEELi1ELb1EEC2B7v160006ENS_18__default_init_tagE, symObjAddr: 0xBF0, symBinAddr: 0x9DB0, symSize: 0x20 }
  - { offsetInCU: 0xB08E, offset: 0x351B2, size: 0x8, addend: 0x0, symName: __ZNSt3__19allocatorIPNS_16__hash_node_baseIPNS_11__hash_nodeINS_17__hash_value_typeINS_12basic_stringIcNS_11char_traitsIcEENS0_IcEEEENS_10shared_ptrI11SDL_TextureEEEEPvEEEEEC2B7v160006Ev, symObjAddr: 0xC10, symBinAddr: 0x9DD0, symSize: 0x20 }
  - { offsetInCU: 0xB0B7, offset: 0x351DB, size: 0x8, addend: 0x0, symName: __ZNSt3__116__non_trivial_ifILb1ENS_9allocatorIPNS_16__hash_node_baseIPNS_11__hash_nodeINS_17__hash_value_typeINS_12basic_stringIcNS_11char_traitsIcEENS1_IcEEEENS_10shared_ptrI11SDL_TextureEEEEPvEEEEEEEC2B7v160006Ev, symObjAddr: 0xC30, symBinAddr: 0x9DF0, symSize: 0x10 }
  - { offsetInCU: 0xB0E0, offset: 0x35204, size: 0x8, addend: 0x0, symName: __ZNSt3__117__compressed_pairINS_16__hash_node_baseIPNS_11__hash_nodeINS_17__hash_value_typeINS_12basic_stringIcNS_11char_traitsIcEENS_9allocatorIcEEEENS_10shared_ptrI11SDL_TextureEEEEPvEEEENS7_ISF_EEEC2B7v160006ILb1EvEEv, symObjAddr: 0xC40, symBinAddr: 0x9E00, symSize: 0x30 }
  - { offsetInCU: 0xB114, offset: 0x35238, size: 0x8, addend: 0x0, symName: __ZNSt3__122__compressed_pair_elemINS_16__hash_node_baseIPNS_11__hash_nodeINS_17__hash_value_typeINS_12basic_stringIcNS_11char_traitsIcEENS_9allocatorIcEEEENS_10shared_ptrI11SDL_TextureEEEEPvEEEELi0ELb0EEC2B7v160006ENS_16__value_init_tagE, symObjAddr: 0xC70, symBinAddr: 0x9E30, symSize: 0x20 }
  - { offsetInCU: 0xB147, offset: 0x3526B, size: 0x8, addend: 0x0, symName: __ZNSt3__122__compressed_pair_elemINS_9allocatorINS_11__hash_nodeINS_17__hash_value_typeINS_12basic_stringIcNS_11char_traitsIcEENS1_IcEEEENS_10shared_ptrI11SDL_TextureEEEEPvEEEELi1ELb1EEC2B7v160006ENS_16__value_init_tagE, symObjAddr: 0xC90, symBinAddr: 0x9E50, symSize: 0x20 }
  - { offsetInCU: 0xB17A, offset: 0x3529E, size: 0x8, addend: 0x0, symName: __ZNSt3__116__hash_node_baseIPNS_11__hash_nodeINS_17__hash_value_typeINS_12basic_stringIcNS_11char_traitsIcEENS_9allocatorIcEEEENS_10shared_ptrI11SDL_TextureEEEEPvEEEC1B7v160006Ev, symObjAddr: 0xCB0, symBinAddr: 0x9E70, symSize: 0x20 }
  - { offsetInCU: 0xB1A3, offset: 0x352C7, size: 0x8, addend: 0x0, symName: __ZNSt3__116__hash_node_baseIPNS_11__hash_nodeINS_17__hash_value_typeINS_12basic_stringIcNS_11char_traitsIcEENS_9allocatorIcEEEENS_10shared_ptrI11SDL_TextureEEEEPvEEEC2B7v160006Ev, symObjAddr: 0xCD0, symBinAddr: 0x9E90, symSize: 0x20 }
  - { offsetInCU: 0xB1CC, offset: 0x352F0, size: 0x8, addend: 0x0, symName: __ZNSt3__19allocatorINS_11__hash_nodeINS_17__hash_value_typeINS_12basic_stringIcNS_11char_traitsIcEENS0_IcEEEENS_10shared_ptrI11SDL_TextureEEEEPvEEEC2B7v160006Ev, symObjAddr: 0xCF0, symBinAddr: 0x9EB0, symSize: 0x20 }
  - { offsetInCU: 0xB1F5, offset: 0x35319, size: 0x8, addend: 0x0, symName: __ZNSt3__116__non_trivial_ifILb1ENS_9allocatorINS_11__hash_nodeINS_17__hash_value_typeINS_12basic_stringIcNS_11char_traitsIcEENS1_IcEEEENS_10shared_ptrI11SDL_TextureEEEEPvEEEEEC2B7v160006Ev, symObjAddr: 0xD10, symBinAddr: 0x9ED0, symSize: 0x10 }
  - { offsetInCU: 0xB21E, offset: 0x35342, size: 0x8, addend: 0x0, symName: __ZNSt3__117__compressed_pairImNS_22__unordered_map_hasherINS_12basic_stringIcNS_11char_traitsIcEENS_9allocatorIcEEEENS_17__hash_value_typeIS7_NS_10shared_ptrI11SDL_TextureEEEENS_4hashIS7_EENS_8equal_toIS7_EELb1EEEEC2B7v160006IiNS_18__default_init_tagEEEOT_OT0_, symObjAddr: 0xD20, symBinAddr: 0x9EE0, symSize: 0x40 }
  - { offsetInCU: 0xB275, offset: 0x35399, size: 0x8, addend: 0x0, symName: __ZNSt3__122__compressed_pair_elemINS_22__unordered_map_hasherINS_12basic_stringIcNS_11char_traitsIcEENS_9allocatorIcEEEENS_17__hash_value_typeIS7_NS_10shared_ptrI11SDL_TextureEEEENS_4hashIS7_EENS_8equal_toIS7_EELb1EEELi1ELb1EEC2B7v160006ENS_18__default_init_tagE, symObjAddr: 0xD60, symBinAddr: 0x9F20, symSize: 0x20 }
  - { offsetInCU: 0xB2A8, offset: 0x353CC, size: 0x8, addend: 0x0, symName: __ZNSt3__122__unordered_map_hasherINS_12basic_stringIcNS_11char_traitsIcEENS_9allocatorIcEEEENS_17__hash_value_typeIS6_NS_10shared_ptrI11SDL_TextureEEEENS_4hashIS6_EENS_8equal_toIS6_EELb1EEC2B7v160006Ev, symObjAddr: 0xD80, symBinAddr: 0x9F40, symSize: 0x10 }
  - { offsetInCU: 0xB2D1, offset: 0x353F5, size: 0x8, addend: 0x0, symName: __ZNSt3__117__compressed_pairIfNS_21__unordered_map_equalINS_12basic_stringIcNS_11char_traitsIcEENS_9allocatorIcEEEENS_17__hash_value_typeIS7_NS_10shared_ptrI11SDL_TextureEEEENS_8equal_toIS7_EENS_4hashIS7_EELb1EEEEC2B7v160006IfNS_18__default_init_tagEEEOT_OT0_, symObjAddr: 0xD90, symBinAddr: 0x9F50, symSize: 0x40 }
  - { offsetInCU: 0xB328, offset: 0x3544C, size: 0x8, addend: 0x0, symName: __ZNSt3__122__compressed_pair_elemIfLi0ELb0EEC2B7v160006IfvEEOT_, symObjAddr: 0xDD0, symBinAddr: 0x9F90, symSize: 0x20 }
  - { offsetInCU: 0xB369, offset: 0x3548D, size: 0x8, addend: 0x0, symName: __ZNSt3__122__compressed_pair_elemINS_21__unordered_map_equalINS_12basic_stringIcNS_11char_traitsIcEENS_9allocatorIcEEEENS_17__hash_value_typeIS7_NS_10shared_ptrI11SDL_TextureEEEENS_8equal_toIS7_EENS_4hashIS7_EELb1EEELi1ELb1EEC2B7v160006ENS_18__default_init_tagE, symObjAddr: 0xDF0, symBinAddr: 0x9FB0, symSize: 0x20 }
  - { offsetInCU: 0xB39C, offset: 0x354C0, size: 0x8, addend: 0x0, symName: __ZNSt3__121__unordered_map_equalINS_12basic_stringIcNS_11char_traitsIcEENS_9allocatorIcEEEENS_17__hash_value_typeIS6_NS_10shared_ptrI11SDL_TextureEEEENS_8equal_toIS6_EENS_4hashIS6_EELb1EEC2B7v160006Ev, symObjAddr: 0xE10, symBinAddr: 0x9FD0, symSize: 0x10 }
  - { offsetInCU: 0xB3C5, offset: 0x354E9, size: 0x8, addend: 0x0, symName: __ZNKSt3__113unordered_mapINS_12basic_stringIcNS_11char_traitsIcEENS_9allocatorIcEEEENS_10shared_ptrI11SDL_TextureEENS_4hashIS6_EENS_8equal_toIS6_EENS4_INS_4pairIKS6_S9_EEEEE8containsB7v160006ERSF_, symObjAddr: 0xE20, symBinAddr: 0x9FE0, symSize: 0x50 }
  - { offsetInCU: 0xB3F9, offset: 0x3551D, size: 0x8, addend: 0x0, symName: __ZNKSt3__112basic_stringIcNS_11char_traitsIcEENS_9allocatorIcEEE5c_strB7v160006Ev, symObjAddr: 0xE70, symBinAddr: 0xA030, symSize: 0x20 }
  - { offsetInCU: 0xB41E, offset: 0x35542, size: 0x8, addend: 0x0, symName: __ZNSt3__113unordered_mapINS_12basic_stringIcNS_11char_traitsIcEENS_9allocatorIcEEEENS_10shared_ptrI11SDL_TextureEENS_4hashIS6_EENS_8equal_toIS6_EENS4_INS_4pairIKS6_S9_EEEEE6insertB7v160006EOSG_, symObjAddr: 0xE90, symBinAddr: 0xA050, symSize: 0x40 }
  - { offsetInCU: 0xB457, offset: 0x3557B, size: 0x8, addend: 0x0, symName: __ZNSt3__14pairIKNS_12basic_stringIcNS_11char_traitsIcEENS_9allocatorIcEEEENS_10shared_ptrI11SDL_TextureEEEC1B7v160006IRS6_RSA_LPv0EEEOT_OT0_, symObjAddr: 0xED0, symBinAddr: 0xA090, symSize: 0x30 }
  - { offsetInCU: 0xB4B4, offset: 0x355D8, size: 0x8, addend: 0x0, symName: __ZNSt3__14pairIKNS_12basic_stringIcNS_11char_traitsIcEENS_9allocatorIcEEEENS_10shared_ptrI11SDL_TextureEEED1Ev, symObjAddr: 0xF00, symBinAddr: 0xA0C0, symSize: 0x20 }
  - { offsetInCU: 0xB4DF, offset: 0x35603, size: 0x8, addend: 0x0, symName: __ZNSt3__113unordered_mapINS_12basic_stringIcNS_11char_traitsIcEENS_9allocatorIcEEEENS_10shared_ptrI11SDL_TextureEENS_4hashIS6_EENS_8equal_toIS6_EENS4_INS_4pairIKS6_S9_EEEEEixERSF_, symObjAddr: 0xF20, symBinAddr: 0xA0E0, symSize: 0x70 }
  - { offsetInCU: 0xB514, offset: 0x35638, size: 0x8, addend: 0x0, symName: __ZNSt3__110shared_ptrI11SDL_TextureEC1B7v160006ERKS2_, symObjAddr: 0xF90, symBinAddr: 0xA150, symSize: 0x30 }
  - { offsetInCU: 0xB54C, offset: 0x35670, size: 0x8, addend: 0x0, symName: __ZNKSt3__113unordered_mapINS_12basic_stringIcNS_11char_traitsIcEENS_9allocatorIcEEEENS_10shared_ptrI11SDL_TextureEENS_4hashIS6_EENS_8equal_toIS6_EENS4_INS_4pairIKS6_S9_EEEEE4findB7v160006ERSF_, symObjAddr: 0xFF0, symBinAddr: 0xA1B0, symSize: 0x40 }
  - { offsetInCU: 0xB580, offset: 0x356A4, size: 0x8, addend: 0x0, symName: __ZNKSt3__113unordered_mapINS_12basic_stringIcNS_11char_traitsIcEENS_9allocatorIcEEEENS_10shared_ptrI11SDL_TextureEENS_4hashIS6_EENS_8equal_toIS6_EENS4_INS_4pairIKS6_S9_EEEEE3endB7v160006Ev, symObjAddr: 0x1030, symBinAddr: 0xA1F0, symSize: 0x30 }
  - { offsetInCU: 0xB5A5, offset: 0x356C9, size: 0x8, addend: 0x0, symName: __ZNKSt3__112__hash_tableINS_17__hash_value_typeINS_12basic_stringIcNS_11char_traitsIcEENS_9allocatorIcEEEENS_10shared_ptrI11SDL_TextureEEEENS_22__unordered_map_hasherIS7_SB_NS_4hashIS7_EENS_8equal_toIS7_EELb1EEENS_21__unordered_map_equalIS7_SB_SG_SE_Lb1EEENS5_ISB_EEE4findIS7_EENS_21__hash_const_iteratorIPNS_11__hash_nodeISB_PvEEEERKT_, symObjAddr: 0x10C0, symBinAddr: 0xA280, symSize: 0x190 }
  - { offsetInCU: 0xB62D, offset: 0x35751, size: 0x8, addend: 0x0, symName: __ZNSt3__125__hash_map_const_iteratorINS_21__hash_const_iteratorIPNS_11__hash_nodeINS_17__hash_value_typeINS_12basic_stringIcNS_11char_traitsIcEENS_9allocatorIcEEEENS_10shared_ptrI11SDL_TextureEEEEPvEEEEEC1B7v160006ESH_, symObjAddr: 0x1250, symBinAddr: 0xA410, symSize: 0x30 }
  - { offsetInCU: 0xB665, offset: 0x35789, size: 0x8, addend: 0x0, symName: __ZNKSt3__112__hash_tableINS_17__hash_value_typeINS_12basic_stringIcNS_11char_traitsIcEENS_9allocatorIcEEEENS_10shared_ptrI11SDL_TextureEEEENS_22__unordered_map_hasherIS7_SB_NS_4hashIS7_EENS_8equal_toIS7_EELb1EEENS_21__unordered_map_equalIS7_SB_SG_SE_Lb1EEENS5_ISB_EEE13hash_functionB7v160006Ev, symObjAddr: 0x1280, symBinAddr: 0xA440, symSize: 0x20 }
  - { offsetInCU: 0xB68A, offset: 0x357AE, size: 0x8, addend: 0x0, symName: __ZNKSt3__122__unordered_map_hasherINS_12basic_stringIcNS_11char_traitsIcEENS_9allocatorIcEEEENS_17__hash_value_typeIS6_NS_10shared_ptrI11SDL_TextureEEEENS_4hashIS6_EENS_8equal_toIS6_EELb1EEclB7v160006ERKS6_, symObjAddr: 0x12A0, symBinAddr: 0xA460, symSize: 0x30 }
  - { offsetInCU: 0xB6BE, offset: 0x357E2, size: 0x8, addend: 0x0, symName: __ZNKSt3__112__hash_tableINS_17__hash_value_typeINS_12basic_stringIcNS_11char_traitsIcEENS_9allocatorIcEEEENS_10shared_ptrI11SDL_TextureEEEENS_22__unordered_map_hasherIS7_SB_NS_4hashIS7_EENS_8equal_toIS7_EELb1EEENS_21__unordered_map_equalIS7_SB_SG_SE_Lb1EEENS5_ISB_EEE12bucket_countB7v160006Ev, symObjAddr: 0x12D0, symBinAddr: 0xA490, symSize: 0x30 }
  - { offsetInCU: 0xB6E3, offset: 0x35807, size: 0x8, addend: 0x0, symName: __ZNKSt3__110unique_ptrIA_PNS_16__hash_node_baseIPNS_11__hash_nodeINS_17__hash_value_typeINS_12basic_stringIcNS_11char_traitsIcEENS_9allocatorIcEEEENS_10shared_ptrI11SDL_TextureEEEEPvEEEENS_25__bucket_list_deallocatorINS7_ISI_EEEEEixB7v160006Em, symObjAddr: 0x1380, symBinAddr: 0xA540, symSize: 0x30 }
  - { offsetInCU: 0xB717, offset: 0x3583B, size: 0x8, addend: 0x0, symName: __ZNKSt3__116__hash_node_baseIPNS_11__hash_nodeINS_17__hash_value_typeINS_12basic_stringIcNS_11char_traitsIcEENS_9allocatorIcEEEENS_10shared_ptrI11SDL_TextureEEEEPvEEE6__hashB7v160006Ev, symObjAddr: 0x13B0, symBinAddr: 0xA570, symSize: 0x20 }
  - { offsetInCU: 0xB73C, offset: 0x35860, size: 0x8, addend: 0x0, symName: __ZNKSt3__112__hash_tableINS_17__hash_value_typeINS_12basic_stringIcNS_11char_traitsIcEENS_9allocatorIcEEEENS_10shared_ptrI11SDL_TextureEEEENS_22__unordered_map_hasherIS7_SB_NS_4hashIS7_EENS_8equal_toIS7_EELb1EEENS_21__unordered_map_equalIS7_SB_SG_SE_Lb1EEENS5_ISB_EEE6key_eqB7v160006Ev, symObjAddr: 0x13D0, symBinAddr: 0xA590, symSize: 0x20 }
  - { offsetInCU: 0xB761, offset: 0x35885, size: 0x8, addend: 0x0, symName: __ZNKSt3__121__unordered_map_equalINS_12basic_stringIcNS_11char_traitsIcEENS_9allocatorIcEEEENS_17__hash_value_typeIS6_NS_10shared_ptrI11SDL_TextureEEEENS_8equal_toIS6_EENS_4hashIS6_EELb1EEclB7v160006ERKSB_RKS6_, symObjAddr: 0x13F0, symBinAddr: 0xA5B0, symSize: 0x40 }
  - { offsetInCU: 0xB7A4, offset: 0x358C8, size: 0x8, addend: 0x0, symName: __ZNSt3__116__hash_node_baseIPNS_11__hash_nodeINS_17__hash_value_typeINS_12basic_stringIcNS_11char_traitsIcEENS_9allocatorIcEEEENS_10shared_ptrI11SDL_TextureEEEEPvEEE8__upcastB7v160006Ev, symObjAddr: 0x1430, symBinAddr: 0xA5F0, symSize: 0x20 }
  - { offsetInCU: 0xB7C9, offset: 0x358ED, size: 0x8, addend: 0x0, symName: __ZNSt3__121__hash_const_iteratorIPNS_11__hash_nodeINS_17__hash_value_typeINS_12basic_stringIcNS_11char_traitsIcEENS_9allocatorIcEEEENS_10shared_ptrI11SDL_TextureEEEEPvEEEC1B7v160006EPNS_16__hash_node_baseISF_EEPKv, symObjAddr: 0x1450, symBinAddr: 0xA610, symSize: 0x30 }
  - { offsetInCU: 0xB810, offset: 0x35934, size: 0x8, addend: 0x0, symName: __ZNKSt3__112__hash_tableINS_17__hash_value_typeINS_12basic_stringIcNS_11char_traitsIcEENS_9allocatorIcEEEENS_10shared_ptrI11SDL_TextureEEEENS_22__unordered_map_hasherIS7_SB_NS_4hashIS7_EENS_8equal_toIS7_EELb1EEENS_21__unordered_map_equalIS7_SB_SG_SE_Lb1EEENS5_ISB_EEE3endEv, symObjAddr: 0x1480, symBinAddr: 0xA640, symSize: 0x30 }
  - { offsetInCU: 0xB836, offset: 0x3595A, size: 0x8, addend: 0x0, symName: __ZNKSt3__117__compressed_pairImNS_22__unordered_map_hasherINS_12basic_stringIcNS_11char_traitsIcEENS_9allocatorIcEEEENS_17__hash_value_typeIS7_NS_10shared_ptrI11SDL_TextureEEEENS_4hashIS7_EENS_8equal_toIS7_EELb1EEEE6secondB7v160006Ev, symObjAddr: 0x14B0, symBinAddr: 0xA670, symSize: 0x20 }
  - { offsetInCU: 0xB85B, offset: 0x3597F, size: 0x8, addend: 0x0, symName: __ZNKSt3__122__compressed_pair_elemINS_22__unordered_map_hasherINS_12basic_stringIcNS_11char_traitsIcEENS_9allocatorIcEEEENS_17__hash_value_typeIS7_NS_10shared_ptrI11SDL_TextureEEEENS_4hashIS7_EENS_8equal_toIS7_EELb1EEELi1ELb1EE5__getB7v160006Ev, symObjAddr: 0x14D0, symBinAddr: 0xA690, symSize: 0x10 }
  - { offsetInCU: 0xB880, offset: 0x359A4, size: 0x8, addend: 0x0, symName: __ZNKSt3__113__string_hashIcNS_9allocatorIcEEEclERKNS_12basic_stringIcNS_11char_traitsIcEES2_EE, symObjAddr: 0x14E0, symBinAddr: 0xA6A0, symSize: 0x60 }
  - { offsetInCU: 0xB8B4, offset: 0x359D8, size: 0x8, addend: 0x0, symName: __ZNKSt3__112basic_stringIcNS_11char_traitsIcEENS_9allocatorIcEEE4dataB7v160006Ev, symObjAddr: 0x1580, symBinAddr: 0xA740, symSize: 0x30 }
  - { offsetInCU: 0xB8D9, offset: 0x359FD, size: 0x8, addend: 0x0, symName: __ZNKSt3__112basic_stringIcNS_11char_traitsIcEENS_9allocatorIcEEE4sizeB7v160006Ev, symObjAddr: 0x15B0, symBinAddr: 0xA770, symSize: 0x50 }
  - { offsetInCU: 0xB8FE, offset: 0x35A22, size: 0x8, addend: 0x0, symName: __ZNSt3__121__murmur2_or_cityhashImLm64EEclEPKvm, symObjAddr: 0x1600, symBinAddr: 0xA7C0, symSize: 0x3D0 }
  - { offsetInCU: 0xB996, offset: 0x35ABA, size: 0x8, addend: 0x0, symName: __ZNSt3__121__murmur2_or_cityhashImLm64EE18__hash_len_0_to_16EPKcm, symObjAddr: 0x19D0, symBinAddr: 0xAB90, symSize: 0x180 }
  - { offsetInCU: 0xBA6F, offset: 0x35B93, size: 0x8, addend: 0x0, symName: __ZNSt3__121__murmur2_or_cityhashImLm64EE19__hash_len_17_to_32EPKcm, symObjAddr: 0x1B50, symBinAddr: 0xAD10, symSize: 0x100 }
  - { offsetInCU: 0xBAD8, offset: 0x35BFC, size: 0x8, addend: 0x0, symName: __ZNSt3__121__murmur2_or_cityhashImLm64EE19__hash_len_33_to_64EPKcm, symObjAddr: 0x1C50, symBinAddr: 0xAE10, symSize: 0x260 }
  - { offsetInCU: 0xBB8A, offset: 0x35CAE, size: 0x8, addend: 0x0, symName: __ZNSt3__121__murmur2_or_cityhashImLm64EE13__hash_len_16Emm, symObjAddr: 0x1ED0, symBinAddr: 0xB090, symSize: 0x90 }
  - { offsetInCU: 0xBBE5, offset: 0x35D09, size: 0x8, addend: 0x0, symName: __ZNSt3__121__murmur2_or_cityhashImLm64EE29__weak_hash_len_32_with_seedsEPKcmm, symObjAddr: 0x1F60, symBinAddr: 0xB120, symSize: 0x90 }
  - { offsetInCU: 0xBC24, offset: 0x35D48, size: 0x8, addend: 0x0, symName: __ZNSt3__121__murmur2_or_cityhashImLm64EE8__rotateEmi, symObjAddr: 0x1FF0, symBinAddr: 0xB1B0, symSize: 0x50 }
  - { offsetInCU: 0xBC55, offset: 0x35D79, size: 0x8, addend: 0x0, symName: __ZNSt3__14pairImmEaSB7v160006EOS1_, symObjAddr: 0x2040, symBinAddr: 0xB200, symSize: 0x30 }
  - { offsetInCU: 0xBC89, offset: 0x35DAD, size: 0x8, addend: 0x0, symName: __ZNSt3__121__murmur2_or_cityhashImLm64EE11__shift_mixEm, symObjAddr: 0x20B0, symBinAddr: 0xB270, symSize: 0x20 }
  - { offsetInCU: 0xBCAC, offset: 0x35DD0, size: 0x8, addend: 0x0, symName: __ZNSt3__121__murmur2_or_cityhashImLm64EE22__rotate_by_at_least_1Emi, symObjAddr: 0x20D0, symBinAddr: 0xB290, symSize: 0x30 }
  - { offsetInCU: 0xBCDD, offset: 0x35E01, size: 0x8, addend: 0x0, symName: __ZNSt3__121__murmur2_or_cityhashImLm64EE29__weak_hash_len_32_with_seedsEmmmmmm, symObjAddr: 0x2120, symBinAddr: 0xB2E0, symSize: 0xD0 }
  - { offsetInCU: 0xBD5A, offset: 0x35E7E, size: 0x8, addend: 0x0, symName: __ZNSt3__14pairImmEC1B7v160006ImmLPv0EEEOT_OT0_, symObjAddr: 0x21F0, symBinAddr: 0xB3B0, symSize: 0x30 }
  - { offsetInCU: 0xBDB7, offset: 0x35EDB, size: 0x8, addend: 0x0, symName: __ZNSt3__14pairImmEC2B7v160006ImmLPv0EEEOT_OT0_, symObjAddr: 0x2220, symBinAddr: 0xB3E0, symSize: 0x30 }
  - { offsetInCU: 0xBE14, offset: 0x35F38, size: 0x8, addend: 0x0, symName: __ZNKSt3__112basic_stringIcNS_11char_traitsIcEENS_9allocatorIcEEE13__get_pointerB7v160006Ev, symObjAddr: 0x2260, symBinAddr: 0xB420, symSize: 0x50 }
  - { offsetInCU: 0xBE39, offset: 0x35F5D, size: 0x8, addend: 0x0, symName: __ZNKSt3__112basic_stringIcNS_11char_traitsIcEENS_9allocatorIcEEE9__is_longB7v160006Ev, symObjAddr: 0x22B0, symBinAddr: 0xB470, symSize: 0x30 }
  - { offsetInCU: 0xBE5E, offset: 0x35F82, size: 0x8, addend: 0x0, symName: __ZNKSt3__112basic_stringIcNS_11char_traitsIcEENS_9allocatorIcEEE18__get_long_pointerB7v160006Ev, symObjAddr: 0x22E0, symBinAddr: 0xB4A0, symSize: 0x20 }
  - { offsetInCU: 0xBE83, offset: 0x35FA7, size: 0x8, addend: 0x0, symName: __ZNKSt3__112basic_stringIcNS_11char_traitsIcEENS_9allocatorIcEEE19__get_short_pointerB7v160006Ev, symObjAddr: 0x2300, symBinAddr: 0xB4C0, symSize: 0x30 }
  - { offsetInCU: 0xBEA8, offset: 0x35FCC, size: 0x8, addend: 0x0, symName: __ZNKSt3__117__compressed_pairINS_12basic_stringIcNS_11char_traitsIcEENS_9allocatorIcEEE5__repES5_E5firstB7v160006Ev, symObjAddr: 0x2330, symBinAddr: 0xB4F0, symSize: 0x20 }
  - { offsetInCU: 0xBECD, offset: 0x35FF1, size: 0x8, addend: 0x0, symName: __ZNKSt3__122__compressed_pair_elemINS_12basic_stringIcNS_11char_traitsIcEENS_9allocatorIcEEE5__repELi0ELb0EE5__getB7v160006Ev, symObjAddr: 0x2350, symBinAddr: 0xB510, symSize: 0x10 }
  - { offsetInCU: 0xBEF2, offset: 0x36016, size: 0x8, addend: 0x0, symName: __ZNSt3__114pointer_traitsIPKcE10pointer_toB7v160006ERS1_, symObjAddr: 0x2360, symBinAddr: 0xB520, symSize: 0x10 }
  - { offsetInCU: 0xBF15, offset: 0x36039, size: 0x8, addend: 0x0, symName: __ZNKSt3__112basic_stringIcNS_11char_traitsIcEENS_9allocatorIcEEE15__get_long_sizeB7v160006Ev, symObjAddr: 0x2370, symBinAddr: 0xB530, symSize: 0x20 }
  - { offsetInCU: 0xBF3A, offset: 0x3605E, size: 0x8, addend: 0x0, symName: __ZNKSt3__112basic_stringIcNS_11char_traitsIcEENS_9allocatorIcEEE16__get_short_sizeB7v160006Ev, symObjAddr: 0x2390, symBinAddr: 0xB550, symSize: 0x30 }
  - { offsetInCU: 0xBF5F, offset: 0x36083, size: 0x8, addend: 0x0, symName: __ZNKSt3__110unique_ptrIA_PNS_16__hash_node_baseIPNS_11__hash_nodeINS_17__hash_value_typeINS_12basic_stringIcNS_11char_traitsIcEENS_9allocatorIcEEEENS_10shared_ptrI11SDL_TextureEEEEPvEEEENS_25__bucket_list_deallocatorINS7_ISI_EEEEE11get_deleterB7v160006Ev, symObjAddr: 0x23C0, symBinAddr: 0xB580, symSize: 0x20 }
  - { offsetInCU: 0xBF84, offset: 0x360A8, size: 0x8, addend: 0x0, symName: __ZNKSt3__125__bucket_list_deallocatorINS_9allocatorIPNS_16__hash_node_baseIPNS_11__hash_nodeINS_17__hash_value_typeINS_12basic_stringIcNS_11char_traitsIcEENS1_IcEEEENS_10shared_ptrI11SDL_TextureEEEEPvEEEEEEE4sizeB7v160006Ev, symObjAddr: 0x23E0, symBinAddr: 0xB5A0, symSize: 0x20 }
  - { offsetInCU: 0xBFA9, offset: 0x360CD, size: 0x8, addend: 0x0, symName: __ZNKSt3__117__compressed_pairIPPNS_16__hash_node_baseIPNS_11__hash_nodeINS_17__hash_value_typeINS_12basic_stringIcNS_11char_traitsIcEENS_9allocatorIcEEEENS_10shared_ptrI11SDL_TextureEEEEPvEEEENS_25__bucket_list_deallocatorINS7_ISI_EEEEE6secondB7v160006Ev, symObjAddr: 0x2400, symBinAddr: 0xB5C0, symSize: 0x20 }
  - { offsetInCU: 0xBFCE, offset: 0x360F2, size: 0x8, addend: 0x0, symName: __ZNKSt3__122__compressed_pair_elemINS_25__bucket_list_deallocatorINS_9allocatorIPNS_16__hash_node_baseIPNS_11__hash_nodeINS_17__hash_value_typeINS_12basic_stringIcNS_11char_traitsIcEENS2_IcEEEENS_10shared_ptrI11SDL_TextureEEEEPvEEEEEEEELi1ELb0EE5__getB7v160006Ev, symObjAddr: 0x2420, symBinAddr: 0xB5E0, symSize: 0x10 }
  - { offsetInCU: 0xBFF3, offset: 0x36117, size: 0x8, addend: 0x0, symName: __ZNKSt3__117__compressed_pairImNS_9allocatorIPNS_16__hash_node_baseIPNS_11__hash_nodeINS_17__hash_value_typeINS_12basic_stringIcNS_11char_traitsIcEENS1_IcEEEENS_10shared_ptrI11SDL_TextureEEEEPvEEEEEEE5firstB7v160006Ev, symObjAddr: 0x2430, symBinAddr: 0xB5F0, symSize: 0x20 }
  - { offsetInCU: 0xC018, offset: 0x3613C, size: 0x8, addend: 0x0, symName: __ZNKSt3__122__compressed_pair_elemImLi0ELb0EE5__getB7v160006Ev, symObjAddr: 0x2450, symBinAddr: 0xB610, symSize: 0x10 }
  - { offsetInCU: 0xC03D, offset: 0x36161, size: 0x8, addend: 0x0, symName: __ZNKSt3__117__compressed_pairIPPNS_16__hash_node_baseIPNS_11__hash_nodeINS_17__hash_value_typeINS_12basic_stringIcNS_11char_traitsIcEENS_9allocatorIcEEEENS_10shared_ptrI11SDL_TextureEEEEPvEEEENS_25__bucket_list_deallocatorINS7_ISI_EEEEE5firstB7v160006Ev, symObjAddr: 0x2460, symBinAddr: 0xB620, symSize: 0x20 }
  - { offsetInCU: 0xC062, offset: 0x36186, size: 0x8, addend: 0x0, symName: __ZNKSt3__122__compressed_pair_elemIPPNS_16__hash_node_baseIPNS_11__hash_nodeINS_17__hash_value_typeINS_12basic_stringIcNS_11char_traitsIcEENS_9allocatorIcEEEENS_10shared_ptrI11SDL_TextureEEEEPvEEEELi0ELb0EE5__getB7v160006Ev, symObjAddr: 0x2480, symBinAddr: 0xB640, symSize: 0x10 }
  - { offsetInCU: 0xC087, offset: 0x361AB, size: 0x8, addend: 0x0, symName: __ZNKSt3__117__compressed_pairIfNS_21__unordered_map_equalINS_12basic_stringIcNS_11char_traitsIcEENS_9allocatorIcEEEENS_17__hash_value_typeIS7_NS_10shared_ptrI11SDL_TextureEEEENS_8equal_toIS7_EENS_4hashIS7_EELb1EEEE6secondB7v160006Ev, symObjAddr: 0x2490, symBinAddr: 0xB650, symSize: 0x20 }
  - { offsetInCU: 0xC0AC, offset: 0x361D0, size: 0x8, addend: 0x0, symName: __ZNKSt3__122__compressed_pair_elemINS_21__unordered_map_equalINS_12basic_stringIcNS_11char_traitsIcEENS_9allocatorIcEEEENS_17__hash_value_typeIS7_NS_10shared_ptrI11SDL_TextureEEEENS_8equal_toIS7_EENS_4hashIS7_EELb1EEELi1ELb1EE5__getB7v160006Ev, symObjAddr: 0x24B0, symBinAddr: 0xB670, symSize: 0x10 }
  - { offsetInCU: 0xC0D1, offset: 0x361F5, size: 0x8, addend: 0x0, symName: __ZNKSt3__18equal_toINS_12basic_stringIcNS_11char_traitsIcEENS_9allocatorIcEEEEEclB7v160006ERKS6_S9_, symObjAddr: 0x24C0, symBinAddr: 0xB680, symSize: 0x30 }
  - { offsetInCU: 0xC114, offset: 0x36238, size: 0x8, addend: 0x0, symName: __ZNKSt3__117__hash_value_typeINS_12basic_stringIcNS_11char_traitsIcEENS_9allocatorIcEEEENS_10shared_ptrI11SDL_TextureEEE11__get_valueB7v160006Ev, symObjAddr: 0x24F0, symBinAddr: 0xB6B0, symSize: 0x20 }
  - { offsetInCU: 0xC139, offset: 0x3625D, size: 0x8, addend: 0x0, symName: __ZNSt3__111char_traitsIcE7compareEPKcS3_m, symObjAddr: 0x2620, symBinAddr: 0xB7E0, symSize: 0x60 }
  - { offsetInCU: 0xC178, offset: 0x3629C, size: 0x8, addend: 0x0, symName: __ZNSt3__114pointer_traitsIPNS_16__hash_node_baseIPNS_11__hash_nodeINS_17__hash_value_typeINS_12basic_stringIcNS_11char_traitsIcEENS_9allocatorIcEEEENS_10shared_ptrI11SDL_TextureEEEEPvEEEEE10pointer_toB7v160006ERSH_, symObjAddr: 0x26E0, symBinAddr: 0xB8A0, symSize: 0x10 }
  - { offsetInCU: 0xC19B, offset: 0x362BF, size: 0x8, addend: 0x0, symName: __ZNSt3__121__hash_const_iteratorIPNS_11__hash_nodeINS_17__hash_value_typeINS_12basic_stringIcNS_11char_traitsIcEENS_9allocatorIcEEEENS_10shared_ptrI11SDL_TextureEEEEPvEEEC2B7v160006EPNS_16__hash_node_baseISF_EEPKv, symObjAddr: 0x26F0, symBinAddr: 0xB8B0, symSize: 0x20 }
  - { offsetInCU: 0xC1E2, offset: 0x36306, size: 0x8, addend: 0x0, symName: __ZNSt3__125__hash_map_const_iteratorINS_21__hash_const_iteratorIPNS_11__hash_nodeINS_17__hash_value_typeINS_12basic_stringIcNS_11char_traitsIcEENS_9allocatorIcEEEENS_10shared_ptrI11SDL_TextureEEEEPvEEEEEC2B7v160006ESH_, symObjAddr: 0x2710, symBinAddr: 0xB8D0, symSize: 0x20 }
  - { offsetInCU: 0xC21A, offset: 0x3633E, size: 0x8, addend: 0x0, symName: __ZNSt3__112__hash_tableINS_17__hash_value_typeINS_12basic_stringIcNS_11char_traitsIcEENS_9allocatorIcEEEENS_10shared_ptrI11SDL_TextureEEEENS_22__unordered_map_hasherIS7_SB_NS_4hashIS7_EENS_8equal_toIS7_EELb1EEENS_21__unordered_map_equalIS7_SB_SG_SE_Lb1EEENS5_ISB_EEE15__insert_uniqueB7v160006EONS_4pairIKS7_SA_EE, symObjAddr: 0x2730, symBinAddr: 0xB8F0, symSize: 0x50 }
  - { offsetInCU: 0xC24E, offset: 0x36372, size: 0x8, addend: 0x0, symName: __ZNSt3__14pairINS_19__hash_map_iteratorINS_15__hash_iteratorIPNS_11__hash_nodeINS_17__hash_value_typeINS_12basic_stringIcNS_11char_traitsIcEENS_9allocatorIcEEEENS_10shared_ptrI11SDL_TextureEEEEPvEEEEEEbEC1B7v160006ISI_bLSF_0EEEONS0_IT_T0_EE, symObjAddr: 0x2780, symBinAddr: 0xB940, symSize: 0x30 }
  - { offsetInCU: 0xC29E, offset: 0x363C2, size: 0x8, addend: 0x0, symName: __ZNSt3__112__hash_tableINS_17__hash_value_typeINS_12basic_stringIcNS_11char_traitsIcEENS_9allocatorIcEEEENS_10shared_ptrI11SDL_TextureEEEENS_22__unordered_map_hasherIS7_SB_NS_4hashIS7_EENS_8equal_toIS7_EELb1EEENS_21__unordered_map_equalIS7_SB_SG_SE_Lb1EEENS5_ISB_EEE25__emplace_unique_key_argsIS7_JNS_4pairIKS7_SA_EEEEENSN_INS_15__hash_iteratorIPNS_11__hash_nodeISB_PvEEEEbEERKT_DpOT0_, symObjAddr: 0x27B0, symBinAddr: 0xB970, symSize: 0x5B0 }
  - { offsetInCU: 0xC37B, offset: 0x3649F, size: 0x8, addend: 0x0, symName: __ZNSt3__122__hash_key_value_typesINS_17__hash_value_typeINS_12basic_stringIcNS_11char_traitsIcEENS_9allocatorIcEEEENS_10shared_ptrI11SDL_TextureEEEEE9__get_keyB7v160006ERKNS_4pairIKS7_SA_EE, symObjAddr: 0x2D60, symBinAddr: 0xBF20, symSize: 0x10 }
  - { offsetInCU: 0xC39E, offset: 0x364C2, size: 0x8, addend: 0x0, symName: __ZNSt3__112__hash_tableINS_17__hash_value_typeINS_12basic_stringIcNS_11char_traitsIcEENS_9allocatorIcEEEENS_10shared_ptrI11SDL_TextureEEEENS_22__unordered_map_hasherIS7_SB_NS_4hashIS7_EENS_8equal_toIS7_EELb1EEENS_21__unordered_map_equalIS7_SB_SG_SE_Lb1EEENS5_ISB_EEE13hash_functionB7v160006Ev, symObjAddr: 0x2D70, symBinAddr: 0xBF30, symSize: 0x20 }
  - { offsetInCU: 0xC3C3, offset: 0x364E7, size: 0x8, addend: 0x0, symName: __ZNSt3__112__hash_tableINS_17__hash_value_typeINS_12basic_stringIcNS_11char_traitsIcEENS_9allocatorIcEEEENS_10shared_ptrI11SDL_TextureEEEENS_22__unordered_map_hasherIS7_SB_NS_4hashIS7_EENS_8equal_toIS7_EELb1EEENS_21__unordered_map_equalIS7_SB_SG_SE_Lb1EEENS5_ISB_EEE6key_eqB7v160006Ev, symObjAddr: 0x2D90, symBinAddr: 0xBF50, symSize: 0x20 }
  - { offsetInCU: 0xC3E8, offset: 0x3650C, size: 0x8, addend: 0x0, symName: __ZNSt3__112__hash_tableINS_17__hash_value_typeINS_12basic_stringIcNS_11char_traitsIcEENS_9allocatorIcEEEENS_10shared_ptrI11SDL_TextureEEEENS_22__unordered_map_hasherIS7_SB_NS_4hashIS7_EENS_8equal_toIS7_EELb1EEENS_21__unordered_map_equalIS7_SB_SG_SE_Lb1EEENS5_ISB_EEE21__construct_node_hashINS_4pairIKS7_SA_EEJEEENS_10unique_ptrINS_11__hash_nodeISB_PvEENS_22__hash_node_destructorINS5_IST_EEEEEEmOT_DpOT0_, symObjAddr: 0x2DB0, symBinAddr: 0xBF70, symSize: 0x140 }
  - { offsetInCU: 0xC459, offset: 0x3657D, size: 0x8, addend: 0x0, symName: __ZNSt3__112__hash_tableINS_17__hash_value_typeINS_12basic_stringIcNS_11char_traitsIcEENS_9allocatorIcEEEENS_10shared_ptrI11SDL_TextureEEEENS_22__unordered_map_hasherIS7_SB_NS_4hashIS7_EENS_8equal_toIS7_EELb1EEENS_21__unordered_map_equalIS7_SB_SG_SE_Lb1EEENS5_ISB_EEE4sizeB7v160006Ev, symObjAddr: 0x2EF0, symBinAddr: 0xC0B0, symSize: 0x20 }
  - { offsetInCU: 0xC47E, offset: 0x365A2, size: 0x8, addend: 0x0, symName: __ZNSt3__112__hash_tableINS_17__hash_value_typeINS_12basic_stringIcNS_11char_traitsIcEENS_9allocatorIcEEEENS_10shared_ptrI11SDL_TextureEEEENS_22__unordered_map_hasherIS7_SB_NS_4hashIS7_EENS_8equal_toIS7_EELb1EEENS_21__unordered_map_equalIS7_SB_SG_SE_Lb1EEENS5_ISB_EEE15max_load_factorB7v160006Ev, symObjAddr: 0x2F10, symBinAddr: 0xC0D0, symSize: 0x20 }
  - { offsetInCU: 0xC4A3, offset: 0x365C7, size: 0x8, addend: 0x0, symName: __ZNSt3__112__hash_tableINS_17__hash_value_typeINS_12basic_stringIcNS_11char_traitsIcEENS_9allocatorIcEEEENS_10shared_ptrI11SDL_TextureEEEENS_22__unordered_map_hasherIS7_SB_NS_4hashIS7_EENS_8equal_toIS7_EELb1EEENS_21__unordered_map_equalIS7_SB_SG_SE_Lb1EEENS5_ISB_EEE15__rehash_uniqueB7v160006Em, symObjAddr: 0x2F30, symBinAddr: 0xC0F0, symSize: 0x30 }
  - { offsetInCU: 0xC4D6, offset: 0x365FA, size: 0x8, addend: 0x0, symName: __Z4ceilB7v160006f, symObjAddr: 0x2FD0, symBinAddr: 0xC160, symSize: 0x20 }
  - { offsetInCU: 0xC505, offset: 0x36629, size: 0x8, addend: 0x0, symName: __ZNSt3__117__compressed_pairINS_16__hash_node_baseIPNS_11__hash_nodeINS_17__hash_value_typeINS_12basic_stringIcNS_11char_traitsIcEENS_9allocatorIcEEEENS_10shared_ptrI11SDL_TextureEEEEPvEEEENS7_ISF_EEE5firstB7v160006Ev, symObjAddr: 0x2FF0, symBinAddr: 0xC180, symSize: 0x20 }
  - { offsetInCU: 0xC52A, offset: 0x3664E, size: 0x8, addend: 0x0, symName: __ZNSt3__116__hash_node_baseIPNS_11__hash_nodeINS_17__hash_value_typeINS_12basic_stringIcNS_11char_traitsIcEENS_9allocatorIcEEEENS_10shared_ptrI11SDL_TextureEEEEPvEEE5__ptrB7v160006Ev, symObjAddr: 0x3010, symBinAddr: 0xC1A0, symSize: 0x20 }
  - { offsetInCU: 0xC54F, offset: 0x36673, size: 0x8, addend: 0x0, symName: __ZNKSt3__110unique_ptrINS_11__hash_nodeINS_17__hash_value_typeINS_12basic_stringIcNS_11char_traitsIcEENS_9allocatorIcEEEENS_10shared_ptrI11SDL_TextureEEEEPvEENS_22__hash_node_destructorINS6_ISE_EEEEEptB7v160006Ev, symObjAddr: 0x3030, symBinAddr: 0xC1C0, symSize: 0x20 }
  - { offsetInCU: 0xC574, offset: 0x36698, size: 0x8, addend: 0x0, symName: __ZNKSt3__110unique_ptrINS_11__hash_nodeINS_17__hash_value_typeINS_12basic_stringIcNS_11char_traitsIcEENS_9allocatorIcEEEENS_10shared_ptrI11SDL_TextureEEEEPvEENS_22__hash_node_destructorINS6_ISE_EEEEE3getB7v160006Ev, symObjAddr: 0x3050, symBinAddr: 0xC1E0, symSize: 0x20 }
  - { offsetInCU: 0xC599, offset: 0x366BD, size: 0x8, addend: 0x0, symName: __ZNSt3__110unique_ptrINS_11__hash_nodeINS_17__hash_value_typeINS_12basic_stringIcNS_11char_traitsIcEENS_9allocatorIcEEEENS_10shared_ptrI11SDL_TextureEEEEPvEENS_22__hash_node_destructorINS6_ISE_EEEEE7releaseB7v160006Ev, symObjAddr: 0x3070, symBinAddr: 0xC200, symSize: 0x40 }
  - { offsetInCU: 0xC5CD, offset: 0x366F1, size: 0x8, addend: 0x0, symName: __ZNSt3__110unique_ptrINS_11__hash_nodeINS_17__hash_value_typeINS_12basic_stringIcNS_11char_traitsIcEENS_9allocatorIcEEEENS_10shared_ptrI11SDL_TextureEEEEPvEENS_22__hash_node_destructorINS6_ISE_EEEEED1B7v160006Ev, symObjAddr: 0x30B0, symBinAddr: 0xC240, symSize: 0x20 }
  - { offsetInCU: 0xC5F6, offset: 0x3671A, size: 0x8, addend: 0x0, symName: __ZNSt3__115__hash_iteratorIPNS_11__hash_nodeINS_17__hash_value_typeINS_12basic_stringIcNS_11char_traitsIcEENS_9allocatorIcEEEENS_10shared_ptrI11SDL_TextureEEEEPvEEEC1B7v160006EPNS_16__hash_node_baseISF_EEPKv, symObjAddr: 0x30D0, symBinAddr: 0xC260, symSize: 0x30 }
  - { offsetInCU: 0xC647, offset: 0x3676B, size: 0x8, addend: 0x0, symName: __ZNSt3__14pairINS_15__hash_iteratorIPNS_11__hash_nodeINS_17__hash_value_typeINS_12basic_stringIcNS_11char_traitsIcEENS_9allocatorIcEEEENS_10shared_ptrI11SDL_TextureEEEEPvEEEEbEC1B7v160006ISH_RbLSE_0EEEOT_OT0_, symObjAddr: 0x3100, symBinAddr: 0xC290, symSize: 0x30 }
  - { offsetInCU: 0xC6A4, offset: 0x367C8, size: 0x8, addend: 0x0, symName: __ZNSt3__117__compressed_pairImNS_22__unordered_map_hasherINS_12basic_stringIcNS_11char_traitsIcEENS_9allocatorIcEEEENS_17__hash_value_typeIS7_NS_10shared_ptrI11SDL_TextureEEEENS_4hashIS7_EENS_8equal_toIS7_EELb1EEEE6secondB7v160006Ev, symObjAddr: 0x3130, symBinAddr: 0xC2C0, symSize: 0x20 }
  - { offsetInCU: 0xC6C9, offset: 0x367ED, size: 0x8, addend: 0x0, symName: __ZNSt3__122__compressed_pair_elemINS_22__unordered_map_hasherINS_12basic_stringIcNS_11char_traitsIcEENS_9allocatorIcEEEENS_17__hash_value_typeIS7_NS_10shared_ptrI11SDL_TextureEEEENS_4hashIS7_EENS_8equal_toIS7_EELb1EEELi1ELb1EE5__getB7v160006Ev, symObjAddr: 0x3150, symBinAddr: 0xC2E0, symSize: 0x10 }
  - { offsetInCU: 0xC6EE, offset: 0x36812, size: 0x8, addend: 0x0, symName: __ZNSt3__117__compressed_pairIfNS_21__unordered_map_equalINS_12basic_stringIcNS_11char_traitsIcEENS_9allocatorIcEEEENS_17__hash_value_typeIS7_NS_10shared_ptrI11SDL_TextureEEEENS_8equal_toIS7_EENS_4hashIS7_EELb1EEEE6secondB7v160006Ev, symObjAddr: 0x3160, symBinAddr: 0xC2F0, symSize: 0x20 }
  - { offsetInCU: 0xC713, offset: 0x36837, size: 0x8, addend: 0x0, symName: __ZNSt3__122__compressed_pair_elemINS_21__unordered_map_equalINS_12basic_stringIcNS_11char_traitsIcEENS_9allocatorIcEEEENS_17__hash_value_typeIS7_NS_10shared_ptrI11SDL_TextureEEEENS_8equal_toIS7_EENS_4hashIS7_EELb1EEELi1ELb1EE5__getB7v160006Ev, symObjAddr: 0x3180, symBinAddr: 0xC310, symSize: 0x10 }
  - { offsetInCU: 0xC738, offset: 0x3685C, size: 0x8, addend: 0x0, symName: __ZNSt3__112__hash_tableINS_17__hash_value_typeINS_12basic_stringIcNS_11char_traitsIcEENS_9allocatorIcEEEENS_10shared_ptrI11SDL_TextureEEEENS_22__unordered_map_hasherIS7_SB_NS_4hashIS7_EENS_8equal_toIS7_EELb1EEENS_21__unordered_map_equalIS7_SB_SG_SE_Lb1EEENS5_ISB_EEE12__node_allocB7v160006Ev, symObjAddr: 0x3190, symBinAddr: 0xC320, symSize: 0x20 }
  - { offsetInCU: 0xC75D, offset: 0x36881, size: 0x8, addend: 0x0, symName: __ZNSt3__116allocator_traitsINS_9allocatorINS_11__hash_nodeINS_17__hash_value_typeINS_12basic_stringIcNS_11char_traitsIcEENS1_IcEEEENS_10shared_ptrI11SDL_TextureEEEEPvEEEEE8allocateB7v160006ERSF_m, symObjAddr: 0x31B0, symBinAddr: 0xC340, symSize: 0x30 }
  - { offsetInCU: 0xC790, offset: 0x368B4, size: 0x8, addend: 0x0, symName: __ZNSt3__122__hash_node_destructorINS_9allocatorINS_11__hash_nodeINS_17__hash_value_typeINS_12basic_stringIcNS_11char_traitsIcEENS1_IcEEEENS_10shared_ptrI11SDL_TextureEEEEPvEEEEEC1B7v160006ERSF_b, symObjAddr: 0x31E0, symBinAddr: 0xC370, symSize: 0x40 }
  - { offsetInCU: 0xC7DC, offset: 0x36900, size: 0x8, addend: 0x0, symName: __ZNSt3__110unique_ptrINS_11__hash_nodeINS_17__hash_value_typeINS_12basic_stringIcNS_11char_traitsIcEENS_9allocatorIcEEEENS_10shared_ptrI11SDL_TextureEEEEPvEENS_22__hash_node_destructorINS6_ISE_EEEEEC1B7v160006ILb1EvEEPSE_NS_16__dependent_typeINS_27__unique_ptr_deleter_sfinaeISH_EEXT_EE20__good_rval_ref_typeE, symObjAddr: 0x3220, symBinAddr: 0xC3B0, symSize: 0x30 }
  - { offsetInCU: 0xC82C, offset: 0x36950, size: 0x8, addend: 0x0, symName: __ZNSt3__116allocator_traitsINS_9allocatorINS_11__hash_nodeINS_17__hash_value_typeINS_12basic_stringIcNS_11char_traitsIcEENS1_IcEEEENS_10shared_ptrI11SDL_TextureEEEEPvEEEEE9constructB7v160006INS_4pairIKS8_SB_EEJSK_EvvEEvRSF_PT_DpOT0_, symObjAddr: 0x3250, symBinAddr: 0xC3E0, symSize: 0x30 }
  - { offsetInCU: 0xC881, offset: 0x369A5, size: 0x8, addend: 0x0, symName: __ZNSt3__122__hash_key_value_typesINS_17__hash_value_typeINS_12basic_stringIcNS_11char_traitsIcEENS_9allocatorIcEEEENS_10shared_ptrI11SDL_TextureEEEEE9__get_ptrB7v160006ERSB_, symObjAddr: 0x3280, symBinAddr: 0xC410, symSize: 0x20 }
  - { offsetInCU: 0xC8A4, offset: 0x369C8, size: 0x8, addend: 0x0, symName: __ZNSt3__110unique_ptrINS_11__hash_nodeINS_17__hash_value_typeINS_12basic_stringIcNS_11char_traitsIcEENS_9allocatorIcEEEENS_10shared_ptrI11SDL_TextureEEEEPvEENS_22__hash_node_destructorINS6_ISE_EEEEE11get_deleterB7v160006Ev, symObjAddr: 0x32A0, symBinAddr: 0xC430, symSize: 0x20 }
  - { offsetInCU: 0xC8C9, offset: 0x369ED, size: 0x8, addend: 0x0, symName: __ZNSt3__117__compressed_pairINS_16__hash_node_baseIPNS_11__hash_nodeINS_17__hash_value_typeINS_12basic_stringIcNS_11char_traitsIcEENS_9allocatorIcEEEENS_10shared_ptrI11SDL_TextureEEEEPvEEEENS7_ISF_EEE6secondB7v160006Ev, symObjAddr: 0x32C0, symBinAddr: 0xC450, symSize: 0x20 }
  - { offsetInCU: 0xC8EE, offset: 0x36A12, size: 0x8, addend: 0x0, symName: __ZNSt3__122__compressed_pair_elemINS_9allocatorINS_11__hash_nodeINS_17__hash_value_typeINS_12basic_stringIcNS_11char_traitsIcEENS1_IcEEEENS_10shared_ptrI11SDL_TextureEEEEPvEEEELi1ELb1EE5__getB7v160006Ev, symObjAddr: 0x32E0, symBinAddr: 0xC470, symSize: 0x10 }
  - { offsetInCU: 0xC913, offset: 0x36A37, size: 0x8, addend: 0x0, symName: __ZNSt3__19allocatorINS_11__hash_nodeINS_17__hash_value_typeINS_12basic_stringIcNS_11char_traitsIcEENS0_IcEEEENS_10shared_ptrI11SDL_TextureEEEEPvEEE8allocateB7v160006Em, symObjAddr: 0x32F0, symBinAddr: 0xC480, symSize: 0x50 }
  - { offsetInCU: 0xC950, offset: 0x36A74, size: 0x8, addend: 0x0, symName: __ZNSt3__116allocator_traitsINS_9allocatorINS_11__hash_nodeINS_17__hash_value_typeINS_12basic_stringIcNS_11char_traitsIcEENS1_IcEEEENS_10shared_ptrI11SDL_TextureEEEEPvEEEEE8max_sizeB7v160006ISF_vvEEmRKSF_, symObjAddr: 0x3340, symBinAddr: 0xC4D0, symSize: 0x30 }
  - { offsetInCU: 0xC97C, offset: 0x36AA0, size: 0x8, addend: 0x0, symName: __ZNSt3__122__hash_node_destructorINS_9allocatorINS_11__hash_nodeINS_17__hash_value_typeINS_12basic_stringIcNS_11char_traitsIcEENS1_IcEEEENS_10shared_ptrI11SDL_TextureEEEEPvEEEEEC2B7v160006ERSF_b, symObjAddr: 0x34A0, symBinAddr: 0xC500, symSize: 0x30 }
  - { offsetInCU: 0xC9C3, offset: 0x36AE7, size: 0x8, addend: 0x0, symName: __ZNSt3__110unique_ptrINS_11__hash_nodeINS_17__hash_value_typeINS_12basic_stringIcNS_11char_traitsIcEENS_9allocatorIcEEEENS_10shared_ptrI11SDL_TextureEEEEPvEENS_22__hash_node_destructorINS6_ISE_EEEEEC2B7v160006ILb1EvEEPSE_NS_16__dependent_typeINS_27__unique_ptr_deleter_sfinaeISH_EEXT_EE20__good_rval_ref_typeE, symObjAddr: 0x34D0, symBinAddr: 0xC530, symSize: 0x40 }
  - { offsetInCU: 0xCA13, offset: 0x36B37, size: 0x8, addend: 0x0, symName: __ZNSt3__117__compressed_pairIPNS_11__hash_nodeINS_17__hash_value_typeINS_12basic_stringIcNS_11char_traitsIcEENS_9allocatorIcEEEENS_10shared_ptrI11SDL_TextureEEEEPvEENS_22__hash_node_destructorINS6_ISE_EEEEEC1B7v160006IRSF_SI_EEOT_OT0_, symObjAddr: 0x3510, symBinAddr: 0xC570, symSize: 0x30 }
  - { offsetInCU: 0xCA6A, offset: 0x36B8E, size: 0x8, addend: 0x0, symName: __ZNSt3__117__compressed_pairIPNS_11__hash_nodeINS_17__hash_value_typeINS_12basic_stringIcNS_11char_traitsIcEENS_9allocatorIcEEEENS_10shared_ptrI11SDL_TextureEEEEPvEENS_22__hash_node_destructorINS6_ISE_EEEEEC2B7v160006IRSF_SI_EEOT_OT0_, symObjAddr: 0x3540, symBinAddr: 0xC5A0, symSize: 0x40 }
  - { offsetInCU: 0xCAC1, offset: 0x36BE5, size: 0x8, addend: 0x0, symName: __ZNSt3__122__compressed_pair_elemIPNS_11__hash_nodeINS_17__hash_value_typeINS_12basic_stringIcNS_11char_traitsIcEENS_9allocatorIcEEEENS_10shared_ptrI11SDL_TextureEEEEPvEELi0ELb0EEC2B7v160006IRSF_vEEOT_, symObjAddr: 0x3580, symBinAddr: 0xC5E0, symSize: 0x20 }
  - { offsetInCU: 0xCB02, offset: 0x36C26, size: 0x8, addend: 0x0, symName: __ZNSt3__122__compressed_pair_elemINS_22__hash_node_destructorINS_9allocatorINS_11__hash_nodeINS_17__hash_value_typeINS_12basic_stringIcNS_11char_traitsIcEENS2_IcEEEENS_10shared_ptrI11SDL_TextureEEEEPvEEEEEELi1ELb0EEC2B7v160006ISH_vEEOT_, symObjAddr: 0x35A0, symBinAddr: 0xC600, symSize: 0x30 }
  - { offsetInCU: 0xCB43, offset: 0x36C67, size: 0x8, addend: 0x0, symName: __ZNSt3__14pairIKNS_12basic_stringIcNS_11char_traitsIcEENS_9allocatorIcEEEENS_10shared_ptrI11SDL_TextureEEEC1EOSB_, symObjAddr: 0x3610, symBinAddr: 0xC670, symSize: 0x30 }
  - { offsetInCU: 0xCB76, offset: 0x36C9A, size: 0x8, addend: 0x0, symName: __ZNSt3__14pairIKNS_12basic_stringIcNS_11char_traitsIcEENS_9allocatorIcEEEENS_10shared_ptrI11SDL_TextureEEEC2EOSB_, symObjAddr: 0x3640, symBinAddr: 0xC6A0, symSize: 0x40 }
  - { offsetInCU: 0xCBA9, offset: 0x36CCD, size: 0x8, addend: 0x0, symName: __ZNSt3__110shared_ptrI11SDL_TextureEC1B7v160006EOS2_, symObjAddr: 0x3680, symBinAddr: 0xC6E0, symSize: 0x30 }
  - { offsetInCU: 0xCBE1, offset: 0x36D05, size: 0x8, addend: 0x0, symName: __ZNSt3__110shared_ptrI11SDL_TextureEC2B7v160006EOS2_, symObjAddr: 0x36B0, symBinAddr: 0xC710, symSize: 0x40 }
  - { offsetInCU: 0xCC19, offset: 0x36D3D, size: 0x8, addend: 0x0, symName: __ZNSt3__117__hash_value_typeINS_12basic_stringIcNS_11char_traitsIcEENS_9allocatorIcEEEENS_10shared_ptrI11SDL_TextureEEE11__get_valueB7v160006Ev, symObjAddr: 0x36F0, symBinAddr: 0xC750, symSize: 0x20 }
  - { offsetInCU: 0xCC3E, offset: 0x36D62, size: 0x8, addend: 0x0, symName: __ZNSt3__117__compressed_pairIPNS_11__hash_nodeINS_17__hash_value_typeINS_12basic_stringIcNS_11char_traitsIcEENS_9allocatorIcEEEENS_10shared_ptrI11SDL_TextureEEEEPvEENS_22__hash_node_destructorINS6_ISE_EEEEE6secondB7v160006Ev, symObjAddr: 0x3740, symBinAddr: 0xC7A0, symSize: 0x20 }
  - { offsetInCU: 0xCC63, offset: 0x36D87, size: 0x8, addend: 0x0, symName: __ZNSt3__122__compressed_pair_elemINS_22__hash_node_destructorINS_9allocatorINS_11__hash_nodeINS_17__hash_value_typeINS_12basic_stringIcNS_11char_traitsIcEENS2_IcEEEENS_10shared_ptrI11SDL_TextureEEEEPvEEEEEELi1ELb0EE5__getB7v160006Ev, symObjAddr: 0x3760, symBinAddr: 0xC7C0, symSize: 0x10 }
  - { offsetInCU: 0xCC88, offset: 0x36DAC, size: 0x8, addend: 0x0, symName: __ZNSt3__117__compressed_pairImNS_22__unordered_map_hasherINS_12basic_stringIcNS_11char_traitsIcEENS_9allocatorIcEEEENS_17__hash_value_typeIS7_NS_10shared_ptrI11SDL_TextureEEEENS_4hashIS7_EENS_8equal_toIS7_EELb1EEEE5firstB7v160006Ev, symObjAddr: 0x3770, symBinAddr: 0xC7D0, symSize: 0x20 }
  - { offsetInCU: 0xCCAD, offset: 0x36DD1, size: 0x8, addend: 0x0, symName: __ZNSt3__122__compressed_pair_elemImLi0ELb0EE5__getB7v160006Ev, symObjAddr: 0x3790, symBinAddr: 0xC7F0, symSize: 0x10 }
  - { offsetInCU: 0xCCD2, offset: 0x36DF6, size: 0x8, addend: 0x0, symName: __ZNSt3__117__compressed_pairIfNS_21__unordered_map_equalINS_12basic_stringIcNS_11char_traitsIcEENS_9allocatorIcEEEENS_17__hash_value_typeIS7_NS_10shared_ptrI11SDL_TextureEEEENS_8equal_toIS7_EENS_4hashIS7_EELb1EEEE5firstB7v160006Ev, symObjAddr: 0x37A0, symBinAddr: 0xC800, symSize: 0x20 }
  - { offsetInCU: 0xCCF7, offset: 0x36E1B, size: 0x8, addend: 0x0, symName: __ZNSt3__122__compressed_pair_elemIfLi0ELb0EE5__getB7v160006Ev, symObjAddr: 0x37C0, symBinAddr: 0xC820, symSize: 0x10 }
  - { offsetInCU: 0xCD1C, offset: 0x36E40, size: 0x8, addend: 0x0, symName: __ZNSt3__112__hash_tableINS_17__hash_value_typeINS_12basic_stringIcNS_11char_traitsIcEENS_9allocatorIcEEEENS_10shared_ptrI11SDL_TextureEEEENS_22__unordered_map_hasherIS7_SB_NS_4hashIS7_EENS_8equal_toIS7_EELb1EEENS_21__unordered_map_equalIS7_SB_SG_SE_Lb1EEENS5_ISB_EEE8__rehashILb1EEEvm, symObjAddr: 0x37D0, symBinAddr: 0xC830, symSize: 0x230 }
  - { offsetInCU: 0xCD6A, offset: 0x36E8E, size: 0x8, addend: 0x0, symName: __ZNSt3__112__hash_tableINS_17__hash_value_typeINS_12basic_stringIcNS_11char_traitsIcEENS_9allocatorIcEEEENS_10shared_ptrI11SDL_TextureEEEENS_22__unordered_map_hasherIS7_SB_NS_4hashIS7_EENS_8equal_toIS7_EELb1EEENS_21__unordered_map_equalIS7_SB_SG_SE_Lb1EEENS5_ISB_EEE11__do_rehashILb1EEEvm, symObjAddr: 0x3A00, symBinAddr: 0xCA60, symSize: 0x260 }
  - { offsetInCU: 0xCE4B, offset: 0x36F6F, size: 0x8, addend: 0x0, symName: __ZNSt3__110unique_ptrIA_PNS_16__hash_node_baseIPNS_11__hash_nodeINS_17__hash_value_typeINS_12basic_stringIcNS_11char_traitsIcEENS_9allocatorIcEEEENS_10shared_ptrI11SDL_TextureEEEEPvEEEENS_25__bucket_list_deallocatorINS7_ISI_EEEEE11get_deleterB7v160006Ev, symObjAddr: 0x3CD0, symBinAddr: 0xCD30, symSize: 0x20 }
  - { offsetInCU: 0xCE70, offset: 0x36F94, size: 0x8, addend: 0x0, symName: __ZNSt3__125__bucket_list_deallocatorINS_9allocatorIPNS_16__hash_node_baseIPNS_11__hash_nodeINS_17__hash_value_typeINS_12basic_stringIcNS_11char_traitsIcEENS1_IcEEEENS_10shared_ptrI11SDL_TextureEEEEPvEEEEEEE7__allocB7v160006Ev, symObjAddr: 0x3CF0, symBinAddr: 0xCD50, symSize: 0x20 }
  - { offsetInCU: 0xCE95, offset: 0x36FB9, size: 0x8, addend: 0x0, symName: __ZNSt3__110unique_ptrIA_PNS_16__hash_node_baseIPNS_11__hash_nodeINS_17__hash_value_typeINS_12basic_stringIcNS_11char_traitsIcEENS_9allocatorIcEEEENS_10shared_ptrI11SDL_TextureEEEEPvEEEENS_25__bucket_list_deallocatorINS7_ISI_EEEEE5resetB7v160006IPSI_EENS_9enable_ifIXsr28_CheckArrayPointerConversionIT_EE5valueEvE4typeESR_, symObjAddr: 0x3D10, symBinAddr: 0xCD70, symSize: 0x70 }
  - { offsetInCU: 0xCEE1, offset: 0x37005, size: 0x8, addend: 0x0, symName: __ZNSt3__116allocator_traitsINS_9allocatorIPNS_16__hash_node_baseIPNS_11__hash_nodeINS_17__hash_value_typeINS_12basic_stringIcNS_11char_traitsIcEENS1_IcEEEENS_10shared_ptrI11SDL_TextureEEEEPvEEEEEEE8allocateB7v160006ERSJ_m, symObjAddr: 0x3D80, symBinAddr: 0xCDE0, symSize: 0x30 }
  - { offsetInCU: 0xCF14, offset: 0x37038, size: 0x8, addend: 0x0, symName: __ZNSt3__125__bucket_list_deallocatorINS_9allocatorIPNS_16__hash_node_baseIPNS_11__hash_nodeINS_17__hash_value_typeINS_12basic_stringIcNS_11char_traitsIcEENS1_IcEEEENS_10shared_ptrI11SDL_TextureEEEEPvEEEEEEE4sizeB7v160006Ev, symObjAddr: 0x3DB0, symBinAddr: 0xCE10, symSize: 0x20 }
  - { offsetInCU: 0xCF39, offset: 0x3705D, size: 0x8, addend: 0x0, symName: __ZNSt3__117__compressed_pairIPPNS_16__hash_node_baseIPNS_11__hash_nodeINS_17__hash_value_typeINS_12basic_stringIcNS_11char_traitsIcEENS_9allocatorIcEEEENS_10shared_ptrI11SDL_TextureEEEEPvEEEENS_25__bucket_list_deallocatorINS7_ISI_EEEEE6secondB7v160006Ev, symObjAddr: 0x3DD0, symBinAddr: 0xCE30, symSize: 0x20 }
  - { offsetInCU: 0xCF5E, offset: 0x37082, size: 0x8, addend: 0x0, symName: __ZNSt3__122__compressed_pair_elemINS_25__bucket_list_deallocatorINS_9allocatorIPNS_16__hash_node_baseIPNS_11__hash_nodeINS_17__hash_value_typeINS_12basic_stringIcNS_11char_traitsIcEENS2_IcEEEENS_10shared_ptrI11SDL_TextureEEEEPvEEEEEEEELi1ELb0EE5__getB7v160006Ev, symObjAddr: 0x3DF0, symBinAddr: 0xCE50, symSize: 0x10 }
  - { offsetInCU: 0xCF83, offset: 0x370A7, size: 0x8, addend: 0x0, symName: __ZNSt3__117__compressed_pairImNS_9allocatorIPNS_16__hash_node_baseIPNS_11__hash_nodeINS_17__hash_value_typeINS_12basic_stringIcNS_11char_traitsIcEENS1_IcEEEENS_10shared_ptrI11SDL_TextureEEEEPvEEEEEEE6secondB7v160006Ev, symObjAddr: 0x3E00, symBinAddr: 0xCE60, symSize: 0x20 }
  - { offsetInCU: 0xCFA8, offset: 0x370CC, size: 0x8, addend: 0x0, symName: __ZNSt3__122__compressed_pair_elemINS_9allocatorIPNS_16__hash_node_baseIPNS_11__hash_nodeINS_17__hash_value_typeINS_12basic_stringIcNS_11char_traitsIcEENS1_IcEEEENS_10shared_ptrI11SDL_TextureEEEEPvEEEEEELi1ELb1EE5__getB7v160006Ev, symObjAddr: 0x3E20, symBinAddr: 0xCE80, symSize: 0x10 }
  - { offsetInCU: 0xCFCD, offset: 0x370F1, size: 0x8, addend: 0x0, symName: __ZNSt3__117__compressed_pairIPPNS_16__hash_node_baseIPNS_11__hash_nodeINS_17__hash_value_typeINS_12basic_stringIcNS_11char_traitsIcEENS_9allocatorIcEEEENS_10shared_ptrI11SDL_TextureEEEEPvEEEENS_25__bucket_list_deallocatorINS7_ISI_EEEEE5firstB7v160006Ev, symObjAddr: 0x3E30, symBinAddr: 0xCE90, symSize: 0x20 }
  - { offsetInCU: 0xCFF2, offset: 0x37116, size: 0x8, addend: 0x0, symName: __ZNSt3__125__bucket_list_deallocatorINS_9allocatorIPNS_16__hash_node_baseIPNS_11__hash_nodeINS_17__hash_value_typeINS_12basic_stringIcNS_11char_traitsIcEENS1_IcEEEENS_10shared_ptrI11SDL_TextureEEEEPvEEEEEEEclB7v160006EPSI_, symObjAddr: 0x3E50, symBinAddr: 0xCEB0, symSize: 0x50 }
  - { offsetInCU: 0xD026, offset: 0x3714A, size: 0x8, addend: 0x0, symName: __ZNSt3__122__compressed_pair_elemIPPNS_16__hash_node_baseIPNS_11__hash_nodeINS_17__hash_value_typeINS_12basic_stringIcNS_11char_traitsIcEENS_9allocatorIcEEEENS_10shared_ptrI11SDL_TextureEEEEPvEEEELi0ELb0EE5__getB7v160006Ev, symObjAddr: 0x3EA0, symBinAddr: 0xCF00, symSize: 0x10 }
  - { offsetInCU: 0xD04B, offset: 0x3716F, size: 0x8, addend: 0x0, symName: __ZNSt3__116allocator_traitsINS_9allocatorIPNS_16__hash_node_baseIPNS_11__hash_nodeINS_17__hash_value_typeINS_12basic_stringIcNS_11char_traitsIcEENS1_IcEEEENS_10shared_ptrI11SDL_TextureEEEEPvEEEEEEE10deallocateB7v160006ERSJ_PSI_m, symObjAddr: 0x3EB0, symBinAddr: 0xCF10, symSize: 0x30 }
  - { offsetInCU: 0xD08D, offset: 0x371B1, size: 0x8, addend: 0x0, symName: __ZNSt3__19allocatorIPNS_16__hash_node_baseIPNS_11__hash_nodeINS_17__hash_value_typeINS_12basic_stringIcNS_11char_traitsIcEENS0_IcEEEENS_10shared_ptrI11SDL_TextureEEEEPvEEEEE10deallocateB7v160006EPSH_m, symObjAddr: 0x3EE0, symBinAddr: 0xCF40, symSize: 0x40 }
  - { offsetInCU: 0xD0CE, offset: 0x371F2, size: 0x8, addend: 0x0, symName: __ZNSt3__19allocatorIPNS_16__hash_node_baseIPNS_11__hash_nodeINS_17__hash_value_typeINS_12basic_stringIcNS_11char_traitsIcEENS0_IcEEEENS_10shared_ptrI11SDL_TextureEEEEPvEEEEE8allocateB7v160006Em, symObjAddr: 0x4020, symBinAddr: 0xCF80, symSize: 0x50 }
  - { offsetInCU: 0xD10B, offset: 0x3722F, size: 0x8, addend: 0x0, symName: __ZNSt3__116allocator_traitsINS_9allocatorIPNS_16__hash_node_baseIPNS_11__hash_nodeINS_17__hash_value_typeINS_12basic_stringIcNS_11char_traitsIcEENS1_IcEEEENS_10shared_ptrI11SDL_TextureEEEEPvEEEEEEE8max_sizeB7v160006ISJ_vvEEmRKSJ_, symObjAddr: 0x4070, symBinAddr: 0xCFD0, symSize: 0x20 }
  - { offsetInCU: 0xD137, offset: 0x3725B, size: 0x8, addend: 0x0, symName: __ZNSt3__117__compressed_pairImNS_9allocatorIPNS_16__hash_node_baseIPNS_11__hash_nodeINS_17__hash_value_typeINS_12basic_stringIcNS_11char_traitsIcEENS1_IcEEEENS_10shared_ptrI11SDL_TextureEEEEPvEEEEEEE5firstB7v160006Ev, symObjAddr: 0x4090, symBinAddr: 0xCFF0, symSize: 0x20 }
  - { offsetInCU: 0xD15C, offset: 0x37280, size: 0x8, addend: 0x0, symName: __ZNSt3__122__compressed_pair_elemINS_16__hash_node_baseIPNS_11__hash_nodeINS_17__hash_value_typeINS_12basic_stringIcNS_11char_traitsIcEENS_9allocatorIcEEEENS_10shared_ptrI11SDL_TextureEEEEPvEEEELi0ELb0EE5__getB7v160006Ev, symObjAddr: 0x4150, symBinAddr: 0xD030, symSize: 0x10 }
  - { offsetInCU: 0xD181, offset: 0x372A5, size: 0x8, addend: 0x0, symName: __ZNKSt3__117__compressed_pairIPNS_11__hash_nodeINS_17__hash_value_typeINS_12basic_stringIcNS_11char_traitsIcEENS_9allocatorIcEEEENS_10shared_ptrI11SDL_TextureEEEEPvEENS_22__hash_node_destructorINS6_ISE_EEEEE5firstB7v160006Ev, symObjAddr: 0x4160, symBinAddr: 0xD040, symSize: 0x20 }
  - { offsetInCU: 0xD1A6, offset: 0x372CA, size: 0x8, addend: 0x0, symName: __ZNKSt3__122__compressed_pair_elemIPNS_11__hash_nodeINS_17__hash_value_typeINS_12basic_stringIcNS_11char_traitsIcEENS_9allocatorIcEEEENS_10shared_ptrI11SDL_TextureEEEEPvEELi0ELb0EE5__getB7v160006Ev, symObjAddr: 0x4180, symBinAddr: 0xD060, symSize: 0x10 }
  - { offsetInCU: 0xD1CB, offset: 0x372EF, size: 0x8, addend: 0x0, symName: __ZNSt3__117__compressed_pairIPNS_11__hash_nodeINS_17__hash_value_typeINS_12basic_stringIcNS_11char_traitsIcEENS_9allocatorIcEEEENS_10shared_ptrI11SDL_TextureEEEEPvEENS_22__hash_node_destructorINS6_ISE_EEEEE5firstB7v160006Ev, symObjAddr: 0x4190, symBinAddr: 0xD070, symSize: 0x20 }
  - { offsetInCU: 0xD1F0, offset: 0x37314, size: 0x8, addend: 0x0, symName: __ZNSt3__122__compressed_pair_elemIPNS_11__hash_nodeINS_17__hash_value_typeINS_12basic_stringIcNS_11char_traitsIcEENS_9allocatorIcEEEENS_10shared_ptrI11SDL_TextureEEEEPvEELi0ELb0EE5__getB7v160006Ev, symObjAddr: 0x41B0, symBinAddr: 0xD090, symSize: 0x10 }
  - { offsetInCU: 0xD215, offset: 0x37339, size: 0x8, addend: 0x0, symName: __ZNSt3__110unique_ptrINS_11__hash_nodeINS_17__hash_value_typeINS_12basic_stringIcNS_11char_traitsIcEENS_9allocatorIcEEEENS_10shared_ptrI11SDL_TextureEEEEPvEENS_22__hash_node_destructorINS6_ISE_EEEEED2B7v160006Ev, symObjAddr: 0x41C0, symBinAddr: 0xD0A0, symSize: 0x20 }
  - { offsetInCU: 0xD23E, offset: 0x37362, size: 0x8, addend: 0x0, symName: __ZNSt3__110unique_ptrINS_11__hash_nodeINS_17__hash_value_typeINS_12basic_stringIcNS_11char_traitsIcEENS_9allocatorIcEEEENS_10shared_ptrI11SDL_TextureEEEEPvEENS_22__hash_node_destructorINS6_ISE_EEEEE5resetB7v160006EPSE_, symObjAddr: 0x41E0, symBinAddr: 0xD0C0, symSize: 0x70 }
  - { offsetInCU: 0xD281, offset: 0x373A5, size: 0x8, addend: 0x0, symName: __ZNSt3__122__hash_node_destructorINS_9allocatorINS_11__hash_nodeINS_17__hash_value_typeINS_12basic_stringIcNS_11char_traitsIcEENS1_IcEEEENS_10shared_ptrI11SDL_TextureEEEEPvEEEEEclB7v160006EPSE_, symObjAddr: 0x4250, symBinAddr: 0xD130, symSize: 0x90 }
  - { offsetInCU: 0xD2B5, offset: 0x373D9, size: 0x8, addend: 0x0, symName: __ZNSt3__116allocator_traitsINS_9allocatorINS_11__hash_nodeINS_17__hash_value_typeINS_12basic_stringIcNS_11char_traitsIcEENS1_IcEEEENS_10shared_ptrI11SDL_TextureEEEEPvEEEEE7destroyB7v160006INS_4pairIKS8_SB_EEvvEEvRSF_PT_, symObjAddr: 0x42E0, symBinAddr: 0xD1C0, symSize: 0x20 }
  - { offsetInCU: 0xD2F0, offset: 0x37414, size: 0x8, addend: 0x0, symName: __ZNSt3__116allocator_traitsINS_9allocatorINS_11__hash_nodeINS_17__hash_value_typeINS_12basic_stringIcNS_11char_traitsIcEENS1_IcEEEENS_10shared_ptrI11SDL_TextureEEEEPvEEEEE10deallocateB7v160006ERSF_PSE_m, symObjAddr: 0x4300, symBinAddr: 0xD1E0, symSize: 0x30 }
  - { offsetInCU: 0xD332, offset: 0x37456, size: 0x8, addend: 0x0, symName: __ZNSt3__19allocatorINS_11__hash_nodeINS_17__hash_value_typeINS_12basic_stringIcNS_11char_traitsIcEENS0_IcEEEENS_10shared_ptrI11SDL_TextureEEEEPvEEE10deallocateB7v160006EPSD_m, symObjAddr: 0x4370, symBinAddr: 0xD250, symSize: 0x40 }
  - { offsetInCU: 0xD373, offset: 0x37497, size: 0x8, addend: 0x0, symName: __ZNSt3__115__hash_iteratorIPNS_11__hash_nodeINS_17__hash_value_typeINS_12basic_stringIcNS_11char_traitsIcEENS_9allocatorIcEEEENS_10shared_ptrI11SDL_TextureEEEEPvEEEC2B7v160006EPNS_16__hash_node_baseISF_EEPKv, symObjAddr: 0x43B0, symBinAddr: 0xD290, symSize: 0x20 }
  - { offsetInCU: 0xD3BA, offset: 0x374DE, size: 0x8, addend: 0x0, symName: __ZNSt3__14pairINS_15__hash_iteratorIPNS_11__hash_nodeINS_17__hash_value_typeINS_12basic_stringIcNS_11char_traitsIcEENS_9allocatorIcEEEENS_10shared_ptrI11SDL_TextureEEEEPvEEEEbEC2B7v160006ISH_RbLSE_0EEEOT_OT0_, symObjAddr: 0x43D0, symBinAddr: 0xD2B0, symSize: 0x30 }
  - { offsetInCU: 0xD417, offset: 0x3753B, size: 0x8, addend: 0x0, symName: __ZNSt3__14pairINS_19__hash_map_iteratorINS_15__hash_iteratorIPNS_11__hash_nodeINS_17__hash_value_typeINS_12basic_stringIcNS_11char_traitsIcEENS_9allocatorIcEEEENS_10shared_ptrI11SDL_TextureEEEEPvEEEEEEbEC2B7v160006ISI_bLSF_0EEEONS0_IT_T0_EE, symObjAddr: 0x4400, symBinAddr: 0xD2E0, symSize: 0x50 }
  - { offsetInCU: 0xD467, offset: 0x3758B, size: 0x8, addend: 0x0, symName: __ZNSt3__119__hash_map_iteratorINS_15__hash_iteratorIPNS_11__hash_nodeINS_17__hash_value_typeINS_12basic_stringIcNS_11char_traitsIcEENS_9allocatorIcEEEENS_10shared_ptrI11SDL_TextureEEEEPvEEEEEC1B7v160006ESH_, symObjAddr: 0x4450, symBinAddr: 0xD330, symSize: 0x30 }
  - { offsetInCU: 0xD49F, offset: 0x375C3, size: 0x8, addend: 0x0, symName: __ZNSt3__119__hash_map_iteratorINS_15__hash_iteratorIPNS_11__hash_nodeINS_17__hash_value_typeINS_12basic_stringIcNS_11char_traitsIcEENS_9allocatorIcEEEENS_10shared_ptrI11SDL_TextureEEEEPvEEEEEC2B7v160006ESH_, symObjAddr: 0x4480, symBinAddr: 0xD360, symSize: 0x20 }
  - { offsetInCU: 0xD4D7, offset: 0x375FB, size: 0x8, addend: 0x0, symName: __ZNSt3__14pairIKNS_12basic_stringIcNS_11char_traitsIcEENS_9allocatorIcEEEENS_10shared_ptrI11SDL_TextureEEEC2B7v160006IRS6_RSA_LPv0EEEOT_OT0_, symObjAddr: 0x44A0, symBinAddr: 0xD380, symSize: 0x40 }
  - { offsetInCU: 0xD534, offset: 0x37658, size: 0x8, addend: 0x0, symName: __ZNSt3__14pairIKNS_12basic_stringIcNS_11char_traitsIcEENS_9allocatorIcEEEENS_10shared_ptrI11SDL_TextureEEED2Ev, symObjAddr: 0x44E0, symBinAddr: 0xD3C0, symSize: 0x30 }
  - { offsetInCU: 0xD573, offset: 0x37697, size: 0x8, addend: 0x0, symName: __ZNSt3__112__hash_tableINS_17__hash_value_typeINS_12basic_stringIcNS_11char_traitsIcEENS_9allocatorIcEEEENS_10shared_ptrI11SDL_TextureEEEENS_22__unordered_map_hasherIS7_SB_NS_4hashIS7_EENS_8equal_toIS7_EELb1EEENS_21__unordered_map_equalIS7_SB_SG_SE_Lb1EEENS5_ISB_EEE25__emplace_unique_key_argsIS7_JRKNS_21piecewise_construct_tENS_5tupleIJRKS7_EEENSQ_IJEEEEEENS_4pairINS_15__hash_iteratorIPNS_11__hash_nodeISB_PvEEEEbEERKT_DpOT0_, symObjAddr: 0x4510, symBinAddr: 0xD3F0, symSize: 0x5B0 }
  - { offsetInCU: 0xD67A, offset: 0x3779E, size: 0x8, addend: 0x0, symName: __ZNKSt3__115__hash_iteratorIPNS_11__hash_nodeINS_17__hash_value_typeINS_12basic_stringIcNS_11char_traitsIcEENS_9allocatorIcEEEENS_10shared_ptrI11SDL_TextureEEEEPvEEEptB7v160006Ev, symObjAddr: 0x4B00, symBinAddr: 0xD9E0, symSize: 0x30 }
  - { offsetInCU: 0xD69F, offset: 0x377C3, size: 0x8, addend: 0x0, symName: __ZNSt3__112__hash_tableINS_17__hash_value_typeINS_12basic_stringIcNS_11char_traitsIcEENS_9allocatorIcEEEENS_10shared_ptrI11SDL_TextureEEEENS_22__unordered_map_hasherIS7_SB_NS_4hashIS7_EENS_8equal_toIS7_EELb1EEENS_21__unordered_map_equalIS7_SB_SG_SE_Lb1EEENS5_ISB_EEE21__construct_node_hashIRKNS_21piecewise_construct_tEJNS_5tupleIJRKS7_EEENSQ_IJEEEEEENS_10unique_ptrINS_11__hash_nodeISB_PvEENS_22__hash_node_destructorINS5_ISY_EEEEEEmOT_DpOT0_, symObjAddr: 0x4B30, symBinAddr: 0xDA10, symSize: 0x150 }
  - { offsetInCU: 0xD739, offset: 0x3785D, size: 0x8, addend: 0x0, symName: __ZNSt3__116allocator_traitsINS_9allocatorINS_11__hash_nodeINS_17__hash_value_typeINS_12basic_stringIcNS_11char_traitsIcEENS1_IcEEEENS_10shared_ptrI11SDL_TextureEEEEPvEEEEE9constructB7v160006INS_4pairIKS8_SB_EEJRKNS_21piecewise_construct_tENS_5tupleIJRSJ_EEENSO_IJEEEEvvEEvRSF_PT_DpOT0_, symObjAddr: 0x4C80, symBinAddr: 0xDB60, symSize: 0x40 }
  - { offsetInCU: 0xD7B6, offset: 0x378DA, size: 0x8, addend: 0x0, symName: __ZNSt3__14pairIKNS_12basic_stringIcNS_11char_traitsIcEENS_9allocatorIcEEEENS_10shared_ptrI11SDL_TextureEEEC1B7v160006IJRS7_EJEEENS_21piecewise_construct_tENS_5tupleIJDpT_EEENSF_IJDpT0_EEE, symObjAddr: 0x4D10, symBinAddr: 0xDBF0, symSize: 0x30 }
  - { offsetInCU: 0xD81C, offset: 0x37940, size: 0x8, addend: 0x0, symName: __ZNSt3__14pairIKNS_12basic_stringIcNS_11char_traitsIcEENS_9allocatorIcEEEENS_10shared_ptrI11SDL_TextureEEEC1B7v160006IJRS7_EJEJLm0EEJEEENS_21piecewise_construct_tERNS_5tupleIJDpT_EEERNSF_IJDpT0_EEENS_15__tuple_indicesIJXspT1_EEEENSO_IJXspT2_EEEE, symObjAddr: 0x4D40, symBinAddr: 0xDC20, symSize: 0x30 }
  - { offsetInCU: 0xD8AB, offset: 0x379CF, size: 0x8, addend: 0x0, symName: __ZNSt3__14pairIKNS_12basic_stringIcNS_11char_traitsIcEENS_9allocatorIcEEEENS_10shared_ptrI11SDL_TextureEEEC2B7v160006IJRS7_EJEJLm0EEJEEENS_21piecewise_construct_tERNS_5tupleIJDpT_EEERNSF_IJDpT0_EEENS_15__tuple_indicesIJXspT1_EEEENSO_IJXspT2_EEEE, symObjAddr: 0x4D70, symBinAddr: 0xDC50, symSize: 0x50 }
  - { offsetInCU: 0xD93A, offset: 0x37A5E, size: 0x8, addend: 0x0, symName: __ZNSt3__112__tuple_leafILm0ERKNS_12basic_stringIcNS_11char_traitsIcEENS_9allocatorIcEEEELb0EE3getB7v160006Ev, symObjAddr: 0x4DE0, symBinAddr: 0xDCC0, symSize: 0x20 }
  - { offsetInCU: 0xD95F, offset: 0x37A83, size: 0x8, addend: 0x0, symName: __ZNSt3__15tupleIJRKNS_12basic_stringIcNS_11char_traitsIcEENS_9allocatorIcEEEEEEC1B7v160006INS_4_AndELi0EEES8_, symObjAddr: 0x4E00, symBinAddr: 0xDCE0, symSize: 0x30 }
  - { offsetInCU: 0xD9A7, offset: 0x37ACB, size: 0x8, addend: 0x0, symName: __ZNSt3__15tupleIJRKNS_12basic_stringIcNS_11char_traitsIcEENS_9allocatorIcEEEEEEC2B7v160006INS_4_AndELi0EEES8_, symObjAddr: 0x4E30, symBinAddr: 0xDD10, symSize: 0x30 }
  - { offsetInCU: 0xD9EF, offset: 0x37B13, size: 0x8, addend: 0x0, symName: __ZNSt3__112__tuple_implINS_15__tuple_indicesIJLm0EEEEJRKNS_12basic_stringIcNS_11char_traitsIcEENS_9allocatorIcEEEEEEC1B7v160006IJLm0EEJSA_EJEJEJSA_EEENS1_IJXspT_EEEENS_13__tuple_typesIJDpT0_EEENS1_IJXspT1_EEEENSE_IJDpT2_EEEDpOT3_, symObjAddr: 0x4E60, symBinAddr: 0xDD40, symSize: 0x30 }
  - { offsetInCU: 0xDA83, offset: 0x37BA7, size: 0x8, addend: 0x0, symName: __ZNSt3__112__tuple_implINS_15__tuple_indicesIJLm0EEEEJRKNS_12basic_stringIcNS_11char_traitsIcEENS_9allocatorIcEEEEEEC2B7v160006IJLm0EEJSA_EJEJEJSA_EEENS1_IJXspT_EEEENS_13__tuple_typesIJDpT0_EEENS1_IJXspT1_EEEENSE_IJDpT2_EEEDpOT3_, symObjAddr: 0x4E90, symBinAddr: 0xDD70, symSize: 0x30 }
  - { offsetInCU: 0xDB17, offset: 0x37C3B, size: 0x8, addend: 0x0, symName: __ZNSt3__112__tuple_leafILm0ERKNS_12basic_stringIcNS_11char_traitsIcEENS_9allocatorIcEEEELb0EEC2B7v160006IS8_vEEOT_, symObjAddr: 0x4EC0, symBinAddr: 0xDDA0, symSize: 0x20 }
  - { offsetInCU: 0xDB59, offset: 0x37C7D, size: 0x8, addend: 0x0, symName: __ZNSt3__114pointer_traitsIPNS_17__hash_value_typeINS_12basic_stringIcNS_11char_traitsIcEENS_9allocatorIcEEEENS_10shared_ptrI11SDL_TextureEEEEE10pointer_toB7v160006ERSB_, symObjAddr: 0x4EE0, symBinAddr: 0xDDC0, symSize: 0x10 }
  - { offsetInCU: 0xDB7C, offset: 0x37CA0, size: 0x8, addend: 0x0, symName: __ZNSt3__110shared_ptrI11SDL_TextureEC2B7v160006ERKS2_, symObjAddr: 0x4EF0, symBinAddr: 0xDDD0, symSize: 0x50 }
  - { offsetInCU: 0xDBB4, offset: 0x37CD8, size: 0x8, addend: 0x0, symName: __ZNSt3__110shared_ptrI11SDL_TextureEC2B7v160006IS1_21TextureFunctorDeletervEEPT_T0_, symObjAddr: 0x4FB0, symBinAddr: 0xDE20, symSize: 0x100 }
  - { offsetInCU: 0xDC18, offset: 0x37D3C, size: 0x8, addend: 0x0, symName: __ZNSt3__19allocatorI11SDL_TextureEC1B7v160006Ev, symObjAddr: 0x50B0, symBinAddr: 0xDF20, symSize: 0x20 }
  - { offsetInCU: 0xDCFF, offset: 0x37E23, size: 0x8, addend: 0x0, symName: __ZNSt3__120__shared_ptr_pointerIP11SDL_Texture21TextureFunctorDeleterNS_9allocatorIS1_EEEC1B7v160006ES2_S3_S5_, symObjAddr: 0x50D0, symBinAddr: 0xDF40, symSize: 0x30 }
  - { offsetInCU: 0xDD52, offset: 0x37E76, size: 0x8, addend: 0x0, symName: __ZNSt3__110shared_ptrI11SDL_TextureE18__enable_weak_thisB7v160006Ez, symObjAddr: 0x5100, symBinAddr: 0xDF70, symSize: 0x10 }
  - { offsetInCU: 0xDD78, offset: 0x37E9C, size: 0x8, addend: 0x0, symName: __ZNK21TextureFunctorDeleterclEP11SDL_Texture, symObjAddr: 0x5110, symBinAddr: 0xDF80, symSize: 0x20 }
  - { offsetInCU: 0xDDAB, offset: 0x37ECF, size: 0x8, addend: 0x0, symName: __ZNSt3__19allocatorI11SDL_TextureEC2B7v160006Ev, symObjAddr: 0x5130, symBinAddr: 0xDFA0, symSize: 0x20 }
  - { offsetInCU: 0xDDD4, offset: 0x37EF8, size: 0x8, addend: 0x0, symName: __ZNSt3__116__non_trivial_ifILb1ENS_9allocatorI11SDL_TextureEEEC2B7v160006Ev, symObjAddr: 0x5150, symBinAddr: 0xDFC0, symSize: 0x10 }
  - { offsetInCU: 0xDDFD, offset: 0x37F21, size: 0x8, addend: 0x0, symName: __ZNSt3__120__shared_ptr_pointerIP11SDL_Texture21TextureFunctorDeleterNS_9allocatorIS1_EEEC2B7v160006ES2_S3_S5_, symObjAddr: 0x5160, symBinAddr: 0xDFD0, symSize: 0x90 }
  - { offsetInCU: 0xDE55, offset: 0x37F79, size: 0x8, addend: 0x0, symName: __ZNSt3__117__compressed_pairIP11SDL_Texture21TextureFunctorDeleterEC1B7v160006IRS2_S3_EEOT_OT0_, symObjAddr: 0x5240, symBinAddr: 0xE060, symSize: 0x30 }
  - { offsetInCU: 0xDEB6, offset: 0x37FDA, size: 0x8, addend: 0x0, symName: __ZNSt3__117__compressed_pairINS0_IP11SDL_Texture21TextureFunctorDeleterEENS_9allocatorIS1_EEEC1B7v160006IS4_S6_EEOT_OT0_, symObjAddr: 0x5270, symBinAddr: 0xE090, symSize: 0x30 }
  - { offsetInCU: 0xDF0D, offset: 0x38031, size: 0x8, addend: 0x0, symName: __ZNSt3__120__shared_ptr_pointerIP11SDL_Texture21TextureFunctorDeleterNS_9allocatorIS1_EEED1Ev, symObjAddr: 0x52A0, symBinAddr: 0xE0C0, symSize: 0x20 }
  - { offsetInCU: 0xDF38, offset: 0x3805C, size: 0x8, addend: 0x0, symName: __ZNSt3__120__shared_ptr_pointerIP11SDL_Texture21TextureFunctorDeleterNS_9allocatorIS1_EEED0Ev, symObjAddr: 0x52C0, symBinAddr: 0xE0E0, symSize: 0x30 }
  - { offsetInCU: 0xDF63, offset: 0x38087, size: 0x8, addend: 0x0, symName: __ZNSt3__120__shared_ptr_pointerIP11SDL_Texture21TextureFunctorDeleterNS_9allocatorIS1_EEE16__on_zero_sharedEv, symObjAddr: 0x52F0, symBinAddr: 0xE110, symSize: 0x80 }
  - { offsetInCU: 0xDF89, offset: 0x380AD, size: 0x8, addend: 0x0, symName: __ZNKSt3__120__shared_ptr_pointerIP11SDL_Texture21TextureFunctorDeleterNS_9allocatorIS1_EEE13__get_deleterERKSt9type_info, symObjAddr: 0x5370, symBinAddr: 0xE190, symSize: 0x70 }
  - { offsetInCU: 0xDFBD, offset: 0x380E1, size: 0x8, addend: 0x0, symName: __ZNSt3__120__shared_ptr_pointerIP11SDL_Texture21TextureFunctorDeleterNS_9allocatorIS1_EEE21__on_zero_shared_weakEv, symObjAddr: 0x53E0, symBinAddr: 0xE200, symSize: 0x60 }
  - { offsetInCU: 0xDFFD, offset: 0x38121, size: 0x8, addend: 0x0, symName: __ZNSt3__117__compressed_pairIP11SDL_Texture21TextureFunctorDeleterEC2B7v160006IRS2_S3_EEOT_OT0_, symObjAddr: 0x5470, symBinAddr: 0xE260, symSize: 0x40 }
  - { offsetInCU: 0xE054, offset: 0x38178, size: 0x8, addend: 0x0, symName: __ZNSt3__122__compressed_pair_elemIP11SDL_TextureLi0ELb0EEC2B7v160006IRS2_vEEOT_, symObjAddr: 0x54B0, symBinAddr: 0xE2A0, symSize: 0x20 }
  - { offsetInCU: 0xE095, offset: 0x381B9, size: 0x8, addend: 0x0, symName: __ZNSt3__122__compressed_pair_elemI21TextureFunctorDeleterLi1ELb1EEC2B7v160006IS1_vEEOT_, symObjAddr: 0x54D0, symBinAddr: 0xE2C0, symSize: 0x10 }
  - { offsetInCU: 0xE0D6, offset: 0x381FA, size: 0x8, addend: 0x0, symName: __ZNSt3__117__compressed_pairINS0_IP11SDL_Texture21TextureFunctorDeleterEENS_9allocatorIS1_EEEC2B7v160006IS4_S6_EEOT_OT0_, symObjAddr: 0x54E0, symBinAddr: 0xE2D0, symSize: 0x40 }
  - { offsetInCU: 0xE12D, offset: 0x38251, size: 0x8, addend: 0x0, symName: __ZNSt3__122__compressed_pair_elemINS_17__compressed_pairIP11SDL_Texture21TextureFunctorDeleterEELi0ELb0EEC2B7v160006IS5_vEEOT_, symObjAddr: 0x5520, symBinAddr: 0xE310, symSize: 0x20 }
  - { offsetInCU: 0xE16E, offset: 0x38292, size: 0x8, addend: 0x0, symName: __ZNSt3__122__compressed_pair_elemINS_9allocatorI11SDL_TextureEELi1ELb1EEC2B7v160006IS3_vEEOT_, symObjAddr: 0x5540, symBinAddr: 0xE330, symSize: 0x10 }
  - { offsetInCU: 0xE1AF, offset: 0x382D3, size: 0x8, addend: 0x0, symName: __ZNSt3__120__shared_ptr_pointerIP11SDL_Texture21TextureFunctorDeleterNS_9allocatorIS1_EEED2Ev, symObjAddr: 0x5550, symBinAddr: 0xE340, symSize: 0x20 }
  - { offsetInCU: 0xE1DA, offset: 0x382FE, size: 0x8, addend: 0x0, symName: __ZNSt3__117__compressed_pairINS0_IP11SDL_Texture21TextureFunctorDeleterEENS_9allocatorIS1_EEE5firstB7v160006Ev, symObjAddr: 0x5570, symBinAddr: 0xE360, symSize: 0x20 }
  - { offsetInCU: 0xE1FF, offset: 0x38323, size: 0x8, addend: 0x0, symName: __ZNSt3__117__compressed_pairIP11SDL_Texture21TextureFunctorDeleterE6secondB7v160006Ev, symObjAddr: 0x5590, symBinAddr: 0xE380, symSize: 0x20 }
  - { offsetInCU: 0xE224, offset: 0x38348, size: 0x8, addend: 0x0, symName: __ZNSt3__117__compressed_pairIP11SDL_Texture21TextureFunctorDeleterE5firstB7v160006Ev, symObjAddr: 0x55B0, symBinAddr: 0xE3A0, symSize: 0x20 }
  - { offsetInCU: 0xE249, offset: 0x3836D, size: 0x8, addend: 0x0, symName: __ZNSt3__122__compressed_pair_elemINS_17__compressed_pairIP11SDL_Texture21TextureFunctorDeleterEELi0ELb0EE5__getB7v160006Ev, symObjAddr: 0x55D0, symBinAddr: 0xE3C0, symSize: 0x10 }
  - { offsetInCU: 0xE26E, offset: 0x38392, size: 0x8, addend: 0x0, symName: __ZNSt3__122__compressed_pair_elemI21TextureFunctorDeleterLi1ELb1EE5__getB7v160006Ev, symObjAddr: 0x55E0, symBinAddr: 0xE3D0, symSize: 0x10 }
  - { offsetInCU: 0xE293, offset: 0x383B7, size: 0x8, addend: 0x0, symName: __ZNSt3__122__compressed_pair_elemIP11SDL_TextureLi0ELb0EE5__getB7v160006Ev, symObjAddr: 0x55F0, symBinAddr: 0xE3E0, symSize: 0x10 }
  - { offsetInCU: 0xE2D6, offset: 0x383FA, size: 0x8, addend: 0x0, symName: __ZNKSt9type_infoeqB7v160006ERKS_, symObjAddr: 0x5600, symBinAddr: 0xE3F0, symSize: 0x40 }
  - { offsetInCU: 0xE331, offset: 0x38455, size: 0x8, addend: 0x0, symName: __ZNKSt3__117__compressed_pairINS0_IP11SDL_Texture21TextureFunctorDeleterEENS_9allocatorIS1_EEE5firstB7v160006Ev, symObjAddr: 0x5640, symBinAddr: 0xE430, symSize: 0x20 }
  - { offsetInCU: 0xE356, offset: 0x3847A, size: 0x8, addend: 0x0, symName: __ZNKSt3__117__compressed_pairIP11SDL_Texture21TextureFunctorDeleterE6secondB7v160006Ev, symObjAddr: 0x5660, symBinAddr: 0xE450, symSize: 0x20 }
  - { offsetInCU: 0xE37B, offset: 0x3849F, size: 0x8, addend: 0x0, symName: __ZNKSt3__122__compressed_pair_elemINS_17__compressed_pairIP11SDL_Texture21TextureFunctorDeleterEELi0ELb0EE5__getB7v160006Ev, symObjAddr: 0x5680, symBinAddr: 0xE470, symSize: 0x10 }
  - { offsetInCU: 0xE3A0, offset: 0x384C4, size: 0x8, addend: 0x0, symName: __ZNKSt3__122__compressed_pair_elemI21TextureFunctorDeleterLi1ELb1EE5__getB7v160006Ev, symObjAddr: 0x5690, symBinAddr: 0xE480, symSize: 0x10 }
  - { offsetInCU: 0xE3C5, offset: 0x384E9, size: 0x8, addend: 0x0, symName: __ZNSt3__117__compressed_pairINS0_IP11SDL_Texture21TextureFunctorDeleterEENS_9allocatorIS1_EEE6secondB7v160006Ev, symObjAddr: 0x56A0, symBinAddr: 0xE490, symSize: 0x20 }
  - { offsetInCU: 0xE3F9, offset: 0x3851D, size: 0x8, addend: 0x0, symName: __ZNSt3__19allocatorINS_20__shared_ptr_pointerIP11SDL_Texture21TextureFunctorDeleterNS0_IS2_EEEEEC1B7v160006IS2_EERKNS0_IT_EE, symObjAddr: 0x56C0, symBinAddr: 0xE4B0, symSize: 0x30 }
  - { offsetInCU: 0xE435, offset: 0x38559, size: 0x8, addend: 0x0, symName: __ZNSt3__19allocatorINS_20__shared_ptr_pointerIP11SDL_Texture21TextureFunctorDeleterNS0_IS2_EEEEE10deallocateB7v160006EPS6_m, symObjAddr: 0x56F0, symBinAddr: 0xE4E0, symSize: 0x40 }
  - { offsetInCU: 0xE47B, offset: 0x3859F, size: 0x8, addend: 0x0, symName: __ZNSt3__114pointer_traitsIPNS_20__shared_ptr_pointerIP11SDL_Texture21TextureFunctorDeleterNS_9allocatorIS2_EEEEE10pointer_toB7v160006ERS7_, symObjAddr: 0x5730, symBinAddr: 0xE520, symSize: 0x10 }
  - { offsetInCU: 0xE49E, offset: 0x385C2, size: 0x8, addend: 0x0, symName: __ZNSt3__122__compressed_pair_elemINS_9allocatorI11SDL_TextureEELi1ELb1EE5__getB7v160006Ev, symObjAddr: 0x5740, symBinAddr: 0xE530, symSize: 0x10 }
  - { offsetInCU: 0xE4C3, offset: 0x385E7, size: 0x8, addend: 0x0, symName: __ZNSt3__19allocatorINS_20__shared_ptr_pointerIP11SDL_Texture21TextureFunctorDeleterNS0_IS2_EEEEEC2B7v160006IS2_EERKNS0_IT_EE, symObjAddr: 0x5750, symBinAddr: 0xE540, symSize: 0x20 }
  - { offsetInCU: 0xE4FF, offset: 0x38623, size: 0x8, addend: 0x0, symName: __ZNSt3__116__non_trivial_ifILb1ENS_9allocatorINS_20__shared_ptr_pointerIP11SDL_Texture21TextureFunctorDeleterNS1_IS3_EEEEEEEC2B7v160006Ev, symObjAddr: 0x5770, symBinAddr: 0xE560, symSize: 0x10 }
  - { offsetInCU: 0xE528, offset: 0x3864C, size: 0x8, addend: 0x0, symName: __ZNSt3__110shared_ptrI11SDL_TextureED2B7v160006Ev, symObjAddr: 0x5780, symBinAddr: 0xE570, symSize: 0x40 }
  - { offsetInCU: 0xE551, offset: 0x38675, size: 0x8, addend: 0x0, symName: __ZNSt3__110shared_ptrI11SDL_TextureE4swapB7v160006ERS2_, symObjAddr: 0x5880, symBinAddr: 0xE5B0, symSize: 0x40 }
  - { offsetInCU: 0xE585, offset: 0x386A9, size: 0x8, addend: 0x0, symName: __ZNKSt3__110shared_ptrI11SDL_TextureEcvbB7v160006Ev, symObjAddr: 0x5940, symBinAddr: 0xE630, symSize: 0x27 }
  - { offsetInCU: 0xBC, offset: 0x38BAA, size: 0x8, addend: 0x0, symName: __ZN8pybind116detail16get_internals_ppEv, symObjAddr: 0x7180, symBinAddr: 0x14F00, symSize: 0x10 }
  - { offsetInCU: 0xE7, offset: 0x38BD5, size: 0x8, addend: 0x0, symName: __ZZN8pybind116detail16get_internals_ppEvE12internals_pp, symObjAddr: 0x4B400, symBinAddr: 0x5C5A0, symSize: 0x0 }
  - { offsetInCU: 0x2249, offset: 0x3AD37, size: 0x8, addend: 0x0, symName: __ZN8pybind116detail23all_type_info_get_cacheEP11_typeobject, symObjAddr: 0xD630, symBinAddr: 0x1B370, symSize: 0xF0 }
  - { offsetInCU: 0x2303, offset: 0x3ADF1, size: 0x8, addend: 0x0, symName: __ZN8pybind116detail19get_local_internalsEv, symObjAddr: 0x1AD60, symBinAddr: 0x27C10, symSize: 0xB0 }
  - { offsetInCU: 0x232E, offset: 0x3AE1C, size: 0x8, addend: 0x0, symName: __ZZN8pybind116detail19get_local_internalsEvE6locals, symObjAddr: 0x4B408, symBinAddr: 0x5C5A8, symSize: 0x0 }
  - { offsetInCU: 0x239F, offset: 0x3AE8D, size: 0x8, addend: 0x0, symName: __ZN8pybind116detail25enable_dynamic_attributesEP15_heaptypeobject, symObjAddr: 0x3B890, symBinAddr: 0x48550, symSize: 0x80 }
  - { offsetInCU: 0x23C6, offset: 0x3AEB4, size: 0x8, addend: 0x0, symName: __ZZN8pybind116detail25enable_dynamic_attributesEP15_heaptypeobjectE6getset, symObjAddr: 0x4B420, symBinAddr: 0x5C5C0, symSize: 0x0 }
  - { offsetInCU: 0x2428, offset: 0x3AF16, size: 0x8, addend: 0x0, symName: __ZN8pybind116detail8initimpl23construct_or_initializeI11ApplicationJELi0EEEPT_DpOT0_, symObjAddr: 0x44B70, symBinAddr: 0x51830, symSize: 0x50 }
  - { offsetInCU: 0x4AB5, offset: 0x3D5A3, size: 0x8, addend: 0x0, symName: __ZN8pybind116detail13get_internalsEv, symObjAddr: 0x470, symBinAddr: 0xEAA0, symSize: 0x510 }
  - { offsetInCU: 0x4BB6, offset: 0x3D6A4, size: 0x8, addend: 0x0, symName: __ZN8pybind116detail26get_thread_state_uncheckedEv, symObjAddr: 0xF20, symBinAddr: 0xF550, symSize: 0x10 }
  - { offsetInCU: 0x4BD5, offset: 0x3D6C3, size: 0x8, addend: 0x0, symName: __ZN8pybind116detail12error_stringEv, symObjAddr: 0x2270, symBinAddr: 0x10830, symSize: 0x80 }
  - { offsetInCU: 0x4BF4, offset: 0x3D6E2, size: 0x8, addend: 0x0, symName: __ZN8pybind116detail14obj_class_nameEP7_object, symObjAddr: 0x2FB0, symBinAddr: 0x11480, symSize: 0x50 }
  - { offsetInCU: 0x4C22, offset: 0x3D710, size: 0x8, addend: 0x0, symName: __ZN8pybind116detail7cast_opINSt3__112basic_stringIcNS2_11char_traitsIcEENS2_9allocatorIcEEEEEENS0_11type_casterINS0_14intrinsic_typeIT_E4typeEvE12cast_op_typeINS2_20add_rvalue_referenceISB_E4typeEEEOSE_, symObjAddr: 0x4FF0, symBinAddr: 0x12E30, symSize: 0x20 }
  - { offsetInCU: 0x4C57, offset: 0x3D745, size: 0x8, addend: 0x0, symName: __ZN8pybind116detail9load_typeINSt3__112basic_stringIcNS2_11char_traitsIcEENS2_9allocatorIcEEEEEENS0_11type_casterINS0_14intrinsic_typeIT_E4typeEvEERKNS_6handleE, symObjAddr: 0x5010, symBinAddr: 0x12E50, symSize: 0x80 }
  - { offsetInCU: 0x4C9E, offset: 0x3D78C, size: 0x8, addend: 0x0, symName: __ZN8pybind116detail9load_typeINSt3__112basic_stringIcNS2_11char_traitsIcEENS2_9allocatorIcEEEEvEERNS0_11type_casterIT_T0_EESD_RKNS_6handleE, symObjAddr: 0x50E0, symBinAddr: 0x12F20, symSize: 0x2A0 }
  - { offsetInCU: 0x4CEA, offset: 0x3D7D8, size: 0x8, addend: 0x0, symName: __ZN8pybind116detail13clean_type_idEPKc, symObjAddr: 0x66B0, symBinAddr: 0x14430, symSize: 0x80 }
  - { offsetInCU: 0x4D25, offset: 0x3D813, size: 0x8, addend: 0x0, symName: __ZN8pybind116detail13clean_type_idERNSt3__112basic_stringIcNS1_11char_traitsIcEENS1_9allocatorIcEEEE, symObjAddr: 0x6750, symBinAddr: 0x144D0, symSize: 0x100 }
  - { offsetInCU: 0x4D69, offset: 0x3D857, size: 0x8, addend: 0x0, symName: __ZN8pybind116detail9erase_allERNSt3__112basic_stringIcNS1_11char_traitsIcEENS1_9allocatorIcEEEERKS7_, symObjAddr: 0x68A0, symBinAddr: 0x14620, symSize: 0x80 }
  - { offsetInCU: 0x4DBB, offset: 0x3D8A9, size: 0x8, addend: 0x0, symName: __ZN8pybind116detail21get_python_state_dictEv, symObjAddr: 0x71B0, symBinAddr: 0x14F30, symSize: 0x130 }
  - { offsetInCU: 0x4DEA, offset: 0x3D8D8, size: 0x8, addend: 0x0, symName: __ZN8pybind116detail33get_internals_obj_from_state_dictENS_6handleE, symObjAddr: 0x7310, symBinAddr: 0x15090, symSize: 0x60 }
  - { offsetInCU: 0x4E18, offset: 0x3D906, size: 0x8, addend: 0x0, symName: __ZN8pybind116detail29get_internals_pp_from_capsuleENS_6handleE, symObjAddr: 0x7370, symBinAddr: 0x150F0, symSize: 0xB0 }
  - { offsetInCU: 0x4E55, offset: 0x3D943, size: 0x8, addend: 0x0, symName: __ZN8pybind116detail25translate_local_exceptionESt13exception_ptr, symObjAddr: 0x7530, symBinAddr: 0x152B0, symSize: 0x120 }
  - { offsetInCU: 0x4E9E, offset: 0x3D98C, size: 0x8, addend: 0x0, symName: __ZN8pybind116detail19translate_exceptionESt13exception_ptr, symObjAddr: 0x77F0, symBinAddr: 0x15570, symSize: 0x6F0 }
  - { offsetInCU: 0x4F8C, offset: 0x3DA7A, size: 0x8, addend: 0x0, symName: __ZN8pybind116detail25make_static_property_typeEv, symObjAddr: 0x7EE0, symBinAddr: 0x15C60, symSize: 0x210 }
  - { offsetInCU: 0x4FE2, offset: 0x3DAD0, size: 0x8, addend: 0x0, symName: __ZN8pybind116detail22make_default_metaclassEv, symObjAddr: 0x80F0, symBinAddr: 0x15E70, symSize: 0x230 }
  - { offsetInCU: 0x503A, offset: 0x3DB28, size: 0x8, addend: 0x0, symName: __ZN8pybind116detail21make_object_base_typeEP11_typeobject, symObjAddr: 0x8320, symBinAddr: 0x160A0, symSize: 0x310 }
  - { offsetInCU: 0x50A4, offset: 0x3DB92, size: 0x8, addend: 0x0, symName: __ZN8pybind116detail18dict_getitemstringEP7_objectPKc, symObjAddr: 0x8C60, symBinAddr: 0x169E0, symSize: 0x120 }
  - { offsetInCU: 0x50FF, offset: 0x3DBED, size: 0x8, addend: 0x0, symName: __ZN8pybind116detail14object_or_castINS_7capsuleELi0EEEDTclsr3stdE7forwardIT_Efp_EEOS3_, symObjAddr: 0xC390, symBinAddr: 0x1A0D0, symSize: 0x10 }
  - { offsetInCU: 0x513C, offset: 0x3DC2A, size: 0x8, addend: 0x0, symName: __ZN8pybind116detail9raise_errEP7_objectPKc, symObjAddr: 0xC3F0, symBinAddr: 0x1A130, symSize: 0x70 }
  - { offsetInCU: 0x5179, offset: 0x3DC67, size: 0x8, addend: 0x0, symName: __ZN8pybind116detail23handle_nested_exceptionISt16nested_exceptionLi0EEEbRKT_RKSt13exception_ptr, symObjAddr: 0xC460, symBinAddr: 0x1A1A0, symSize: 0x110 }
  - { offsetInCU: 0x51D4, offset: 0x3DCC2, size: 0x8, addend: 0x0, symName: __ZN8pybind116detail23handle_nested_exceptionISt9exceptionLi0EEEbRKT_RKSt13exception_ptr, symObjAddr: 0xC570, symBinAddr: 0x1A2B0, symSize: 0x90 }
  - { offsetInCU: 0x5236, offset: 0x3DD24, size: 0x8, addend: 0x0, symName: __ZN8pybind116detail23handle_nested_exceptionISt14overflow_errorLi0EEEbRKT_RKSt13exception_ptr, symObjAddr: 0xC600, symBinAddr: 0x1A340, symSize: 0x90 }
  - { offsetInCU: 0x5298, offset: 0x3DD86, size: 0x8, addend: 0x0, symName: __ZN8pybind116detail23handle_nested_exceptionISt11range_errorLi0EEEbRKT_RKSt13exception_ptr, symObjAddr: 0xC690, symBinAddr: 0x1A3D0, symSize: 0x90 }
  - { offsetInCU: 0x52FA, offset: 0x3DDE8, size: 0x8, addend: 0x0, symName: __ZN8pybind116detail23handle_nested_exceptionISt12out_of_rangeLi0EEEbRKT_RKSt13exception_ptr, symObjAddr: 0xC720, symBinAddr: 0x1A460, symSize: 0x90 }
  - { offsetInCU: 0x535C, offset: 0x3DE4A, size: 0x8, addend: 0x0, symName: __ZN8pybind116detail23handle_nested_exceptionISt12length_errorLi0EEEbRKT_RKSt13exception_ptr, symObjAddr: 0xC7B0, symBinAddr: 0x1A4F0, symSize: 0x90 }
  - { offsetInCU: 0x53BE, offset: 0x3DEAC, size: 0x8, addend: 0x0, symName: __ZN8pybind116detail23handle_nested_exceptionISt16invalid_argumentLi0EEEbRKT_RKSt13exception_ptr, symObjAddr: 0xC840, symBinAddr: 0x1A580, symSize: 0x90 }
  - { offsetInCU: 0x5420, offset: 0x3DF0E, size: 0x8, addend: 0x0, symName: __ZN8pybind116detail23handle_nested_exceptionISt12domain_errorLi0EEEbRKT_RKSt13exception_ptr, symObjAddr: 0xC8D0, symBinAddr: 0x1A610, symSize: 0x90 }
  - { offsetInCU: 0x5482, offset: 0x3DF70, size: 0x8, addend: 0x0, symName: __ZN8pybind116detail23handle_nested_exceptionISt9bad_allocLi0EEEbRKT_RKSt13exception_ptr, symObjAddr: 0xC960, symBinAddr: 0x1A6A0, symSize: 0x90 }
  - { offsetInCU: 0x54E4, offset: 0x3DFD2, size: 0x8, addend: 0x0, symName: __ZN8pybind116detail23handle_nested_exceptionINS_17error_already_setELi0EEEbRKT_RKSt13exception_ptr, symObjAddr: 0xC9F0, symBinAddr: 0x1A730, symSize: 0x90 }
  - { offsetInCU: 0x5546, offset: 0x3E034, size: 0x8, addend: 0x0, symName: __ZN8pybind116detail11type_increfEP11_typeobject, symObjAddr: 0xCB60, symBinAddr: 0x1A8A0, symSize: 0x20 }
  - { offsetInCU: 0x5572, offset: 0x3E060, size: 0x8, addend: 0x0, symName: __ZN8pybind116detail27get_fully_qualified_tp_nameEP11_typeobject, symObjAddr: 0xD450, symBinAddr: 0x1B190, symSize: 0x30 }
  - { offsetInCU: 0x559E, offset: 0x3E08C, size: 0x8, addend: 0x0, symName: __ZN8pybind116detail13all_type_infoEP11_typeobject, symObjAddr: 0xD5B0, symBinAddr: 0x1B2F0, symSize: 0x60 }
  - { offsetInCU: 0x55D8, offset: 0x3E0C6, size: 0x8, addend: 0x0, symName: __ZN8pybind116detail22all_type_info_populateEP11_typeobjectRNSt3__16vectorIPNS0_9type_infoENS3_9allocatorIS6_EEEE, symObjAddr: 0xD720, symBinAddr: 0x1B460, symSize: 0x620 }
  - { offsetInCU: 0x597B, offset: 0x3E469, size: 0x8, addend: 0x0, symName: __ZN8pybind116detail7cast_opINS_6handleEEENS0_11type_casterINS0_14intrinsic_typeIT_E4typeEvE12cast_op_typeINSt3__120add_rvalue_referenceIS5_E4typeEEEOS8_, symObjAddr: 0x14260, symBinAddr: 0x21130, symSize: 0x20 }
  - { offsetInCU: 0x59B0, offset: 0x3E49E, size: 0x8, addend: 0x0, symName: __ZN8pybind116detail27replace_newlines_and_squashEPKc, symObjAddr: 0x15670, symBinAddr: 0x22540, symSize: 0x220 }
  - { offsetInCU: 0x5A5D, offset: 0x3E54B, size: 0x8, addend: 0x0, symName: __ZN8pybind116detail13get_type_infoERKNSt3__110type_indexEb, symObjAddr: 0x15890, symBinAddr: 0x22760, symSize: 0x150 }
  - { offsetInCU: 0x5ADD, offset: 0x3E5CB, size: 0x8, addend: 0x0, symName: __ZN8pybind116detail19quote_cpp_type_nameERKNSt3__112basic_stringIcNS1_11char_traitsIcEENS1_9allocatorIcEEEE, symObjAddr: 0x15AC0, symBinAddr: 0x22990, symSize: 0x30 }
  - { offsetInCU: 0x5B0B, offset: 0x3E5F9, size: 0x8, addend: 0x0, symName: __ZN8pybind116detail26is_function_record_capsuleERKNS_7capsuleE, symObjAddr: 0x15CF0, symBinAddr: 0x22BC0, symSize: 0x40 }
  - { offsetInCU: 0x5B39, offset: 0x3E627, size: 0x8, addend: 0x0, symName: __ZN8pybind116detail32get_function_record_capsule_nameEv, symObjAddr: 0x188E0, symBinAddr: 0x257B0, symSize: 0x10 }
  - { offsetInCU: 0x5B58, offset: 0x3E646, size: 0x8, addend: 0x0, symName: __ZN8pybind116detail19get_local_type_infoERKNSt3__110type_indexE, symObjAddr: 0x1ABF0, symBinAddr: 0x27AA0, symSize: 0x80 }
  - { offsetInCU: 0x5BA0, offset: 0x3E68E, size: 0x8, addend: 0x0, symName: __ZN8pybind116detail20get_global_type_infoERKNSt3__110type_indexE, symObjAddr: 0x1AC70, symBinAddr: 0x27B20, symSize: 0x80 }
  - { offsetInCU: 0x5BE8, offset: 0x3E6D6, size: 0x8, addend: 0x0, symName: __ZN8pybind116detail13get_type_infoEP11_typeobject, symObjAddr: 0x1F4F0, symBinAddr: 0x2C1C0, symSize: 0x80 }
  - { offsetInCU: 0x5C22, offset: 0x3E710, size: 0x8, addend: 0x0, symName: __ZN8pybind116detail27apply_exception_translatorsERNSt3__112forward_listIPFvSt13exception_ptrENS1_9allocatorIS5_EEEE, symObjAddr: 0x20320, symBinAddr: 0x2CFF0, symSize: 0x180 }
  - { offsetInCU: 0x5CA0, offset: 0x3E78E, size: 0x8, addend: 0x0, symName: __ZN8pybind116detailneERKNS0_16generic_iteratorINS0_17iterator_policies13dict_readonlyEEES6_, symObjAddr: 0x20660, symBinAddr: 0x2D330, symSize: 0x30 }
  - { offsetInCU: 0x5CDD, offset: 0x3E7CB, size: 0x8, addend: 0x0, symName: __ZN8pybind116detail14object_or_castEP7_object, symObjAddr: 0x24AB0, symBinAddr: 0x31780, symSize: 0x30 }
  - { offsetInCU: 0x5D0B, offset: 0x3E7F9, size: 0x8, addend: 0x0, symName: __ZN8pybind116detaileqERKNS0_16generic_iteratorINS0_17iterator_policies13dict_readonlyEEES6_, symObjAddr: 0x29850, symBinAddr: 0x36510, symSize: 0x30 }
  - { offsetInCU: 0x5D48, offset: 0x3E836, size: 0x8, addend: 0x0, symName: __ZN8pybind116detail17collect_argumentsILNS_19return_value_policyE1EJRKNS_6handleEEvEENS0_16simple_collectorIXT_EEEDpOT0_, symObjAddr: 0x29A60, symBinAddr: 0x36720, symSize: 0x30 }
  - { offsetInCU: 0x5D8C, offset: 0x3E87A, size: 0x8, addend: 0x0, symName: __ZN8pybind116detailneERKNS0_16generic_iteratorINS0_17iterator_policies22sequence_fast_readonlyEEES6_, symObjAddr: 0x2B700, symBinAddr: 0x383C0, symSize: 0x30 }
  - { offsetInCU: 0x5DC9, offset: 0x3E8B7, size: 0x8, addend: 0x0, symName: __ZN8pybind116detail41all_type_info_add_base_most_derived_firstERNSt3__16vectorIPNS0_9type_infoENS1_9allocatorIS4_EEEES4_, symObjAddr: 0x2BA80, symBinAddr: 0x38740, symSize: 0xD0 }
  - { offsetInCU: 0x5E37, offset: 0x3E925, size: 0x8, addend: 0x0, symName: __ZN8pybind116detaileqERKNS0_16generic_iteratorINS0_17iterator_policies22sequence_fast_readonlyEEES6_, symObjAddr: 0x2BE10, symBinAddr: 0x38AD0, symSize: 0x30 }
  - { offsetInCU: 0x5E74, offset: 0x3E962, size: 0x8, addend: 0x0, symName: __ZN8pybind116detail17make_new_instanceEP11_typeobject, symObjAddr: 0x32EF0, symBinAddr: 0x3FBB0, symSize: 0x40 }
  - { offsetInCU: 0x5EC0, offset: 0x3E9AE, size: 0x8, addend: 0x0, symName: __ZN8pybind116detail30instance_simple_holder_in_ptrsEv, symObjAddr: 0x33120, symBinAddr: 0x3FDE0, symSize: 0x10 }
  - { offsetInCU: 0x5EDF, offset: 0x3E9CD, size: 0x8, addend: 0x0, symName: __ZN8pybind116detailL12size_in_ptrsEm, symObjAddr: 0x33130, symBinAddr: 0x3FDF0, symSize: 0x40 }
  - { offsetInCU: 0x5F0E, offset: 0x3E9FC, size: 0x8, addend: 0x0, symName: __ZN8pybind116detailL4log2Emi, symObjAddr: 0x33170, symBinAddr: 0x3FE30, symSize: 0x50 }
  - { offsetInCU: 0x5F4C, offset: 0x3EA3A, size: 0x8, addend: 0x0, symName: __ZN8pybind116detail14clear_instanceEP7_object, symObjAddr: 0x331C0, symBinAddr: 0x3FE80, symSize: 0x200 }
  - { offsetInCU: 0x6008, offset: 0x3EAF6, size: 0x8, addend: 0x0, symName: __ZN8pybind116detail19deregister_instanceEPNS0_8instanceEPvPKNS0_9type_infoE, symObjAddr: 0x333C0, symBinAddr: 0x40080, symSize: 0x70 }
  - { offsetInCU: 0x6063, offset: 0x3EB51, size: 0x8, addend: 0x0, symName: __ZN8pybind116detail14clear_patientsEP7_object, symObjAddr: 0x33470, symBinAddr: 0x40130, symSize: 0x1C0 }
  - { offsetInCU: 0x6128, offset: 0x3EC16, size: 0x8, addend: 0x0, symName: __ZN8pybind116detail24deregister_instance_implEPvPNS0_8instanceE, symObjAddr: 0x33630, symBinAddr: 0x402F0, symSize: 0xD0 }
  - { offsetInCU: 0x61A0, offset: 0x3EC8E, size: 0x8, addend: 0x0, symName: __ZN8pybind116detail21traverse_offset_basesEPvPKNS0_9type_infoEPNS0_8instanceEPFbS1_S6_E, symObjAddr: 0x33700, symBinAddr: 0x403C0, symSize: 0x270 }
  - { offsetInCU: 0x62CF, offset: 0x3EDBD, size: 0x8, addend: 0x0, symName: __ZN8pybind116detail14object_or_castIRA29_KcLi0EEENS_6objectEOT_, symObjAddr: 0x36930, symBinAddr: 0x435F0, symSize: 0x60 }
  - { offsetInCU: 0x630C, offset: 0x3EDFA, size: 0x8, addend: 0x0, symName: __ZN8pybind116detail16set_operator_newI11ApplicationEEvz, symObjAddr: 0x36F40, symBinAddr: 0x43C00, symSize: 0x10 }
  - { offsetInCU: 0x632D, offset: 0x3EE1B, size: 0x8, addend: 0x0, symName: __ZN8pybind116detail17register_instanceEPNS0_8instanceEPvPKNS0_9type_infoE, symObjAddr: 0x37A80, symBinAddr: 0x44740, symSize: 0x60 }
  - { offsetInCU: 0x6375, offset: 0x3EE63, size: 0x8, addend: 0x0, symName: __ZN8pybind116detail22register_instance_implEPvPNS0_8instanceE, symObjAddr: 0x37C30, symBinAddr: 0x448F0, symSize: 0x40 }
  - { offsetInCU: 0x63B2, offset: 0x3EEA0, size: 0x8, addend: 0x0, symName: __ZN8pybind116detail20call_operator_deleteEPvmm, symObjAddr: 0x39320, symBinAddr: 0x45FE0, symSize: 0x40 }
  - { offsetInCU: 0x63FA, offset: 0x3EEE8, size: 0x8, addend: 0x0, symName: __ZN8pybind116detail20make_new_python_typeERKNS0_11type_recordE, symObjAddr: 0x39510, symBinAddr: 0x461D0, symSize: 0xF20 }
  - { offsetInCU: 0x64F7, offset: 0x3EFE5, size: 0x8, addend: 0x0, symName: __ZN8pybind116detail17collect_argumentsILNS_19return_value_policyE1EJRKPKcEvEENS0_16simple_collectorIXT_EEEDpOT0_, symObjAddr: 0x3A9F0, symBinAddr: 0x476B0, symSize: 0x30 }
  - { offsetInCU: 0x653B, offset: 0x3F029, size: 0x8, addend: 0x0, symName: __ZN8pybind116detail7cast_opIbEENS0_11type_casterINS0_14intrinsic_typeIT_E4typeEvE12cast_op_typeINSt3__120add_rvalue_referenceIS4_E4typeEEEOS7_, symObjAddr: 0x3B240, symBinAddr: 0x47F00, symSize: 0x20 }
  - { offsetInCU: 0x6570, offset: 0x3F05E, size: 0x8, addend: 0x0, symName: __ZN8pybind116detail9load_typeIbEENS0_11type_casterINS0_14intrinsic_typeIT_E4typeEvEERKNS_6handleE, symObjAddr: 0x3B260, symBinAddr: 0x47F20, symSize: 0x30 }
  - { offsetInCU: 0x6694, offset: 0x3F182, size: 0x8, addend: 0x0, symName: __ZN8pybind116detail9load_typeIbvEERNS0_11type_casterIT_T0_EES6_RKNS_6handleE, symObjAddr: 0x3B2A0, symBinAddr: 0x47F60, symSize: 0x2A0 }
  - { offsetInCU: 0x66E0, offset: 0x3F1CE, size: 0x8, addend: 0x0, symName: __ZN8pybind116detail5c_strIJNSt3__112basic_stringIcNS2_11char_traitsIcEENS2_9allocatorIcEEEEEEEPKcDpOT_, symObjAddr: 0x3B790, symBinAddr: 0x48450, symSize: 0x40 }
  - { offsetInCU: 0x6728, offset: 0x3F216, size: 0x8, addend: 0x0, symName: __ZN8pybind116detail22enable_buffer_protocolEP15_heaptypeobject, symObjAddr: 0x3B910, symBinAddr: 0x485D0, symSize: 0x50 }
  - { offsetInCU: 0x6752, offset: 0x3F240, size: 0x8, addend: 0x0, symName: __ZN8pybind116detail9same_typeERKSt9type_infoS3_, symObjAddr: 0x41DF0, symBinAddr: 0x4EAB0, symSize: 0x80 }
  - { offsetInCU: 0x678C, offset: 0x3F27A, size: 0x8, addend: 0x0, symName: __ZN8pybind116detail16add_class_methodERNS_6objectEPKcRKNS_12cpp_functionE, symObjAddr: 0x43F60, symBinAddr: 0x50C20, symSize: 0x290 }
  - { offsetInCU: 0x6A1D, offset: 0x3F50B, size: 0x8, addend: 0x0, symName: __ZN8pybind116detail7cast_opIRNS0_16value_and_holderEEENS0_11type_casterINS0_14intrinsic_typeIT_E4typeEvE12cast_op_typeINSt3__120add_rvalue_referenceIS6_E4typeEEEOS9_, symObjAddr: 0x44B50, symBinAddr: 0x51810, symSize: 0x20 }
  - { offsetInCU: 0x6B2A, offset: 0x3F618, size: 0x8, addend: 0x0, symName: __ZN8pybind116detail14object_or_castIRKNS_12cpp_functionELi0EEEDTclsr3stdE7forwardIT_Efp_EEOS5_, symObjAddr: 0x45080, symBinAddr: 0x51D40, symSize: 0x10 }
  - { offsetInCU: 0x6B67, offset: 0x3F655, size: 0x8, addend: 0x0, symName: __ZN8pybind116detail17collect_argumentsILNS_19return_value_policyE1EJRA9_KcEvEENS0_16simple_collectorIXT_EEEDpOT0_, symObjAddr: 0x45230, symBinAddr: 0x51EF0, symSize: 0x30 }
  - { offsetInCU: 0x6BAB, offset: 0x3F699, size: 0x8, addend: 0x0, symName: __ZN8pybind116detail14object_or_castINS_4noneELi0EEEDTclsr3stdE7forwardIT_Efp_EEOS3_, symObjAddr: 0x45750, symBinAddr: 0x52410, symSize: 0x10 }
  - { offsetInCU: 0x6CED, offset: 0x3F7DB, size: 0x8, addend: 0x0, symName: __ZN8pybind116detail7cast_opIP11ApplicationEENS0_11type_casterINS0_14intrinsic_typeIT_E4typeEvE12cast_op_typeINSt3__120add_rvalue_referenceIS6_E4typeEEEOS9_, symObjAddr: 0x46410, symBinAddr: 0x530D0, symSize: 0x20 }
  - { offsetInCU: 0x6D22, offset: 0x3F810, size: 0x8, addend: 0x0, symName: __ZN8pybind116detail7cast_opIfEENS0_11type_casterINS0_14intrinsic_typeIT_E4typeEvE12cast_op_typeINSt3__120add_rvalue_referenceIS4_E4typeEEEOS7_, symObjAddr: 0x46430, symBinAddr: 0x530F0, symSize: 0x20 }
  - { offsetInCU: 0x6D8D, offset: 0x3F87B, size: 0x8, addend: 0x0, symName: __ZN8pybind116detail25append_self_arg_if_neededEPNS0_15function_recordE, symObjAddr: 0x46530, symBinAddr: 0x531F0, symSize: 0xA0 }
  - { offsetInCU: 0x6DB7, offset: 0x3F8A5, size: 0x8, addend: 0x0, symName: __ZN8pybind116detail17check_kw_only_argERKNS_3argEPNS0_15function_recordE, symObjAddr: 0x46670, symBinAddr: 0x53330, symSize: 0x70 }
  - { offsetInCU: 0x8D7F, offset: 0x4186D, size: 0x8, addend: 0x0, symName: __ZN8pybind119set_errorERKNS_6handleEPKc, symObjAddr: 0xC60, symBinAddr: 0xF290, symSize: 0x30 }
  - { offsetInCU: 0x8DB8, offset: 0x418A6, size: 0x8, addend: 0x0, symName: __ZN8pybind1110raise_fromERNS_17error_already_setEP7_objectPKc, symObjAddr: 0xCC0, symBinAddr: 0xF2F0, symSize: 0x30 }
  - { offsetInCU: 0x8E00, offset: 0x418EE, size: 0x8, addend: 0x0, symName: __ZN8pybind1113pybind11_failEPKc, symObjAddr: 0xE70, symBinAddr: 0xF4A0, symSize: 0xB0 }
  - { offsetInCU: 0x8E2B, offset: 0x41919, size: 0x8, addend: 0x0, symName: __ZN8pybind1117reinterpret_stealINS_6objectEEET_NS_6handleE, symObjAddr: 0x2210, symBinAddr: 0x107D0, symSize: 0x40 }
  - { offsetInCU: 0x8E62, offset: 0x41950, size: 0x8, addend: 0x0, symName: __ZN8pybind1113pybind11_failERKNSt3__112basic_stringIcNS0_11char_traitsIcEENS0_9allocatorIcEEEE, symObjAddr: 0x2ED0, symBinAddr: 0x113D0, symSize: 0xB0 }
  - { offsetInCU: 0x8E8D, offset: 0x4197B, size: 0x8, addend: 0x0, symName: __ZN8pybind114castINSt3__112basic_stringIcNS1_11char_traitsIcEENS1_9allocatorIcEEEELi0EEET_RKNS_6handleE, symObjAddr: 0x4F70, symBinAddr: 0x12DB0, symSize: 0x80 }
  - { offsetInCU: 0x8FB3, offset: 0x41AA1, size: 0x8, addend: 0x0, symName: __ZN8pybind11L7type_idINSt3__112basic_stringIcNS1_11char_traitsIcEENS1_9allocatorIcEEEEEES7_v, symObjAddr: 0x5560, symBinAddr: 0x133A0, symSize: 0x40 }
  - { offsetInCU: 0x8FDB, offset: 0x41AC9, size: 0x8, addend: 0x0, symName: __ZN8pybind114castINSt3__112basic_stringIcNS1_11char_traitsIcEENS1_9allocatorIcEEEEEENS1_9enable_ifIXaantsr6detail11is_pyobjectIT_EE5valuesr6detail20move_if_unreferencedIS9_EE5valueES9_E4typeEONS_6objectE, symObjAddr: 0x62A0, symBinAddr: 0x14020, symSize: 0x60 }
  - { offsetInCU: 0x9012, offset: 0x41B00, size: 0x8, addend: 0x0, symName: __ZN8pybind114moveINSt3__112basic_stringIcNS1_11char_traitsIcEENS1_9allocatorIcEEEEEENS1_9enable_ifIXntsr6detail10move_neverIT_EE5valueES9_E4typeEONS_6objectE, symObjAddr: 0x6330, symBinAddr: 0x140B0, symSize: 0x340 }
  - { offsetInCU: 0x9059, offset: 0x41B47, size: 0x8, addend: 0x0, symName: __ZN8pybind1118reinterpret_borrowINS_6objectEEET_NS_6handleE, symObjAddr: 0x86A0, symBinAddr: 0x16420, symSize: 0x40 }
  - { offsetInCU: 0x9090, offset: 0x41B7E, size: 0x8, addend: 0x0, symName: __ZN8pybind1110raise_fromEP7_objectPKc, symObjAddr: 0x8760, symBinAddr: 0x164E0, symSize: 0x170 }
  - { offsetInCU: 0x9105, offset: 0x41BF3, size: 0x8, addend: 0x0, symName: __ZN8pybind117setattrENS_6handleEPKcS0_, symObjAddr: 0xCC30, symBinAddr: 0x1A970, symSize: 0xB0 }
  - { offsetInCU: 0x931A, offset: 0x41E08, size: 0x8, addend: 0x0, symName: __ZN8pybind114reprENS_6handleE, symObjAddr: 0x15500, symBinAddr: 0x223D0, symSize: 0xC0 }
  - { offsetInCU: 0x9357, offset: 0x41E45, size: 0x8, addend: 0x0, symName: __ZN8pybind1110isinstanceINS_7capsuleELi0EEEbNS_6handleE, symObjAddr: 0x15C80, symBinAddr: 0x22B50, symSize: 0x30 }
  - { offsetInCU: 0x9394, offset: 0x41E82, size: 0x8, addend: 0x0, symName: __ZN8pybind1118reinterpret_borrowINS_7capsuleEEET_NS_6handleE, symObjAddr: 0x15CB0, symBinAddr: 0x22B80, symSize: 0x40 }
  - { offsetInCU: 0x93CB, offset: 0x41EB9, size: 0x8, addend: 0x0, symName: __ZN8pybind117hasattrENS_6handleEPKc, symObjAddr: 0x18970, symBinAddr: 0x25840, symSize: 0x40 }
  - { offsetInCU: 0x9408, offset: 0x41EF6, size: 0x8, addend: 0x0, symName: __ZN8pybind1117reinterpret_stealINS_3strEEET_NS_6handleE, symObjAddr: 0x1A770, symBinAddr: 0x27620, symSize: 0x40 }
  - { offsetInCU: 0x943F, offset: 0x41F2D, size: 0x8, addend: 0x0, symName: __ZN8pybind117getattrENS_6handleEPKc, symObjAddr: 0x1DEE0, symBinAddr: 0x2ABB0, symSize: 0xC0 }
  - { offsetInCU: 0x948B, offset: 0x41F79, size: 0x8, addend: 0x0, symName: __ZN8pybind1118reinterpret_borrowINS_4dictEEET_NS_6handleE, symObjAddr: 0x1FAE0, symBinAddr: 0x2C7B0, symSize: 0x40 }
  - { offsetInCU: 0x94C2, offset: 0x41FB0, size: 0x8, addend: 0x0, symName: __ZN8pybind1117reinterpret_stealINS_4dictEEET_NS_6handleE, symObjAddr: 0x1FB20, symBinAddr: 0x2C7F0, symSize: 0x40 }
  - { offsetInCU: 0x94F9, offset: 0x41FE7, size: 0x8, addend: 0x0, symName: __ZN8pybind1118reinterpret_borrowINS_5tupleEEET_NS_6handleE, symObjAddr: 0x1FC70, symBinAddr: 0x2C940, symSize: 0x40 }
  - { offsetInCU: 0x9530, offset: 0x4201E, size: 0x8, addend: 0x0, symName: __ZN8pybind1112ssize_t_castIlEElRKT_, symObjAddr: 0x24780, symBinAddr: 0x31450, symSize: 0x20 }
  - { offsetInCU: 0x9567, offset: 0x42055, size: 0x8, addend: 0x0, symName: __ZN8pybind1112ssize_t_castIiEElRKT_, symObjAddr: 0x248B0, symBinAddr: 0x31580, symSize: 0x20 }
  - { offsetInCU: 0x959E, offset: 0x4208C, size: 0x8, addend: 0x0, symName: __ZN8pybind1112ssize_t_castImEElRKT_, symObjAddr: 0x24960, symBinAddr: 0x31630, symSize: 0x20 }
  - { offsetInCU: 0x95D5, offset: 0x420C3, size: 0x8, addend: 0x0, symName: __ZN8pybind1110make_tupleILNS_19return_value_policyE1EJRKNS_6handleEEEENS_5tupleEDpOT0_, symObjAddr: 0x29C20, symBinAddr: 0x368E0, symSize: 0x470 }
  - { offsetInCU: 0x96CC, offset: 0x421BA, size: 0x8, addend: 0x0, symName: __ZN8pybind11L7type_idIRKNS_6handleEEENSt3__112basic_stringIcNS4_11char_traitsIcEENS4_9allocatorIcEEEEv, symObjAddr: 0x2A120, symBinAddr: 0x36DE0, symSize: 0x40 }
  - { offsetInCU: 0x96F4, offset: 0x421E2, size: 0x8, addend: 0x0, symName: __ZN8pybind1137cast_error_unable_to_convert_call_argERKNSt3__112basic_stringIcNS0_11char_traitsIcEENS0_9allocatorIcEEEES8_, symObjAddr: 0x2A160, symBinAddr: 0x36E20, symSize: 0x150 }
  - { offsetInCU: 0x9731, offset: 0x4221F, size: 0x8, addend: 0x0, symName: __ZN8pybind1118reinterpret_borrowINS_7module_EEET_NS_6handleE, symObjAddr: 0x36500, symBinAddr: 0x431C0, symSize: 0x40 }
  - { offsetInCU: 0x9768, offset: 0x42256, size: 0x8, addend: 0x0, symName: __ZN8pybind114initIJEEENS_6detail8initimpl11constructorIJDpT_EEEv, symObjAddr: 0x366E0, symBinAddr: 0x433A0, symSize: 0x10 }
  - { offsetInCU: 0x978C, offset: 0x4227A, size: 0x8, addend: 0x0, symName: __ZN8pybind114castIRA29_KcLi0EEENS_6objectEOT_NS_19return_value_policyENS_6handleE, symObjAddr: 0x36990, symBinAddr: 0x43650, symSize: 0x80 }
  - { offsetInCU: 0x97E7, offset: 0x422D5, size: 0x8, addend: 0x0, symName: __ZN8pybind1110make_tupleILNS_19return_value_policyE1EJRKPKcEEENS_5tupleEDpOT0_, symObjAddr: 0x3AA80, symBinAddr: 0x47740, symSize: 0x450 }
  - { offsetInCU: 0x98DE, offset: 0x423CC, size: 0x8, addend: 0x0, symName: __ZN8pybind11L7type_idIRKPKcEENSt3__112basic_stringIcNS5_11char_traitsIcEENS5_9allocatorIcEEEEv, symObjAddr: 0x3AED0, symBinAddr: 0x47B90, symSize: 0x40 }
  - { offsetInCU: 0x9906, offset: 0x423F4, size: 0x8, addend: 0x0, symName: __ZN8pybind114castIbEENSt3__19enable_ifIXaantsr6detail11is_pyobjectIT_EE5valuesr6detail20move_if_unreferencedIS3_EE5valueES3_E4typeEONS_6objectE, symObjAddr: 0x3AF10, symBinAddr: 0x47BD0, symSize: 0x50 }
  - { offsetInCU: 0x993D, offset: 0x4242B, size: 0x8, addend: 0x0, symName: __ZN8pybind114castIbLi0EEET_RKNS_6handleE, symObjAddr: 0x3AF60, symBinAddr: 0x47C20, symSize: 0x30 }
  - { offsetInCU: 0x9982, offset: 0x42470, size: 0x8, addend: 0x0, symName: __ZN8pybind114moveIbEENSt3__19enable_ifIXntsr6detail10move_neverIT_EE5valueES3_E4typeEONS_6objectE, symObjAddr: 0x3AF90, symBinAddr: 0x47C50, symSize: 0x2B0 }
  - { offsetInCU: 0x99C9, offset: 0x424B7, size: 0x8, addend: 0x0, symName: __ZN8pybind11L7type_idIbEENSt3__112basic_stringIcNS1_11char_traitsIcEENS1_9allocatorIcEEEEv, symObjAddr: 0x3B6D0, symBinAddr: 0x48390, symSize: 0x40 }
  - { offsetInCU: 0x99F1, offset: 0x424DF, size: 0x8, addend: 0x0, symName: __ZN8pybind1114method_adaptorI11ApplicationZNS_6detail8initimpl11constructorIJEE7executeINS_6class_IS1_JEEEJELi0EEEvRT_DpRKT0_EUlRNS2_16value_and_holderEE_EEDTclsr3stdE7forwardIT0_Efp_EEOSI_, symObjAddr: 0x43DE0, symBinAddr: 0x50AA0, symSize: 0x10 }
  - { offsetInCU: 0x9A2D, offset: 0x4251B, size: 0x8, addend: 0x0, symName: __ZN8pybind117getattrENS_6handleEPKcS0_, symObjAddr: 0x43E50, symBinAddr: 0x50B10, symSize: 0x90 }
  - { offsetInCU: 0x9A8F, offset: 0x4257D, size: 0x8, addend: 0x0, symName: __ZN8pybind117setattrENS_6handleES0_S0_, symObjAddr: 0x45090, symBinAddr: 0x51D50, symSize: 0xC0 }
  - { offsetInCU: 0x9AD7, offset: 0x425C5, size: 0x8, addend: 0x0, symName: __ZN8pybind1110make_tupleILNS_19return_value_policyE1EJRA9_KcEEENS_5tupleEDpOT0_, symObjAddr: 0x452C0, symBinAddr: 0x51F80, symSize: 0x450 }
  - { offsetInCU: 0x9BCE, offset: 0x426BC, size: 0x8, addend: 0x0, symName: __ZN8pybind11L7type_idIRA9_KcEENSt3__112basic_stringIcNS4_11char_traitsIcEENS4_9allocatorIcEEEEv, symObjAddr: 0x45710, symBinAddr: 0x523D0, symSize: 0x40 }
  - { offsetInCU: 0x9BF6, offset: 0x426E4, size: 0x8, addend: 0x0, symName: __ZN8pybind1114method_adaptorI11ApplicationvS1_JfEEEMT_FT0_DpT2_EMT1_FS3_S5_E, symObjAddr: 0x45760, symBinAddr: 0x52420, symSize: 0x30 }
  - { offsetInCU: 0x2B446, offset: 0x63F34, size: 0x8, addend: 0x0, symName: __ZNSt3__1L19piecewise_constructE, symObjAddr: 0x4B09B, symBinAddr: 0x57923, symSize: 0x0 }
  - { offsetInCU: 0x2FE0E, offset: 0x688FC, size: 0x8, addend: 0x0, symName: __ZNSt3__16ranges5__cpo9iter_moveE, symObjAddr: 0x4B13C, symBinAddr: 0x579C4, symSize: 0x0 }
  - { offsetInCU: 0x313C7, offset: 0x69EB5, size: 0x8, addend: 0x0, symName: __ZNSt3__16copy_nB7v160006IPKcmPcEENS_9enable_ifIXsr33__is_cpp17_random_access_iteratorIT_EE5valueET1_E4typeES5_T0_S6_, symObjAddr: 0x4810, symBinAddr: 0x12650, symSize: 0x40 }
  - { offsetInCU: 0x339BF, offset: 0x6C4AD, size: 0x8, addend: 0x0, symName: __ZNSt3__114__copy_alignedB7v160006INS_6vectorIbNS_9allocatorIbEEEELb0EEENS_14__bit_iteratorIT_Lb0EXLi0EEEENS5_IS6_XT0_EXLi0EEEES8_S7_, symObjAddr: 0x22E20, symBinAddr: 0x2FAF0, symSize: 0x280 }
  - { offsetInCU: 0x33AEF, offset: 0x6C5DD, size: 0x8, addend: 0x0, symName: __ZNSt3__16copy_nB7v160006IPmmS1_EENS_9enable_ifIXsr33__is_cpp17_random_access_iteratorIT_EE5valueET1_E4typeES3_T0_S4_, symObjAddr: 0x235D0, symBinAddr: 0x302A0, symSize: 0x40 }
  - { offsetInCU: 0x33B96, offset: 0x6C684, size: 0x8, addend: 0x0, symName: __ZNSt3__116__copy_unalignedB7v160006INS_6vectorIbNS_9allocatorIbEEEELb0EEENS_14__bit_iteratorIT_Lb0EXLi0EEEENS5_IS6_XT0_EXLi0EEEES8_S7_, symObjAddr: 0x230A0, symBinAddr: 0x2FD70, symSize: 0x500 }
  - { offsetInCU: 0x33D14, offset: 0x6C802, size: 0x8, addend: 0x0, symName: __ZNSt3__114__copy_alignedB7v160006INS_6vectorIbNS_9allocatorIbEEEELb1EEENS_14__bit_iteratorIT_Lb0EXLi0EEEENS5_IS6_XT0_EXLi0EEEES8_S7_, symObjAddr: 0x24ED0, symBinAddr: 0x31BA0, symSize: 0x260 }
  - { offsetInCU: 0x33E44, offset: 0x6C932, size: 0x8, addend: 0x0, symName: __ZNSt3__16copy_nB7v160006IPKmmPmEENS_9enable_ifIXsr33__is_cpp17_random_access_iteratorIT_EE5valueET1_E4typeES5_T0_S6_, symObjAddr: 0x25640, symBinAddr: 0x32310, symSize: 0x40 }
  - { offsetInCU: 0x33EEB, offset: 0x6C9D9, size: 0x8, addend: 0x0, symName: __ZNSt3__116__copy_unalignedB7v160006INS_6vectorIbNS_9allocatorIbEEEELb1EEENS_14__bit_iteratorIT_Lb0EXLi0EEEENS5_IS6_XT0_EXLi0EEEES8_S7_, symObjAddr: 0x25130, symBinAddr: 0x31E00, symSize: 0x4D0 }
  - { offsetInCU: 0x34069, offset: 0x6CB57, size: 0x8, addend: 0x0, symName: __ZNSt3__113__fill_n_trueB7v160006INS_6vectorIbNS_9allocatorIbEEEEEEvNS_14__bit_iteratorIT_Lb0EXLi0EEEENS6_9size_typeE, symObjAddr: 0x25CA0, symBinAddr: 0x32970, symSize: 0x140 }
  - { offsetInCU: 0x3412F, offset: 0x6CC1D, size: 0x8, addend: 0x0, symName: __ZNSt3__114__fill_n_falseB7v160006INS_6vectorIbNS_9allocatorIbEEEEEEvNS_14__bit_iteratorIT_Lb0EXLi0EEEENS6_9size_typeE, symObjAddr: 0x25DE0, symBinAddr: 0x32AB0, symSize: 0x140 }
  - { offsetInCU: 0x38AB8, offset: 0x715A6, size: 0x8, addend: 0x0, symName: __ZNSt3__17advanceB7v160006IPN8pybind116detail13function_callEllvEEvRT_T0_, symObjAddr: 0x28230, symBinAddr: 0x34F00, symSize: 0x50 }
  - { offsetInCU: 0x38D38, offset: 0x71826, size: 0x8, addend: 0x0, symName: __ZNSt3__17advanceB7v160006INS_16reverse_iteratorIPN8pybind116detail13function_callEEEllvEEvRT_T0_, symObjAddr: 0x28690, symBinAddr: 0x35350, symSize: 0x50 }
  - { offsetInCU: 0x3B21A, offset: 0x73D08, size: 0x8, addend: 0x0, symName: __ZNSt3__17advanceB7v160006IPKPN8pybind116detail9type_infoEmmvEEvRT_T0_, symObjAddr: 0x40560, symBinAddr: 0x4D220, symSize: 0x50 }
  - { offsetInCU: 0x3C64A, offset: 0x75138, size: 0x8, addend: 0x0, symName: __ZNSt3__1plB7v160006IcNS_11char_traitsIcEENS_9allocatorIcEEEENS_12basic_stringIT_T0_T1_EEPKS6_OS9_, symObjAddr: 0xF80, symBinAddr: 0xF5B0, symSize: 0x50 }
  - { offsetInCU: 0x3C6A2, offset: 0x75190, size: 0x8, addend: 0x0, symName: __ZNSt3__115__debug_db_swapB7v160006INS_12basic_stringIcNS_11char_traitsIcEENS_9allocatorIcEEEEEEvPT_S8_, symObjAddr: 0x2160, symBinAddr: 0x10750, symSize: 0x10 }
  - { offsetInCU: 0x3C6E1, offset: 0x751CF, size: 0x8, addend: 0x0, symName: __ZNSt3__1plB7v160006IcNS_11char_traitsIcEENS_9allocatorIcEEEENS_12basic_stringIT_T0_T1_EEOS9_PKS6_, symObjAddr: 0x23A0, symBinAddr: 0x10960, symSize: 0x50 }
  - { offsetInCU: 0x3C739, offset: 0x75227, size: 0x8, addend: 0x0, symName: __ZNSt3__1plB7v160006IcNS_11char_traitsIcEENS_9allocatorIcEEEENS_12basic_stringIT_T0_T1_EEOS9_SA_, symObjAddr: 0x2450, symBinAddr: 0x10A10, symSize: 0x50 }
  - { offsetInCU: 0x3C791, offset: 0x7527F, size: 0x8, addend: 0x0, symName: __ZNSt3__1eqB7v160006IcNS_11char_traitsIcEENS_9allocatorIcEEEEbRKNS_12basic_stringIT_T0_T1_EEPKS6_, symObjAddr: 0x3000, symBinAddr: 0x114D0, symSize: 0x60 }
  - { offsetInCU: 0x3C7E9, offset: 0x752D7, size: 0x8, addend: 0x0, symName: __ZNSt3__1eqB7v160006IcNS_11char_traitsIcEEEEbNS_17basic_string_viewIT_T0_EES6_, symObjAddr: 0x3180, symBinAddr: 0x115A0, symSize: 0x90 }
  - { offsetInCU: 0x3C838, offset: 0x75326, size: 0x8, addend: 0x0, symName: __ZNSt3__128__char_traits_length_checkedB7v160006INS_11char_traitsIcEEEEmPKNT_9char_typeE, symObjAddr: 0x3760, symBinAddr: 0x118B0, symSize: 0x20 }
  - { offsetInCU: 0x3C86D, offset: 0x7535B, size: 0x8, addend: 0x0, symName: __ZNSt3__1plB7v160006IcNS_11char_traitsIcEENS_9allocatorIcEEEENS_12basic_stringIT_T0_T1_EERKS9_PKS6_, symObjAddr: 0x3ED0, symBinAddr: 0x11F00, symSize: 0x100 }
  - { offsetInCU: 0x3C90F, offset: 0x753FD, size: 0x8, addend: 0x0, symName: __ZNSt3__112__to_addressB7v160006IcEEPT_S2_, symObjAddr: 0x4030, symBinAddr: 0x12060, symSize: 0x10 }
  - { offsetInCU: 0x3C944, offset: 0x75432, size: 0x8, addend: 0x0, symName: __ZNSt3__14copyB7v160006IPKcPcEET0_T_S5_S4_, symObjAddr: 0x4850, symBinAddr: 0x12690, symSize: 0x40 }
  - { offsetInCU: 0x3C99E, offset: 0x7548C, size: 0x8, addend: 0x0, symName: __ZNSt3__16__copyB7v160006INS_17_ClassicAlgPolicyEPKcS3_PcEENS_4pairIT0_T2_EES6_T1_S7_, symObjAddr: 0x4890, symBinAddr: 0x126D0, symSize: 0x40 }
  - { offsetInCU: 0x3CA0A, offset: 0x754F8, size: 0x8, addend: 0x0, symName: __ZNSt3__123__dispatch_copy_or_moveB7v160006INS_17_ClassicAlgPolicyENS_11__copy_loopIS1_EENS_14__copy_trivialEPKcS6_PcEENS_4pairIT2_T4_EES9_T3_SA_, symObjAddr: 0x48D0, symBinAddr: 0x12710, symSize: 0x40 }
  - { offsetInCU: 0x3CA88, offset: 0x75576, size: 0x8, addend: 0x0, symName: __ZNSt3__121__unwrap_and_dispatchB7v160006INS_10__overloadINS_11__copy_loopINS_17_ClassicAlgPolicyEEENS_14__copy_trivialEEEPKcS8_PcLi0EEENS_4pairIT0_T2_EESB_T1_SC_, symObjAddr: 0x4910, symBinAddr: 0x12750, symSize: 0xB0 }
  - { offsetInCU: 0x3CB17, offset: 0x75605, size: 0x8, addend: 0x0, symName: __ZNSt3__114__unwrap_rangeB7v160006IPKcS2_EEDaT_T0_, symObjAddr: 0x49C0, symBinAddr: 0x12800, symSize: 0x40 }
  - { offsetInCU: 0x3CD60, offset: 0x7584E, size: 0x8, addend: 0x0, symName: __ZNSt3__113__unwrap_iterB7v160006IPcNS_18__unwrap_iter_implIS1_Lb1EEELi0EEEDTclsrT0_8__unwrapclsr3stdE7declvalIT_EEEES5_, symObjAddr: 0x4A40, symBinAddr: 0x12880, symSize: 0x20 }
  - { offsetInCU: 0x3CDA4, offset: 0x75892, size: 0x8, addend: 0x0, symName: __ZNSt3__19make_pairB7v160006IPKcPcEENS_4pairINS_18__unwrap_ref_decayIT_E4typeENS5_IT0_E4typeEEEOS6_OS9_, symObjAddr: 0x4A60, symBinAddr: 0x128A0, symSize: 0x30 }
  - { offsetInCU: 0x3CDF3, offset: 0x758E1, size: 0x8, addend: 0x0, symName: __ZNSt3__114__rewrap_rangeB7v160006IPKcS2_S2_EET0_S3_T1_, symObjAddr: 0x4A90, symBinAddr: 0x128D0, symSize: 0x30 }
  - { offsetInCU: 0x3CE48, offset: 0x75936, size: 0x8, addend: 0x0, symName: __ZNSt3__113__rewrap_iterB7v160006IPcS1_NS_18__unwrap_iter_implIS1_Lb1EEEEET_S4_T0_, symObjAddr: 0x4AC0, symBinAddr: 0x12900, symSize: 0x40 }
  - { offsetInCU: 0x3CFE8, offset: 0x75AD6, size: 0x8, addend: 0x0, symName: __ZNSt3__113__unwrap_iterB7v160006IPKcNS_18__unwrap_iter_implIS2_Lb1EEELi0EEEDTclsrT0_8__unwrapclsr3stdE7declvalIT_EEEES6_, symObjAddr: 0x4B50, symBinAddr: 0x12990, symSize: 0x20 }
  - { offsetInCU: 0x3D07F, offset: 0x75B6D, size: 0x8, addend: 0x0, symName: __ZNSt3__119__copy_trivial_implB7v160006IKccEENS_4pairIPT_PT0_EES4_S4_S6_, symObjAddr: 0x4BF0, symBinAddr: 0x12A30, symSize: 0x70 }
  - { offsetInCU: 0x3D0E7, offset: 0x75BD5, size: 0x8, addend: 0x0, symName: __ZNSt3__19make_pairB7v160006IRPKcPcEENS_4pairINS_18__unwrap_ref_decayIT_E4typeENS6_IT0_E4typeEEEOS7_OSA_, symObjAddr: 0x4C60, symBinAddr: 0x12AA0, symSize: 0x30 }
  - { offsetInCU: 0x3D189, offset: 0x75C77, size: 0x8, addend: 0x0, symName: __ZNSt3__113__rewrap_iterB7v160006IPKcS2_NS_18__unwrap_iter_implIS2_Lb1EEEEET_S5_T0_, symObjAddr: 0x4DA0, symBinAddr: 0x12BE0, symSize: 0x40 }
  - { offsetInCU: 0x3D1DE, offset: 0x75CCC, size: 0x8, addend: 0x0, symName: __ZNSt3__16fill_nB7v160006IPcmcEET_S2_T0_RKT1_, symObjAddr: 0x4E60, symBinAddr: 0x12CA0, symSize: 0x40 }
  - { offsetInCU: 0x3D241, offset: 0x75D2F, size: 0x8, addend: 0x0, symName: __ZNSt3__18__fill_nB7v160006IPcmcEET_S2_T0_RKT1_, symObjAddr: 0x4EA0, symBinAddr: 0x12CE0, symSize: 0x50 }
  - { offsetInCU: 0x3D2A4, offset: 0x75D92, size: 0x8, addend: 0x0, symName: __ZNSt3__121__convert_to_integralB7v160006Em, symObjAddr: 0x4EF0, symBinAddr: 0x12D30, symSize: 0x10 }
  - { offsetInCU: 0x3DDD1, offset: 0x768BF, size: 0x8, addend: 0x0, symName: __ZNSt3__110__str_findB7v160006IcmNS_11char_traitsIcEELm18446744073709551615EEET0_PKT_S3_S6_S3_S3_, symObjAddr: 0x6AF0, symBinAddr: 0x14870, symSize: 0xB0 }
  - { offsetInCU: 0x3DE78, offset: 0x76966, size: 0x8, addend: 0x0, symName: __ZNSt3__118__search_substringB7v160006IcNS_11char_traitsIcEEEEPKT_S5_S5_S5_S5_, symObjAddr: 0x6BA0, symBinAddr: 0x14920, symSize: 0x120 }
  - { offsetInCU: 0x3DF12, offset: 0x76A00, size: 0x8, addend: 0x0, symName: __ZNSt3__123__constexpr_char_memchrB7v160006EPKcim, symObjAddr: 0x6D30, symBinAddr: 0x14AB0, symSize: 0x30 }
  - { offsetInCU: 0x3E4B8, offset: 0x76FA6, size: 0x8, addend: 0x0, symName: __ZNSt3__112construct_atB7v160006IPFvSt13exception_ptrEJS3_EPS3_EEPT_S6_DpOT0_, symObjAddr: 0x90E0, symBinAddr: 0x16E60, symSize: 0x30 }
  - { offsetInCU: 0x3E55B, offset: 0x77049, size: 0x8, addend: 0x0, symName: __ZNSt3__119__debug_db_insert_cB7v160006INS_13unordered_mapINS_10type_indexEPN8pybind116detail9type_infoENS4_9type_hashENS4_13type_equal_toENS_9allocatorINS_4pairIKS2_S6_EEEEEEEEvPT_, symObjAddr: 0x96A0, symBinAddr: 0x17420, symSize: 0x10 }
  - { offsetInCU: 0x3E58C, offset: 0x7707A, size: 0x8, addend: 0x0, symName: __ZNSt3__119__debug_db_insert_cB7v160006INS_13unordered_mapIP11_typeobjectNS_6vectorIPN8pybind116detail9type_infoENS_9allocatorIS8_EEEENS_4hashIS3_EENS_8equal_toIS3_EENS9_INS_4pairIKS3_SB_EEEEEEEEvPT_, symObjAddr: 0x9C30, symBinAddr: 0x17970, symSize: 0x10 }
  - { offsetInCU: 0x3E5BD, offset: 0x770AB, size: 0x8, addend: 0x0, symName: __ZNSt3__119__debug_db_insert_cB7v160006INS_18unordered_multimapIPKvPN8pybind116detail8instanceENS_4hashIS3_EENS_8equal_toIS3_EENS_9allocatorINS_4pairIKS3_S7_EEEEEEEEvPT_, symObjAddr: 0xA180, symBinAddr: 0x17EC0, symSize: 0x10 }
  - { offsetInCU: 0x3E5EE, offset: 0x770DC, size: 0x8, addend: 0x0, symName: __ZNSt3__119__debug_db_insert_cB7v160006INS_13unordered_setINS_4pairIPK7_objectPKcEEN8pybind116detail13override_hashENS_8equal_toIS8_EENS_9allocatorIS8_EEEEEEvPT_, symObjAddr: 0xA6D0, symBinAddr: 0x18410, symSize: 0x10 }
  - { offsetInCU: 0x3E61F, offset: 0x7710D, size: 0x8, addend: 0x0, symName: __ZNSt3__119__debug_db_insert_cB7v160006INS_13unordered_mapINS_10type_indexENS_6vectorIPFbP7_objectRPvENS_9allocatorIS9_EEEEN8pybind116detail9type_hashENSE_13type_equal_toENSA_INS_4pairIKS2_SC_EEEEEEEEvPT_, symObjAddr: 0xABE0, symBinAddr: 0x18920, symSize: 0x10 }
  - { offsetInCU: 0x3E650, offset: 0x7713E, size: 0x8, addend: 0x0, symName: __ZNSt3__119__debug_db_insert_cB7v160006INS_13unordered_mapIPK7_objectNS_6vectorIPS2_NS_9allocatorIS6_EEEENS_4hashIS4_EENS_8equal_toIS4_EENS7_INS_4pairIKS4_S9_EEEEEEEEvPT_, symObjAddr: 0xB130, symBinAddr: 0x18E70, symSize: 0x10 }
  - { offsetInCU: 0x3E681, offset: 0x7716F, size: 0x8, addend: 0x0, symName: __ZNSt3__119__debug_db_insert_cB7v160006INS_13unordered_mapINS_12basic_stringIcNS_11char_traitsIcEENS_9allocatorIcEEEEPvNS_4hashIS7_EENS_8equal_toIS7_EENS5_INS_4pairIKS7_S8_EEEEEEEEvPT_, symObjAddr: 0xB810, symBinAddr: 0x19550, symSize: 0x10 }
  - { offsetInCU: 0x3E6B2, offset: 0x771A0, size: 0x8, addend: 0x0, symName: __ZNSt3__119__debug_db_insert_cB7v160006INS_6vectorIP7_objectNS_9allocatorIS3_EEEEEEvPT_, symObjAddr: 0xBD90, symBinAddr: 0x19AD0, symSize: 0x10 }
  - { offsetInCU: 0x3E6E3, offset: 0x771D1, size: 0x8, addend: 0x0, symName: __ZNSt3__116forward_as_tupleB7v160006IJRKP11_typeobjectEEENS_5tupleIJDpOT_EEES8_, symObjAddr: 0xE4D0, symBinAddr: 0x1C210, symSize: 0x30 }
  - { offsetInCU: 0x3E71C, offset: 0x7720A, size: 0x8, addend: 0x0, symName: __ZNSt3__17launderB7v160006IKNS_4pairIKP11_typeobjectNS_6vectorIPN8pybind116detail9type_infoENS_9allocatorIS9_EEEEEEEEPT_SG_, symObjAddr: 0xF8C0, symBinAddr: 0x1C880, symSize: 0x20 }
  - { offsetInCU: 0x3E753, offset: 0x77241, size: 0x8, addend: 0x0, symName: __ZNSt3__19__launderB7v160006IKNS_4pairIKP11_typeobjectNS_6vectorIPN8pybind116detail9type_infoENS_9allocatorIS9_EEEEEEEEPT_SG_, symObjAddr: 0xF8E0, symBinAddr: 0x1C8A0, symSize: 0x10 }
  - { offsetInCU: 0x3E800, offset: 0x772EE, size: 0x8, addend: 0x0, symName: __ZNSt3__112construct_atB7v160006INS_4pairIKP11_typeobjectNS_6vectorIPN8pybind116detail9type_infoENS_9allocatorIS9_EEEEEEJRKNS_21piecewise_construct_tENS_5tupleIJRS4_EEENSH_IJEEEEPSD_EEPT_SN_DpOT0_, symObjAddr: 0xFC20, symBinAddr: 0x1CBE0, symSize: 0x50 }
  - { offsetInCU: 0x3E896, offset: 0x77384, size: 0x8, addend: 0x0, symName: __ZNSt3__13getB7v160006ILm0EJRKP11_typeobjectEEERNS_13tuple_elementIXT_ENS_5tupleIJDpT0_EEEE4typeERS9_, symObjAddr: 0xFD20, symBinAddr: 0x1CCE0, symSize: 0x20 }
  - { offsetInCU: 0x3E8D9, offset: 0x773C7, size: 0x8, addend: 0x0, symName: __ZNSt3__119__debug_db_insert_cB7v160006INS_6vectorIPN8pybind116detail9type_infoENS_9allocatorIS5_EEEEEEvPT_, symObjAddr: 0xFE10, symBinAddr: 0x1CDD0, symSize: 0x10 }
  - { offsetInCU: 0x3E90A, offset: 0x773F8, size: 0x8, addend: 0x0, symName: __ZNSt3__17launderB7v160006INS_4pairIKP11_typeobjectNS_6vectorIPN8pybind116detail9type_infoENS_9allocatorIS9_EEEEEEEEPT_SF_, symObjAddr: 0xFEF0, symBinAddr: 0x1CEB0, symSize: 0x20 }
  - { offsetInCU: 0x3E941, offset: 0x7742F, size: 0x8, addend: 0x0, symName: __ZNSt3__19__launderB7v160006INS_4pairIKP11_typeobjectNS_6vectorIPN8pybind116detail9type_infoENS_9allocatorIS9_EEEEEEEEPT_SF_, symObjAddr: 0xFF10, symBinAddr: 0x1CED0, symSize: 0x10 }
  - { offsetInCU: 0x3E978, offset: 0x77466, size: 0x8, addend: 0x0, symName: __ZNSt3__125__debug_db_invalidate_allB7v160006INS_12__hash_tableINS_17__hash_value_typeIP11_typeobjectNS_6vectorIPN8pybind116detail9type_infoENS_9allocatorIS9_EEEEEENS_22__unordered_map_hasherIS4_SD_NS_4hashIS4_EENS_8equal_toIS4_EELb1EEENS_21__unordered_map_equalIS4_SD_SI_SG_Lb1EEENSA_ISD_EEEEEEvPT_, symObjAddr: 0x104A0, symBinAddr: 0x1D3E0, symSize: 0x10 }
  - { offsetInCU: 0x3E9A9, offset: 0x77497, size: 0x8, addend: 0x0, symName: __ZNSt3__110destroy_atB7v160006INS_4pairIKP11_typeobjectNS_6vectorIPN8pybind116detail9type_infoENS_9allocatorIS9_EEEEEELi0EEEvPT_, symObjAddr: 0x109E0, symBinAddr: 0x1D8B0, symSize: 0x20 }
  - { offsetInCU: 0x3E9E0, offset: 0x774CE, size: 0x8, addend: 0x0, symName: __ZNSt3__112__destroy_atB7v160006INS_4pairIKP11_typeobjectNS_6vectorIPN8pybind116detail9type_infoENS_9allocatorIS9_EEEEEELi0EEEvPT_, symObjAddr: 0x10A00, symBinAddr: 0x1D8D0, symSize: 0x20 }
  - { offsetInCU: 0x3EA17, offset: 0x77505, size: 0x8, addend: 0x0, symName: __ZNSt3__118__debug_db_erase_cB7v160006INS_6vectorIPN8pybind116detail9type_infoENS_9allocatorIS5_EEEEEEvPT_, symObjAddr: 0x10C50, symBinAddr: 0x1DB20, symSize: 0x10 }
  - { offsetInCU: 0x3EA48, offset: 0x77536, size: 0x8, addend: 0x0, symName: __ZNSt3__112__to_addressB7v160006IPN8pybind116detail9type_infoEEEPT_S6_, symObjAddr: 0x10D60, symBinAddr: 0x1DC30, symSize: 0x10 }
  - { offsetInCU: 0x3EA7D, offset: 0x7756B, size: 0x8, addend: 0x0, symName: __ZNSt3__110destroy_atB7v160006IPN8pybind116detail9type_infoELi0EEEvPT_, symObjAddr: 0x10E10, symBinAddr: 0x1DCE0, symSize: 0x20 }
  - { offsetInCU: 0x3EAB4, offset: 0x775A2, size: 0x8, addend: 0x0, symName: __ZNSt3__112__destroy_atB7v160006IPN8pybind116detail9type_infoELi0EEEvPT_, symObjAddr: 0x10E30, symBinAddr: 0x1DD00, symSize: 0x10 }
  - { offsetInCU: 0x3EB00, offset: 0x775EE, size: 0x8, addend: 0x0, symName: __ZNSt3__119__debug_db_insert_cB7v160006INS_6vectorIN8pybind116detail15argument_recordENS_9allocatorIS4_EEEEEEvPT_, symObjAddr: 0x138C0, symBinAddr: 0x20790, symSize: 0x10 }
  - { offsetInCU: 0x3EB6B, offset: 0x77659, size: 0x8, addend: 0x0, symName: __ZNSt3__13getB7v160006ILm0EJN8pybind116detail11type_casterINS1_6handleEvEEEEERNS_13tuple_elementIXT_ENS_5tupleIJDpT0_EEEE4typeERSA_, symObjAddr: 0x13F90, symBinAddr: 0x20E60, symSize: 0x20 }
  - { offsetInCU: 0x3EBAE, offset: 0x7769C, size: 0x8, addend: 0x0, symName: __ZNSt3__1neB7v160006ERKNS_21__hash_const_iteratorIPNS_11__hash_nodeINS_4pairIPK7_objectPKcEEPvEEEESE_, symObjAddr: 0x14310, symBinAddr: 0x211E0, symSize: 0x30 }
  - { offsetInCU: 0x3EBEB, offset: 0x776D9, size: 0x8, addend: 0x0, symName: __ZNSt3__1eqB7v160006ERKNS_15__hash_iteratorIPNS_11__hash_nodeINS_17__hash_value_typeIP11_typeobjectNS_6vectorIPN8pybind116detail9type_infoENS_9allocatorIS9_EEEEEEPvEEEESJ_, symObjAddr: 0x145E0, symBinAddr: 0x214B0, symSize: 0x30 }
  - { offsetInCU: 0x3EC28, offset: 0x77716, size: 0x8, addend: 0x0, symName: __ZNSt3__1eqB7v160006ERKNS_21__hash_const_iteratorIPNS_11__hash_nodeINS_4pairIPK7_objectPKcEEPvEEEESE_, symObjAddr: 0x14A50, symBinAddr: 0x21920, symSize: 0x30 }
  - { offsetInCU: 0x3ECE9, offset: 0x777D7, size: 0x8, addend: 0x0, symName: __ZNSt3__110destroy_atB7v160006INS_4pairIPK7_objectPKcEELi0EEEvPT_, symObjAddr: 0x15310, symBinAddr: 0x221E0, symSize: 0x20 }
  - { offsetInCU: 0x3ED20, offset: 0x7780E, size: 0x8, addend: 0x0, symName: __ZNSt3__112__destroy_atB7v160006INS_4pairIPK7_objectPKcEELi0EEEvPT_, symObjAddr: 0x15330, symBinAddr: 0x22200, symSize: 0x10 }
  - { offsetInCU: 0x3ED57, offset: 0x77845, size: 0x8, addend: 0x0, symName: __ZNSt3__1neB7v160006IPN8pybind116detail15argument_recordEEEbRKNS_11__wrap_iterIT_EES9_, symObjAddr: 0x154B0, symBinAddr: 0x22380, symSize: 0x30 }
  - { offsetInCU: 0x3ED9A, offset: 0x77888, size: 0x8, addend: 0x0, symName: __ZNSt3__1plB7v160006IcNS_11char_traitsIcEENS_9allocatorIcEEEENS_12basic_stringIT_T0_T1_EEOS9_RKS9_, symObjAddr: 0x155E0, symBinAddr: 0x224B0, symSize: 0x50 }
  - { offsetInCU: 0x3EDF2, offset: 0x778E0, size: 0x8, addend: 0x0, symName: __ZNSt3__119__debug_db_insert_cB7v160006INS_6vectorIPcNS_9allocatorIS2_EEEEEEvPT_, symObjAddr: 0x18E30, symBinAddr: 0x25D00, symSize: 0x10 }
  - { offsetInCU: 0x3EE23, offset: 0x77911, size: 0x8, addend: 0x0, symName: __ZNSt3__112__to_addressB7v160006IPcEEPT_S3_, symObjAddr: 0x19180, symBinAddr: 0x26050, symSize: 0x10 }
  - { offsetInCU: 0x3EE7D, offset: 0x7796B, size: 0x8, addend: 0x0, symName: __ZNSt3__112construct_atB7v160006IPcJRKS1_EPS1_EEPT_S6_DpOT0_, symObjAddr: 0x191F0, symBinAddr: 0x260C0, symSize: 0x30 }
  - { offsetInCU: 0x3EEED, offset: 0x779DB, size: 0x8, addend: 0x0, symName: __ZNSt3__119__allocate_at_leastB7v160006INS_9allocatorIPcEEEENS_19__allocation_resultINS_16allocator_traitsIT_E7pointerEEERS6_m, symObjAddr: 0x19750, symBinAddr: 0x26600, symSize: 0x40 }
  - { offsetInCU: 0x3EF30, offset: 0x77A1E, size: 0x8, addend: 0x0, symName: __ZNSt3__142__uninitialized_allocator_move_if_noexceptB7v160006INS_9allocatorIPcEENS_16reverse_iteratorIPS2_EES6_S2_vEET1_RT_T0_SA_S7_, symObjAddr: 0x19990, symBinAddr: 0x26840, symSize: 0x70 }
  - { offsetInCU: 0x3EFAD, offset: 0x77A9B, size: 0x8, addend: 0x0, symName: __ZNSt3__14swapB7v160006IPPcEENS_9enable_ifIXaasr21is_move_constructibleIT_EE5valuesr18is_move_assignableIS4_EE5valueEvE4typeERS4_S7_, symObjAddr: 0x19A50, symBinAddr: 0x26900, symSize: 0x40 }
  - { offsetInCU: 0x3EFFE, offset: 0x77AEC, size: 0x8, addend: 0x0, symName: __ZNSt3__125__debug_db_invalidate_allB7v160006INS_6vectorIPcNS_9allocatorIS2_EEEEEEvPT_, symObjAddr: 0x19B40, symBinAddr: 0x269F0, symSize: 0x10 }
  - { offsetInCU: 0x3F02F, offset: 0x77B1D, size: 0x8, addend: 0x0, symName: __ZNSt3__14moveB7v160006INS_16reverse_iteratorIPPcEES4_EET0_T_S6_S5_, symObjAddr: 0x19B90, symBinAddr: 0x26A40, symSize: 0x80 }
  - { offsetInCU: 0x3F089, offset: 0x77B77, size: 0x8, addend: 0x0, symName: __ZNSt3__16__moveB7v160006INS_17_ClassicAlgPolicyENS_16reverse_iteratorIPPcEES5_S5_EENS_4pairIT0_T2_EES7_T1_S8_, symObjAddr: 0x19C10, symBinAddr: 0x26AC0, symSize: 0x90 }
  - { offsetInCU: 0x3F0F5, offset: 0x77BE3, size: 0x8, addend: 0x0, symName: __ZNSt3__123__dispatch_copy_or_moveB7v160006INS_17_ClassicAlgPolicyENS_11__move_loopIS1_EENS_14__move_trivialENS_16reverse_iteratorIPPcEES8_S8_EENS_4pairIT2_T4_EESA_T3_SB_, symObjAddr: 0x19CA0, symBinAddr: 0x26B50, symSize: 0x90 }
  - { offsetInCU: 0x3F173, offset: 0x77C61, size: 0x8, addend: 0x0, symName: __ZNSt3__121__unwrap_and_dispatchB7v160006INS_10__overloadINS_11__move_loopINS_17_ClassicAlgPolicyEEENS_14__move_trivialEEENS_16reverse_iteratorIPPcEESA_SA_Li0EEENS_4pairIT0_T2_EESC_T1_SD_, symObjAddr: 0x19D30, symBinAddr: 0x26BE0, symSize: 0x210 }
  - { offsetInCU: 0x3F202, offset: 0x77CF0, size: 0x8, addend: 0x0, symName: __ZNSt3__114__unwrap_rangeB7v160006INS_16reverse_iteratorIPPcEES4_EEDaT_T0_, symObjAddr: 0x19F40, symBinAddr: 0x26DF0, symSize: 0x60 }
  - { offsetInCU: 0x3F479, offset: 0x77F67, size: 0x8, addend: 0x0, symName: __ZNSt3__113__unwrap_iterB7v160006INS_16reverse_iteratorIPPcEENS_18__unwrap_iter_implIS4_Lb0EEELi0EEEDTclsrT0_8__unwrapclsr3stdE7declvalIT_EEEES8_, symObjAddr: 0x1A040, symBinAddr: 0x26EF0, symSize: 0x40 }
  - { offsetInCU: 0x3F4BD, offset: 0x77FAB, size: 0x8, addend: 0x0, symName: __ZNSt3__19make_pairB7v160006INS_16reverse_iteratorIPPcEES4_EENS_4pairINS_18__unwrap_ref_decayIT_E4typeENS6_IT0_E4typeEEEOS7_OSA_, symObjAddr: 0x1A080, symBinAddr: 0x26F30, symSize: 0x30 }
  - { offsetInCU: 0x3F50C, offset: 0x77FFA, size: 0x8, addend: 0x0, symName: __ZNSt3__114__rewrap_rangeB7v160006INS_16reverse_iteratorIPPcEES4_S4_EET0_S5_T1_, symObjAddr: 0x1A0B0, symBinAddr: 0x26F60, symSize: 0x60 }
  - { offsetInCU: 0x3F561, offset: 0x7804F, size: 0x8, addend: 0x0, symName: __ZNSt3__113__rewrap_iterB7v160006INS_16reverse_iteratorIPPcEES4_NS_18__unwrap_iter_implIS4_Lb0EEEEET_S7_T0_, symObjAddr: 0x1A110, symBinAddr: 0x26FC0, symSize: 0x70 }
  - { offsetInCU: 0x3F606, offset: 0x780F4, size: 0x8, addend: 0x0, symName: __ZNSt3__1neB7v160006IPPcS2_EEbRKNS_16reverse_iteratorIT_EERKNS3_IT0_EE, symObjAddr: 0x1A280, symBinAddr: 0x27130, symSize: 0x40 }
  - { offsetInCU: 0x3F7F3, offset: 0x782E1, size: 0x8, addend: 0x0, symName: __ZNSt3__110destroy_atB7v160006IPcLi0EEEvPT_, symObjAddr: 0x1A5E0, symBinAddr: 0x27490, symSize: 0x20 }
  - { offsetInCU: 0x3F82A, offset: 0x78318, size: 0x8, addend: 0x0, symName: __ZNSt3__112__destroy_atB7v160006IPcLi0EEEvPT_, symObjAddr: 0x1A600, symBinAddr: 0x274B0, symSize: 0x10 }
  - { offsetInCU: 0x3F861, offset: 0x7834F, size: 0x8, addend: 0x0, symName: __ZNSt3__1eqB7v160006IPN8pybind116detail15argument_recordEEEbRKNS_11__wrap_iterIT_EES9_, symObjAddr: 0x1A710, symBinAddr: 0x275C0, symSize: 0x40 }
  - { offsetInCU: 0x3F8A4, offset: 0x78392, size: 0x8, addend: 0x0, symName: __ZNSt3__125__debug_db_invalidate_allB7v160006INS_12basic_stringIcNS_11char_traitsIcEENS_9allocatorIcEEEEEEvPT_, symObjAddr: 0x1AA60, symBinAddr: 0x27910, symSize: 0x10 }
  - { offsetInCU: 0x3F8D5, offset: 0x783C3, size: 0x8, addend: 0x0, symName: __ZNSt3__123__str_find_first_not_ofB7v160006IcmNS_11char_traitsIcEELm18446744073709551615EEET0_PKT_S3_S6_S3_S3_, symObjAddr: 0x1AA70, symBinAddr: 0x27920, symSize: 0xB0 }
  - { offsetInCU: 0x3F9A7, offset: 0x78495, size: 0x8, addend: 0x0, symName: __ZNSt3__122__str_find_last_not_ofB7v160006IcmNS_11char_traitsIcEELm18446744073709551615EEET0_PKT_S3_S6_S3_S3_, symObjAddr: 0x1AB20, symBinAddr: 0x279D0, symSize: 0xB0 }
  - { offsetInCU: 0x3FA5C, offset: 0x7854A, size: 0x8, addend: 0x0, symName: __ZNSt3__1plB7v160006IcNS_11char_traitsIcEENS_9allocatorIcEEEENS_12basic_stringIT_T0_T1_EEOS9_S6_, symObjAddr: 0x1AD10, symBinAddr: 0x27BC0, symSize: 0x50 }
  - { offsetInCU: 0x3FAB4, offset: 0x785A2, size: 0x8, addend: 0x0, symName: __ZNSt3__1neB7v160006ERKNS_19__hash_map_iteratorINS_15__hash_iteratorIPNS_11__hash_nodeINS_17__hash_value_typeINS_10type_indexEPN8pybind116detail9type_infoEEEPvEEEEEESG_, symObjAddr: 0x1AE50, symBinAddr: 0x27D00, symSize: 0x30 }
  - { offsetInCU: 0x3FAF1, offset: 0x785DF, size: 0x8, addend: 0x0, symName: __ZNSt3__116forward_as_tupleB7v160006IJNS_12basic_stringIcNS_11char_traitsIcEENS_9allocatorIcEEEEEEENS_5tupleIJDpOT_EEESA_, symObjAddr: 0x1B730, symBinAddr: 0x285E0, symSize: 0x30 }
  - { offsetInCU: 0x3FB2A, offset: 0x78618, size: 0x8, addend: 0x0, symName: __ZNSt3__17launderB7v160006IKNS_4pairIKNS_12basic_stringIcNS_11char_traitsIcEENS_9allocatorIcEEEEPvEEEEPT_SD_, symObjAddr: 0x1BF20, symBinAddr: 0x28BF0, symSize: 0x20 }
  - { offsetInCU: 0x3FB61, offset: 0x7864F, size: 0x8, addend: 0x0, symName: __ZNSt3__19__launderB7v160006IKNS_4pairIKNS_12basic_stringIcNS_11char_traitsIcEENS_9allocatorIcEEEEPvEEEEPT_SD_, symObjAddr: 0x1BF40, symBinAddr: 0x28C10, symSize: 0x10 }
  - { offsetInCU: 0x3FC0E, offset: 0x786FC, size: 0x8, addend: 0x0, symName: __ZNSt3__112construct_atB7v160006INS_4pairIKNS_12basic_stringIcNS_11char_traitsIcEENS_9allocatorIcEEEEPvEEJRKNS_21piecewise_construct_tENS_5tupleIJOS7_EEENSE_IJEEEEPSA_EEPT_SK_DpOT0_, symObjAddr: 0x1C280, symBinAddr: 0x28F50, symSize: 0x50 }
  - { offsetInCU: 0x3FCA4, offset: 0x78792, size: 0x8, addend: 0x0, symName: __ZNSt3__13getB7v160006ILm0EJONS_12basic_stringIcNS_11char_traitsIcEENS_9allocatorIcEEEEEEERNS_13tuple_elementIXT_ENS_5tupleIJDpT0_EEEE4typeERSC_, symObjAddr: 0x1C390, symBinAddr: 0x29060, symSize: 0x20 }
  - { offsetInCU: 0x3FCE7, offset: 0x787D5, size: 0x8, addend: 0x0, symName: __ZNSt3__125__debug_db_invalidate_allB7v160006INS_12__hash_tableINS_17__hash_value_typeINS_12basic_stringIcNS_11char_traitsIcEENS_9allocatorIcEEEEPvEENS_22__unordered_map_hasherIS8_SA_NS_4hashIS8_EENS_8equal_toIS8_EELb1EEENS_21__unordered_map_equalIS8_SA_SF_SD_Lb1EEENS6_ISA_EEEEEEvPT_, symObjAddr: 0x1C8D0, symBinAddr: 0x295A0, symSize: 0x10 }
  - { offsetInCU: 0x3FD18, offset: 0x78806, size: 0x8, addend: 0x0, symName: __ZNSt3__110destroy_atB7v160006INS_4pairIKNS_12basic_stringIcNS_11char_traitsIcEENS_9allocatorIcEEEEPvEELi0EEEvPT_, symObjAddr: 0x1CDA0, symBinAddr: 0x29A70, symSize: 0x20 }
  - { offsetInCU: 0x3FD4F, offset: 0x7883D, size: 0x8, addend: 0x0, symName: __ZNSt3__112__destroy_atB7v160006INS_4pairIKNS_12basic_stringIcNS_11char_traitsIcEENS_9allocatorIcEEEEPvEELi0EEEvPT_, symObjAddr: 0x1CDC0, symBinAddr: 0x29A90, symSize: 0x20 }
  - { offsetInCU: 0x3FDCE, offset: 0x788BC, size: 0x8, addend: 0x0, symName: __ZNSt3__17launderB7v160006INS_4pairIKNS_12basic_stringIcNS_11char_traitsIcEENS_9allocatorIcEEEEPvEEEEPT_SC_, symObjAddr: 0x1CFB0, symBinAddr: 0x29C80, symSize: 0x20 }
  - { offsetInCU: 0x3FE05, offset: 0x788F3, size: 0x8, addend: 0x0, symName: __ZNSt3__19__launderB7v160006INS_4pairIKNS_12basic_stringIcNS_11char_traitsIcEENS_9allocatorIcEEEEPvEEEEPT_SC_, symObjAddr: 0x1CFD0, symBinAddr: 0x29CA0, symSize: 0x10 }
  - { offsetInCU: 0x3FE3C, offset: 0x7892A, size: 0x8, addend: 0x0, symName: __ZNSt3__110destroy_atB7v160006IPFvSt13exception_ptrELi0EEEvPT_, symObjAddr: 0x1D140, symBinAddr: 0x29E10, symSize: 0x20 }
  - { offsetInCU: 0x3FE73, offset: 0x78961, size: 0x8, addend: 0x0, symName: __ZNSt3__112__destroy_atB7v160006IPFvSt13exception_ptrELi0EEEvPT_, symObjAddr: 0x1D160, symBinAddr: 0x29E30, symSize: 0x10 }
  - { offsetInCU: 0x3FEAA, offset: 0x78998, size: 0x8, addend: 0x0, symName: __ZNSt3__118__debug_db_erase_cB7v160006INS_12__hash_tableINS_17__hash_value_typeINS_10type_indexEPN8pybind116detail9type_infoEEENS_22__unordered_map_hasherIS3_S8_NS5_9type_hashENS5_13type_equal_toELb1EEENS_21__unordered_map_equalIS3_S8_SB_SA_Lb1EEENS_9allocatorIS8_EEEEEEvPT_, symObjAddr: 0x1D2C0, symBinAddr: 0x29F90, symSize: 0x10 }
  - { offsetInCU: 0x3FF0E, offset: 0x789FC, size: 0x8, addend: 0x0, symName: __ZNSt3__110destroy_atB7v160006INS_4pairIKNS_10type_indexEPN8pybind116detail9type_infoEEELi0EEEvPT_, symObjAddr: 0x1D3E0, symBinAddr: 0x2A0B0, symSize: 0x20 }
  - { offsetInCU: 0x3FF45, offset: 0x78A33, size: 0x8, addend: 0x0, symName: __ZNSt3__112__destroy_atB7v160006INS_4pairIKNS_10type_indexEPN8pybind116detail9type_infoEEELi0EEEvPT_, symObjAddr: 0x1D400, symBinAddr: 0x2A0D0, symSize: 0x10 }
  - { offsetInCU: 0x3FF7C, offset: 0x78A6A, size: 0x8, addend: 0x0, symName: __ZNSt3__17launderB7v160006INS_4pairIKNS_10type_indexEPN8pybind116detail9type_infoEEEEEPT_SA_, symObjAddr: 0x1D430, symBinAddr: 0x2A100, symSize: 0x20 }
  - { offsetInCU: 0x3FFB3, offset: 0x78AA1, size: 0x8, addend: 0x0, symName: __ZNSt3__19__launderB7v160006INS_4pairIKNS_10type_indexEPN8pybind116detail9type_infoEEEEEPT_SA_, symObjAddr: 0x1D450, symBinAddr: 0x2A120, symSize: 0x10 }
  - { offsetInCU: 0x3FFEA, offset: 0x78AD8, size: 0x8, addend: 0x0, symName: __ZNSt3__17launderB7v160006IKNS_4pairIKNS_10type_indexEPN8pybind116detail9type_infoEEEEEPT_SB_, symObjAddr: 0x1DC50, symBinAddr: 0x2A920, symSize: 0x20 }
  - { offsetInCU: 0x40021, offset: 0x78B0F, size: 0x8, addend: 0x0, symName: __ZNSt3__19__launderB7v160006IKNS_4pairIKNS_10type_indexEPN8pybind116detail9type_infoEEEEEPT_SB_, symObjAddr: 0x1DC70, symBinAddr: 0x2A940, symSize: 0x10 }
  - { offsetInCU: 0x40058, offset: 0x78B46, size: 0x8, addend: 0x0, symName: __ZNSt3__1neB7v160006ERKNS_15__hash_iteratorIPNS_11__hash_nodeINS_17__hash_value_typeINS_10type_indexEPN8pybind116detail9type_infoEEEPvEEEESE_, symObjAddr: 0x1DCC0, symBinAddr: 0x2A990, symSize: 0x30 }
  - { offsetInCU: 0x40095, offset: 0x78B83, size: 0x8, addend: 0x0, symName: __ZNSt3__1eqB7v160006ERKNS_15__hash_iteratorIPNS_11__hash_nodeINS_17__hash_value_typeINS_10type_indexEPN8pybind116detail9type_infoEEEPvEEEESE_, symObjAddr: 0x1DCF0, symBinAddr: 0x2A9C0, symSize: 0x30 }
  - { offsetInCU: 0x40138, offset: 0x78C26, size: 0x8, addend: 0x0, symName: __ZNSt3__119__allocate_at_leastB7v160006INS_9allocatorIN8pybind116detail15argument_recordEEEEENS_19__allocation_resultINS_16allocator_traitsIT_E7pointerEEERS8_m, symObjAddr: 0x1E320, symBinAddr: 0x2AFF0, symSize: 0x40 }
  - { offsetInCU: 0x4017B, offset: 0x78C69, size: 0x8, addend: 0x0, symName: __ZNSt3__142__uninitialized_allocator_move_if_noexceptB7v160006INS_9allocatorIN8pybind116detail15argument_recordEEENS_16reverse_iteratorIPS4_EES8_S4_vEET1_RT_T0_SC_S9_, symObjAddr: 0x1E590, symBinAddr: 0x2B260, symSize: 0x70 }
  - { offsetInCU: 0x401F8, offset: 0x78CE6, size: 0x8, addend: 0x0, symName: __ZNSt3__14swapB7v160006IPN8pybind116detail15argument_recordEEENS_9enable_ifIXaasr21is_move_constructibleIT_EE5valuesr18is_move_assignableIS6_EE5valueEvE4typeERS6_S9_, symObjAddr: 0x1E650, symBinAddr: 0x2B320, symSize: 0x40 }
  - { offsetInCU: 0x40249, offset: 0x78D37, size: 0x8, addend: 0x0, symName: __ZNSt3__125__debug_db_invalidate_allB7v160006INS_6vectorIN8pybind116detail15argument_recordENS_9allocatorIS4_EEEEEEvPT_, symObjAddr: 0x1E760, symBinAddr: 0x2B430, symSize: 0x10 }
  - { offsetInCU: 0x4027A, offset: 0x78D68, size: 0x8, addend: 0x0, symName: __ZNSt3__112__to_addressB7v160006IN8pybind116detail15argument_recordEEEPT_S5_, symObjAddr: 0x1E7B0, symBinAddr: 0x2B480, symSize: 0x10 }
  - { offsetInCU: 0x402AF, offset: 0x78D9D, size: 0x8, addend: 0x0, symName: __ZNSt3__14moveB7v160006INS_16reverse_iteratorIPN8pybind116detail15argument_recordEEES6_EET0_T_S8_S7_, symObjAddr: 0x1E7C0, symBinAddr: 0x2B490, symSize: 0x80 }
  - { offsetInCU: 0x40309, offset: 0x78DF7, size: 0x8, addend: 0x0, symName: __ZNSt3__16__moveB7v160006INS_17_ClassicAlgPolicyENS_16reverse_iteratorIPN8pybind116detail15argument_recordEEES7_S7_EENS_4pairIT0_T2_EES9_T1_SA_, symObjAddr: 0x1E840, symBinAddr: 0x2B510, symSize: 0x90 }
  - { offsetInCU: 0x40375, offset: 0x78E63, size: 0x8, addend: 0x0, symName: __ZNSt3__123__dispatch_copy_or_moveB7v160006INS_17_ClassicAlgPolicyENS_11__move_loopIS1_EENS_14__move_trivialENS_16reverse_iteratorIPN8pybind116detail15argument_recordEEESA_SA_EENS_4pairIT2_T4_EESC_T3_SD_, symObjAddr: 0x1E8D0, symBinAddr: 0x2B5A0, symSize: 0x90 }
  - { offsetInCU: 0x403F3, offset: 0x78EE1, size: 0x8, addend: 0x0, symName: __ZNSt3__121__unwrap_and_dispatchB7v160006INS_10__overloadINS_11__move_loopINS_17_ClassicAlgPolicyEEENS_14__move_trivialEEENS_16reverse_iteratorIPN8pybind116detail15argument_recordEEESC_SC_Li0EEENS_4pairIT0_T2_EESE_T1_SF_, symObjAddr: 0x1E960, symBinAddr: 0x2B630, symSize: 0x210 }
  - { offsetInCU: 0x40482, offset: 0x78F70, size: 0x8, addend: 0x0, symName: __ZNSt3__114__unwrap_rangeB7v160006INS_16reverse_iteratorIPN8pybind116detail15argument_recordEEES6_EEDaT_T0_, symObjAddr: 0x1EB70, symBinAddr: 0x2B840, symSize: 0x60 }
  - { offsetInCU: 0x405A2, offset: 0x79090, size: 0x8, addend: 0x0, symName: __ZNSt3__113__unwrap_iterB7v160006INS_16reverse_iteratorIPN8pybind116detail15argument_recordEEENS_18__unwrap_iter_implIS6_Lb0EEELi0EEEDTclsrT0_8__unwrapclsr3stdE7declvalIT_EEEESA_, symObjAddr: 0x1EC80, symBinAddr: 0x2B950, symSize: 0x40 }
  - { offsetInCU: 0x405E6, offset: 0x790D4, size: 0x8, addend: 0x0, symName: __ZNSt3__19make_pairB7v160006INS_16reverse_iteratorIPN8pybind116detail15argument_recordEEES6_EENS_4pairINS_18__unwrap_ref_decayIT_E4typeENS8_IT0_E4typeEEEOS9_OSC_, symObjAddr: 0x1ECC0, symBinAddr: 0x2B990, symSize: 0x30 }
  - { offsetInCU: 0x40635, offset: 0x79123, size: 0x8, addend: 0x0, symName: __ZNSt3__114__rewrap_rangeB7v160006INS_16reverse_iteratorIPN8pybind116detail15argument_recordEEES6_S6_EET0_S7_T1_, symObjAddr: 0x1ECF0, symBinAddr: 0x2B9C0, symSize: 0x60 }
  - { offsetInCU: 0x4068A, offset: 0x79178, size: 0x8, addend: 0x0, symName: __ZNSt3__113__rewrap_iterB7v160006INS_16reverse_iteratorIPN8pybind116detail15argument_recordEEES6_NS_18__unwrap_iter_implIS6_Lb0EEEEET_S9_T0_, symObjAddr: 0x1ED50, symBinAddr: 0x2BA20, symSize: 0x70 }
  - { offsetInCU: 0x4072F, offset: 0x7921D, size: 0x8, addend: 0x0, symName: __ZNSt3__1neB7v160006IPN8pybind116detail15argument_recordES4_EEbRKNS_16reverse_iteratorIT_EERKNS5_IT0_EE, symObjAddr: 0x1EEC0, symBinAddr: 0x2BB90, symSize: 0x40 }
  - { offsetInCU: 0x407E7, offset: 0x792D5, size: 0x8, addend: 0x0, symName: __ZNSt3__110destroy_atB7v160006IN8pybind116detail15argument_recordELi0EEEvPT_, symObjAddr: 0x1F240, symBinAddr: 0x2BF10, symSize: 0x20 }
  - { offsetInCU: 0x4081E, offset: 0x7930C, size: 0x8, addend: 0x0, symName: __ZNSt3__112__destroy_atB7v160006IN8pybind116detail15argument_recordELi0EEEvPT_, symObjAddr: 0x1F260, symBinAddr: 0x2BF30, symSize: 0x10 }
  - { offsetInCU: 0x40855, offset: 0x79343, size: 0x8, addend: 0x0, symName: __ZNSt3__1neB7v160006IPN8pybind116detail13function_callEEEbRKNS_11__wrap_iterIT_EES9_, symObjAddr: 0x20290, symBinAddr: 0x2CF60, symSize: 0x30 }
  - { offsetInCU: 0x40898, offset: 0x79386, size: 0x8, addend: 0x0, symName: __ZNSt3__119__debug_db_insert_cB7v160006INS_6vectorIN8pybind116detail13function_callENS_9allocatorIS4_EEEEEEvPT_, symObjAddr: 0x20B30, symBinAddr: 0x2D800, symSize: 0x10 }
  - { offsetInCU: 0x408C9, offset: 0x793B7, size: 0x8, addend: 0x0, symName: __ZNSt3__119__debug_db_insert_cB7v160006INS_6vectorIN8pybind116handleENS_9allocatorIS3_EEEEEEvPT_, symObjAddr: 0x20FD0, symBinAddr: 0x2DCA0, symSize: 0x10 }
  - { offsetInCU: 0x408FA, offset: 0x793E8, size: 0x8, addend: 0x0, symName: __ZNSt3__119__allocate_at_leastB7v160006INS_9allocatorIN8pybind116handleEEEEENS_19__allocation_resultINS_16allocator_traitsIT_E7pointerEEERS7_m, symObjAddr: 0x214E0, symBinAddr: 0x2E1B0, symSize: 0x40 }
  - { offsetInCU: 0x4093D, offset: 0x7942B, size: 0x8, addend: 0x0, symName: __ZNSt3__142__uninitialized_allocator_move_if_noexceptB7v160006INS_9allocatorIN8pybind116handleEEENS_16reverse_iteratorIPS3_EES7_S3_vEET1_RT_T0_SB_S8_, symObjAddr: 0x21730, symBinAddr: 0x2E400, symSize: 0x70 }
  - { offsetInCU: 0x409BA, offset: 0x794A8, size: 0x8, addend: 0x0, symName: __ZNSt3__14swapB7v160006IPN8pybind116handleEEENS_9enable_ifIXaasr21is_move_constructibleIT_EE5valuesr18is_move_assignableIS5_EE5valueEvE4typeERS5_S8_, symObjAddr: 0x217F0, symBinAddr: 0x2E4C0, symSize: 0x40 }
  - { offsetInCU: 0x40A0B, offset: 0x794F9, size: 0x8, addend: 0x0, symName: __ZNSt3__125__debug_db_invalidate_allB7v160006INS_6vectorIN8pybind116handleENS_9allocatorIS3_EEEEEEvPT_, symObjAddr: 0x21900, symBinAddr: 0x2E5D0, symSize: 0x10 }
  - { offsetInCU: 0x40A3C, offset: 0x7952A, size: 0x8, addend: 0x0, symName: __ZNSt3__112__to_addressB7v160006IN8pybind116handleEEEPT_S4_, symObjAddr: 0x21950, symBinAddr: 0x2E620, symSize: 0x10 }
  - { offsetInCU: 0x40A71, offset: 0x7955F, size: 0x8, addend: 0x0, symName: __ZNSt3__14moveB7v160006INS_16reverse_iteratorIPN8pybind116handleEEES5_EET0_T_S7_S6_, symObjAddr: 0x21960, symBinAddr: 0x2E630, symSize: 0x80 }
  - { offsetInCU: 0x40ACB, offset: 0x795B9, size: 0x8, addend: 0x0, symName: __ZNSt3__16__moveB7v160006INS_17_ClassicAlgPolicyENS_16reverse_iteratorIPN8pybind116handleEEES6_S6_EENS_4pairIT0_T2_EES8_T1_S9_, symObjAddr: 0x219E0, symBinAddr: 0x2E6B0, symSize: 0x90 }
  - { offsetInCU: 0x40B37, offset: 0x79625, size: 0x8, addend: 0x0, symName: __ZNSt3__123__dispatch_copy_or_moveB7v160006INS_17_ClassicAlgPolicyENS_11__move_loopIS1_EENS_14__move_trivialENS_16reverse_iteratorIPN8pybind116handleEEES9_S9_EENS_4pairIT2_T4_EESB_T3_SC_, symObjAddr: 0x21A70, symBinAddr: 0x2E740, symSize: 0x90 }
  - { offsetInCU: 0x40BB5, offset: 0x796A3, size: 0x8, addend: 0x0, symName: __ZNSt3__121__unwrap_and_dispatchB7v160006INS_10__overloadINS_11__move_loopINS_17_ClassicAlgPolicyEEENS_14__move_trivialEEENS_16reverse_iteratorIPN8pybind116handleEEESB_SB_Li0EEENS_4pairIT0_T2_EESD_T1_SE_, symObjAddr: 0x21B00, symBinAddr: 0x2E7D0, symSize: 0x210 }
  - { offsetInCU: 0x40C44, offset: 0x79732, size: 0x8, addend: 0x0, symName: __ZNSt3__114__unwrap_rangeB7v160006INS_16reverse_iteratorIPN8pybind116handleEEES5_EEDaT_T0_, symObjAddr: 0x21D10, symBinAddr: 0x2E9E0, symSize: 0x60 }
  - { offsetInCU: 0x40D64, offset: 0x79852, size: 0x8, addend: 0x0, symName: __ZNSt3__113__unwrap_iterB7v160006INS_16reverse_iteratorIPN8pybind116handleEEENS_18__unwrap_iter_implIS5_Lb0EEELi0EEEDTclsrT0_8__unwrapclsr3stdE7declvalIT_EEEES9_, symObjAddr: 0x21E10, symBinAddr: 0x2EAE0, symSize: 0x40 }
  - { offsetInCU: 0x40DA8, offset: 0x79896, size: 0x8, addend: 0x0, symName: __ZNSt3__19make_pairB7v160006INS_16reverse_iteratorIPN8pybind116handleEEES5_EENS_4pairINS_18__unwrap_ref_decayIT_E4typeENS7_IT0_E4typeEEEOS8_OSB_, symObjAddr: 0x21E50, symBinAddr: 0x2EB20, symSize: 0x30 }
  - { offsetInCU: 0x40DF7, offset: 0x798E5, size: 0x8, addend: 0x0, symName: __ZNSt3__114__rewrap_rangeB7v160006INS_16reverse_iteratorIPN8pybind116handleEEES5_S5_EET0_S6_T1_, symObjAddr: 0x21E80, symBinAddr: 0x2EB50, symSize: 0x60 }
  - { offsetInCU: 0x40E4C, offset: 0x7993A, size: 0x8, addend: 0x0, symName: __ZNSt3__113__rewrap_iterB7v160006INS_16reverse_iteratorIPN8pybind116handleEEES5_NS_18__unwrap_iter_implIS5_Lb0EEEEET_S8_T0_, symObjAddr: 0x21EE0, symBinAddr: 0x2EBB0, symSize: 0x70 }
  - { offsetInCU: 0x40EF1, offset: 0x799DF, size: 0x8, addend: 0x0, symName: __ZNSt3__1neB7v160006IPN8pybind116handleES3_EEbRKNS_16reverse_iteratorIT_EERKNS4_IT0_EE, symObjAddr: 0x22050, symBinAddr: 0x2ED20, symSize: 0x40 }
  - { offsetInCU: 0x40FA9, offset: 0x79A97, size: 0x8, addend: 0x0, symName: __ZNSt3__110destroy_atB7v160006IN8pybind116handleELi0EEEvPT_, symObjAddr: 0x223D0, symBinAddr: 0x2F0A0, symSize: 0x20 }
  - { offsetInCU: 0x40FE0, offset: 0x79ACE, size: 0x8, addend: 0x0, symName: __ZNSt3__112__destroy_atB7v160006IN8pybind116handleELi0EEEvPT_, symObjAddr: 0x223F0, symBinAddr: 0x2F0C0, symSize: 0x10 }
  - { offsetInCU: 0x41017, offset: 0x79B05, size: 0x8, addend: 0x0, symName: __ZNSt3__125__debug_db_invalidate_allB7v160006INS_6vectorIbNS_9allocatorIbEEEEEEvPT_, symObjAddr: 0x227E0, symBinAddr: 0x2F4B0, symSize: 0x10 }
  - { offsetInCU: 0x41048, offset: 0x79B36, size: 0x8, addend: 0x0, symName: __ZNSt3__119__allocate_at_leastB7v160006INS_9allocatorImEEEENS_19__allocation_resultINS_16allocator_traitsIT_E7pointerEEERS5_m, symObjAddr: 0x22A70, symBinAddr: 0x2F740, symSize: 0x40 }
  - { offsetInCU: 0x4108B, offset: 0x79B79, size: 0x8, addend: 0x0, symName: __ZNSt3__18distanceB7v160006INS_14__bit_iteratorINS_6vectorIbNS_9allocatorIbEEEELb0ELm0EEEEENS_15iterator_traitsIT_E15difference_typeES8_S8_, symObjAddr: 0x22BB0, symBinAddr: 0x2F880, symSize: 0x50 }
  - { offsetInCU: 0x410D0, offset: 0x79BBE, size: 0x8, addend: 0x0, symName: __ZNSt3__14copyB7v160006INS_6vectorIbNS_9allocatorIbEEEELb0EEENS_14__bit_iteratorIT_Lb0EXLi0EEEENS5_IS6_XT0_EXLi0EEEES8_S7_, symObjAddr: 0x22C30, symBinAddr: 0x2F900, symSize: 0x100 }
  - { offsetInCU: 0x41132, offset: 0x79C20, size: 0x8, addend: 0x0, symName: __ZNSt3__110__distanceB7v160006INS_14__bit_iteratorINS_6vectorIbNS_9allocatorIbEEEELb0ELm0EEEEENS_15iterator_traitsIT_E15difference_typeES8_S8_NS_26random_access_iterator_tagE, symObjAddr: 0x22D80, symBinAddr: 0x2FA50, symSize: 0x30 }
  - { offsetInCU: 0x41181, offset: 0x79C6F, size: 0x8, addend: 0x0, symName: __ZNSt3__1miB7v160006ERKNS_14__bit_iteratorINS_6vectorIbNS_9allocatorIbEEEELb0ELm0EEES7_, symObjAddr: 0x22DB0, symBinAddr: 0x2FA80, symSize: 0x40 }
  - { offsetInCU: 0x411BE, offset: 0x79CAC, size: 0x8, addend: 0x0, symName: __ZNSt3__13minB7v160006IlEERKT_S3_S3_, symObjAddr: 0x235A0, symBinAddr: 0x30270, symSize: 0x30 }
  - { offsetInCU: 0x41201, offset: 0x79CEF, size: 0x8, addend: 0x0, symName: __ZNSt3__112__to_addressB7v160006ImEEPT_S2_, symObjAddr: 0x23610, symBinAddr: 0x302E0, symSize: 0x10 }
  - { offsetInCU: 0x41236, offset: 0x79D24, size: 0x8, addend: 0x0, symName: __ZNSt3__13minB7v160006IlNS_6__lessIllEEEERKT_S5_S5_T0_, symObjAddr: 0x23620, symBinAddr: 0x302F0, symSize: 0x50 }
  - { offsetInCU: 0x412CB, offset: 0x79DB9, size: 0x8, addend: 0x0, symName: __ZNSt3__14copyB7v160006IPmS1_EET0_T_S3_S2_, symObjAddr: 0x236A0, symBinAddr: 0x30370, symSize: 0x40 }
  - { offsetInCU: 0x41325, offset: 0x79E13, size: 0x8, addend: 0x0, symName: __ZNSt3__16__copyB7v160006INS_17_ClassicAlgPolicyEPmS2_S2_EENS_4pairIT0_T2_EES4_T1_S5_, symObjAddr: 0x236E0, symBinAddr: 0x303B0, symSize: 0x40 }
  - { offsetInCU: 0x41391, offset: 0x79E7F, size: 0x8, addend: 0x0, symName: __ZNSt3__123__dispatch_copy_or_moveB7v160006INS_17_ClassicAlgPolicyENS_11__copy_loopIS1_EENS_14__copy_trivialEPmS5_S5_EENS_4pairIT2_T4_EES7_T3_S8_, symObjAddr: 0x23720, symBinAddr: 0x303F0, symSize: 0x40 }
  - { offsetInCU: 0x4140F, offset: 0x79EFD, size: 0x8, addend: 0x0, symName: __ZNSt3__121__unwrap_and_dispatchB7v160006INS_10__overloadINS_11__copy_loopINS_17_ClassicAlgPolicyEEENS_14__copy_trivialEEEPmS7_S7_Li0EEENS_4pairIT0_T2_EES9_T1_SA_, symObjAddr: 0x23760, symBinAddr: 0x30430, symSize: 0xB0 }
  - { offsetInCU: 0x4149E, offset: 0x79F8C, size: 0x8, addend: 0x0, symName: __ZNSt3__114__unwrap_rangeB7v160006IPmS1_EEDaT_T0_, symObjAddr: 0x23810, symBinAddr: 0x304E0, symSize: 0x40 }
  - { offsetInCU: 0x415ED, offset: 0x7A0DB, size: 0x8, addend: 0x0, symName: __ZNSt3__113__unwrap_iterB7v160006IPmNS_18__unwrap_iter_implIS1_Lb1EEELi0EEEDTclsrT0_8__unwrapclsr3stdE7declvalIT_EEEES5_, symObjAddr: 0x23890, symBinAddr: 0x30560, symSize: 0x20 }
  - { offsetInCU: 0x41631, offset: 0x7A11F, size: 0x8, addend: 0x0, symName: __ZNSt3__19make_pairB7v160006IPmS1_EENS_4pairINS_18__unwrap_ref_decayIT_E4typeENS3_IT0_E4typeEEEOS4_OS7_, symObjAddr: 0x238B0, symBinAddr: 0x30580, symSize: 0x30 }
  - { offsetInCU: 0x41680, offset: 0x7A16E, size: 0x8, addend: 0x0, symName: __ZNSt3__114__rewrap_rangeB7v160006IPmS1_S1_EET0_S2_T1_, symObjAddr: 0x238E0, symBinAddr: 0x305B0, symSize: 0x30 }
  - { offsetInCU: 0x416D5, offset: 0x7A1C3, size: 0x8, addend: 0x0, symName: __ZNSt3__113__rewrap_iterB7v160006IPmS1_NS_18__unwrap_iter_implIS1_Lb1EEEEET_S4_T0_, symObjAddr: 0x23910, symBinAddr: 0x305E0, symSize: 0x40 }
  - { offsetInCU: 0x4177A, offset: 0x7A268, size: 0x8, addend: 0x0, symName: __ZNSt3__119__copy_trivial_implB7v160006ImmEENS_4pairIPT_PT0_EES3_S3_S5_, symObjAddr: 0x23A00, symBinAddr: 0x306D0, symSize: 0x70 }
  - { offsetInCU: 0x417E2, offset: 0x7A2D0, size: 0x8, addend: 0x0, symName: __ZNSt3__19make_pairB7v160006IRPmS1_EENS_4pairINS_18__unwrap_ref_decayIT_E4typeENS4_IT0_E4typeEEEOS5_OS8_, symObjAddr: 0x23A70, symBinAddr: 0x30740, symSize: 0x30 }
  - { offsetInCU: 0x41884, offset: 0x7A372, size: 0x8, addend: 0x0, symName: __ZNSt3__118__debug_db_erase_cB7v160006INS_6vectorIN8pybind116handleENS_9allocatorIS3_EEEEEEvPT_, symObjAddr: 0x23D20, symBinAddr: 0x309F0, symSize: 0x10 }
  - { offsetInCU: 0x418DA, offset: 0x7A3C8, size: 0x8, addend: 0x0, symName: __ZNSt3__112construct_atB7v160006IN8pybind116handleEJP7_objectEPS2_EEPT_S7_DpOT0_, symObjAddr: 0x24030, symBinAddr: 0x30D00, symSize: 0x40 }
  - { offsetInCU: 0x4194A, offset: 0x7A438, size: 0x8, addend: 0x0, symName: __ZNSt3__112construct_atB7v160006IN8pybind116handleEJRKS2_EPS2_EEPT_S7_DpOT0_, symObjAddr: 0x24420, symBinAddr: 0x310F0, symSize: 0x30 }
  - { offsetInCU: 0x419BA, offset: 0x7A4A8, size: 0x8, addend: 0x0, symName: __ZNSt3__112construct_atB7v160006IN8pybind116handleEJS2_EPS2_EEPT_S5_DpOT0_, symObjAddr: 0x246A0, symBinAddr: 0x31370, symSize: 0x30 }
  - { offsetInCU: 0x41A2A, offset: 0x7A518, size: 0x8, addend: 0x0, symName: __ZNSt3__14copyB7v160006INS_6vectorIbNS_9allocatorIbEEEELb1EEENS_14__bit_iteratorIT_Lb0EXLi0EEEENS5_IS6_XT0_EXLi0EEEES8_S7_, symObjAddr: 0x24CD0, symBinAddr: 0x319A0, symSize: 0x100 }
  - { offsetInCU: 0x41A8A, offset: 0x7A578, size: 0x8, addend: 0x0, symName: __ZNSt3__16fill_nB7v160006INS_6vectorIbNS_9allocatorIbEEEEEEvNS_14__bit_iteratorIT_Lb0EXLi0EEEENS6_9size_typeEb, symObjAddr: 0x24E30, symBinAddr: 0x31B00, symSize: 0x80 }
  - { offsetInCU: 0x41ADC, offset: 0x7A5CA, size: 0x8, addend: 0x0, symName: __ZNSt3__1miB7v160006ERKNS_14__bit_iteratorINS_6vectorIbNS_9allocatorIbEEEELb1ELm0EEES7_, symObjAddr: 0x25600, symBinAddr: 0x322D0, symSize: 0x40 }
  - { offsetInCU: 0x41B19, offset: 0x7A607, size: 0x8, addend: 0x0, symName: __ZNSt3__112__to_addressB7v160006IKmEEPT_S3_, symObjAddr: 0x25680, symBinAddr: 0x32350, symSize: 0x10 }
  - { offsetInCU: 0x41B4E, offset: 0x7A63C, size: 0x8, addend: 0x0, symName: __ZNSt3__14copyB7v160006IPKmPmEET0_T_S5_S4_, symObjAddr: 0x25690, symBinAddr: 0x32360, symSize: 0x40 }
  - { offsetInCU: 0x41BA8, offset: 0x7A696, size: 0x8, addend: 0x0, symName: __ZNSt3__16__copyB7v160006INS_17_ClassicAlgPolicyEPKmS3_PmEENS_4pairIT0_T2_EES6_T1_S7_, symObjAddr: 0x256D0, symBinAddr: 0x323A0, symSize: 0x40 }
  - { offsetInCU: 0x41C14, offset: 0x7A702, size: 0x8, addend: 0x0, symName: __ZNSt3__123__dispatch_copy_or_moveB7v160006INS_17_ClassicAlgPolicyENS_11__copy_loopIS1_EENS_14__copy_trivialEPKmS6_PmEENS_4pairIT2_T4_EES9_T3_SA_, symObjAddr: 0x25710, symBinAddr: 0x323E0, symSize: 0x40 }
  - { offsetInCU: 0x41C92, offset: 0x7A780, size: 0x8, addend: 0x0, symName: __ZNSt3__121__unwrap_and_dispatchB7v160006INS_10__overloadINS_11__copy_loopINS_17_ClassicAlgPolicyEEENS_14__copy_trivialEEEPKmS8_PmLi0EEENS_4pairIT0_T2_EESB_T1_SC_, symObjAddr: 0x25750, symBinAddr: 0x32420, symSize: 0xB0 }
  - { offsetInCU: 0x41D21, offset: 0x7A80F, size: 0x8, addend: 0x0, symName: __ZNSt3__114__unwrap_rangeB7v160006IPKmS2_EEDaT_T0_, symObjAddr: 0x25800, symBinAddr: 0x324D0, symSize: 0x40 }
  - { offsetInCU: 0x41E70, offset: 0x7A95E, size: 0x8, addend: 0x0, symName: __ZNSt3__19make_pairB7v160006IPKmPmEENS_4pairINS_18__unwrap_ref_decayIT_E4typeENS5_IT0_E4typeEEEOS6_OS9_, symObjAddr: 0x25880, symBinAddr: 0x32550, symSize: 0x30 }
  - { offsetInCU: 0x41EBF, offset: 0x7A9AD, size: 0x8, addend: 0x0, symName: __ZNSt3__114__rewrap_rangeB7v160006IPKmS2_S2_EET0_S3_T1_, symObjAddr: 0x258B0, symBinAddr: 0x32580, symSize: 0x30 }
  - { offsetInCU: 0x42030, offset: 0x7AB1E, size: 0x8, addend: 0x0, symName: __ZNSt3__113__unwrap_iterB7v160006IPKmNS_18__unwrap_iter_implIS2_Lb1EEELi0EEEDTclsrT0_8__unwrapclsr3stdE7declvalIT_EEEES6_, symObjAddr: 0x25930, symBinAddr: 0x32600, symSize: 0x20 }
  - { offsetInCU: 0x420C7, offset: 0x7ABB5, size: 0x8, addend: 0x0, symName: __ZNSt3__119__copy_trivial_implB7v160006IKmmEENS_4pairIPT_PT0_EES4_S4_S6_, symObjAddr: 0x259D0, symBinAddr: 0x326A0, symSize: 0x70 }
  - { offsetInCU: 0x4212F, offset: 0x7AC1D, size: 0x8, addend: 0x0, symName: __ZNSt3__19make_pairB7v160006IRPKmPmEENS_4pairINS_18__unwrap_ref_decayIT_E4typeENS6_IT0_E4typeEEEOS7_OSA_, symObjAddr: 0x25A40, symBinAddr: 0x32710, symSize: 0x30 }
  - { offsetInCU: 0x4217E, offset: 0x7AC6C, size: 0x8, addend: 0x0, symName: __ZNSt3__113__rewrap_iterB7v160006IPKmS2_NS_18__unwrap_iter_implIS2_Lb1EEEEET_S5_T0_, symObjAddr: 0x25B60, symBinAddr: 0x32830, symSize: 0x40 }
  - { offsetInCU: 0x421D3, offset: 0x7ACC1, size: 0x8, addend: 0x0, symName: __ZNSt3__16fill_nB7v160006IPmmmEET_S2_T0_RKT1_, symObjAddr: 0x25F20, symBinAddr: 0x32BF0, symSize: 0x40 }
  - { offsetInCU: 0x42236, offset: 0x7AD24, size: 0x8, addend: 0x0, symName: __ZNSt3__18__fill_nB7v160006IPmmmEET_S2_T0_RKT1_, symObjAddr: 0x25F60, symBinAddr: 0x32C30, symSize: 0x50 }
  - { offsetInCU: 0x42299, offset: 0x7AD87, size: 0x8, addend: 0x0, symName: __ZNSt3__16fill_nB7v160006IPmmiEET_S2_T0_RKT1_, symObjAddr: 0x25FB0, symBinAddr: 0x32C80, symSize: 0x40 }
  - { offsetInCU: 0x422FC, offset: 0x7ADEA, size: 0x8, addend: 0x0, symName: __ZNSt3__18__fill_nB7v160006IPmmiEET_S2_T0_RKT1_, symObjAddr: 0x25FF0, symBinAddr: 0x32CC0, symSize: 0x50 }
  - { offsetInCU: 0x4235F, offset: 0x7AE4D, size: 0x8, addend: 0x0, symName: __ZNSt3__14swapB7v160006IPmEENS_9enable_ifIXaasr21is_move_constructibleIT_EE5valuesr18is_move_assignableIS3_EE5valueEvE4typeERS3_S6_, symObjAddr: 0x26040, symBinAddr: 0x32D10, symSize: 0x40 }
  - { offsetInCU: 0x423B0, offset: 0x7AE9E, size: 0x8, addend: 0x0, symName: __ZNSt3__116__swap_allocatorB7v160006INS_9allocatorImEEEEvRT_S4_NS_17integral_constantIbLb0EEE, symObjAddr: 0x26080, symBinAddr: 0x32D50, symSize: 0x10 }
  - { offsetInCU: 0x423F1, offset: 0x7AEDF, size: 0x8, addend: 0x0, symName: __ZNSt3__119__debug_db_insert_cB7v160006INS_13unordered_setIP7_objectNS_4hashIS3_EENS_8equal_toIS3_EENS_9allocatorIS3_EEEEEEvPT_, symObjAddr: 0x261F0, symBinAddr: 0x32EC0, symSize: 0x10 }
  - { offsetInCU: 0x42422, offset: 0x7AF10, size: 0x8, addend: 0x0, symName: __ZNSt3__118__debug_db_erase_cB7v160006INS_12__hash_tableIP7_objectNS_4hashIS3_EENS_8equal_toIS3_EENS_9allocatorIS3_EEEEEEvPT_, symObjAddr: 0x267F0, symBinAddr: 0x334C0, symSize: 0x10 }
  - { offsetInCU: 0x42486, offset: 0x7AF74, size: 0x8, addend: 0x0, symName: __ZNSt3__110destroy_atB7v160006IP7_objectLi0EEEvPT_, symObjAddr: 0x26900, symBinAddr: 0x335D0, symSize: 0x20 }
  - { offsetInCU: 0x424BD, offset: 0x7AFAB, size: 0x8, addend: 0x0, symName: __ZNSt3__112__destroy_atB7v160006IP7_objectLi0EEEvPT_, symObjAddr: 0x26920, symBinAddr: 0x335F0, symSize: 0x10 }
  - { offsetInCU: 0x424F4, offset: 0x7AFE2, size: 0x8, addend: 0x0, symName: __ZNSt3__1neB7v160006ERKNS_21__hash_const_iteratorIPNS_11__hash_nodeIP7_objectPvEEEES9_, symObjAddr: 0x26D20, symBinAddr: 0x339F0, symSize: 0x30 }
  - { offsetInCU: 0x42531, offset: 0x7B01F, size: 0x8, addend: 0x0, symName: __ZNSt3__1eqB7v160006ERKNS_21__hash_const_iteratorIPNS_11__hash_nodeIP7_objectPvEEEES9_, symObjAddr: 0x26EB0, symBinAddr: 0x33B80, symSize: 0x30 }
  - { offsetInCU: 0x4256E, offset: 0x7B05C, size: 0x8, addend: 0x0, symName: __ZNSt3__112__to_addressB7v160006IN8pybind116detail13function_callEEEPT_S5_, symObjAddr: 0x27110, symBinAddr: 0x33DE0, symSize: 0x10 }
  - { offsetInCU: 0x425C8, offset: 0x7B0B6, size: 0x8, addend: 0x0, symName: __ZNSt3__112construct_atB7v160006IN8pybind116detail13function_callEJS3_EPS3_EEPT_S6_DpOT0_, symObjAddr: 0x27180, symBinAddr: 0x33E50, symSize: 0x40 }
  - { offsetInCU: 0x42638, offset: 0x7B126, size: 0x8, addend: 0x0, symName: __ZNSt3__115__debug_db_swapB7v160006INS_6vectorIN8pybind116handleENS_9allocatorIS3_EEEEEEvPT_S8_, symObjAddr: 0x273F0, symBinAddr: 0x340C0, symSize: 0x10 }
  - { offsetInCU: 0x42677, offset: 0x7B165, size: 0x8, addend: 0x0, symName: __ZNSt3__119__allocate_at_leastB7v160006INS_9allocatorIN8pybind116detail13function_callEEEEENS_19__allocation_resultINS_16allocator_traitsIT_E7pointerEEERS8_m, symObjAddr: 0x279F0, symBinAddr: 0x346C0, symSize: 0x40 }
  - { offsetInCU: 0x426BA, offset: 0x7B1A8, size: 0x8, addend: 0x0, symName: __ZNSt3__142__uninitialized_allocator_move_if_noexceptB7v160006INS_9allocatorIN8pybind116detail13function_callEEENS_16reverse_iteratorIPS4_EES8_S8_EET2_RT_T0_T1_S9_, symObjAddr: 0x27C30, symBinAddr: 0x34900, symSize: 0x180 }
  - { offsetInCU: 0x42759, offset: 0x7B247, size: 0x8, addend: 0x0, symName: __ZNSt3__14swapB7v160006IPN8pybind116detail13function_callEEENS_9enable_ifIXaasr21is_move_constructibleIT_EE5valuesr18is_move_assignableIS6_EE5valueEvE4typeERS6_S9_, symObjAddr: 0x27E00, symBinAddr: 0x34AD0, symSize: 0x40 }
  - { offsetInCU: 0x427AA, offset: 0x7B298, size: 0x8, addend: 0x0, symName: __ZNSt3__125__debug_db_invalidate_allB7v160006INS_6vectorIN8pybind116detail13function_callENS_9allocatorIS4_EEEEEEvPT_, symObjAddr: 0x27EE0, symBinAddr: 0x34BB0, symSize: 0x10 }
  - { offsetInCU: 0x427DB, offset: 0x7B2C9, size: 0x8, addend: 0x0, symName: __ZNSt3__122__make_exception_guardB7v160006INS_29_AllocatorDestroyRangeReverseINS_9allocatorIN8pybind116detail13function_callEEENS_16reverse_iteratorIPS5_EEEEEENS_28__exception_guard_exceptionsIT_EESC_, symObjAddr: 0x27F30, symBinAddr: 0x34C00, symSize: 0x60 }
  - { offsetInCU: 0x42810, offset: 0x7B2FE, size: 0x8, addend: 0x0, symName: __ZNSt3__1neB7v160006IPN8pybind116detail13function_callES4_EEbRKNS_16reverse_iteratorIT_EERKNS5_IT0_EE, symObjAddr: 0x27FD0, symBinAddr: 0x34CA0, symSize: 0x40 }
  - { offsetInCU: 0x4285C, offset: 0x7B34A, size: 0x8, addend: 0x0, symName: __ZNSt3__112__to_addressB7v160006INS_16reverse_iteratorIPN8pybind116detail13function_callEEEvEENS_5decayIDTclsr19__to_address_helperIT_EE6__callclsr3stdE7declvalIRKS8_EEEEE4typeESA_, symObjAddr: 0x28010, symBinAddr: 0x34CE0, symSize: 0x20 }
  - { offsetInCU: 0x428BB, offset: 0x7B3A9, size: 0x8, addend: 0x0, symName: __ZNSt3__14prevB7v160006IPN8pybind116detail13function_callEEENS_9enable_ifIXsr25__is_cpp17_input_iteratorIT_EE5valueES6_E4typeES6_NS_15iterator_traitsIS6_E15difference_typeE, symObjAddr: 0x281E0, symBinAddr: 0x34EB0, symSize: 0x50 }
  - { offsetInCU: 0x428FE, offset: 0x7B3EC, size: 0x8, addend: 0x0, symName: __ZNSt3__19__advanceB7v160006IPN8pybind116detail13function_callEEEvRT_NS_15iterator_traitsIS5_E15difference_typeENS_26random_access_iterator_tagE, symObjAddr: 0x28290, symBinAddr: 0x34F50, symSize: 0x20 }
  - { offsetInCU: 0x42947, offset: 0x7B435, size: 0x8, addend: 0x0, symName: __ZNSt3__119__allocator_destroyB7v160006INS_9allocatorIN8pybind116detail13function_callEEENS_16reverse_iteratorINS6_IPS4_EEEES9_EEvRT_T0_T1_, symObjAddr: 0x283E0, symBinAddr: 0x350A0, symSize: 0x70 }
  - { offsetInCU: 0x429AA, offset: 0x7B498, size: 0x8, addend: 0x0, symName: __ZNSt3__1neB7v160006INS_16reverse_iteratorIPN8pybind116detail13function_callEEES6_EEbRKNS1_IT_EERKNS1_IT0_EE, symObjAddr: 0x28480, symBinAddr: 0x35140, symSize: 0x50 }
  - { offsetInCU: 0x429F6, offset: 0x7B4E4, size: 0x8, addend: 0x0, symName: __ZNSt3__112__to_addressB7v160006INS_16reverse_iteratorINS1_IPN8pybind116detail13function_callEEEEEvEENS_5decayIDTclsr19__to_address_helperIT_EE6__callclsr3stdE7declvalIRKS9_EEEEE4typeESB_, symObjAddr: 0x284F0, symBinAddr: 0x351B0, symSize: 0x20 }
  - { offsetInCU: 0x42A2C, offset: 0x7B51A, size: 0x8, addend: 0x0, symName: __ZNSt3__110destroy_atB7v160006IN8pybind116detail13function_callELi0EEEvPT_, symObjAddr: 0x28560, symBinAddr: 0x35220, symSize: 0x20 }
  - { offsetInCU: 0x42A63, offset: 0x7B551, size: 0x8, addend: 0x0, symName: __ZNSt3__112__destroy_atB7v160006IN8pybind116detail13function_callELi0EEEvPT_, symObjAddr: 0x28580, symBinAddr: 0x35240, symSize: 0x20 }
  - { offsetInCU: 0x42AC3, offset: 0x7B5B1, size: 0x8, addend: 0x0, symName: __ZNSt3__14prevB7v160006INS_16reverse_iteratorIPN8pybind116detail13function_callEEEEENS_9enable_ifIXsr25__is_cpp17_input_iteratorIT_EE5valueES8_E4typeES8_NS_15iterator_traitsIS8_E15difference_typeE, symObjAddr: 0x28630, symBinAddr: 0x352F0, symSize: 0x60 }
  - { offsetInCU: 0x42B06, offset: 0x7B5F4, size: 0x8, addend: 0x0, symName: __ZNSt3__19__advanceB7v160006INS_16reverse_iteratorIPN8pybind116detail13function_callEEEEEvRT_NS_15iterator_traitsIS7_E15difference_typeENS_26random_access_iterator_tagE, symObjAddr: 0x286E0, symBinAddr: 0x353A0, symSize: 0x30 }
  - { offsetInCU: 0x42B4F, offset: 0x7B63D, size: 0x8, addend: 0x0, symName: __ZNSt3__125__debug_db_invalidate_allB7v160006INS_6vectorIbNS_9allocatorIbEEE16__destroy_vectorEEEvPT_, symObjAddr: 0x28B30, symBinAddr: 0x357F0, symSize: 0x10 }
  - { offsetInCU: 0x42B80, offset: 0x7B66E, size: 0x8, addend: 0x0, symName: __ZNSt3__1eqB7v160006IPN8pybind116detail13function_callEEEbRKNS_11__wrap_iterIT_EES9_, symObjAddr: 0x28C50, symBinAddr: 0x35910, symSize: 0x40 }
  - { offsetInCU: 0x42BC3, offset: 0x7B6B1, size: 0x8, addend: 0x0, symName: __ZNSt3__118__debug_db_erase_cB7v160006INS_6vectorIN8pybind116detail13function_callENS_9allocatorIS4_EEEEEEvPT_, symObjAddr: 0x28DD0, symBinAddr: 0x35A90, symSize: 0x10 }
  - { offsetInCU: 0x42BF4, offset: 0x7B6E2, size: 0x8, addend: 0x0, symName: __ZNSt3__1neB7v160006ERKNS_23__forward_list_iteratorIPNS_19__forward_list_nodeIPFvSt13exception_ptrEPvEEEESA_, symObjAddr: 0x28EE0, symBinAddr: 0x35BA0, symSize: 0x30 }
  - { offsetInCU: 0x42C31, offset: 0x7B71F, size: 0x8, addend: 0x0, symName: __ZNSt3__1eqB7v160006ERKNS_23__forward_list_iteratorIPNS_19__forward_list_nodeIPFvSt13exception_ptrEPvEEEESA_, symObjAddr: 0x29040, symBinAddr: 0x35D00, symSize: 0x30 }
  - { offsetInCU: 0x42C6E, offset: 0x7B75C, size: 0x8, addend: 0x0, symName: __ZNSt3__111__str_rfindB7v160006IcmNS_11char_traitsIcEELm18446744073709551615EEET0_PKT_S3_S6_S3_S3_, symObjAddr: 0x29090, symBinAddr: 0x35D50, symSize: 0x100 }
  - { offsetInCU: 0x42D15, offset: 0x7B803, size: 0x8, addend: 0x0, symName: __ZNSt3__118__find_end_classicB7v160006IPKcS2_DoFbccEEET_S4_S4_T0_S5_RT1_, symObjAddr: 0x29190, symBinAddr: 0x35E50, symSize: 0x60 }
  - { offsetInCU: 0x42DA2, offset: 0x7B890, size: 0x8, addend: 0x0, symName: __ZNSt3__115__find_end_implB7v160006INS_17_ClassicAlgPolicyEPKcS3_S3_S3_DoFbccENS_10__identityES5_EENS_4pairIT0_S7_EES7_T1_T2_T3_RT4_RT5_RT6_NS_20forward_iterator_tagESI_, symObjAddr: 0x29220, symBinAddr: 0x35EE0, symSize: 0x1E0 }
  - { offsetInCU: 0x42ECA, offset: 0x7B9B8, size: 0x8, addend: 0x0, symName: __ZNSt3__18__invokeB7v160006IRDoFbccEJRKcS4_EEEDTclclsr3stdE7declvalIT_EEspclsr3stdE7declvalIT0_EEEEOS5_DpOS6_, symObjAddr: 0x29450, symBinAddr: 0x36110, symSize: 0x40 }
  - { offsetInCU: 0x42F2F, offset: 0x7BA1D, size: 0x8, addend: 0x0, symName: __ZNSt3__18__invokeB7v160006IRNS_10__identityEJRKcEEEDTclclsr3stdE7declvalIT_EEspclsr3stdE7declvalIT0_EEEEOS5_DpOS6_, symObjAddr: 0x29490, symBinAddr: 0x36150, symSize: 0x30 }
  - { offsetInCU: 0x43286, offset: 0x7BD74, size: 0x8, addend: 0x0, symName: __ZNSt3__118__debug_db_erase_cB7v160006INS_6vectorIN8pybind116detail15argument_recordENS_9allocatorIS4_EEEEEEvPT_, symObjAddr: 0x2AA30, symBinAddr: 0x376F0, symSize: 0x10 }
  - { offsetInCU: 0x432B7, offset: 0x7BDA5, size: 0x8, addend: 0x0, symName: __ZNSt3__1neB7v160006IPPcEEbRKNS_11__wrap_iterIT_EES7_, symObjAddr: 0x2B160, symBinAddr: 0x37E20, symSize: 0x30 }
  - { offsetInCU: 0x432FA, offset: 0x7BDE8, size: 0x8, addend: 0x0, symName: __ZNSt3__1eqB7v160006IPPcEEbRKNS_11__wrap_iterIT_EES7_, symObjAddr: 0x2B270, symBinAddr: 0x37F30, symSize: 0x40 }
  - { offsetInCU: 0x4333D, offset: 0x7BE2B, size: 0x8, addend: 0x0, symName: __ZNSt3__118__debug_db_erase_cB7v160006INS_6vectorIPcNS_9allocatorIS2_EEEEEEvPT_, symObjAddr: 0x2B3F0, symBinAddr: 0x380B0, symSize: 0x10 }
  - { offsetInCU: 0x4336E, offset: 0x7BE5C, size: 0x8, addend: 0x0, symName: __ZNSt3__1neB7v160006ERKNS_25__hash_map_const_iteratorINS_21__hash_const_iteratorIPNS_11__hash_nodeINS_17__hash_value_typeIP11_typeobjectNS_6vectorIPN8pybind116detail9type_infoENS_9allocatorISA_EEEEEEPvEEEEEESL_, symObjAddr: 0x2B870, symBinAddr: 0x38530, symSize: 0x30 }
  - { offsetInCU: 0x433AB, offset: 0x7BE99, size: 0x8, addend: 0x0, symName: __ZNSt3__1neB7v160006IPKPN8pybind116detail9type_infoEEEbRKNS_11__wrap_iterIT_EESB_, symObjAddr: 0x2B960, symBinAddr: 0x38620, symSize: 0x30 }
  - { offsetInCU: 0x433EE, offset: 0x7BEDC, size: 0x8, addend: 0x0, symName: __ZNSt3__1neB7v160006IPPN8pybind116detail9type_infoEEEbRKNS_11__wrap_iterIT_EESA_, symObjAddr: 0x2BA10, symBinAddr: 0x386D0, symSize: 0x30 }
  - { offsetInCU: 0x43431, offset: 0x7BF1F, size: 0x8, addend: 0x0, symName: __ZNSt3__119__debug_db_insert_cB7v160006INS_6vectorIP11_typeobjectNS_9allocatorIS3_EEEEEEvPT_, symObjAddr: 0x2BC50, symBinAddr: 0x38910, symSize: 0x10 }
  - { offsetInCU: 0x43462, offset: 0x7BF50, size: 0x8, addend: 0x0, symName: __ZNSt3__112__to_addressB7v160006IP11_typeobjectEEPT_S4_, symObjAddr: 0x2C0D0, symBinAddr: 0x38D90, symSize: 0x10 }
  - { offsetInCU: 0x434BC, offset: 0x7BFAA, size: 0x8, addend: 0x0, symName: __ZNSt3__112construct_atB7v160006IP11_typeobjectJS2_EPS2_EEPT_S5_DpOT0_, symObjAddr: 0x2C140, symBinAddr: 0x38E00, symSize: 0x30 }
  - { offsetInCU: 0x4352C, offset: 0x7C01A, size: 0x8, addend: 0x0, symName: __ZNSt3__119__allocate_at_leastB7v160006INS_9allocatorIP11_typeobjectEEEENS_19__allocation_resultINS_16allocator_traitsIT_E7pointerEEERS7_m, symObjAddr: 0x2C660, symBinAddr: 0x39320, symSize: 0x40 }
  - { offsetInCU: 0x4356F, offset: 0x7C05D, size: 0x8, addend: 0x0, symName: __ZNSt3__142__uninitialized_allocator_move_if_noexceptB7v160006INS_9allocatorIP11_typeobjectEENS_16reverse_iteratorIPS3_EES7_S3_vEET1_RT_T0_SB_S8_, symObjAddr: 0x2C8A0, symBinAddr: 0x39560, symSize: 0x70 }
  - { offsetInCU: 0x435EC, offset: 0x7C0DA, size: 0x8, addend: 0x0, symName: __ZNSt3__14swapB7v160006IPP11_typeobjectEENS_9enable_ifIXaasr21is_move_constructibleIT_EE5valuesr18is_move_assignableIS5_EE5valueEvE4typeERS5_S8_, symObjAddr: 0x2C960, symBinAddr: 0x39620, symSize: 0x40 }
  - { offsetInCU: 0x4363D, offset: 0x7C12B, size: 0x8, addend: 0x0, symName: __ZNSt3__125__debug_db_invalidate_allB7v160006INS_6vectorIP11_typeobjectNS_9allocatorIS3_EEEEEEvPT_, symObjAddr: 0x2CA50, symBinAddr: 0x39710, symSize: 0x10 }
  - { offsetInCU: 0x4366E, offset: 0x7C15C, size: 0x8, addend: 0x0, symName: __ZNSt3__14moveB7v160006INS_16reverse_iteratorIPP11_typeobjectEES5_EET0_T_S7_S6_, symObjAddr: 0x2CAA0, symBinAddr: 0x39760, symSize: 0x80 }
  - { offsetInCU: 0x436C8, offset: 0x7C1B6, size: 0x8, addend: 0x0, symName: __ZNSt3__16__moveB7v160006INS_17_ClassicAlgPolicyENS_16reverse_iteratorIPP11_typeobjectEES6_S6_EENS_4pairIT0_T2_EES8_T1_S9_, symObjAddr: 0x2CB20, symBinAddr: 0x397E0, symSize: 0x90 }
  - { offsetInCU: 0x43734, offset: 0x7C222, size: 0x8, addend: 0x0, symName: __ZNSt3__123__dispatch_copy_or_moveB7v160006INS_17_ClassicAlgPolicyENS_11__move_loopIS1_EENS_14__move_trivialENS_16reverse_iteratorIPP11_typeobjectEES9_S9_EENS_4pairIT2_T4_EESB_T3_SC_, symObjAddr: 0x2CBB0, symBinAddr: 0x39870, symSize: 0x90 }
  - { offsetInCU: 0x437B2, offset: 0x7C2A0, size: 0x8, addend: 0x0, symName: __ZNSt3__121__unwrap_and_dispatchB7v160006INS_10__overloadINS_11__move_loopINS_17_ClassicAlgPolicyEEENS_14__move_trivialEEENS_16reverse_iteratorIPP11_typeobjectEESB_SB_Li0EEENS_4pairIT0_T2_EESD_T1_SE_, symObjAddr: 0x2CC40, symBinAddr: 0x39900, symSize: 0x210 }
  - { offsetInCU: 0x43841, offset: 0x7C32F, size: 0x8, addend: 0x0, symName: __ZNSt3__114__unwrap_rangeB7v160006INS_16reverse_iteratorIPP11_typeobjectEES5_EEDaT_T0_, symObjAddr: 0x2CE50, symBinAddr: 0x39B10, symSize: 0x60 }
  - { offsetInCU: 0x43961, offset: 0x7C44F, size: 0x8, addend: 0x0, symName: __ZNSt3__113__unwrap_iterB7v160006INS_16reverse_iteratorIPP11_typeobjectEENS_18__unwrap_iter_implIS5_Lb0EEELi0EEEDTclsrT0_8__unwrapclsr3stdE7declvalIT_EEEES9_, symObjAddr: 0x2CF50, symBinAddr: 0x39C10, symSize: 0x40 }
  - { offsetInCU: 0x439A5, offset: 0x7C493, size: 0x8, addend: 0x0, symName: __ZNSt3__19make_pairB7v160006INS_16reverse_iteratorIPP11_typeobjectEES5_EENS_4pairINS_18__unwrap_ref_decayIT_E4typeENS7_IT0_E4typeEEEOS8_OSB_, symObjAddr: 0x2CF90, symBinAddr: 0x39C50, symSize: 0x30 }
  - { offsetInCU: 0x439F4, offset: 0x7C4E2, size: 0x8, addend: 0x0, symName: __ZNSt3__114__rewrap_rangeB7v160006INS_16reverse_iteratorIPP11_typeobjectEES5_S5_EET0_S6_T1_, symObjAddr: 0x2CFC0, symBinAddr: 0x39C80, symSize: 0x60 }
  - { offsetInCU: 0x43A49, offset: 0x7C537, size: 0x8, addend: 0x0, symName: __ZNSt3__113__rewrap_iterB7v160006INS_16reverse_iteratorIPP11_typeobjectEES5_NS_18__unwrap_iter_implIS5_Lb0EEEEET_S8_T0_, symObjAddr: 0x2D020, symBinAddr: 0x39CE0, symSize: 0x70 }
  - { offsetInCU: 0x43AEE, offset: 0x7C5DC, size: 0x8, addend: 0x0, symName: __ZNSt3__1neB7v160006IPP11_typeobjectS3_EEbRKNS_16reverse_iteratorIT_EERKNS4_IT0_EE, symObjAddr: 0x2D190, symBinAddr: 0x39E50, symSize: 0x40 }
  - { offsetInCU: 0x43BA6, offset: 0x7C694, size: 0x8, addend: 0x0, symName: __ZNSt3__110destroy_atB7v160006IP11_typeobjectLi0EEEvPT_, symObjAddr: 0x2D4F0, symBinAddr: 0x3A1B0, symSize: 0x20 }
  - { offsetInCU: 0x43BDD, offset: 0x7C6CB, size: 0x8, addend: 0x0, symName: __ZNSt3__112__destroy_atB7v160006IP11_typeobjectLi0EEEvPT_, symObjAddr: 0x2D510, symBinAddr: 0x3A1D0, symSize: 0x10 }
  - { offsetInCU: 0x43C14, offset: 0x7C702, size: 0x8, addend: 0x0, symName: __ZNSt3__1neB7v160006ERKNS_21__hash_const_iteratorIPNS_11__hash_nodeINS_17__hash_value_typeIP11_typeobjectNS_6vectorIPN8pybind116detail9type_infoENS_9allocatorIS9_EEEEEEPvEEEESJ_, symObjAddr: 0x2D8C0, symBinAddr: 0x3A580, symSize: 0x30 }
  - { offsetInCU: 0x43C51, offset: 0x7C73F, size: 0x8, addend: 0x0, symName: __ZNSt3__1eqB7v160006ERKNS_21__hash_const_iteratorIPNS_11__hash_nodeINS_17__hash_value_typeIP11_typeobjectNS_6vectorIPN8pybind116detail9type_infoENS_9allocatorIS9_EEEEEEPvEEEESJ_, symObjAddr: 0x2D8F0, symBinAddr: 0x3A5B0, symSize: 0x30 }
  - { offsetInCU: 0x43CF4, offset: 0x7C7E2, size: 0x8, addend: 0x0, symName: __ZNSt3__1eqB7v160006IPKPN8pybind116detail9type_infoEEEbRKNS_11__wrap_iterIT_EESB_, symObjAddr: 0x2D9F0, symBinAddr: 0x3A6B0, symSize: 0x40 }
  - { offsetInCU: 0x43D37, offset: 0x7C825, size: 0x8, addend: 0x0, symName: __ZNSt3__1eqB7v160006IPPN8pybind116detail9type_infoEEEbRKNS_11__wrap_iterIT_EESA_, symObjAddr: 0x2DAD0, symBinAddr: 0x3A790, symSize: 0x40 }
  - { offsetInCU: 0x43D7A, offset: 0x7C868, size: 0x8, addend: 0x0, symName: __ZNSt3__1miB7v160006IPKPN8pybind116detail9type_infoEPS4_EEDTmicldtfp_4baseEcldtfp0_4baseEERKNS_11__wrap_iterIT_EERKNS9_IT0_EE, symObjAddr: 0x2DDF0, symBinAddr: 0x3AAB0, symSize: 0x40 }
  - { offsetInCU: 0x43E1E, offset: 0x7C90C, size: 0x8, addend: 0x0, symName: __ZNSt3__112construct_atB7v160006IPN8pybind116detail9type_infoEJRKS4_EPS4_EEPT_S9_DpOT0_, symObjAddr: 0x2E610, symBinAddr: 0x3B2D0, symSize: 0x30 }
  - { offsetInCU: 0x43E8E, offset: 0x7C97C, size: 0x8, addend: 0x0, symName: __ZNSt3__113move_backwardB7v160006IPPN8pybind116detail9type_infoES5_EET0_T_S7_S6_, symObjAddr: 0x2E690, symBinAddr: 0x3B350, symSize: 0x40 }
  - { offsetInCU: 0x43EE8, offset: 0x7C9D6, size: 0x8, addend: 0x0, symName: __ZNSt3__112construct_atB7v160006IPN8pybind116detail9type_infoEJS4_EPS4_EEPT_S7_DpOT0_, symObjAddr: 0x2E6D0, symBinAddr: 0x3B390, symSize: 0x30 }
  - { offsetInCU: 0x43F58, offset: 0x7CA46, size: 0x8, addend: 0x0, symName: __ZNSt3__115__move_backwardB7v160006INS_17_ClassicAlgPolicyEPPN8pybind116detail9type_infoES6_S6_EENS_4pairIT0_T2_EES8_T1_S9_, symObjAddr: 0x2E700, symBinAddr: 0x3B3C0, symSize: 0x40 }
  - { offsetInCU: 0x43FC4, offset: 0x7CAB2, size: 0x8, addend: 0x0, symName: __ZNSt3__123__dispatch_copy_or_moveB7v160006INS_17_ClassicAlgPolicyENS_20__move_backward_loopIS1_EENS_23__move_backward_trivialEPPN8pybind116detail9type_infoES9_S9_EENS_4pairIT2_T4_EESB_T3_SC_, symObjAddr: 0x2E740, symBinAddr: 0x3B400, symSize: 0x40 }
  - { offsetInCU: 0x44042, offset: 0x7CB30, size: 0x8, addend: 0x0, symName: __ZNSt3__121__unwrap_and_dispatchB7v160006INS_10__overloadINS_20__move_backward_loopINS_17_ClassicAlgPolicyEEENS_23__move_backward_trivialEEEPPN8pybind116detail9type_infoESB_SB_Li0EEENS_4pairIT0_T2_EESD_T1_SE_, symObjAddr: 0x2E780, symBinAddr: 0x3B440, symSize: 0xB0 }
  - { offsetInCU: 0x440D1, offset: 0x7CBBF, size: 0x8, addend: 0x0, symName: __ZNSt3__114__unwrap_rangeB7v160006IPPN8pybind116detail9type_infoES5_EEDaT_T0_, symObjAddr: 0x2E830, symBinAddr: 0x3B4F0, symSize: 0x40 }
  - { offsetInCU: 0x44295, offset: 0x7CD83, size: 0x8, addend: 0x0, symName: __ZNSt3__113__unwrap_iterB7v160006IPPN8pybind116detail9type_infoENS_18__unwrap_iter_implIS5_Lb1EEELi0EEEDTclsrT0_8__unwrapclsr3stdE7declvalIT_EEEES9_, symObjAddr: 0x2E8B0, symBinAddr: 0x3B570, symSize: 0x20 }
  - { offsetInCU: 0x442D9, offset: 0x7CDC7, size: 0x8, addend: 0x0, symName: __ZNSt3__19make_pairB7v160006IPPN8pybind116detail9type_infoES5_EENS_4pairINS_18__unwrap_ref_decayIT_E4typeENS7_IT0_E4typeEEEOS8_OSB_, symObjAddr: 0x2E8D0, symBinAddr: 0x3B590, symSize: 0x30 }
  - { offsetInCU: 0x44328, offset: 0x7CE16, size: 0x8, addend: 0x0, symName: __ZNSt3__114__rewrap_rangeB7v160006IPPN8pybind116detail9type_infoES5_S5_EET0_S6_T1_, symObjAddr: 0x2E900, symBinAddr: 0x3B5C0, symSize: 0x30 }
  - { offsetInCU: 0x4437D, offset: 0x7CE6B, size: 0x8, addend: 0x0, symName: __ZNSt3__113__rewrap_iterB7v160006IPPN8pybind116detail9type_infoES5_NS_18__unwrap_iter_implIS5_Lb1EEEEET_S8_T0_, symObjAddr: 0x2E930, symBinAddr: 0x3B5F0, symSize: 0x40 }
  - { offsetInCU: 0x44422, offset: 0x7CF10, size: 0x8, addend: 0x0, symName: __ZNSt3__128__copy_backward_trivial_implB7v160006IPN8pybind116detail9type_infoES4_EENS_4pairIPT_PT0_EES7_S7_S9_, symObjAddr: 0x2EA20, symBinAddr: 0x3B6E0, symSize: 0x80 }
  - { offsetInCU: 0x4448A, offset: 0x7CF78, size: 0x8, addend: 0x0, symName: __ZNSt3__19make_pairB7v160006IRPPN8pybind116detail9type_infoES6_EENS_4pairINS_18__unwrap_ref_decayIT_E4typeENS8_IT0_E4typeEEEOS9_OSC_, symObjAddr: 0x2EAA0, symBinAddr: 0x3B760, symSize: 0x30 }
  - { offsetInCU: 0x4452C, offset: 0x7D01A, size: 0x8, addend: 0x0, symName: __ZNSt3__119__allocate_at_leastB7v160006INS_9allocatorIPN8pybind116detail9type_infoEEEEENS_19__allocation_resultINS_16allocator_traitsIT_E7pointerEEERS9_m, symObjAddr: 0x2EDC0, symBinAddr: 0x3BA80, symSize: 0x40 }
  - { offsetInCU: 0x4456F, offset: 0x7D05D, size: 0x8, addend: 0x0, symName: __ZNSt3__14moveB7v160006IPPN8pybind116detail9type_infoES5_EET0_T_S7_S6_, symObjAddr: 0x2EF50, symBinAddr: 0x3BC10, symSize: 0x40 }
  - { offsetInCU: 0x445C9, offset: 0x7D0B7, size: 0x8, addend: 0x0, symName: __ZNSt3__14swapB7v160006IPPN8pybind116detail9type_infoEEENS_9enable_ifIXaasr21is_move_constructibleIT_EE5valuesr18is_move_assignableIS7_EE5valueEvE4typeERS7_SA_, symObjAddr: 0x2F0C0, symBinAddr: 0x3BD80, symSize: 0x40 }
  - { offsetInCU: 0x4461A, offset: 0x7D108, size: 0x8, addend: 0x0, symName: __ZNSt3__16__moveB7v160006INS_17_ClassicAlgPolicyEPPN8pybind116detail9type_infoES6_S6_EENS_4pairIT0_T2_EES8_T1_S9_, symObjAddr: 0x2F100, symBinAddr: 0x3BDC0, symSize: 0x40 }
  - { offsetInCU: 0x44686, offset: 0x7D174, size: 0x8, addend: 0x0, symName: __ZNSt3__123__dispatch_copy_or_moveB7v160006INS_17_ClassicAlgPolicyENS_11__move_loopIS1_EENS_14__move_trivialEPPN8pybind116detail9type_infoES9_S9_EENS_4pairIT2_T4_EESB_T3_SC_, symObjAddr: 0x2F140, symBinAddr: 0x3BE00, symSize: 0x40 }
  - { offsetInCU: 0x44704, offset: 0x7D1F2, size: 0x8, addend: 0x0, symName: __ZNSt3__121__unwrap_and_dispatchB7v160006INS_10__overloadINS_11__move_loopINS_17_ClassicAlgPolicyEEENS_14__move_trivialEEEPPN8pybind116detail9type_infoESB_SB_Li0EEENS_4pairIT0_T2_EESD_T1_SE_, symObjAddr: 0x2F180, symBinAddr: 0x3BE40, symSize: 0xB0 }
  - { offsetInCU: 0x447D9, offset: 0x7D2C7, size: 0x8, addend: 0x0, symName: __ZNSt3__119__copy_trivial_implB7v160006IPN8pybind116detail9type_infoES4_EENS_4pairIPT_PT0_EES7_S7_S9_, symObjAddr: 0x2F270, symBinAddr: 0x3BF30, symSize: 0x70 }
  - { offsetInCU: 0x44841, offset: 0x7D32F, size: 0x8, addend: 0x0, symName: __ZNSt3__19make_pairB7v160006IRPPN8pybind116detail9type_infoES5_EENS_4pairINS_18__unwrap_ref_decayIT_E4typeENS8_IT0_E4typeEEEOS9_OSC_, symObjAddr: 0x2F2E0, symBinAddr: 0x3BFA0, symSize: 0x30 }
  - { offsetInCU: 0x44890, offset: 0x7D37E, size: 0x8, addend: 0x0, symName: __ZNSt3__18distanceB7v160006INS_13move_iteratorIPPN8pybind116detail9type_infoEEEEENS_15iterator_traitsIT_E15difference_typeES9_S9_, symObjAddr: 0x2F370, symBinAddr: 0x3C030, symSize: 0x40 }
  - { offsetInCU: 0x448D3, offset: 0x7D3C1, size: 0x8, addend: 0x0, symName: __ZNSt3__110__distanceB7v160006INS_13move_iteratorIPPN8pybind116detail9type_infoEEEEENS_15iterator_traitsIT_E15difference_typeES9_S9_NS_26random_access_iterator_tagE, symObjAddr: 0x2F450, symBinAddr: 0x3C110, symSize: 0x30 }
  - { offsetInCU: 0x44920, offset: 0x7D40E, size: 0x8, addend: 0x0, symName: __ZNSt3__1miB7v160006IPPN8pybind116detail9type_infoES5_EEDTmicldtfp_4baseEcldtfp0_4baseEERKNS_13move_iteratorIT_EERKNS7_IT0_EE, symObjAddr: 0x2F480, symBinAddr: 0x3C140, symSize: 0x40 }
  - { offsetInCU: 0x4496F, offset: 0x7D45D, size: 0x8, addend: 0x0, symName: __ZNSt3__142__uninitialized_allocator_move_if_noexceptB7v160006INS_9allocatorIPN8pybind116detail9type_infoEEENS_16reverse_iteratorIPS5_EES9_S5_vEET1_RT_T0_SD_SA_, symObjAddr: 0x2F570, symBinAddr: 0x3C230, symSize: 0x70 }
  - { offsetInCU: 0x449EC, offset: 0x7D4DA, size: 0x8, addend: 0x0, symName: __ZNSt3__142__uninitialized_allocator_move_if_noexceptB7v160006INS_9allocatorIPN8pybind116detail9type_infoEEEPS5_S7_S5_vEET1_RT_T0_SB_S8_, symObjAddr: 0x2F630, symBinAddr: 0x3C2F0, symSize: 0x30 }
  - { offsetInCU: 0x44A69, offset: 0x7D557, size: 0x8, addend: 0x0, symName: __ZNSt3__125__debug_db_invalidate_allB7v160006INS_6vectorIPN8pybind116detail9type_infoENS_9allocatorIS5_EEEEEEvPT_, symObjAddr: 0x2F710, symBinAddr: 0x3C3D0, symSize: 0x10 }
  - { offsetInCU: 0x44A9A, offset: 0x7D588, size: 0x8, addend: 0x0, symName: __ZNSt3__14moveB7v160006INS_16reverse_iteratorIPPN8pybind116detail9type_infoEEES7_EET0_T_S9_S8_, symObjAddr: 0x2F720, symBinAddr: 0x3C3E0, symSize: 0x80 }
  - { offsetInCU: 0x44AF4, offset: 0x7D5E2, size: 0x8, addend: 0x0, symName: __ZNSt3__16__moveB7v160006INS_17_ClassicAlgPolicyENS_16reverse_iteratorIPPN8pybind116detail9type_infoEEES8_S8_EENS_4pairIT0_T2_EESA_T1_SB_, symObjAddr: 0x2F7A0, symBinAddr: 0x3C460, symSize: 0x90 }
  - { offsetInCU: 0x44B60, offset: 0x7D64E, size: 0x8, addend: 0x0, symName: __ZNSt3__123__dispatch_copy_or_moveB7v160006INS_17_ClassicAlgPolicyENS_11__move_loopIS1_EENS_14__move_trivialENS_16reverse_iteratorIPPN8pybind116detail9type_infoEEESB_SB_EENS_4pairIT2_T4_EESD_T3_SE_, symObjAddr: 0x2F830, symBinAddr: 0x3C4F0, symSize: 0x90 }
  - { offsetInCU: 0x44BDE, offset: 0x7D6CC, size: 0x8, addend: 0x0, symName: __ZNSt3__121__unwrap_and_dispatchB7v160006INS_10__overloadINS_11__move_loopINS_17_ClassicAlgPolicyEEENS_14__move_trivialEEENS_16reverse_iteratorIPPN8pybind116detail9type_infoEEESD_SD_Li0EEENS_4pairIT0_T2_EESF_T1_SG_, symObjAddr: 0x2F8C0, symBinAddr: 0x3C580, symSize: 0x210 }
  - { offsetInCU: 0x44C6D, offset: 0x7D75B, size: 0x8, addend: 0x0, symName: __ZNSt3__114__unwrap_rangeB7v160006INS_16reverse_iteratorIPPN8pybind116detail9type_infoEEES7_EEDaT_T0_, symObjAddr: 0x2FAD0, symBinAddr: 0x3C790, symSize: 0x60 }
  - { offsetInCU: 0x44D8D, offset: 0x7D87B, size: 0x8, addend: 0x0, symName: __ZNSt3__113__unwrap_iterB7v160006INS_16reverse_iteratorIPPN8pybind116detail9type_infoEEENS_18__unwrap_iter_implIS7_Lb0EEELi0EEEDTclsrT0_8__unwrapclsr3stdE7declvalIT_EEEESB_, symObjAddr: 0x2FBD0, symBinAddr: 0x3C890, symSize: 0x40 }
  - { offsetInCU: 0x44DD1, offset: 0x7D8BF, size: 0x8, addend: 0x0, symName: __ZNSt3__19make_pairB7v160006INS_16reverse_iteratorIPPN8pybind116detail9type_infoEEES7_EENS_4pairINS_18__unwrap_ref_decayIT_E4typeENS9_IT0_E4typeEEEOSA_OSD_, symObjAddr: 0x2FC10, symBinAddr: 0x3C8D0, symSize: 0x30 }
  - { offsetInCU: 0x44E20, offset: 0x7D90E, size: 0x8, addend: 0x0, symName: __ZNSt3__114__rewrap_rangeB7v160006INS_16reverse_iteratorIPPN8pybind116detail9type_infoEEES7_S7_EET0_S8_T1_, symObjAddr: 0x2FC40, symBinAddr: 0x3C900, symSize: 0x60 }
  - { offsetInCU: 0x44E75, offset: 0x7D963, size: 0x8, addend: 0x0, symName: __ZNSt3__113__rewrap_iterB7v160006INS_16reverse_iteratorIPPN8pybind116detail9type_infoEEES7_NS_18__unwrap_iter_implIS7_Lb0EEEEET_SA_T0_, symObjAddr: 0x2FCA0, symBinAddr: 0x3C960, symSize: 0x70 }
  - { offsetInCU: 0x44F1A, offset: 0x7DA08, size: 0x8, addend: 0x0, symName: __ZNSt3__1neB7v160006IPPN8pybind116detail9type_infoES5_EEbRKNS_16reverse_iteratorIT_EERKNS6_IT0_EE, symObjAddr: 0x2FE10, symBinAddr: 0x3CAD0, symSize: 0x40 }
  - { offsetInCU: 0x44FD2, offset: 0x7DAC0, size: 0x8, addend: 0x0, symName: __ZNSt3__118__debug_db_erase_cB7v160006INS_6vectorIP11_typeobjectNS_9allocatorIS3_EEEEEEvPT_, symObjAddr: 0x30650, symBinAddr: 0x3D310, symSize: 0x10 }
  - { offsetInCU: 0x45069, offset: 0x7DB57, size: 0x8, addend: 0x0, symName: __ZNSt3__1neB7v160006ERKNS_19__hash_map_iteratorINS_15__hash_iteratorIPNS_11__hash_nodeINS_17__hash_value_typeIP11_typeobjectNS_6vectorIPN8pybind116detail9type_infoENS_9allocatorISA_EEEEEEPvEEEEEESL_, symObjAddr: 0x30920, symBinAddr: 0x3D5E0, symSize: 0x30 }
  - { offsetInCU: 0x450A6, offset: 0x7DB94, size: 0x8, addend: 0x0, symName: __ZNSt3__1neB7v160006ERKNS_15__hash_iteratorIPNS_11__hash_nodeINS_17__hash_value_typeIP11_typeobjectNS_6vectorIPN8pybind116detail9type_infoENS_9allocatorIS9_EEEEEEPvEEEESJ_, symObjAddr: 0x30A20, symBinAddr: 0x3D6E0, symSize: 0x30 }
  - { offsetInCU: 0x450E3, offset: 0x7DBD1, size: 0x8, addend: 0x0, symName: __ZNSt3__1eqB7v160006ERKNS_15__hash_iteratorIPNS_11__hash_nodeINS_17__hash_value_typeINS_10type_indexENS_6vectorIPFbP7_objectRPvENS_9allocatorISA_EEEEEES7_EEEESJ_, symObjAddr: 0x30C60, symBinAddr: 0x3D920, symSize: 0x30 }
  - { offsetInCU: 0x45120, offset: 0x7DC0E, size: 0x8, addend: 0x0, symName: __ZNSt3__17launderB7v160006IKNS_4pairIKNS_10type_indexENS_6vectorIPFbP7_objectRPvENS_9allocatorISA_EEEEEEEEPT_SH_, symObjAddr: 0x31020, symBinAddr: 0x3DCE0, symSize: 0x20 }
  - { offsetInCU: 0x45157, offset: 0x7DC45, size: 0x8, addend: 0x0, symName: __ZNSt3__19__launderB7v160006IKNS_4pairIKNS_10type_indexENS_6vectorIPFbP7_objectRPvENS_9allocatorISA_EEEEEEEEPT_SH_, symObjAddr: 0x31040, symBinAddr: 0x3DD00, symSize: 0x10 }
  - { offsetInCU: 0x451DF, offset: 0x7DCCD, size: 0x8, addend: 0x0, symName: __ZNSt3__110destroy_atB7v160006INS_4pairIKNS_10type_indexENS_6vectorIPFbP7_objectRPvENS_9allocatorISA_EEEEEELi0EEEvPT_, symObjAddr: 0x31720, symBinAddr: 0x3E3E0, symSize: 0x20 }
  - { offsetInCU: 0x45216, offset: 0x7DD04, size: 0x8, addend: 0x0, symName: __ZNSt3__112__destroy_atB7v160006INS_4pairIKNS_10type_indexENS_6vectorIPFbP7_objectRPvENS_9allocatorISA_EEEEEELi0EEEvPT_, symObjAddr: 0x31740, symBinAddr: 0x3E400, symSize: 0x20 }
  - { offsetInCU: 0x4524D, offset: 0x7DD3B, size: 0x8, addend: 0x0, symName: __ZNSt3__118__debug_db_erase_cB7v160006INS_6vectorIPFbP7_objectRPvENS_9allocatorIS7_EEEEEEvPT_, symObjAddr: 0x31990, symBinAddr: 0x3E650, symSize: 0x10 }
  - { offsetInCU: 0x4527E, offset: 0x7DD6C, size: 0x8, addend: 0x0, symName: __ZNSt3__112__to_addressB7v160006IPFbP7_objectRPvEEEPT_S8_, symObjAddr: 0x31AA0, symBinAddr: 0x3E760, symSize: 0x10 }
  - { offsetInCU: 0x452B3, offset: 0x7DDA1, size: 0x8, addend: 0x0, symName: __ZNSt3__110destroy_atB7v160006IPFbP7_objectRPvELi0EEEvPT_, symObjAddr: 0x31B50, symBinAddr: 0x3E810, symSize: 0x20 }
  - { offsetInCU: 0x452EA, offset: 0x7DDD8, size: 0x8, addend: 0x0, symName: __ZNSt3__112__destroy_atB7v160006IPFbP7_objectRPvELi0EEEvPT_, symObjAddr: 0x31B70, symBinAddr: 0x3E830, symSize: 0x10 }
  - { offsetInCU: 0x45321, offset: 0x7DE0F, size: 0x8, addend: 0x0, symName: __ZNSt3__17launderB7v160006INS_4pairIKNS_10type_indexENS_6vectorIPFbP7_objectRPvENS_9allocatorISA_EEEEEEEEPT_SG_, symObjAddr: 0x31C60, symBinAddr: 0x3E920, symSize: 0x20 }
  - { offsetInCU: 0x45358, offset: 0x7DE46, size: 0x8, addend: 0x0, symName: __ZNSt3__19__launderB7v160006INS_4pairIKNS_10type_indexENS_6vectorIPFbP7_objectRPvENS_9allocatorISA_EEEEEEEEPT_SG_, symObjAddr: 0x31C80, symBinAddr: 0x3E940, symSize: 0x10 }
  - { offsetInCU: 0x453AD, offset: 0x7DE9B, size: 0x8, addend: 0x0, symName: __ZNSt3__118__debug_db_erase_cB7v160006INS_6vectorINS_4pairIPKSt9type_infoPFPvS6_EEENS_9allocatorIS9_EEEEEEvPT_, symObjAddr: 0x32640, symBinAddr: 0x3F300, symSize: 0x10 }
  - { offsetInCU: 0x453DE, offset: 0x7DECC, size: 0x8, addend: 0x0, symName: __ZNSt3__112__to_addressB7v160006INS_4pairIPKSt9type_infoPFPvS5_EEEEEPT_SA_, symObjAddr: 0x32750, symBinAddr: 0x3F410, symSize: 0x10 }
  - { offsetInCU: 0x45413, offset: 0x7DF01, size: 0x8, addend: 0x0, symName: __ZNSt3__110destroy_atB7v160006INS_4pairIPKSt9type_infoPFPvS5_EEELi0EEEvPT_, symObjAddr: 0x32800, symBinAddr: 0x3F4C0, symSize: 0x20 }
  - { offsetInCU: 0x4544A, offset: 0x7DF38, size: 0x8, addend: 0x0, symName: __ZNSt3__112__destroy_atB7v160006INS_4pairIPKSt9type_infoPFPvS5_EEELi0EEEvPT_, symObjAddr: 0x32820, symBinAddr: 0x3F4E0, symSize: 0x10 }
  - { offsetInCU: 0x45481, offset: 0x7DF6F, size: 0x8, addend: 0x0, symName: __ZNSt3__118__debug_db_erase_cB7v160006INS_6vectorIPFP7_objectS3_P11_typeobjectENS_9allocatorIS7_EEEEEEvPT_, symObjAddr: 0x32AC0, symBinAddr: 0x3F780, symSize: 0x10 }
  - { offsetInCU: 0x454B2, offset: 0x7DFA0, size: 0x8, addend: 0x0, symName: __ZNSt3__112__to_addressB7v160006IPFP7_objectS2_P11_typeobjectEEEPT_S8_, symObjAddr: 0x32BD0, symBinAddr: 0x3F890, symSize: 0x10 }
  - { offsetInCU: 0x454E7, offset: 0x7DFD5, size: 0x8, addend: 0x0, symName: __ZNSt3__110destroy_atB7v160006IPFP7_objectS2_P11_typeobjectELi0EEEvPT_, symObjAddr: 0x32C80, symBinAddr: 0x3F940, symSize: 0x20 }
  - { offsetInCU: 0x4551E, offset: 0x7E00C, size: 0x8, addend: 0x0, symName: __ZNSt3__112__destroy_atB7v160006IPFP7_objectS2_P11_typeobjectELi0EEEvPT_, symObjAddr: 0x32CA0, symBinAddr: 0x3F960, symSize: 0x10 }
  - { offsetInCU: 0x45555, offset: 0x7E043, size: 0x8, addend: 0x0, symName: __ZNSt3__1neB7v160006ERKNS_19__hash_map_iteratorINS_15__hash_iteratorIPNS_11__hash_nodeINS_17__hash_value_typeIPKvPN8pybind116detail8instanceEEEPvEEEEEESH_, symObjAddr: 0x339B0, symBinAddr: 0x40670, symSize: 0x30 }
  - { offsetInCU: 0x45666, offset: 0x7E154, size: 0x8, addend: 0x0, symName: __ZNSt3__1neB7v160006ERKNS_15__hash_iteratorIPNS_11__hash_nodeINS_17__hash_value_typeIPKvPN8pybind116detail8instanceEEEPvEEEESF_, symObjAddr: 0x33D30, symBinAddr: 0x409F0, symSize: 0x30 }
  - { offsetInCU: 0x456D6, offset: 0x7E1C4, size: 0x8, addend: 0x0, symName: __ZNSt3__1eqB7v160006ERKNS_15__hash_iteratorIPNS_11__hash_nodeINS_17__hash_value_typeIPKvPN8pybind116detail8instanceEEEPvEEEESF_, symObjAddr: 0x34100, symBinAddr: 0x40DC0, symSize: 0x30 }
  - { offsetInCU: 0x45713, offset: 0x7E201, size: 0x8, addend: 0x0, symName: __ZNSt3__17launderB7v160006IKNS_4pairIKPKvPN8pybind116detail8instanceEEEEEPT_SC_, symObjAddr: 0x341B0, symBinAddr: 0x40E70, symSize: 0x20 }
  - { offsetInCU: 0x4574A, offset: 0x7E238, size: 0x8, addend: 0x0, symName: __ZNSt3__19__launderB7v160006IKNS_4pairIKPKvPN8pybind116detail8instanceEEEEEPT_SC_, symObjAddr: 0x341D0, symBinAddr: 0x40E90, symSize: 0x10 }
  - { offsetInCU: 0x457E7, offset: 0x7E2D5, size: 0x8, addend: 0x0, symName: __ZNSt3__17launderB7v160006INS_4pairIKPKvPN8pybind116detail8instanceEEEEEPT_SB_, symObjAddr: 0x34320, symBinAddr: 0x40FE0, symSize: 0x20 }
  - { offsetInCU: 0x4581E, offset: 0x7E30C, size: 0x8, addend: 0x0, symName: __ZNSt3__19__launderB7v160006INS_4pairIKPKvPN8pybind116detail8instanceEEEEEPT_SB_, symObjAddr: 0x34340, symBinAddr: 0x41000, symSize: 0x10 }
  - { offsetInCU: 0x45873, offset: 0x7E361, size: 0x8, addend: 0x0, symName: __ZNSt3__110destroy_atB7v160006INS_4pairIKPKvPN8pybind116detail8instanceEEELi0EEEvPT_, symObjAddr: 0x34A70, symBinAddr: 0x41730, symSize: 0x20 }
  - { offsetInCU: 0x458AA, offset: 0x7E398, size: 0x8, addend: 0x0, symName: __ZNSt3__112__destroy_atB7v160006INS_4pairIKPKvPN8pybind116detail8instanceEEELi0EEEvPT_, symObjAddr: 0x34A90, symBinAddr: 0x41750, symSize: 0x10 }
  - { offsetInCU: 0x458E1, offset: 0x7E3CF, size: 0x8, addend: 0x0, symName: __ZNSt3__1neB7v160006IPNS_4pairIPKSt9type_infoPFPvS5_EEEEEbRKNS_11__wrap_iterIT_EESE_, symObjAddr: 0x34B60, symBinAddr: 0x41820, symSize: 0x30 }
  - { offsetInCU: 0x45924, offset: 0x7E412, size: 0x8, addend: 0x0, symName: __ZNSt3__1eqB7v160006IPNS_4pairIPKSt9type_infoPFPvS5_EEEEEbRKNS_11__wrap_iterIT_EESE_, symObjAddr: 0x34C50, symBinAddr: 0x41910, symSize: 0x40 }
  - { offsetInCU: 0x45967, offset: 0x7E455, size: 0x8, addend: 0x0, symName: __ZNSt3__1neB7v160006ERKNS_19__hash_map_iteratorINS_15__hash_iteratorIPNS_11__hash_nodeINS_17__hash_value_typeIPK7_objectNS_6vectorIPS4_NS_9allocatorIS8_EEEEEEPvEEEEEESJ_, symObjAddr: 0x34CF0, symBinAddr: 0x419B0, symSize: 0x30 }
  - { offsetInCU: 0x459A4, offset: 0x7E492, size: 0x8, addend: 0x0, symName: __ZNSt3__1neB7v160006IPP7_objectEEbRKNS_11__wrap_iterIT_EES8_, symObjAddr: 0x34E60, symBinAddr: 0x41B20, symSize: 0x30 }
  - { offsetInCU: 0x459E7, offset: 0x7E4D5, size: 0x8, addend: 0x0, symName: __ZNSt3__17launderB7v160006IKNS_4pairIKPK7_objectNS_6vectorIPS2_NS_9allocatorIS7_EEEEEEEEPT_SE_, symObjAddr: 0x35410, symBinAddr: 0x420D0, symSize: 0x20 }
  - { offsetInCU: 0x45A1E, offset: 0x7E50C, size: 0x8, addend: 0x0, symName: __ZNSt3__19__launderB7v160006IKNS_4pairIKPK7_objectNS_6vectorIPS2_NS_9allocatorIS7_EEEEEEEEPT_SE_, symObjAddr: 0x35430, symBinAddr: 0x420F0, symSize: 0x10 }
  - { offsetInCU: 0x45A88, offset: 0x7E576, size: 0x8, addend: 0x0, symName: __ZNSt3__1neB7v160006ERKNS_15__hash_iteratorIPNS_11__hash_nodeINS_17__hash_value_typeIPK7_objectNS_6vectorIPS3_NS_9allocatorIS7_EEEEEEPvEEEESH_, symObjAddr: 0x35490, symBinAddr: 0x42150, symSize: 0x30 }
  - { offsetInCU: 0x45AC5, offset: 0x7E5B3, size: 0x8, addend: 0x0, symName: __ZNSt3__1eqB7v160006ERKNS_15__hash_iteratorIPNS_11__hash_nodeINS_17__hash_value_typeIPK7_objectNS_6vectorIPS3_NS_9allocatorIS7_EEEEEEPvEEEESH_, symObjAddr: 0x354C0, symBinAddr: 0x42180, symSize: 0x30 }
  - { offsetInCU: 0x45B68, offset: 0x7E656, size: 0x8, addend: 0x0, symName: __ZNSt3__17launderB7v160006INS_4pairIKPK7_objectNS_6vectorIPS2_NS_9allocatorIS7_EEEEEEEEPT_SD_, symObjAddr: 0x35560, symBinAddr: 0x42220, symSize: 0x20 }
  - { offsetInCU: 0x45B9F, offset: 0x7E68D, size: 0x8, addend: 0x0, symName: __ZNSt3__19__launderB7v160006INS_4pairIKPK7_objectNS_6vectorIPS2_NS_9allocatorIS7_EEEEEEEEPT_SD_, symObjAddr: 0x35580, symBinAddr: 0x42240, symSize: 0x10 }
  - { offsetInCU: 0x45BD6, offset: 0x7E6C4, size: 0x8, addend: 0x0, symName: __ZNSt3__115__debug_db_swapB7v160006INS_6vectorIP7_objectNS_9allocatorIS3_EEEEEEvPT_S8_, symObjAddr: 0x356C0, symBinAddr: 0x42380, symSize: 0x10 }
  - { offsetInCU: 0x45C33, offset: 0x7E721, size: 0x8, addend: 0x0, symName: __ZNSt3__110destroy_atB7v160006INS_4pairIKPK7_objectNS_6vectorIPS2_NS_9allocatorIS7_EEEEEELi0EEEvPT_, symObjAddr: 0x35EE0, symBinAddr: 0x42BA0, symSize: 0x20 }
  - { offsetInCU: 0x45C6A, offset: 0x7E758, size: 0x8, addend: 0x0, symName: __ZNSt3__112__destroy_atB7v160006INS_4pairIKPK7_objectNS_6vectorIPS2_NS_9allocatorIS7_EEEEEELi0EEEvPT_, symObjAddr: 0x35F00, symBinAddr: 0x42BC0, symSize: 0x20 }
  - { offsetInCU: 0x45CA1, offset: 0x7E78F, size: 0x8, addend: 0x0, symName: __ZNSt3__1eqB7v160006IPP7_objectEEbRKNS_11__wrap_iterIT_EES8_, symObjAddr: 0x36050, symBinAddr: 0x42D10, symSize: 0x40 }
  - { offsetInCU: 0x45CE4, offset: 0x7E7D2, size: 0x8, addend: 0x0, symName: __ZNSt3__118__debug_db_erase_cB7v160006INS_6vectorIP7_objectNS_9allocatorIS3_EEEEEEvPT_, symObjAddr: 0x36280, symBinAddr: 0x42F40, symSize: 0x10 }
  - { offsetInCU: 0x45D15, offset: 0x7E803, size: 0x8, addend: 0x0, symName: __ZNSt3__112__to_addressB7v160006IP7_objectEEPT_S4_, symObjAddr: 0x36370, symBinAddr: 0x43030, symSize: 0x10 }
  - { offsetInCU: 0x45D6F, offset: 0x7E85D, size: 0x8, addend: 0x0, symName: __ZNSt3__112construct_atB7v160006INS_4pairIKPKvPN8pybind116detail8instanceEEEJRPvRS8_EPS9_EEPT_SF_DpOT0_, symObjAddr: 0x380F0, symBinAddr: 0x44DB0, symSize: 0x40 }
  - { offsetInCU: 0x45DF2, offset: 0x7E8E0, size: 0x8, addend: 0x0, symName: __ZNSt3__125__debug_db_invalidate_allB7v160006INS_12__hash_tableINS_17__hash_value_typeIPKvPN8pybind116detail8instanceEEENS_22__unordered_map_hasherIS4_S9_NS_4hashIS4_EENS_8equal_toIS4_EELb1EEENS_21__unordered_map_equalIS4_S9_SE_SC_Lb1EEENS_9allocatorIS9_EEEEEEvPT_, symObjAddr: 0x38C20, symBinAddr: 0x458E0, symSize: 0x10 }
  - { offsetInCU: 0x4635F, offset: 0x7EE4D, size: 0x8, addend: 0x0, symName: __ZNSt3__112construct_atB7v160006INS_12basic_stringIcNS_11char_traitsIcEENS_9allocatorIcEEEEJS6_EPS6_EEPT_S9_DpOT0_, symObjAddr: 0x3BE70, symBinAddr: 0x48B30, symSize: 0x40 }
  - { offsetInCU: 0x46402, offset: 0x7EEF0, size: 0x8, addend: 0x0, symName: __ZNSt3__1neB7v160006IPlEEbRKNS_11__wrap_iterIT_EES6_, symObjAddr: 0x3C940, symBinAddr: 0x49600, symSize: 0x30 }
  - { offsetInCU: 0x46445, offset: 0x7EF33, size: 0x8, addend: 0x0, symName: __ZNSt3__118__debug_db_erase_cB7v160006INS_6vectorIlNS_9allocatorIlEEEEEEvPT_, symObjAddr: 0x3CC60, symBinAddr: 0x49920, symSize: 0x10 }
  - { offsetInCU: 0x46476, offset: 0x7EF64, size: 0x8, addend: 0x0, symName: __ZNSt3__112__to_addressB7v160006IlEEPT_S2_, symObjAddr: 0x3CD70, symBinAddr: 0x49A30, symSize: 0x10 }
  - { offsetInCU: 0x464AB, offset: 0x7EF99, size: 0x8, addend: 0x0, symName: __ZNSt3__110destroy_atB7v160006IlLi0EEEvPT_, symObjAddr: 0x3CE20, symBinAddr: 0x49AE0, symSize: 0x20 }
  - { offsetInCU: 0x464E2, offset: 0x7EFD0, size: 0x8, addend: 0x0, symName: __ZNSt3__112__destroy_atB7v160006IlLi0EEEvPT_, symObjAddr: 0x3CE40, symBinAddr: 0x49B00, symSize: 0x10 }
  - { offsetInCU: 0x46519, offset: 0x7F007, size: 0x8, addend: 0x0, symName: __ZNSt3__1eqB7v160006IPlEEbRKNS_11__wrap_iterIT_EES6_, symObjAddr: 0x3CF90, symBinAddr: 0x49C50, symSize: 0x40 }
  - { offsetInCU: 0x4655D, offset: 0x7F04B, size: 0x8, addend: 0x0, symName: __ZNSt3__125__throw_bad_function_callB7v160006Ev, symObjAddr: 0x3D050, symBinAddr: 0x49D10, symSize: 0x40 }
  - { offsetInCU: 0x465AD, offset: 0x7F09B, size: 0x8, addend: 0x0, symName: __ZNSt3__119__debug_db_insert_cB7v160006INS_6vectorIPFP7_objectS3_P11_typeobjectENS_9allocatorIS7_EEEEEEvPT_, symObjAddr: 0x3D290, symBinAddr: 0x49F50, symSize: 0x10 }
  - { offsetInCU: 0x465DE, offset: 0x7F0CC, size: 0x8, addend: 0x0, symName: __ZNSt3__119__debug_db_insert_cB7v160006INS_6vectorINS_4pairIPKSt9type_infoPFPvS6_EEENS_9allocatorIS9_EEEEEEvPT_, symObjAddr: 0x3D3E0, symBinAddr: 0x4A0A0, symSize: 0x10 }
  - { offsetInCU: 0x4660F, offset: 0x7F0FD, size: 0x8, addend: 0x0, symName: __ZNSt3__116forward_as_tupleB7v160006IJRKNS_10type_indexEEEENS_5tupleIJDpOT_EEES7_, symObjAddr: 0x3DA50, symBinAddr: 0x4A710, symSize: 0x30 }
  - { offsetInCU: 0x4666D, offset: 0x7F15B, size: 0x8, addend: 0x0, symName: __ZNSt3__112construct_atB7v160006INS_4pairIKNS_10type_indexENS_6vectorIPFbP7_objectRPvENS_9allocatorISA_EEEEEEJRKNS_21piecewise_construct_tENS_5tupleIJRS3_EEENSI_IJEEEEPSE_EEPT_SO_DpOT0_, symObjAddr: 0x3DE10, symBinAddr: 0x4AAD0, symSize: 0x50 }
  - { offsetInCU: 0x46703, offset: 0x7F1F1, size: 0x8, addend: 0x0, symName: __ZNSt3__13getB7v160006ILm0EJRKNS_10type_indexEEEERNS_13tuple_elementIXT_ENS_5tupleIJDpT0_EEEE4typeERS8_, symObjAddr: 0x3DF10, symBinAddr: 0x4ABD0, symSize: 0x20 }
  - { offsetInCU: 0x46746, offset: 0x7F234, size: 0x8, addend: 0x0, symName: __ZNSt3__119__debug_db_insert_cB7v160006INS_6vectorIPFbP7_objectRPvENS_9allocatorIS7_EEEEEEvPT_, symObjAddr: 0x3E000, symBinAddr: 0x4ACC0, symSize: 0x10 }
  - { offsetInCU: 0x46777, offset: 0x7F265, size: 0x8, addend: 0x0, symName: __ZNSt3__125__debug_db_invalidate_allB7v160006INS_12__hash_tableINS_17__hash_value_typeINS_10type_indexENS_6vectorIPFbP7_objectRPvENS_9allocatorISA_EEEEEENS_22__unordered_map_hasherIS3_SE_N8pybind116detail9type_hashENSH_13type_equal_toELb1EEENS_21__unordered_map_equalIS3_SE_SJ_SI_Lb1EEENSB_ISE_EEEEEEvPT_, symObjAddr: 0x3E570, symBinAddr: 0x4B230, symSize: 0x10 }
  - { offsetInCU: 0x46815, offset: 0x7F303, size: 0x8, addend: 0x0, symName: __ZNSt3__112construct_atB7v160006INS_4pairIKNS_10type_indexEPN8pybind116detail9type_infoEEEJRKNS_21piecewise_construct_tENS_5tupleIJRS3_EEENSC_IJEEEEPS8_EEPT_SI_DpOT0_, symObjAddr: 0x3F2B0, symBinAddr: 0x4BF70, symSize: 0x50 }
  - { offsetInCU: 0x468AB, offset: 0x7F399, size: 0x8, addend: 0x0, symName: __ZNSt3__125__debug_db_invalidate_allB7v160006INS_12__hash_tableINS_17__hash_value_typeINS_10type_indexEPN8pybind116detail9type_infoEEENS_22__unordered_map_hasherIS3_S8_NS5_9type_hashENS5_13type_equal_toELb1EEENS_21__unordered_map_equalIS3_S8_SB_SA_Lb1EEENS_9allocatorIS8_EEEEEEvPT_, symObjAddr: 0x3F860, symBinAddr: 0x4C520, symSize: 0x10 }
  - { offsetInCU: 0x468DC, offset: 0x7F3CA, size: 0x8, addend: 0x0, symName: __ZNSt3__116forward_as_tupleB7v160006IJP11_typeobjectEEENS_5tupleIJDpOT_EEES6_, symObjAddr: 0x3FFB0, symBinAddr: 0x4CC70, symSize: 0x30 }
  - { offsetInCU: 0x46915, offset: 0x7F403, size: 0x8, addend: 0x0, symName: __ZNSt3__112construct_atB7v160006INS_4pairIKP11_typeobjectNS_6vectorIPN8pybind116detail9type_infoENS_9allocatorIS9_EEEEEEJRKNS_21piecewise_construct_tENS_5tupleIJOS3_EEENSH_IJEEEEPSD_EEPT_SN_DpOT0_, symObjAddr: 0x40170, symBinAddr: 0x4CE30, symSize: 0x50 }
  - { offsetInCU: 0x469AB, offset: 0x7F499, size: 0x8, addend: 0x0, symName: __ZNSt3__13getB7v160006ILm0EJOP11_typeobjectEEERNS_13tuple_elementIXT_ENS_5tupleIJDpT0_EEEE4typeERS8_, symObjAddr: 0x40270, symBinAddr: 0x4CF30, symSize: 0x20 }
  - { offsetInCU: 0x46A03, offset: 0x7F4F1, size: 0x8, addend: 0x0, symName: __ZNSt3__18distanceB7v160006IPKPN8pybind116detail9type_infoEEENS_15iterator_traitsIT_E15difference_typeES8_S8_, symObjAddr: 0x40530, symBinAddr: 0x4D1F0, symSize: 0x30 }
  - { offsetInCU: 0x46A46, offset: 0x7F534, size: 0x8, addend: 0x0, symName: __ZNSt3__14copyB7v160006IPKPN8pybind116detail9type_infoEPS4_EET0_T_S9_S8_, symObjAddr: 0x405B0, symBinAddr: 0x4D270, symSize: 0x40 }
  - { offsetInCU: 0x46AA0, offset: 0x7F58E, size: 0x8, addend: 0x0, symName: __ZNSt3__110__distanceB7v160006IPKPN8pybind116detail9type_infoEEENS_15iterator_traitsIT_E15difference_typeES8_S8_NS_26random_access_iterator_tagE, symObjAddr: 0x40800, symBinAddr: 0x4D4C0, symSize: 0x20 }
  - { offsetInCU: 0x46AED, offset: 0x7F5DB, size: 0x8, addend: 0x0, symName: __ZNSt3__19__advanceB7v160006IPKPN8pybind116detail9type_infoEEEvRT_NS_15iterator_traitsIS7_E15difference_typeENS_26random_access_iterator_tagE, symObjAddr: 0x40820, symBinAddr: 0x4D4E0, symSize: 0x20 }
  - { offsetInCU: 0x46B36, offset: 0x7F624, size: 0x8, addend: 0x0, symName: __ZNSt3__16__copyB7v160006INS_17_ClassicAlgPolicyEPKPN8pybind116detail9type_infoES7_PS5_EENS_4pairIT0_T2_EESA_T1_SB_, symObjAddr: 0x40840, symBinAddr: 0x4D500, symSize: 0x40 }
  - { offsetInCU: 0x46BA2, offset: 0x7F690, size: 0x8, addend: 0x0, symName: __ZNSt3__123__dispatch_copy_or_moveB7v160006INS_17_ClassicAlgPolicyENS_11__copy_loopIS1_EENS_14__copy_trivialEPKPN8pybind116detail9type_infoESA_PS8_EENS_4pairIT2_T4_EESD_T3_SE_, symObjAddr: 0x40880, symBinAddr: 0x4D540, symSize: 0x40 }
  - { offsetInCU: 0x46C20, offset: 0x7F70E, size: 0x8, addend: 0x0, symName: __ZNSt3__121__unwrap_and_dispatchB7v160006INS_10__overloadINS_11__copy_loopINS_17_ClassicAlgPolicyEEENS_14__copy_trivialEEEPKPN8pybind116detail9type_infoESC_PSA_Li0EEENS_4pairIT0_T2_EESF_T1_SG_, symObjAddr: 0x408C0, symBinAddr: 0x4D580, symSize: 0xB0 }
  - { offsetInCU: 0x46CAF, offset: 0x7F79D, size: 0x8, addend: 0x0, symName: __ZNSt3__114__unwrap_rangeB7v160006IPKPN8pybind116detail9type_infoES6_EEDaT_T0_, symObjAddr: 0x40970, symBinAddr: 0x4D630, symSize: 0x40 }
  - { offsetInCU: 0x46DFE, offset: 0x7F8EC, size: 0x8, addend: 0x0, symName: __ZNSt3__19make_pairB7v160006IPKPN8pybind116detail9type_infoEPS4_EENS_4pairINS_18__unwrap_ref_decayIT_E4typeENS9_IT0_E4typeEEEOSA_OSD_, symObjAddr: 0x409F0, symBinAddr: 0x4D6B0, symSize: 0x30 }
  - { offsetInCU: 0x46E4D, offset: 0x7F93B, size: 0x8, addend: 0x0, symName: __ZNSt3__114__rewrap_rangeB7v160006IPKPN8pybind116detail9type_infoES6_S6_EET0_S7_T1_, symObjAddr: 0x40A20, symBinAddr: 0x4D6E0, symSize: 0x30 }
  - { offsetInCU: 0x46FBE, offset: 0x7FAAC, size: 0x8, addend: 0x0, symName: __ZNSt3__113__unwrap_iterB7v160006IPKPN8pybind116detail9type_infoENS_18__unwrap_iter_implIS6_Lb1EEELi0EEEDTclsrT0_8__unwrapclsr3stdE7declvalIT_EEEESA_, symObjAddr: 0x40AA0, symBinAddr: 0x4D760, symSize: 0x20 }
  - { offsetInCU: 0x47055, offset: 0x7FB43, size: 0x8, addend: 0x0, symName: __ZNSt3__112__to_addressB7v160006IKPN8pybind116detail9type_infoEEEPT_S7_, symObjAddr: 0x40B10, symBinAddr: 0x4D7D0, symSize: 0x10 }
  - { offsetInCU: 0x4708A, offset: 0x7FB78, size: 0x8, addend: 0x0, symName: __ZNSt3__119__copy_trivial_implB7v160006IKPN8pybind116detail9type_infoES4_EENS_4pairIPT_PT0_EES8_S8_SA_, symObjAddr: 0x40B50, symBinAddr: 0x4D810, symSize: 0x70 }
  - { offsetInCU: 0x470F2, offset: 0x7FBE0, size: 0x8, addend: 0x0, symName: __ZNSt3__19make_pairB7v160006IRPKPN8pybind116detail9type_infoEPS4_EENS_4pairINS_18__unwrap_ref_decayIT_E4typeENSA_IT0_E4typeEEEOSB_OSE_, symObjAddr: 0x40BC0, symBinAddr: 0x4D880, symSize: 0x30 }
  - { offsetInCU: 0x47141, offset: 0x7FC2F, size: 0x8, addend: 0x0, symName: __ZNSt3__113__rewrap_iterB7v160006IPKPN8pybind116detail9type_infoES6_NS_18__unwrap_iter_implIS6_Lb1EEEEET_S9_T0_, symObjAddr: 0x40CE0, symBinAddr: 0x4D9A0, symSize: 0x40 }
  - { offsetInCU: 0x47196, offset: 0x7FC84, size: 0x8, addend: 0x0, symName: __ZNSt3__130__uninitialized_allocator_copyB7v160006INS_9allocatorIPN8pybind116detail9type_infoEEES5_S5_LPv0EEEPT0_RT_PKS8_SD_S9_, symObjAddr: 0x40D70, symBinAddr: 0x4DA30, symSize: 0x30 }
  - { offsetInCU: 0x4720F, offset: 0x7FCFD, size: 0x8, addend: 0x0, symName: __ZNSt3__1neB7v160006IPKPFP7_objectS2_P11_typeobjectEEEbRKNS_11__wrap_iterIT_EESD_, symObjAddr: 0x41BC0, symBinAddr: 0x4E880, symSize: 0x30 }
  - { offsetInCU: 0x47252, offset: 0x7FD40, size: 0x8, addend: 0x0, symName: __ZNSt3__1neB7v160006IPKNS_4pairIPKSt9type_infoPFPvS5_EEEEEbRKNS_11__wrap_iterIT_EESF_, symObjAddr: 0x41F80, symBinAddr: 0x4EC40, symSize: 0x30 }
  - { offsetInCU: 0x47295, offset: 0x7FD83, size: 0x8, addend: 0x0, symName: __ZNSt3__1eqB7v160006IPKNS_4pairIPKSt9type_infoPFPvS5_EEEEEbRKNS_11__wrap_iterIT_EESF_, symObjAddr: 0x420A0, symBinAddr: 0x4ED60, symSize: 0x40 }
  - { offsetInCU: 0x472D8, offset: 0x7FDC6, size: 0x8, addend: 0x0, symName: __ZNSt3__1eqB7v160006IPKPFP7_objectS2_P11_typeobjectEEEbRKNS_11__wrap_iterIT_EESD_, symObjAddr: 0x421D0, symBinAddr: 0x4EE90, symSize: 0x40 }
  - { offsetInCU: 0x4735E, offset: 0x7FE4C, size: 0x8, addend: 0x0, symName: __ZNSt3__112construct_atB7v160006IP7_objectJRKS2_EPS2_EEPT_S7_DpOT0_, symObjAddr: 0x43120, symBinAddr: 0x4FDE0, symSize: 0x30 }
  - { offsetInCU: 0x473CE, offset: 0x7FEBC, size: 0x8, addend: 0x0, symName: __ZNSt3__125__debug_db_invalidate_allB7v160006INS_12__hash_tableIP7_objectNS_4hashIS3_EENS_8equal_toIS3_EENS_9allocatorIS3_EEEEEEvPT_, symObjAddr: 0x43650, symBinAddr: 0x50310, symSize: 0x10 }
  - { offsetInCU: 0x473FF, offset: 0x7FEED, size: 0x8, addend: 0x0, symName: __ZNSt3__1neB7v160006IPPFbP7_objectRPvEEEbRKNS_11__wrap_iterIT_EESC_, symObjAddr: 0x439D0, symBinAddr: 0x50690, symSize: 0x30 }
  - { offsetInCU: 0x47442, offset: 0x7FF30, size: 0x8, addend: 0x0, symName: __ZNSt3__1eqB7v160006IPPFbP7_objectRPvEEEbRKNS_11__wrap_iterIT_EESC_, symObjAddr: 0x43AC0, symBinAddr: 0x50780, symSize: 0x40 }
  - { offsetInCU: 0x47485, offset: 0x7FF73, size: 0x8, addend: 0x0, symName: __ZNSt3__13getB7v160006ILm0EJN8pybind116detail11type_casterINS2_16value_and_holderEvEEEEERNS_13tuple_elementIXT_ENS_5tupleIJDpT0_EEEE4typeERSA_, symObjAddr: 0x44A20, symBinAddr: 0x516E0, symSize: 0x20 }
  - { offsetInCU: 0x474D3, offset: 0x7FFC1, size: 0x8, addend: 0x0, symName: __ZNSt3__13getB7v160006ILm0EJN8pybind116detail11type_casterI11ApplicationvEENS3_IfvEEEEERNS_13tuple_elementIXT_ENS_5tupleIJDpT0_EEEE4typeERSB_, symObjAddr: 0x46100, symBinAddr: 0x52DC0, symSize: 0x20 }
  - { offsetInCU: 0x4751B, offset: 0x80009, size: 0x8, addend: 0x0, symName: __ZNSt3__13getB7v160006ILm1EJN8pybind116detail11type_casterI11ApplicationvEENS3_IfvEEEEERNS_13tuple_elementIXT_ENS_5tupleIJDpT0_EEEE4typeERSB_, symObjAddr: 0x46120, symBinAddr: 0x52DE0, symSize: 0x20 }
  - { offsetInCU: 0x47588, offset: 0x80076, size: 0x8, addend: 0x0, symName: __ZNSt3__112construct_atB7v160006IN8pybind116detail15argument_recordEJRA5_KcDnNS1_6handleEbbEPS3_EEPT_SA_DpOT0_, symObjAddr: 0x46A60, symBinAddr: 0x53720, symSize: 0x70 }
  - { offsetInCU: 0x47644, offset: 0x80132, size: 0x8, addend: 0x0, symName: __ZNSt3__112construct_atB7v160006IN8pybind116detail15argument_recordEJRKPKcDnNS1_6handleEbRKbEPS3_EEPT_SD_DpOT0_, symObjAddr: 0x46F40, symBinAddr: 0x53C00, symSize: 0x80 }
  - { offsetInCU: 0x48095, offset: 0x80B83, size: 0x8, addend: 0x0, symName: __ZStneB7v160006RKSt13exception_ptrS1_, symObjAddr: 0xCAB0, symBinAddr: 0x1A7F0, symSize: 0x30 }
  - { offsetInCU: 0x480CF, offset: 0x80BBD, size: 0x8, addend: 0x0, symName: __ZSteqB7v160006RKSt13exception_ptrS1_, symObjAddr: 0xCB10, symBinAddr: 0x1A850, symSize: 0x30 }
  - { offsetInCU: 0x4BFC2, offset: 0x84AB0, size: 0x8, addend: 0x0, symName: __ZN8pybind116handle15inc_ref_counterEm, symObjAddr: 0x89E0, symBinAddr: 0x16760, symSize: 0x40 }
  - { offsetInCU: 0x4C53D, offset: 0x8502B, size: 0x8, addend: 0x0, symName: __ZN8pybind1112cpp_function10initializeIZNS_6detail23all_type_info_get_cacheEP11_typeobjectEUlNS_6handleEE_vJS5_EJEEEvOT_PFT0_DpT1_EDpRKT2_, symObjAddr: 0x111A0, symBinAddr: 0x1E070, symSize: 0x110 }
  - { offsetInCU: 0x4C561, offset: 0x8504F, size: 0x8, addend: 0x0, symName: __ZZN8pybind1112cpp_function10initializeIZNS_6detail23all_type_info_get_cacheEP11_typeobjectEUlNS_6handleEE_vJS5_EJEEEvOT_PFT0_DpT1_EDpRKT2_E9signature, symObjAddr: 0x4B09C, symBinAddr: 0x57924, symSize: 0x0 }
  - { offsetInCU: 0x4C578, offset: 0x85066, size: 0x8, addend: 0x0, symName: __ZZN8pybind1112cpp_function10initializeIZNS_6detail23all_type_info_get_cacheEP11_typeobjectEUlNS_6handleEE_vJS5_EJEEEvOT_PFT0_DpT1_EDpRKT2_E5types, symObjAddr: 0x4B0B0, symBinAddr: 0x57938, symSize: 0x0 }
  - { offsetInCU: 0x4C748, offset: 0x85236, size: 0x8, addend: 0x0, symName: __ZN8pybind117options12global_stateEv, symObjAddr: 0x2B050, symBinAddr: 0x37D10, symSize: 0x10 }
  - { offsetInCU: 0x4C768, offset: 0x85256, size: 0x8, addend: 0x0, symName: __ZZN8pybind117options12global_stateEvE8instance, symObjAddr: 0x4B418, symBinAddr: 0x5C5B8, symSize: 0x0 }
  - { offsetInCU: 0x4C784, offset: 0x85272, size: 0x8, addend: 0x0, symName: __ZL32pybind11_module_def_mygameengine, symObjAddr: 0x27FAB8, symBinAddr: 0x5C638, symSize: 0x0 }
  - { offsetInCU: 0x4CCF0, offset: 0x857DE, size: 0x8, addend: 0x0, symName: __ZN8pybind116detail8initimpl11constructorIJEE7executeINS_6class_I11ApplicationJEEEJELi0EEEvRT_DpRKT0_, symObjAddr: 0x43C50, symBinAddr: 0x50910, symSize: 0x30 }
  - { offsetInCU: 0x4CD7D, offset: 0x8586B, size: 0x8, addend: 0x0, symName: __ZN8pybind1112cpp_function10initializeIZNS_6detail8initimpl11constructorIJEE7executeINS_6class_I11ApplicationJEEEJELi0EEEvRT_DpRKT0_EUlRNS2_16value_and_holderEE_vJSH_EJNS_4nameENS_9is_methodENS_7siblingENS2_24is_new_style_constructorEEEEvOSA_PFT0_DpT1_EDpRKT2_, symObjAddr: 0x442F0, symBinAddr: 0x50FB0, symSize: 0x130 }
  - { offsetInCU: 0x4CDA1, offset: 0x8588F, size: 0x8, addend: 0x0, symName: __ZZN8pybind1112cpp_function10initializeIZNS_6detail8initimpl11constructorIJEE7executeINS_6class_I11ApplicationJEEEJELi0EEEvRT_DpRKT0_EUlRNS2_16value_and_holderEE_vJSH_EJNS_4nameENS_9is_methodENS_7siblingENS2_24is_new_style_constructorEEEEvOSA_PFT0_DpT1_EDpRKT2_E9signature, symObjAddr: 0x4B167, symBinAddr: 0x579EF, symSize: 0x0 }
  - { offsetInCU: 0x4CDB8, offset: 0x858A6, size: 0x8, addend: 0x0, symName: __ZZN8pybind1112cpp_function10initializeIZNS_6detail8initimpl11constructorIJEE7executeINS_6class_I11ApplicationJEEEJELi0EEEvRT_DpRKT0_EUlRNS2_16value_and_holderEE_vJSH_EJNS_4nameENS_9is_methodENS_7siblingENS2_24is_new_style_constructorEEEEvOSA_PFT0_DpT1_EDpRKT2_E5types, symObjAddr: 0x4B3C0, symBinAddr: 0x5BAD0, symSize: 0x0 }
  - { offsetInCU: 0x4CFC9, offset: 0x85AB7, size: 0x8, addend: 0x0, symName: __ZN8pybind1112cpp_functionC2Iv11ApplicationJfEJNS_4nameENS_9is_methodENS_7siblingENS_3argEEEEMT0_FT_DpT1_EDpRKT2_, symObjAddr: 0x45800, symBinAddr: 0x524C0, symSize: 0xB0 }
  - { offsetInCU: 0x4D0B8, offset: 0x85BA6, size: 0x8, addend: 0x0, symName: __ZN8pybind1112cpp_function10initializeIZNS0_C1Iv11ApplicationJfEJNS_4nameENS_9is_methodENS_7siblingENS_3argEEEEMT0_FT_DpT1_EDpRKT2_EUlPS3_fE_vJSI_fEJS4_S5_S6_S7_EEEvOS9_PFS8_SB_ESH_, symObjAddr: 0x458B0, symBinAddr: 0x52570, symSize: 0x140 }
  - { offsetInCU: 0x4D0DC, offset: 0x85BCA, size: 0x8, addend: 0x0, symName: __ZZN8pybind1112cpp_function10initializeIZNS0_C1Iv11ApplicationJfEJNS_4nameENS_9is_methodENS_7siblingENS_3argEEEEMT0_FT_DpT1_EDpRKT2_EUlPS3_fE_vJSI_fEJS4_S5_S6_S7_EEEvOS9_PFS8_SB_ESH_E9signature, symObjAddr: 0x4B19F, symBinAddr: 0x57A27, symSize: 0x0 }
  - { offsetInCU: 0x4D0F3, offset: 0x85BE1, size: 0x8, addend: 0x0, symName: __ZZN8pybind1112cpp_function10initializeIZNS0_C1Iv11ApplicationJfEJNS_4nameENS_9is_methodENS_7siblingENS_3argEEEEMT0_FT_DpT1_EDpRKT2_EUlPS3_fE_vJSI_fEJS4_S5_S6_S7_EEEvOS9_PFS8_SB_ESH_E5types, symObjAddr: 0x4B3F0, symBinAddr: 0x5BB00, symSize: 0x0 }
  - { offsetInCU: 0x4DC21, offset: 0x8670F, size: 0x8, addend: 0x0, symName: __ZNSt3__16vectorIPcNS_9allocatorIS1_EEE26__swap_out_circular_bufferERNS_14__split_bufferIS1_RS3_EE, symObjAddr: 0x19370, symBinAddr: 0x26240, symSize: 0x130 }
  - { offsetInCU: 0x4DCD5, offset: 0x867C3, size: 0x8, addend: 0x0, symName: __ZNSt3__16vectorIN8pybind116detail15argument_recordENS_9allocatorIS3_EEE26__swap_out_circular_bufferERNS_14__split_bufferIS3_RS5_EE, symObjAddr: 0x1E050, symBinAddr: 0x2AD20, symSize: 0x130 }
  - { offsetInCU: 0x4DD9A, offset: 0x86888, size: 0x8, addend: 0x0, symName: __ZNSt3__16vectorIN8pybind116handleENS_9allocatorIS2_EEE26__swap_out_circular_bufferERNS_14__split_bufferIS2_RS4_EE, symObjAddr: 0x211A0, symBinAddr: 0x2DE70, symSize: 0x130 }
  - { offsetInCU: 0x4E422, offset: 0x86F10, size: 0x8, addend: 0x0, symName: __ZNSt3__16vectorIN8pybind116detail13function_callENS_9allocatorIS3_EEE26__swap_out_circular_bufferERNS_14__split_bufferIS3_RS5_EE, symObjAddr: 0x27620, symBinAddr: 0x342F0, symSize: 0x130 }
  - { offsetInCU: 0x4E6C7, offset: 0x871B5, size: 0x8, addend: 0x0, symName: __ZNSt3__16vectorIP11_typeobjectNS_9allocatorIS2_EEE26__swap_out_circular_bufferERNS_14__split_bufferIS2_RS4_EE, symObjAddr: 0x2C2A0, symBinAddr: 0x38F60, symSize: 0x130 }
  - { offsetInCU: 0x4E735, offset: 0x87223, size: 0x8, addend: 0x0, symName: __ZNSt3__16vectorIPN8pybind116detail9type_infoENS_9allocatorIS4_EEE26__swap_out_circular_bufferERNS_14__split_bufferIS4_RS6_EEPS4_, symObjAddr: 0x2E390, symBinAddr: 0x3B050, symSize: 0x170 }
  - { offsetInCU: 0x4E7A8, offset: 0x87296, size: 0x8, addend: 0x0, symName: __ZNSt3__16vectorIPN8pybind116detail9type_infoENS_9allocatorIS4_EEE26__swap_out_circular_bufferERNS_14__split_bufferIS4_RS6_EE, symObjAddr: 0x30270, symBinAddr: 0x3CF30, symSize: 0x130 }
  - { offsetInCU: 0x50983, offset: 0x89471, size: 0x8, addend: 0x0, symName: __ZNK8pybind1117error_already_set4whatEv, symObjAddr: 0x0, symBinAddr: 0xE660, symSize: 0x80 }
  - { offsetInCU: 0x509DD, offset: 0x894CB, size: 0x8, addend: 0x0, symName: __ZN8pybind1118gil_scoped_acquireC1Ev, symObjAddr: 0x80, symBinAddr: 0xE6E0, symSize: 0x20 }
  - { offsetInCU: 0x50A1A, offset: 0x89508, size: 0x8, addend: 0x0, symName: __ZN8pybind1111error_scopeC1Ev, symObjAddr: 0xB0, symBinAddr: 0xE700, symSize: 0x20 }
  - { offsetInCU: 0x50A43, offset: 0x89531, size: 0x8, addend: 0x0, symName: __ZNKSt3__110shared_ptrIN8pybind116detail25error_fetch_and_normalizeEEptB7v160006Ev, symObjAddr: 0xD0, symBinAddr: 0xE720, symSize: 0x20 }
  - { offsetInCU: 0x50A68, offset: 0x89556, size: 0x8, addend: 0x0, symName: __ZNK8pybind116detail25error_fetch_and_normalize12error_stringEv, symObjAddr: 0xF0, symBinAddr: 0xE740, symSize: 0xD0 }
  - { offsetInCU: 0x50A8D, offset: 0x8957B, size: 0x8, addend: 0x0, symName: __ZN8pybind1111error_scopeD1Ev, symObjAddr: 0x1E0, symBinAddr: 0xE810, symSize: 0x20 }
  - { offsetInCU: 0x50AB6, offset: 0x895A4, size: 0x8, addend: 0x0, symName: __ZN8pybind1118gil_scoped_acquireD1Ev, symObjAddr: 0x200, symBinAddr: 0xE830, symSize: 0x20 }
  - { offsetInCU: 0x50ADF, offset: 0x895CD, size: 0x8, addend: 0x0, symName: _PyInit_mygameengine, symObjAddr: 0x220, symBinAddr: 0xE850, symSize: 0x250 }
  - { offsetInCU: 0x50B5D, offset: 0x8964B, size: 0x8, addend: 0x0, symName: __ZN8pybind117module_23create_extension_moduleEPKcS2_P11PyModuleDef, symObjAddr: 0x980, symBinAddr: 0xEFB0, symSize: 0x180 }
  - { offsetInCU: 0x50BAE, offset: 0x8969C, size: 0x8, addend: 0x0, symName: __ZL26pybind11_init_mygameengineRN8pybind117module_E, symObjAddr: 0xB00, symBinAddr: 0xF130, symSize: 0x150 }
  - { offsetInCU: 0x50BD7, offset: 0x896C5, size: 0x8, addend: 0x0, symName: __ZN8pybind116handle3ptrEv, symObjAddr: 0xC50, symBinAddr: 0xF280, symSize: 0x10 }
  - { offsetInCU: 0x50BFC, offset: 0x896EA, size: 0x8, addend: 0x0, symName: __ZN8pybind116handleC1IP7_objectLi0EEET_, symObjAddr: 0xC90, symBinAddr: 0xF2C0, symSize: 0x30 }
  - { offsetInCU: 0x50C42, offset: 0x89730, size: 0x8, addend: 0x0, symName: __ZN8pybind117module_D1Ev, symObjAddr: 0xCF0, symBinAddr: 0xF320, symSize: 0x20 }
  - { offsetInCU: 0x50C6E, offset: 0x8975C, size: 0x8, addend: 0x0, symName: __ZN8pybind1117error_already_setD1Ev, symObjAddr: 0xD10, symBinAddr: 0xF340, symSize: 0x20 }
  - { offsetInCU: 0x50C9A, offset: 0x89788, size: 0x8, addend: 0x0, symName: __ZN8pybind1117error_already_setD0Ev, symObjAddr: 0xD30, symBinAddr: 0xF360, symSize: 0x30 }
  - { offsetInCU: 0x50CC6, offset: 0x897B4, size: 0x8, addend: 0x0, symName: __ZN8pybind1118gil_scoped_acquireC2Ev, symObjAddr: 0xD60, symBinAddr: 0xF390, symSize: 0x110 }
  - { offsetInCU: 0x50D0B, offset: 0x897F9, size: 0x8, addend: 0x0, symName: __ZN8pybind1118gil_scoped_acquire7inc_refEv, symObjAddr: 0xF30, symBinAddr: 0xF560, symSize: 0x20 }
  - { offsetInCU: 0x50D30, offset: 0x8981E, size: 0x8, addend: 0x0, symName: __ZN8pybind1111error_scopeC2Ev, symObjAddr: 0xF50, symBinAddr: 0xF580, symSize: 0x30 }
  - { offsetInCU: 0x50D59, offset: 0x89847, size: 0x8, addend: 0x0, symName: __ZNK8pybind116detail25error_fetch_and_normalize22format_value_and_traceEv, symObjAddr: 0xFD0, symBinAddr: 0xF600, symSize: 0x1010 }
  - { offsetInCU: 0x50F18, offset: 0x89A06, size: 0x8, addend: 0x0, symName: __ZNSt3__112basic_stringIcNS_11char_traitsIcEENS_9allocatorIcEEEpLB7v160006ERKS5_, symObjAddr: 0x1FE0, symBinAddr: 0x10610, symSize: 0x30 }
  - { offsetInCU: 0x50F4C, offset: 0x89A3A, size: 0x8, addend: 0x0, symName: __ZNSt3__112basic_stringIcNS_11char_traitsIcEENS_9allocatorIcEEEC1B7v160006EOS5_, symObjAddr: 0x2010, symBinAddr: 0x10640, symSize: 0x30 }
  - { offsetInCU: 0x50F84, offset: 0x89A72, size: 0x8, addend: 0x0, symName: __ZNSt3__112basic_stringIcNS_11char_traitsIcEENS_9allocatorIcEEEC2B7v160006EOS5_, symObjAddr: 0x2040, symBinAddr: 0x10670, symSize: 0x90 }
  - { offsetInCU: 0x50FBC, offset: 0x89AAA, size: 0x8, addend: 0x0, symName: __ZNSt3__112basic_stringIcNS_11char_traitsIcEENS_9allocatorIcEEE14__default_initB7v160006Ev, symObjAddr: 0x20D0, symBinAddr: 0x10700, symSize: 0x50 }
  - { offsetInCU: 0x50FE1, offset: 0x89ACF, size: 0x8, addend: 0x0, symName: __ZNSt3__117__compressed_pairINS_12basic_stringIcNS_11char_traitsIcEENS_9allocatorIcEEE5__repES5_E5firstB7v160006Ev, symObjAddr: 0x2170, symBinAddr: 0x10760, symSize: 0x20 }
  - { offsetInCU: 0x51006, offset: 0x89AF4, size: 0x8, addend: 0x0, symName: __ZNSt3__122__compressed_pair_elemINS_12basic_stringIcNS_11char_traitsIcEENS_9allocatorIcEEE5__repELi0ELb0EE5__getB7v160006Ev, symObjAddr: 0x2190, symBinAddr: 0x10780, symSize: 0x10 }
  - { offsetInCU: 0x5102B, offset: 0x89B19, size: 0x8, addend: 0x0, symName: __ZNSt3__112basic_stringIcNS_11char_traitsIcEENS_9allocatorIcEEEC1B7v160006Ev, symObjAddr: 0x21D0, symBinAddr: 0x10790, symSize: 0x20 }
  - { offsetInCU: 0x51054, offset: 0x89B42, size: 0x8, addend: 0x0, symName: __ZNK8pybind116handlecvbEv, symObjAddr: 0x21F0, symBinAddr: 0x107B0, symSize: 0x20 }
  - { offsetInCU: 0x51079, offset: 0x89B67, size: 0x8, addend: 0x0, symName: __ZNK8pybind116handle3ptrEv, symObjAddr: 0x2250, symBinAddr: 0x10810, symSize: 0x20 }
  - { offsetInCU: 0x5109E, offset: 0x89B8C, size: 0x8, addend: 0x0, symName: __ZNSt3__112basic_stringIcNS_11char_traitsIcEENS_9allocatorIcEEEaSB7v160006EOS5_, symObjAddr: 0x22F0, symBinAddr: 0x108B0, symSize: 0x30 }
  - { offsetInCU: 0x510D2, offset: 0x89BC0, size: 0x8, addend: 0x0, symName: __ZNSt3__112basic_stringIcNS_11char_traitsIcEENS_9allocatorIcEEEaSB7v160006EPKc, symObjAddr: 0x2320, symBinAddr: 0x108E0, symSize: 0x30 }
  - { offsetInCU: 0x51106, offset: 0x89BF4, size: 0x8, addend: 0x0, symName: __ZNSt3__112basic_stringIcNS_11char_traitsIcEENS_9allocatorIcEEEC1B7v160006EPKcm, symObjAddr: 0x2350, symBinAddr: 0x10910, symSize: 0x30 }
  - { offsetInCU: 0x5114D, offset: 0x89C3B, size: 0x8, addend: 0x0, symName: __ZN8pybind116objectD1Ev, symObjAddr: 0x2380, symBinAddr: 0x10940, symSize: 0x20 }
  - { offsetInCU: 0x51175, offset: 0x89C63, size: 0x8, addend: 0x0, symName: __ZL17PyType_HasFeatureP11_typeobjectm, symObjAddr: 0x23F0, symBinAddr: 0x109B0, symSize: 0x40 }
  - { offsetInCU: 0x511C2, offset: 0x89CB0, size: 0x8, addend: 0x0, symName: __ZL7Py_TYPEP7_object, symObjAddr: 0x2430, symBinAddr: 0x109F0, symSize: 0x20 }
  - { offsetInCU: 0x511F0, offset: 0x89CDE, size: 0x8, addend: 0x0, symName: __ZNSt3__112basic_stringIcNS_11char_traitsIcEENS_9allocatorIcEEEpLB7v160006Ec, symObjAddr: 0x24A0, symBinAddr: 0x10A60, symSize: 0x30 }
  - { offsetInCU: 0x51224, offset: 0x89D12, size: 0x8, addend: 0x0, symName: __ZNKSt3__112basic_stringIcNS_11char_traitsIcEENS_9allocatorIcEEE5emptyB7v160006Ev, symObjAddr: 0x24D0, symBinAddr: 0x10A90, symSize: 0x30 }
  - { offsetInCU: 0x51249, offset: 0x89D37, size: 0x8, addend: 0x0, symName: __ZL10Py_XINCREFP7_object, symObjAddr: 0x2500, symBinAddr: 0x10AC0, symSize: 0x30 }
  - { offsetInCU: 0x51274, offset: 0x89D62, size: 0x8, addend: 0x0, symName: __ZNSt3__112basic_stringIcNS_11char_traitsIcEENS_9allocatorIcEEEpLB7v160006EPKc, symObjAddr: 0x2530, symBinAddr: 0x10AF0, symSize: 0x30 }
  - { offsetInCU: 0x512A8, offset: 0x89D96, size: 0x8, addend: 0x0, symName: __ZNK8pybind116handle4castINSt3__112basic_stringIcNS2_11char_traitsIcEENS2_9allocatorIcEEEEEET_v, symObjAddr: 0x2560, symBinAddr: 0x10B20, symSize: 0x30 }
  - { offsetInCU: 0x512D9, offset: 0x89DC7, size: 0x8, addend: 0x0, symName: __ZL9Py_DECREFP7_object, symObjAddr: 0x2590, symBinAddr: 0x10B50, symSize: 0x40 }
  - { offsetInCU: 0x51304, offset: 0x89DF2, size: 0x8, addend: 0x0, symName: __ZNSt3__112basic_stringIcNS_11char_traitsIcEENS_9allocatorIcEEEC2B7v160006Ev, symObjAddr: 0x25D0, symBinAddr: 0x10B90, symSize: 0x50 }
  - { offsetInCU: 0x51332, offset: 0x89E20, size: 0x8, addend: 0x0, symName: __ZN8pybind116objectC1ENS_6handleENS0_8stolen_tE, symObjAddr: 0x26E0, symBinAddr: 0x10BE0, symSize: 0x30 }
  - { offsetInCU: 0x51376, offset: 0x89E64, size: 0x8, addend: 0x0, symName: __ZN8pybind116objectC2ENS_6handleENS0_8stolen_tE, symObjAddr: 0x2710, symBinAddr: 0x10C10, symSize: 0x20 }
  - { offsetInCU: 0x513BA, offset: 0x89EA8, size: 0x8, addend: 0x0, symName: __ZN8pybind116detail25error_fetch_and_normalizeC1EPKc, symObjAddr: 0x2730, symBinAddr: 0x10C30, symSize: 0x30 }
  - { offsetInCU: 0x513F2, offset: 0x89EE0, size: 0x8, addend: 0x0, symName: __ZN8pybind116detail25error_fetch_and_normalizeD1Ev, symObjAddr: 0x2760, symBinAddr: 0x10C60, symSize: 0x20 }
  - { offsetInCU: 0x5141E, offset: 0x89F0C, size: 0x8, addend: 0x0, symName: __ZN8pybind116detail25error_fetch_and_normalizeC2EPKc, symObjAddr: 0x2780, symBinAddr: 0x10C80, symSize: 0x730 }
  - { offsetInCU: 0x5149B, offset: 0x89F89, size: 0x8, addend: 0x0, symName: __ZN8pybind116objectC1Ev, symObjAddr: 0x2EB0, symBinAddr: 0x113B0, symSize: 0x20 }
  - { offsetInCU: 0x514C9, offset: 0x89FB7, size: 0x8, addend: 0x0, symName: __ZN8pybind116objectC2Ev, symObjAddr: 0x3060, symBinAddr: 0x11530, symSize: 0x20 }
  - { offsetInCU: 0x514F2, offset: 0x89FE0, size: 0x8, addend: 0x0, symName: __ZN8pybind116handleC2Ev, symObjAddr: 0x3080, symBinAddr: 0x11550, symSize: 0x20 }
  - { offsetInCU: 0x5151A, offset: 0x8A008, size: 0x8, addend: 0x0, symName: __ZL12PyType_CheckP7_object, symObjAddr: 0x3150, symBinAddr: 0x11570, symSize: 0x30 }
  - { offsetInCU: 0x5154A, offset: 0x8A038, size: 0x8, addend: 0x0, symName: __ZNKSt3__112basic_stringIcNS_11char_traitsIcEENS_9allocatorIcEEEcvNS_17basic_string_viewIcS2_EEB7v160006Ev, symObjAddr: 0x3210, symBinAddr: 0x11630, symSize: 0x50 }
  - { offsetInCU: 0x5156F, offset: 0x8A05D, size: 0x8, addend: 0x0, symName: __ZNSt3__117basic_string_viewIcNS_11char_traitsIcEEEC1B7v160006EPKc, symObjAddr: 0x3260, symBinAddr: 0x11680, symSize: 0x30 }
  - { offsetInCU: 0x515A7, offset: 0x8A095, size: 0x8, addend: 0x0, symName: __ZNKSt3__117basic_string_viewIcNS_11char_traitsIcEEE4sizeB7v160006Ev, symObjAddr: 0x3290, symBinAddr: 0x116B0, symSize: 0x20 }
  - { offsetInCU: 0x515CC, offset: 0x8A0BA, size: 0x8, addend: 0x0, symName: __ZNKSt3__117basic_string_viewIcNS_11char_traitsIcEEE7compareES3_, symObjAddr: 0x32B0, symBinAddr: 0x116D0, symSize: 0x100 }
  - { offsetInCU: 0x5161E, offset: 0x8A10C, size: 0x8, addend: 0x0, symName: __ZNKSt3__117basic_string_viewIcNS_11char_traitsIcEEE4dataB7v160006Ev, symObjAddr: 0x3440, symBinAddr: 0x117D0, symSize: 0x20 }
  - { offsetInCU: 0x51643, offset: 0x8A131, size: 0x8, addend: 0x0, symName: __ZNSt3__117basic_string_viewIcNS_11char_traitsIcEEEC1B7v160006EPKcm, symObjAddr: 0x3590, symBinAddr: 0x117F0, symSize: 0x30 }
  - { offsetInCU: 0x5168A, offset: 0x8A178, size: 0x8, addend: 0x0, symName: __ZNSt3__117basic_string_viewIcNS_11char_traitsIcEEEC2B7v160006EPKcm, symObjAddr: 0x36D0, symBinAddr: 0x11820, symSize: 0x50 }
  - { offsetInCU: 0x516D1, offset: 0x8A1BF, size: 0x8, addend: 0x0, symName: __ZNSt3__117basic_string_viewIcNS_11char_traitsIcEEEC2B7v160006EPKc, symObjAddr: 0x3720, symBinAddr: 0x11870, symSize: 0x40 }
  - { offsetInCU: 0x51709, offset: 0x8A1F7, size: 0x8, addend: 0x0, symName: __ZN8pybind116detail25error_fetch_and_normalizeD2Ev, symObjAddr: 0x3780, symBinAddr: 0x118D0, symSize: 0x50 }
  - { offsetInCU: 0x51735, offset: 0x8A223, size: 0x8, addend: 0x0, symName: __ZNSt3__112basic_stringIcNS_11char_traitsIcEENS_9allocatorIcEEE13__move_assignB7v160006ERS5_NS_17integral_constantIbLb1EEE, symObjAddr: 0x37D0, symBinAddr: 0x11920, symSize: 0xD0 }
  - { offsetInCU: 0x51776, offset: 0x8A264, size: 0x8, addend: 0x0, symName: __ZNSt3__116allocator_traitsINS_9allocatorIcEEE10deallocateB7v160006ERS2_Pcm, symObjAddr: 0x38A0, symBinAddr: 0x119F0, symSize: 0x30 }
  - { offsetInCU: 0x517B8, offset: 0x8A2A6, size: 0x8, addend: 0x0, symName: __ZNSt3__112basic_stringIcNS_11char_traitsIcEENS_9allocatorIcEEE7__allocB7v160006Ev, symObjAddr: 0x38D0, symBinAddr: 0x11A20, symSize: 0x20 }
  - { offsetInCU: 0x517DD, offset: 0x8A2CB, size: 0x8, addend: 0x0, symName: __ZNSt3__112basic_stringIcNS_11char_traitsIcEENS_9allocatorIcEEE18__get_long_pointerB7v160006Ev, symObjAddr: 0x38F0, symBinAddr: 0x11A40, symSize: 0x20 }
  - { offsetInCU: 0x51802, offset: 0x8A2F0, size: 0x8, addend: 0x0, symName: __ZNKSt3__112basic_stringIcNS_11char_traitsIcEENS_9allocatorIcEEE14__get_long_capB7v160006Ev, symObjAddr: 0x3910, symBinAddr: 0x11A60, symSize: 0x30 }
  - { offsetInCU: 0x51827, offset: 0x8A315, size: 0x8, addend: 0x0, symName: __ZNSt3__112basic_stringIcNS_11char_traitsIcEENS_9allocatorIcEEE19__move_assign_allocB7v160006ERS5_, symObjAddr: 0x3940, symBinAddr: 0x11A90, symSize: 0x30 }
  - { offsetInCU: 0x5185B, offset: 0x8A349, size: 0x8, addend: 0x0, symName: __ZNSt3__112basic_stringIcNS_11char_traitsIcEENS_9allocatorIcEEE16__set_short_sizeB7v160006Em, symObjAddr: 0x3970, symBinAddr: 0x11AC0, symSize: 0x50 }
  - { offsetInCU: 0x5188F, offset: 0x8A37D, size: 0x8, addend: 0x0, symName: __ZNSt3__111char_traitsIcE6assignERcRKc, symObjAddr: 0x39C0, symBinAddr: 0x11B10, symSize: 0x20 }
  - { offsetInCU: 0x518C0, offset: 0x8A3AE, size: 0x8, addend: 0x0, symName: __ZNSt3__112basic_stringIcNS_11char_traitsIcEENS_9allocatorIcEEE19__get_short_pointerB7v160006Ev, symObjAddr: 0x39E0, symBinAddr: 0x11B30, symSize: 0x30 }
  - { offsetInCU: 0x518E5, offset: 0x8A3D3, size: 0x8, addend: 0x0, symName: __ZNSt3__19allocatorIcE10deallocateB7v160006EPcm, symObjAddr: 0x3A10, symBinAddr: 0x11B60, symSize: 0x40 }
  - { offsetInCU: 0x51926, offset: 0x8A414, size: 0x8, addend: 0x0, symName: __ZNSt3__117__compressed_pairINS_12basic_stringIcNS_11char_traitsIcEENS_9allocatorIcEEE5__repES5_E6secondB7v160006Ev, symObjAddr: 0x3B70, symBinAddr: 0x11BA0, symSize: 0x20 }
  - { offsetInCU: 0x5194B, offset: 0x8A439, size: 0x8, addend: 0x0, symName: __ZNSt3__122__compressed_pair_elemINS_9allocatorIcEELi1ELb1EE5__getB7v160006Ev, symObjAddr: 0x3B90, symBinAddr: 0x11BC0, symSize: 0x10 }
  - { offsetInCU: 0x51970, offset: 0x8A45E, size: 0x8, addend: 0x0, symName: __ZNSt3__112basic_stringIcNS_11char_traitsIcEENS_9allocatorIcEEE19__move_assign_allocB7v160006ERS5_NS_17integral_constantIbLb1EEE, symObjAddr: 0x3BA0, symBinAddr: 0x11BD0, symSize: 0x30 }
  - { offsetInCU: 0x519B0, offset: 0x8A49E, size: 0x8, addend: 0x0, symName: __ZNSt3__114pointer_traitsIPcE10pointer_toB7v160006ERc, symObjAddr: 0x3BD0, symBinAddr: 0x11C00, symSize: 0x10 }
  - { offsetInCU: 0x519D3, offset: 0x8A4C1, size: 0x8, addend: 0x0, symName: __ZNSt3__112basic_stringIcNS_11char_traitsIcEENS_9allocatorIcEEEC2B7v160006EPKcm, symObjAddr: 0x3BE0, symBinAddr: 0x11C10, symSize: 0x70 }
  - { offsetInCU: 0x51A1A, offset: 0x8A508, size: 0x8, addend: 0x0, symName: __ZN8pybind116objectD2Ev, symObjAddr: 0x3C50, symBinAddr: 0x11C80, symSize: 0x30 }
  - { offsetInCU: 0x51A43, offset: 0x8A531, size: 0x8, addend: 0x0, symName: __ZNKR8pybind116handle7dec_refEv, symObjAddr: 0x3C80, symBinAddr: 0x11CB0, symSize: 0xA0 }
  - { offsetInCU: 0x51A68, offset: 0x8A556, size: 0x8, addend: 0x0, symName: __ZNK8pybind116handle20throw_gilstate_errorERKNSt3__112basic_stringIcNS1_11char_traitsIcEENS1_9allocatorIcEEEE, symObjAddr: 0x3D20, symBinAddr: 0x11D50, symSize: 0x180 }
  - { offsetInCU: 0x51A9C, offset: 0x8A58A, size: 0x8, addend: 0x0, symName: __ZL10Py_XDECREFP7_object, symObjAddr: 0x3EA0, symBinAddr: 0x11ED0, symSize: 0x30 }
  - { offsetInCU: 0x51AD1, offset: 0x8A5BF, size: 0x8, addend: 0x0, symName: __ZNSt3__116allocator_traitsINS_9allocatorIcEEE37select_on_container_copy_constructionB7v160006IS2_vvEES2_RKS2_, symObjAddr: 0x3FD0, symBinAddr: 0x12000, symSize: 0x10 }
  - { offsetInCU: 0x51B00, offset: 0x8A5EE, size: 0x8, addend: 0x0, symName: __ZNKSt3__112basic_stringIcNS_11char_traitsIcEENS_9allocatorIcEEE13get_allocatorB7v160006Ev, symObjAddr: 0x3FE0, symBinAddr: 0x12010, symSize: 0x20 }
  - { offsetInCU: 0x51B25, offset: 0x8A613, size: 0x8, addend: 0x0, symName: __ZNSt3__112basic_stringIcNS_11char_traitsIcEENS_9allocatorIcEEEC1B7v160006ENS_24__uninitialized_size_tagEmRKS4_, symObjAddr: 0x4000, symBinAddr: 0x12030, symSize: 0x30 }
  - { offsetInCU: 0x51B78, offset: 0x8A666, size: 0x8, addend: 0x0, symName: __ZNSt3__112basic_stringIcNS_11char_traitsIcEENS_9allocatorIcEEE13__get_pointerB7v160006Ev, symObjAddr: 0x4040, symBinAddr: 0x12070, symSize: 0x50 }
  - { offsetInCU: 0x51B9D, offset: 0x8A68B, size: 0x8, addend: 0x0, symName: __ZNSt3__111char_traitsIcE4copyEPcPKcm, symObjAddr: 0x4090, symBinAddr: 0x120C0, symSize: 0x70 }
  - { offsetInCU: 0x51BDC, offset: 0x8A6CA, size: 0x8, addend: 0x0, symName: __ZNSt3__111char_traitsIcE6assignEPcmc, symObjAddr: 0x4100, symBinAddr: 0x12130, symSize: 0x40 }
  - { offsetInCU: 0x51C1B, offset: 0x8A709, size: 0x8, addend: 0x0, symName: __ZNKSt3__112basic_stringIcNS_11char_traitsIcEENS_9allocatorIcEEE7__allocB7v160006Ev, symObjAddr: 0x4140, symBinAddr: 0x12170, symSize: 0x20 }
  - { offsetInCU: 0x51C40, offset: 0x8A72E, size: 0x8, addend: 0x0, symName: __ZNKSt3__117__compressed_pairINS_12basic_stringIcNS_11char_traitsIcEENS_9allocatorIcEEE5__repES5_E6secondB7v160006Ev, symObjAddr: 0x4160, symBinAddr: 0x12190, symSize: 0x20 }
  - { offsetInCU: 0x51C65, offset: 0x8A753, size: 0x8, addend: 0x0, symName: __ZNKSt3__122__compressed_pair_elemINS_9allocatorIcEELi1ELb1EE5__getB7v160006Ev, symObjAddr: 0x4180, symBinAddr: 0x121B0, symSize: 0x10 }
  - { offsetInCU: 0x51C8A, offset: 0x8A778, size: 0x8, addend: 0x0, symName: __ZNSt3__112basic_stringIcNS_11char_traitsIcEENS_9allocatorIcEEEC2B7v160006ENS_24__uninitialized_size_tagEmRKS4_, symObjAddr: 0x4190, symBinAddr: 0x121C0, symSize: 0x120 }
  - { offsetInCU: 0x51D0B, offset: 0x8A7F9, size: 0x8, addend: 0x0, symName: __ZNSt3__117__compressed_pairINS_12basic_stringIcNS_11char_traitsIcEENS_9allocatorIcEEE5__repES5_EC1B7v160006INS_18__default_init_tagERKS5_EEOT_OT0_, symObjAddr: 0x42B0, symBinAddr: 0x122E0, symSize: 0x30 }
  - { offsetInCU: 0x51D62, offset: 0x8A850, size: 0x8, addend: 0x0, symName: __ZNKSt3__112basic_stringIcNS_11char_traitsIcEENS_9allocatorIcEEE8max_sizeB7v160006Ev, symObjAddr: 0x42E0, symBinAddr: 0x12310, symSize: 0xA0 }
  - { offsetInCU: 0x51DB3, offset: 0x8A8A1, size: 0x8, addend: 0x0, symName: __ZNKSt3__112basic_stringIcNS_11char_traitsIcEENS_9allocatorIcEEE20__throw_length_errorB7v160006Ev, symObjAddr: 0x4380, symBinAddr: 0x123B0, symSize: 0x20 }
  - { offsetInCU: 0x51DD8, offset: 0x8A8C6, size: 0x8, addend: 0x0, symName: __ZNSt3__112basic_stringIcNS_11char_traitsIcEENS_9allocatorIcEEE13__fits_in_ssoB7v160006Em, symObjAddr: 0x43A0, symBinAddr: 0x123D0, symSize: 0x20 }
  - { offsetInCU: 0x51DFC, offset: 0x8A8EA, size: 0x8, addend: 0x0, symName: __ZNSt3__112basic_stringIcNS_11char_traitsIcEENS_9allocatorIcEEE11__recommendB7v160006Em, symObjAddr: 0x43C0, symBinAddr: 0x123F0, symSize: 0x70 }
  - { offsetInCU: 0x51E2F, offset: 0x8A91D, size: 0x8, addend: 0x0, symName: __ZNSt3__116allocator_traitsINS_9allocatorIcEEE8allocateB7v160006ERS2_m, symObjAddr: 0x4430, symBinAddr: 0x12460, symSize: 0x30 }
  - { offsetInCU: 0x51E62, offset: 0x8A950, size: 0x8, addend: 0x0, symName: __ZNSt3__112basic_stringIcNS_11char_traitsIcEENS_9allocatorIcEEE16__begin_lifetimeB7v160006EPcm, symObjAddr: 0x4460, symBinAddr: 0x12490, symSize: 0x10 }
  - { offsetInCU: 0x51E95, offset: 0x8A983, size: 0x8, addend: 0x0, symName: __ZNSt3__112basic_stringIcNS_11char_traitsIcEENS_9allocatorIcEEE14__set_long_capB7v160006Em, symObjAddr: 0x4470, symBinAddr: 0x124A0, symSize: 0x70 }
  - { offsetInCU: 0x51EC9, offset: 0x8A9B7, size: 0x8, addend: 0x0, symName: __ZNSt3__112basic_stringIcNS_11char_traitsIcEENS_9allocatorIcEEE18__set_long_pointerB7v160006EPc, symObjAddr: 0x44E0, symBinAddr: 0x12510, symSize: 0x30 }
  - { offsetInCU: 0x51EFD, offset: 0x8A9EB, size: 0x8, addend: 0x0, symName: __ZNSt3__112basic_stringIcNS_11char_traitsIcEENS_9allocatorIcEEE15__set_long_sizeB7v160006Em, symObjAddr: 0x4510, symBinAddr: 0x12540, symSize: 0x30 }
  - { offsetInCU: 0x51F31, offset: 0x8AA1F, size: 0x8, addend: 0x0, symName: __ZNSt3__117__compressed_pairINS_12basic_stringIcNS_11char_traitsIcEENS_9allocatorIcEEE5__repES5_EC2B7v160006INS_18__default_init_tagERKS5_EEOT_OT0_, symObjAddr: 0x4540, symBinAddr: 0x12570, symSize: 0x40 }
  - { offsetInCU: 0x51F88, offset: 0x8AA76, size: 0x8, addend: 0x0, symName: __ZNSt3__122__compressed_pair_elemINS_9allocatorIcEELi1ELb1EEC2B7v160006IRKS2_vEEOT_, symObjAddr: 0x4580, symBinAddr: 0x125B0, symSize: 0x10 }
  - { offsetInCU: 0x51FC9, offset: 0x8AAB7, size: 0x8, addend: 0x0, symName: __ZNSt3__116allocator_traitsINS_9allocatorIcEEE8max_sizeB7v160006IS2_vvEEmRKS2_, symObjAddr: 0x4590, symBinAddr: 0x125C0, symSize: 0x20 }
  - { offsetInCU: 0x51FF5, offset: 0x8AAE3, size: 0x8, addend: 0x0, symName: __ZNSt3__112basic_stringIcNS_11char_traitsIcEENS_9allocatorIcEEE10__align_itB7v160006ILm16EEEmm, symObjAddr: 0x46B0, symBinAddr: 0x125E0, symSize: 0x20 }
  - { offsetInCU: 0x52023, offset: 0x8AB11, size: 0x8, addend: 0x0, symName: __ZNSt3__19allocatorIcE8allocateB7v160006Em, symObjAddr: 0x46D0, symBinAddr: 0x12600, symSize: 0x50 }
  - { offsetInCU: 0x52079, offset: 0x8AB67, size: 0x8, addend: 0x0, symName: __ZNKSt3__114__copy_trivialclB7v160006IKccLi0EEENS_4pairIPT_PT0_EES5_S5_S7_, symObjAddr: 0x4A00, symBinAddr: 0x12840, symSize: 0x40 }
  - { offsetInCU: 0x520F9, offset: 0x8ABE7, size: 0x8, addend: 0x0, symName: __ZNSt3__119__unwrap_range_implIPKcS2_E8__unwrapB7v160006ES2_S2_, symObjAddr: 0x4B00, symBinAddr: 0x12940, symSize: 0x50 }
  - { offsetInCU: 0x5212F, offset: 0x8AC1D, size: 0x8, addend: 0x0, symName: __ZNSt3__14pairIPKcS2_EC1B7v160006IS2_S2_LPv0EEEOT_OT0_, symObjAddr: 0x4B70, symBinAddr: 0x129B0, symSize: 0x30 }
  - { offsetInCU: 0x5218C, offset: 0x8AC7A, size: 0x8, addend: 0x0, symName: __ZNSt3__118__unwrap_iter_implIPKcLb1EE8__unwrapB7v160006ES2_, symObjAddr: 0x4BA0, symBinAddr: 0x129E0, symSize: 0x20 }
  - { offsetInCU: 0x521AF, offset: 0x8AC9D, size: 0x8, addend: 0x0, symName: __ZNSt3__14pairIPKcS2_EC2B7v160006IS2_S2_LPv0EEEOT_OT0_, symObjAddr: 0x4BC0, symBinAddr: 0x12A00, symSize: 0x30 }
  - { offsetInCU: 0x52216, offset: 0x8AD04, size: 0x8, addend: 0x0, symName: __ZNSt3__14pairIPKcPcEC1B7v160006IRS2_S3_LPv0EEEOT_OT0_, symObjAddr: 0x4C90, symBinAddr: 0x12AD0, symSize: 0x30 }
  - { offsetInCU: 0x52273, offset: 0x8AD61, size: 0x8, addend: 0x0, symName: __ZNSt3__14pairIPKcPcEC2B7v160006IRS2_S3_LPv0EEEOT_OT0_, symObjAddr: 0x4CC0, symBinAddr: 0x12B00, symSize: 0x30 }
  - { offsetInCU: 0x522D0, offset: 0x8ADBE, size: 0x8, addend: 0x0, symName: __ZNSt3__118__unwrap_iter_implIPcLb1EE8__unwrapB7v160006ES1_, symObjAddr: 0x4CF0, symBinAddr: 0x12B30, symSize: 0x20 }
  - { offsetInCU: 0x522F3, offset: 0x8ADE1, size: 0x8, addend: 0x0, symName: __ZNSt3__14pairIPKcPcEC1B7v160006IS2_S3_LPv0EEEOT_OT0_, symObjAddr: 0x4D10, symBinAddr: 0x12B50, symSize: 0x30 }
  - { offsetInCU: 0x52350, offset: 0x8AE3E, size: 0x8, addend: 0x0, symName: __ZNSt3__14pairIPKcPcEC2B7v160006IS2_S3_LPv0EEEOT_OT0_, symObjAddr: 0x4D40, symBinAddr: 0x12B80, symSize: 0x30 }
  - { offsetInCU: 0x523AD, offset: 0x8AE9B, size: 0x8, addend: 0x0, symName: __ZNSt3__119__unwrap_range_implIPKcS2_E8__rewrapB7v160006ES2_S2_, symObjAddr: 0x4D70, symBinAddr: 0x12BB0, symSize: 0x30 }
  - { offsetInCU: 0x523DE, offset: 0x8AECC, size: 0x8, addend: 0x0, symName: __ZNSt3__118__unwrap_iter_implIPKcLb1EE8__rewrapB7v160006ES2_S2_, symObjAddr: 0x4DE0, symBinAddr: 0x12C20, symSize: 0x40 }
  - { offsetInCU: 0x5240F, offset: 0x8AEFD, size: 0x8, addend: 0x0, symName: __ZNSt3__118__unwrap_iter_implIPcLb1EE8__rewrapB7v160006ES1_S1_, symObjAddr: 0x4E20, symBinAddr: 0x12C60, symSize: 0x40 }
  - { offsetInCU: 0x52440, offset: 0x8AF2E, size: 0x8, addend: 0x0, symName: __ZNSt3__112basic_stringIcNS_11char_traitsIcEENS_9allocatorIcEEE6appendB7v160006ERKS5_, symObjAddr: 0x4F00, symBinAddr: 0x12D40, symSize: 0x50 }
  - { offsetInCU: 0x52474, offset: 0x8AF62, size: 0x8, addend: 0x0, symName: __ZL9Py_INCREFP7_object, symObjAddr: 0x4F50, symBinAddr: 0x12D90, symSize: 0x20 }
  - { offsetInCU: 0x524A4, offset: 0x8AF92, size: 0x8, addend: 0x0, symName: __ZN8pybind116detail11type_casterINSt3__112basic_stringIcNS2_11char_traitsIcEENS2_9allocatorIcEEEEvED1Ev, symObjAddr: 0x5090, symBinAddr: 0x12ED0, symSize: 0x20 }
  - { offsetInCU: 0x524D0, offset: 0x8AFBE, size: 0x8, addend: 0x0, symName: __ZNO8pybind116detail13string_casterINSt3__112basic_stringIcNS2_11char_traitsIcEENS2_9allocatorIcEEEELb0EEcvOS8_Ev, symObjAddr: 0x50B0, symBinAddr: 0x12EF0, symSize: 0x10 }
  - { offsetInCU: 0x524F5, offset: 0x8AFE3, size: 0x8, addend: 0x0, symName: __ZN8pybind116detail11type_casterINSt3__112basic_stringIcNS2_11char_traitsIcEENS2_9allocatorIcEEEEvEC1Ev, symObjAddr: 0x50C0, symBinAddr: 0x12F00, symSize: 0x20 }
  - { offsetInCU: 0x52521, offset: 0x8B00F, size: 0x8, addend: 0x0, symName: __ZN8pybind116detail11type_casterINSt3__112basic_stringIcNS2_11char_traitsIcEENS2_9allocatorIcEEEEvEC2Ev, symObjAddr: 0x5380, symBinAddr: 0x131C0, symSize: 0x20 }
  - { offsetInCU: 0x5254D, offset: 0x8B03B, size: 0x8, addend: 0x0, symName: __ZN8pybind116detail13string_casterINSt3__112basic_stringIcNS2_11char_traitsIcEENS2_9allocatorIcEEEELb0EEC2Ev, symObjAddr: 0x53A0, symBinAddr: 0x131E0, symSize: 0x20 }
  - { offsetInCU: 0x52579, offset: 0x8B067, size: 0x8, addend: 0x0, symName: __ZN8pybind116detail13string_casterINSt3__112basic_stringIcNS2_11char_traitsIcEENS2_9allocatorIcEEEELb0EE4loadENS_6handleEb, symObjAddr: 0x53C0, symBinAddr: 0x13200, symSize: 0x100 }
  - { offsetInCU: 0x52603, offset: 0x8B0F1, size: 0x8, addend: 0x0, symName: __ZN8pybind114type9handle_ofENS_6handleE, symObjAddr: 0x54C0, symBinAddr: 0x13300, symSize: 0x40 }
  - { offsetInCU: 0x52627, offset: 0x8B115, size: 0x8, addend: 0x0, symName: __ZN8pybind113strC1ENS_6handleE, symObjAddr: 0x5500, symBinAddr: 0x13340, symSize: 0x30 }
  - { offsetInCU: 0x5265F, offset: 0x8B14D, size: 0x8, addend: 0x0, symName: __ZNO8pybind116object4castINSt3__112basic_stringIcNS2_11char_traitsIcEENS2_9allocatorIcEEEEEET_v, symObjAddr: 0x5530, symBinAddr: 0x13370, symSize: 0x30 }
  - { offsetInCU: 0x52690, offset: 0x8B17E, size: 0x8, addend: 0x0, symName: __ZN8pybind1110cast_errorCI1St13runtime_errorERKNSt3__112basic_stringIcNS1_11char_traitsIcEENS1_9allocatorIcEEEE, symObjAddr: 0x55A0, symBinAddr: 0x133E0, symSize: 0x30 }
  - { offsetInCU: 0x526C5, offset: 0x8B1B3, size: 0x8, addend: 0x0, symName: __ZN8pybind1110cast_errorD1Ev, symObjAddr: 0x55D0, symBinAddr: 0x13410, symSize: 0x20 }
  - { offsetInCU: 0x526F1, offset: 0x8B1DF, size: 0x8, addend: 0x0, symName: __ZN8pybind113strD1Ev, symObjAddr: 0x55F0, symBinAddr: 0x13430, symSize: 0x20 }
  - { offsetInCU: 0x5271D, offset: 0x8B20B, size: 0x8, addend: 0x0, symName: __ZN8pybind116detail13string_casterINSt3__112basic_stringIcNS2_11char_traitsIcEENS2_9allocatorIcEEEELb0EE8load_rawIcEEbNS2_9enable_ifIXsr3std7is_sameIT_cEE5valueENS_6handleEE4typeE, symObjAddr: 0x5610, symBinAddr: 0x13450, symSize: 0x160 }
  - { offsetInCU: 0x52793, offset: 0x8B281, size: 0x8, addend: 0x0, symName: __ZL18PyObject_TypeCheckP7_objectP11_typeobject, symObjAddr: 0x5770, symBinAddr: 0x135B0, symSize: 0x60 }
  - { offsetInCU: 0x527D1, offset: 0x8B2BF, size: 0x8, addend: 0x0, symName: __ZL10Py_IS_TYPEP7_objectP11_typeobject, symObjAddr: 0x57D0, symBinAddr: 0x13610, symSize: 0x30 }
  - { offsetInCU: 0x5280D, offset: 0x8B2FB, size: 0x8, addend: 0x0, symName: __ZN8pybind113strC2ENS_6handleE, symObjAddr: 0x5800, symBinAddr: 0x13640, symSize: 0xD0 }
  - { offsetInCU: 0x52845, offset: 0x8B333, size: 0x8, addend: 0x0, symName: __ZN8pybind113str7raw_strEP7_object, symObjAddr: 0x58D0, symBinAddr: 0x13710, symSize: 0x30 }
  - { offsetInCU: 0x52878, offset: 0x8B366, size: 0x8, addend: 0x0, symName: __ZN8pybind1117error_already_setC1Ev, symObjAddr: 0x5900, symBinAddr: 0x13740, symSize: 0x20 }
  - { offsetInCU: 0x528A1, offset: 0x8B38F, size: 0x8, addend: 0x0, symName: __ZN8pybind1117error_already_setC2Ev, symObjAddr: 0x5920, symBinAddr: 0x13760, symSize: 0xC0 }
  - { offsetInCU: 0x528CA, offset: 0x8B3B8, size: 0x8, addend: 0x0, symName: __ZNSt9exceptionC2B7v160006Ev, symObjAddr: 0x59E0, symBinAddr: 0x13820, symSize: 0x20 }
  - { offsetInCU: 0x528F3, offset: 0x8B3E1, size: 0x8, addend: 0x0, symName: __ZN8pybind1117error_already_set23m_fetched_error_deleterEPNS_6detail25error_fetch_and_normalizeE, symObjAddr: 0x5A00, symBinAddr: 0x13840, symSize: 0x80 }
  - { offsetInCU: 0x52945, offset: 0x8B433, size: 0x8, addend: 0x0, symName: __ZNSt3__110shared_ptrIN8pybind116detail25error_fetch_and_normalizeEEC1B7v160006IS3_PFvPS3_EvEEPT_T0_, symObjAddr: 0x5A80, symBinAddr: 0x138C0, symSize: 0x30 }
  - { offsetInCU: 0x5299F, offset: 0x8B48D, size: 0x8, addend: 0x0, symName: __ZNSt3__110shared_ptrIN8pybind116detail25error_fetch_and_normalizeEEC2B7v160006IS3_PFvPS3_EvEEPT_T0_, symObjAddr: 0x5AB0, symBinAddr: 0x138F0, symSize: 0x110 }
  - { offsetInCU: 0x52A03, offset: 0x8B4F1, size: 0x8, addend: 0x0, symName: __ZNSt3__19allocatorIN8pybind116detail25error_fetch_and_normalizeEEC1B7v160006Ev, symObjAddr: 0x5BC0, symBinAddr: 0x13A00, symSize: 0x20 }
  - { offsetInCU: 0x52AEF, offset: 0x8B5DD, size: 0x8, addend: 0x0, symName: __ZNSt3__120__shared_ptr_pointerIPN8pybind116detail25error_fetch_and_normalizeEPFvS4_ENS_9allocatorIS3_EEEC1B7v160006ES4_S6_S8_, symObjAddr: 0x5BE0, symBinAddr: 0x13A20, symSize: 0x30 }
  - { offsetInCU: 0x52B42, offset: 0x8B630, size: 0x8, addend: 0x0, symName: __ZNSt3__110shared_ptrIN8pybind116detail25error_fetch_and_normalizeEE18__enable_weak_thisB7v160006Ez, symObjAddr: 0x5C10, symBinAddr: 0x13A50, symSize: 0x10 }
  - { offsetInCU: 0x52B68, offset: 0x8B656, size: 0x8, addend: 0x0, symName: __ZNSt3__19allocatorIN8pybind116detail25error_fetch_and_normalizeEEC2B7v160006Ev, symObjAddr: 0x5C20, symBinAddr: 0x13A60, symSize: 0x20 }
  - { offsetInCU: 0x52B91, offset: 0x8B67F, size: 0x8, addend: 0x0, symName: __ZNSt3__116__non_trivial_ifILb1ENS_9allocatorIN8pybind116detail25error_fetch_and_normalizeEEEEC2B7v160006Ev, symObjAddr: 0x5C40, symBinAddr: 0x13A80, symSize: 0x10 }
  - { offsetInCU: 0x52BBA, offset: 0x8B6A8, size: 0x8, addend: 0x0, symName: __ZNSt3__120__shared_ptr_pointerIPN8pybind116detail25error_fetch_and_normalizeEPFvS4_ENS_9allocatorIS3_EEEC2B7v160006ES4_S6_S8_, symObjAddr: 0x5C50, symBinAddr: 0x13A90, symSize: 0x90 }
  - { offsetInCU: 0x52C12, offset: 0x8B700, size: 0x8, addend: 0x0, symName: __ZNSt3__117__compressed_pairIPN8pybind116detail25error_fetch_and_normalizeEPFvS4_EEC1B7v160006IRS4_S6_EEOT_OT0_, symObjAddr: 0x5D30, symBinAddr: 0x13B20, symSize: 0x30 }
  - { offsetInCU: 0x52C73, offset: 0x8B761, size: 0x8, addend: 0x0, symName: __ZNSt3__117__compressed_pairINS0_IPN8pybind116detail25error_fetch_and_normalizeEPFvS4_EEENS_9allocatorIS3_EEEC1B7v160006IS7_S9_EEOT_OT0_, symObjAddr: 0x5D60, symBinAddr: 0x13B50, symSize: 0x30 }
  - { offsetInCU: 0x52CCA, offset: 0x8B7B8, size: 0x8, addend: 0x0, symName: __ZNSt3__120__shared_ptr_pointerIPN8pybind116detail25error_fetch_and_normalizeEPFvS4_ENS_9allocatorIS3_EEED1Ev, symObjAddr: 0x5D90, symBinAddr: 0x13B80, symSize: 0x20 }
  - { offsetInCU: 0x52CF5, offset: 0x8B7E3, size: 0x8, addend: 0x0, symName: __ZNSt3__120__shared_ptr_pointerIPN8pybind116detail25error_fetch_and_normalizeEPFvS4_ENS_9allocatorIS3_EEED0Ev, symObjAddr: 0x5DB0, symBinAddr: 0x13BA0, symSize: 0x30 }
  - { offsetInCU: 0x52D20, offset: 0x8B80E, size: 0x8, addend: 0x0, symName: __ZNSt3__120__shared_ptr_pointerIPN8pybind116detail25error_fetch_and_normalizeEPFvS4_ENS_9allocatorIS3_EEE16__on_zero_sharedEv, symObjAddr: 0x5DE0, symBinAddr: 0x13BD0, symSize: 0x80 }
  - { offsetInCU: 0x52D46, offset: 0x8B834, size: 0x8, addend: 0x0, symName: __ZNKSt3__120__shared_ptr_pointerIPN8pybind116detail25error_fetch_and_normalizeEPFvS4_ENS_9allocatorIS3_EEE13__get_deleterERKSt9type_info, symObjAddr: 0x5E60, symBinAddr: 0x13C50, symSize: 0x70 }
  - { offsetInCU: 0x52D7A, offset: 0x8B868, size: 0x8, addend: 0x0, symName: __ZNSt3__120__shared_ptr_pointerIPN8pybind116detail25error_fetch_and_normalizeEPFvS4_ENS_9allocatorIS3_EEE21__on_zero_shared_weakEv, symObjAddr: 0x5ED0, symBinAddr: 0x13CC0, symSize: 0x60 }
  - { offsetInCU: 0x52DBA, offset: 0x8B8A8, size: 0x8, addend: 0x0, symName: __ZNSt3__117__compressed_pairIPN8pybind116detail25error_fetch_and_normalizeEPFvS4_EEC2B7v160006IRS4_S6_EEOT_OT0_, symObjAddr: 0x5F60, symBinAddr: 0x13D20, symSize: 0x40 }
  - { offsetInCU: 0x52E11, offset: 0x8B8FF, size: 0x8, addend: 0x0, symName: __ZNSt3__122__compressed_pair_elemIPN8pybind116detail25error_fetch_and_normalizeELi0ELb0EEC2B7v160006IRS4_vEEOT_, symObjAddr: 0x5FA0, symBinAddr: 0x13D60, symSize: 0x20 }
  - { offsetInCU: 0x52E52, offset: 0x8B940, size: 0x8, addend: 0x0, symName: __ZNSt3__122__compressed_pair_elemIPFvPN8pybind116detail25error_fetch_and_normalizeEELi1ELb0EEC2B7v160006IS6_vEEOT_, symObjAddr: 0x5FC0, symBinAddr: 0x13D80, symSize: 0x20 }
  - { offsetInCU: 0x52E93, offset: 0x8B981, size: 0x8, addend: 0x0, symName: __ZNSt3__117__compressed_pairINS0_IPN8pybind116detail25error_fetch_and_normalizeEPFvS4_EEENS_9allocatorIS3_EEEC2B7v160006IS7_S9_EEOT_OT0_, symObjAddr: 0x5FE0, symBinAddr: 0x13DA0, symSize: 0x40 }
  - { offsetInCU: 0x52EEA, offset: 0x8B9D8, size: 0x8, addend: 0x0, symName: __ZNSt3__122__compressed_pair_elemINS_17__compressed_pairIPN8pybind116detail25error_fetch_and_normalizeEPFvS5_EEELi0ELb0EEC2B7v160006IS8_vEEOT_, symObjAddr: 0x6020, symBinAddr: 0x13DE0, symSize: 0x30 }
  - { offsetInCU: 0x52F2B, offset: 0x8BA19, size: 0x8, addend: 0x0, symName: __ZNSt3__122__compressed_pair_elemINS_9allocatorIN8pybind116detail25error_fetch_and_normalizeEEELi1ELb1EEC2B7v160006IS5_vEEOT_, symObjAddr: 0x6050, symBinAddr: 0x13E10, symSize: 0x10 }
  - { offsetInCU: 0x52F6C, offset: 0x8BA5A, size: 0x8, addend: 0x0, symName: __ZNSt3__120__shared_ptr_pointerIPN8pybind116detail25error_fetch_and_normalizeEPFvS4_ENS_9allocatorIS3_EEED2Ev, symObjAddr: 0x6060, symBinAddr: 0x13E20, symSize: 0x20 }
  - { offsetInCU: 0x52F97, offset: 0x8BA85, size: 0x8, addend: 0x0, symName: __ZNSt3__117__compressed_pairINS0_IPN8pybind116detail25error_fetch_and_normalizeEPFvS4_EEENS_9allocatorIS3_EEE5firstB7v160006Ev, symObjAddr: 0x6080, symBinAddr: 0x13E40, symSize: 0x20 }
  - { offsetInCU: 0x52FBC, offset: 0x8BAAA, size: 0x8, addend: 0x0, symName: __ZNSt3__117__compressed_pairIPN8pybind116detail25error_fetch_and_normalizeEPFvS4_EE6secondB7v160006Ev, symObjAddr: 0x60A0, symBinAddr: 0x13E60, symSize: 0x20 }
  - { offsetInCU: 0x52FE1, offset: 0x8BACF, size: 0x8, addend: 0x0, symName: __ZNSt3__117__compressed_pairIPN8pybind116detail25error_fetch_and_normalizeEPFvS4_EE5firstB7v160006Ev, symObjAddr: 0x60C0, symBinAddr: 0x13E80, symSize: 0x20 }
  - { offsetInCU: 0x53006, offset: 0x8BAF4, size: 0x8, addend: 0x0, symName: __ZNSt3__122__compressed_pair_elemINS_17__compressed_pairIPN8pybind116detail25error_fetch_and_normalizeEPFvS5_EEELi0ELb0EE5__getB7v160006Ev, symObjAddr: 0x60E0, symBinAddr: 0x13EA0, symSize: 0x10 }
  - { offsetInCU: 0x5302B, offset: 0x8BB19, size: 0x8, addend: 0x0, symName: __ZNSt3__122__compressed_pair_elemIPFvPN8pybind116detail25error_fetch_and_normalizeEELi1ELb0EE5__getB7v160006Ev, symObjAddr: 0x60F0, symBinAddr: 0x13EB0, symSize: 0x10 }
  - { offsetInCU: 0x53050, offset: 0x8BB3E, size: 0x8, addend: 0x0, symName: __ZNSt3__122__compressed_pair_elemIPN8pybind116detail25error_fetch_and_normalizeELi0ELb0EE5__getB7v160006Ev, symObjAddr: 0x6100, symBinAddr: 0x13EC0, symSize: 0x10 }
  - { offsetInCU: 0x53075, offset: 0x8BB63, size: 0x8, addend: 0x0, symName: __ZNKSt3__117__compressed_pairINS0_IPN8pybind116detail25error_fetch_and_normalizeEPFvS4_EEENS_9allocatorIS3_EEE5firstB7v160006Ev, symObjAddr: 0x6150, symBinAddr: 0x13ED0, symSize: 0x20 }
  - { offsetInCU: 0x5309A, offset: 0x8BB88, size: 0x8, addend: 0x0, symName: __ZNKSt3__117__compressed_pairIPN8pybind116detail25error_fetch_and_normalizeEPFvS4_EE6secondB7v160006Ev, symObjAddr: 0x6170, symBinAddr: 0x13EF0, symSize: 0x20 }
  - { offsetInCU: 0x530BF, offset: 0x8BBAD, size: 0x8, addend: 0x0, symName: __ZNKSt3__122__compressed_pair_elemINS_17__compressed_pairIPN8pybind116detail25error_fetch_and_normalizeEPFvS5_EEELi0ELb0EE5__getB7v160006Ev, symObjAddr: 0x6190, symBinAddr: 0x13F10, symSize: 0x10 }
  - { offsetInCU: 0x530E4, offset: 0x8BBD2, size: 0x8, addend: 0x0, symName: __ZNKSt3__122__compressed_pair_elemIPFvPN8pybind116detail25error_fetch_and_normalizeEELi1ELb0EE5__getB7v160006Ev, symObjAddr: 0x61A0, symBinAddr: 0x13F20, symSize: 0x10 }
  - { offsetInCU: 0x53109, offset: 0x8BBF7, size: 0x8, addend: 0x0, symName: __ZNSt3__117__compressed_pairINS0_IPN8pybind116detail25error_fetch_and_normalizeEPFvS4_EEENS_9allocatorIS3_EEE6secondB7v160006Ev, symObjAddr: 0x61B0, symBinAddr: 0x13F30, symSize: 0x20 }
  - { offsetInCU: 0x5313D, offset: 0x8BC2B, size: 0x8, addend: 0x0, symName: __ZNSt3__19allocatorINS_20__shared_ptr_pointerIPN8pybind116detail25error_fetch_and_normalizeEPFvS5_ENS0_IS4_EEEEEC1B7v160006IS4_EERKNS0_IT_EE, symObjAddr: 0x61D0, symBinAddr: 0x13F50, symSize: 0x30 }
  - { offsetInCU: 0x53179, offset: 0x8BC67, size: 0x8, addend: 0x0, symName: __ZNSt3__19allocatorINS_20__shared_ptr_pointerIPN8pybind116detail25error_fetch_and_normalizeEPFvS5_ENS0_IS4_EEEEE10deallocateB7v160006EPS9_m, symObjAddr: 0x6200, symBinAddr: 0x13F80, symSize: 0x50 }
  - { offsetInCU: 0x531BF, offset: 0x8BCAD, size: 0x8, addend: 0x0, symName: __ZNSt3__114pointer_traitsIPNS_20__shared_ptr_pointerIPN8pybind116detail25error_fetch_and_normalizeEPFvS5_ENS_9allocatorIS4_EEEEE10pointer_toB7v160006ERSA_, symObjAddr: 0x6250, symBinAddr: 0x13FD0, symSize: 0x10 }
  - { offsetInCU: 0x531E2, offset: 0x8BCD0, size: 0x8, addend: 0x0, symName: __ZNSt3__122__compressed_pair_elemINS_9allocatorIN8pybind116detail25error_fetch_and_normalizeEEELi1ELb1EE5__getB7v160006Ev, symObjAddr: 0x6260, symBinAddr: 0x13FE0, symSize: 0x10 }
  - { offsetInCU: 0x53207, offset: 0x8BCF5, size: 0x8, addend: 0x0, symName: __ZNSt3__19allocatorINS_20__shared_ptr_pointerIPN8pybind116detail25error_fetch_and_normalizeEPFvS5_ENS0_IS4_EEEEEC2B7v160006IS4_EERKNS0_IT_EE, symObjAddr: 0x6270, symBinAddr: 0x13FF0, symSize: 0x20 }
  - { offsetInCU: 0x53243, offset: 0x8BD31, size: 0x8, addend: 0x0, symName: __ZNSt3__116__non_trivial_ifILb1ENS_9allocatorINS_20__shared_ptr_pointerIPN8pybind116detail25error_fetch_and_normalizeEPFvS6_ENS1_IS5_EEEEEEEC2B7v160006Ev, symObjAddr: 0x6290, symBinAddr: 0x14010, symSize: 0x10 }
  - { offsetInCU: 0x5326C, offset: 0x8BD5A, size: 0x8, addend: 0x0, symName: __ZNK8pybind116detail10object_apiINS_6handleEE9ref_countEv, symObjAddr: 0x6300, symBinAddr: 0x14080, symSize: 0x30 }
  - { offsetInCU: 0x53290, offset: 0x8BD7E, size: 0x8, addend: 0x0, symName: __ZL9Py_REFCNTP7_object, symObjAddr: 0x6670, symBinAddr: 0x143F0, symSize: 0x20 }
  - { offsetInCU: 0x532BE, offset: 0x8BDAC, size: 0x8, addend: 0x0, symName: __ZNK8pybind116detail10object_apiINS_6handleEE7derivedEv, symObjAddr: 0x6690, symBinAddr: 0x14410, symSize: 0x10 }
  - { offsetInCU: 0x532E3, offset: 0x8BDD1, size: 0x8, addend: 0x0, symName: __ZN8pybind116detail13string_casterINSt3__112basic_stringIcNS2_11char_traitsIcEENS2_9allocatorIcEEEELb0EEcvRS8_Ev, symObjAddr: 0x66A0, symBinAddr: 0x14420, symSize: 0x10 }
  - { offsetInCU: 0x5331B, offset: 0x8BE09, size: 0x8, addend: 0x0, symName: __ZNKSt9type_info4nameB7v160006Ev, symObjAddr: 0x6730, symBinAddr: 0x144B0, symSize: 0x20 }
  - { offsetInCU: 0x533E1, offset: 0x8BECF, size: 0x8, addend: 0x0, symName: __ZNSt3__110unique_ptrIcPFvPvEEC1B7v160006ILb1EvEEPcNS_16__dependent_typeINS_27__unique_ptr_deleter_sfinaeIS3_EEXT_EE20__good_rval_ref_typeE, symObjAddr: 0x6850, symBinAddr: 0x145D0, symSize: 0x30 }
  - { offsetInCU: 0x53431, offset: 0x8BF1F, size: 0x8, addend: 0x0, symName: __ZNKSt3__110unique_ptrIcPFvPvEE3getB7v160006Ev, symObjAddr: 0x6880, symBinAddr: 0x14600, symSize: 0x20 }
  - { offsetInCU: 0x53456, offset: 0x8BF44, size: 0x8, addend: 0x0, symName: __ZNSt3__110unique_ptrIcPFvPvEED1B7v160006Ev, symObjAddr: 0x6920, symBinAddr: 0x146A0, symSize: 0x20 }
  - { offsetInCU: 0x5347F, offset: 0x8BF6D, size: 0x8, addend: 0x0, symName: __ZNSt3__110unique_ptrIcPFvPvEEC2B7v160006ILb1EvEEPcNS_16__dependent_typeINS_27__unique_ptr_deleter_sfinaeIS3_EEXT_EE20__good_rval_ref_typeE, symObjAddr: 0x6940, symBinAddr: 0x146C0, symSize: 0x40 }
  - { offsetInCU: 0x534CF, offset: 0x8BFBD, size: 0x8, addend: 0x0, symName: __ZNSt3__117__compressed_pairIPcPFvPvEEC1B7v160006IRS1_S4_EEOT_OT0_, symObjAddr: 0x6980, symBinAddr: 0x14700, symSize: 0x30 }
  - { offsetInCU: 0x53526, offset: 0x8C014, size: 0x8, addend: 0x0, symName: __ZNSt3__117__compressed_pairIPcPFvPvEEC2B7v160006IRS1_S4_EEOT_OT0_, symObjAddr: 0x69B0, symBinAddr: 0x14730, symSize: 0x40 }
  - { offsetInCU: 0x5357D, offset: 0x8C06B, size: 0x8, addend: 0x0, symName: __ZNSt3__122__compressed_pair_elemIPcLi0ELb0EEC2B7v160006IRS1_vEEOT_, symObjAddr: 0x69F0, symBinAddr: 0x14770, symSize: 0x20 }
  - { offsetInCU: 0x535BE, offset: 0x8C0AC, size: 0x8, addend: 0x0, symName: __ZNSt3__122__compressed_pair_elemIPFvPvELi1ELb0EEC2B7v160006IS3_vEEOT_, symObjAddr: 0x6A10, symBinAddr: 0x14790, symSize: 0x20 }
  - { offsetInCU: 0x535FF, offset: 0x8C0ED, size: 0x8, addend: 0x0, symName: __ZNKSt3__117__compressed_pairIPcPFvPvEE5firstB7v160006Ev, symObjAddr: 0x6A30, symBinAddr: 0x147B0, symSize: 0x20 }
  - { offsetInCU: 0x53624, offset: 0x8C112, size: 0x8, addend: 0x0, symName: __ZNKSt3__122__compressed_pair_elemIPcLi0ELb0EE5__getB7v160006Ev, symObjAddr: 0x6A50, symBinAddr: 0x147D0, symSize: 0x10 }
  - { offsetInCU: 0x53649, offset: 0x8C137, size: 0x8, addend: 0x0, symName: __ZNKSt3__112basic_stringIcNS_11char_traitsIcEENS_9allocatorIcEEE4findB7v160006ERKS5_m, symObjAddr: 0x6A60, symBinAddr: 0x147E0, symSize: 0x70 }
  - { offsetInCU: 0x5368D, offset: 0x8C17B, size: 0x8, addend: 0x0, symName: __ZNKSt3__112basic_stringIcNS_11char_traitsIcEENS_9allocatorIcEEE6lengthB7v160006Ev, symObjAddr: 0x6AD0, symBinAddr: 0x14850, symSize: 0x20 }
  - { offsetInCU: 0x536B2, offset: 0x8C1A0, size: 0x8, addend: 0x0, symName: __ZNSt3__111char_traitsIcE4findEPKcmRS2_, symObjAddr: 0x6CC0, symBinAddr: 0x14A40, symSize: 0x70 }
  - { offsetInCU: 0x536F1, offset: 0x8C1DF, size: 0x8, addend: 0x0, symName: __ZNSt3__110unique_ptrIcPFvPvEED2B7v160006Ev, symObjAddr: 0x6D60, symBinAddr: 0x14AE0, symSize: 0x20 }
  - { offsetInCU: 0x5371A, offset: 0x8C208, size: 0x8, addend: 0x0, symName: __ZNSt3__110unique_ptrIcPFvPvEE5resetB7v160006EPc, symObjAddr: 0x6D80, symBinAddr: 0x14B00, symSize: 0x80 }
  - { offsetInCU: 0x5375D, offset: 0x8C24B, size: 0x8, addend: 0x0, symName: __ZNSt3__117__compressed_pairIPcPFvPvEE5firstB7v160006Ev, symObjAddr: 0x6E00, symBinAddr: 0x14B80, symSize: 0x20 }
  - { offsetInCU: 0x53782, offset: 0x8C270, size: 0x8, addend: 0x0, symName: __ZNSt3__117__compressed_pairIPcPFvPvEE6secondB7v160006Ev, symObjAddr: 0x6E20, symBinAddr: 0x14BA0, symSize: 0x20 }
  - { offsetInCU: 0x537A7, offset: 0x8C295, size: 0x8, addend: 0x0, symName: __ZNSt3__122__compressed_pair_elemIPcLi0ELb0EE5__getB7v160006Ev, symObjAddr: 0x6E40, symBinAddr: 0x14BC0, symSize: 0x10 }
  - { offsetInCU: 0x537CC, offset: 0x8C2BA, size: 0x8, addend: 0x0, symName: __ZNSt3__122__compressed_pair_elemIPFvPvELi1ELb0EE5__getB7v160006Ev, symObjAddr: 0x6E50, symBinAddr: 0x14BD0, symSize: 0x10 }
  - { offsetInCU: 0x537F1, offset: 0x8C2DF, size: 0x8, addend: 0x0, symName: __ZN8pybind1110cast_errorCI2St13runtime_errorERKNSt3__112basic_stringIcNS1_11char_traitsIcEENS1_9allocatorIcEEEE, symObjAddr: 0x6E60, symBinAddr: 0x14BE0, symSize: 0x40 }
  - { offsetInCU: 0x5382B, offset: 0x8C319, size: 0x8, addend: 0x0, symName: __ZN8pybind1117builtin_exceptionCI2St13runtime_errorERKNSt3__112basic_stringIcNS1_11char_traitsIcEENS1_9allocatorIcEEEE, symObjAddr: 0x6EA0, symBinAddr: 0x14C20, symSize: 0x40 }
  - { offsetInCU: 0x53860, offset: 0x8C34E, size: 0x8, addend: 0x0, symName: __ZN8pybind1110cast_errorD0Ev, symObjAddr: 0x6EE0, symBinAddr: 0x14C60, symSize: 0x30 }
  - { offsetInCU: 0x5388C, offset: 0x8C37A, size: 0x8, addend: 0x0, symName: __ZNK8pybind1110cast_error9set_errorEv, symObjAddr: 0x6F10, symBinAddr: 0x14C90, symSize: 0x40 }
  - { offsetInCU: 0x538B1, offset: 0x8C39F, size: 0x8, addend: 0x0, symName: __ZN8pybind1117builtin_exceptionD1Ev, symObjAddr: 0x6F50, symBinAddr: 0x14CD0, symSize: 0x10 }
  - { offsetInCU: 0x538DD, offset: 0x8C3CB, size: 0x8, addend: 0x0, symName: __ZN8pybind1117builtin_exceptionD0Ev, symObjAddr: 0x6F60, symBinAddr: 0x14CE0, symSize: 0x10 }
  - { offsetInCU: 0x53909, offset: 0x8C3F7, size: 0x8, addend: 0x0, symName: __ZN8pybind1110cast_errorD2Ev, symObjAddr: 0x6F70, symBinAddr: 0x14CF0, symSize: 0x20 }
  - { offsetInCU: 0x53935, offset: 0x8C423, size: 0x8, addend: 0x0, symName: __ZN8pybind1117builtin_exceptionD2Ev, symObjAddr: 0x6F90, symBinAddr: 0x14D10, symSize: 0x20 }
  - { offsetInCU: 0x53961, offset: 0x8C44F, size: 0x8, addend: 0x0, symName: __ZN8pybind113strD2Ev, symObjAddr: 0x6FB0, symBinAddr: 0x14D30, symSize: 0x20 }
  - { offsetInCU: 0x5398D, offset: 0x8C47B, size: 0x8, addend: 0x0, symName: __ZN8pybind116detail11type_casterINSt3__112basic_stringIcNS2_11char_traitsIcEENS2_9allocatorIcEEEEvED2Ev, symObjAddr: 0x6FD0, symBinAddr: 0x14D50, symSize: 0x20 }
  - { offsetInCU: 0x539B9, offset: 0x8C4A7, size: 0x8, addend: 0x0, symName: __ZN8pybind116detail13string_casterINSt3__112basic_stringIcNS2_11char_traitsIcEENS2_9allocatorIcEEEELb0EED2Ev, symObjAddr: 0x6FF0, symBinAddr: 0x14D70, symSize: 0x20 }
  - { offsetInCU: 0x539E5, offset: 0x8C4D3, size: 0x8, addend: 0x0, symName: __ZN8pybind1111error_scopeD2Ev, symObjAddr: 0x7010, symBinAddr: 0x14D90, symSize: 0x40 }
  - { offsetInCU: 0x53A0E, offset: 0x8C4FC, size: 0x8, addend: 0x0, symName: __ZN8pybind1118gil_scoped_acquireD2Ev, symObjAddr: 0x7050, symBinAddr: 0x14DD0, symSize: 0x50 }
  - { offsetInCU: 0x53A37, offset: 0x8C525, size: 0x8, addend: 0x0, symName: __ZN8pybind1118gil_scoped_acquire7dec_refEv, symObjAddr: 0x70A0, symBinAddr: 0x14E20, symSize: 0xE0 }
  - { offsetInCU: 0x53A80, offset: 0x8C56E, size: 0x8, addend: 0x0, symName: __ZZN8pybind116detail13get_internalsEvEN24gil_scoped_acquire_localC1Ev, symObjAddr: 0x7190, symBinAddr: 0x14F10, symSize: 0x20 }
  - { offsetInCU: 0x53AA9, offset: 0x8C597, size: 0x8, addend: 0x0, symName: __ZN8pybind114dictC1EONS_6objectE, symObjAddr: 0x72E0, symBinAddr: 0x15060, symSize: 0x30 }
  - { offsetInCU: 0x53AE1, offset: 0x8C5CF, size: 0x8, addend: 0x0, symName: __ZNSt3__112forward_listIPFvSt13exception_ptrENS_9allocatorIS3_EEE10push_frontEOS3_, symObjAddr: 0x7420, symBinAddr: 0x151A0, symSize: 0x110 }
  - { offsetInCU: 0x53B34, offset: 0x8C622, size: 0x8, addend: 0x0, symName: __ZN8pybind116detail9internalsC1Ev, symObjAddr: 0x7650, symBinAddr: 0x153D0, symSize: 0x20 }
  - { offsetInCU: 0x53B5D, offset: 0x8C64B, size: 0x8, addend: 0x0, symName: __ZN8pybind117capsuleC1EPKvPKcPFvP7_objectE, symObjAddr: 0x7670, symBinAddr: 0x153F0, symSize: 0x40 }
  - { offsetInCU: 0x53BB3, offset: 0x8C6A1, size: 0x8, addend: 0x0, symName: __ZNK8pybind116detail10object_apiINS_6handleEEixEPKc, symObjAddr: 0x76B0, symBinAddr: 0x15430, symSize: 0xB0 }
  - { offsetInCU: 0x53BEC, offset: 0x8C6DA, size: 0x8, addend: 0x0, symName: __ZNO8pybind116detail8accessorINS0_17accessor_policies12generic_itemEEaSINS_7capsuleEEEvOT_, symObjAddr: 0x7760, symBinAddr: 0x154E0, symSize: 0x50 }
  - { offsetInCU: 0x53C29, offset: 0x8C717, size: 0x8, addend: 0x0, symName: __ZN8pybind116detail8accessorINS0_17accessor_policies12generic_itemEED1Ev, symObjAddr: 0x77B0, symBinAddr: 0x15530, symSize: 0x20 }
  - { offsetInCU: 0x53C54, offset: 0x8C742, size: 0x8, addend: 0x0, symName: __ZN8pybind117capsuleD1Ev, symObjAddr: 0x77D0, symBinAddr: 0x15550, symSize: 0x20 }
  - { offsetInCU: 0x53C80, offset: 0x8C76E, size: 0x8, addend: 0x0, symName: __ZN8pybind114dictD1Ev, symObjAddr: 0x8630, symBinAddr: 0x163B0, symSize: 0x20 }
  - { offsetInCU: 0x53CAC, offset: 0x8C79A, size: 0x8, addend: 0x0, symName: __ZZN8pybind116detail13get_internalsEvEN24gil_scoped_acquire_localD1Ev, symObjAddr: 0x8650, symBinAddr: 0x163D0, symSize: 0x20 }
  - { offsetInCU: 0x53CD5, offset: 0x8C7C3, size: 0x8, addend: 0x0, symName: __ZZN8pybind116detail13get_internalsEvEN24gil_scoped_acquire_localC2Ev, symObjAddr: 0x8670, symBinAddr: 0x163F0, symSize: 0x30 }
  - { offsetInCU: 0x53CFE, offset: 0x8C7EC, size: 0x8, addend: 0x0, symName: __ZN8pybind116objectaSEOS0_, symObjAddr: 0x86E0, symBinAddr: 0x16460, symSize: 0x80 }
  - { offsetInCU: 0x53D48, offset: 0x8C836, size: 0x8, addend: 0x0, symName: __ZN8pybind116objectC1ENS_6handleENS0_10borrowed_tE, symObjAddr: 0x88D0, symBinAddr: 0x16650, symSize: 0x30 }
  - { offsetInCU: 0x53D8C, offset: 0x8C87A, size: 0x8, addend: 0x0, symName: __ZN8pybind116objectC2ENS_6handleENS0_10borrowed_tE, symObjAddr: 0x8900, symBinAddr: 0x16680, symSize: 0x30 }
  - { offsetInCU: 0x53DD0, offset: 0x8C8BE, size: 0x8, addend: 0x0, symName: __ZNKR8pybind116handle7inc_refEv, symObjAddr: 0x8930, symBinAddr: 0x166B0, symSize: 0xB0 }
  - { offsetInCU: 0x53DF5, offset: 0x8C8E3, size: 0x8, addend: 0x0, symName: __ZN8pybind114dictC2EONS_6objectE, symObjAddr: 0x8A20, symBinAddr: 0x167A0, symSize: 0x120 }
  - { offsetInCU: 0x53E2D, offset: 0x8C91B, size: 0x8, addend: 0x0, symName: __ZN8pybind114dict6check_ENS_6handleE, symObjAddr: 0x8B40, symBinAddr: 0x168C0, symSize: 0x60 }
  - { offsetInCU: 0x53E51, offset: 0x8C93F, size: 0x8, addend: 0x0, symName: __ZN8pybind116object7releaseEv, symObjAddr: 0x8BA0, symBinAddr: 0x16920, symSize: 0x40 }
  - { offsetInCU: 0x53E85, offset: 0x8C973, size: 0x8, addend: 0x0, symName: __ZN8pybind114dict8raw_dictEP7_object, symObjAddr: 0x8BE0, symBinAddr: 0x16960, symSize: 0x80 }
  - { offsetInCU: 0x53EA9, offset: 0x8C997, size: 0x8, addend: 0x0, symName: __ZNSt3__119__forward_list_baseIPFvSt13exception_ptrENS_9allocatorIS3_EEE7__allocB7v160006Ev, symObjAddr: 0x8D80, symBinAddr: 0x16B00, symSize: 0x20 }
  - { offsetInCU: 0x53ED3, offset: 0x8C9C1, size: 0x8, addend: 0x0, symName: __ZNSt3__116allocator_traitsINS_9allocatorINS_19__forward_list_nodeIPFvSt13exception_ptrEPvEEEEE8allocateB7v160006ERS8_m, symObjAddr: 0x8DA0, symBinAddr: 0x16B20, symSize: 0x30 }
  - { offsetInCU: 0x53F0B, offset: 0x8C9F9, size: 0x8, addend: 0x0, symName: __ZNSt3__122__allocator_destructorINS_9allocatorINS_19__forward_list_nodeIPFvSt13exception_ptrEPvEEEEEC1B7v160006ERS8_m, symObjAddr: 0x8DD0, symBinAddr: 0x16B50, symSize: 0x30 }
  - { offsetInCU: 0x53FDC, offset: 0x8CACA, size: 0x8, addend: 0x0, symName: __ZNSt3__110unique_ptrINS_19__forward_list_nodeIPFvSt13exception_ptrEPvEENS_22__allocator_destructorINS_9allocatorIS6_EEEEEC1B7v160006ILb1EvEEPS6_NS_16__dependent_typeINS_27__unique_ptr_deleter_sfinaeISA_EEXT_EE20__good_rval_ref_typeE, symObjAddr: 0x8E00, symBinAddr: 0x16B80, symSize: 0x30 }
  - { offsetInCU: 0x54031, offset: 0x8CB1F, size: 0x8, addend: 0x0, symName: __ZNSt3__116allocator_traitsINS_9allocatorINS_19__forward_list_nodeIPFvSt13exception_ptrEPvEEEEE9constructB7v160006IS5_JS5_EvvEEvRS8_PT_DpOT0_, symObjAddr: 0x8E30, symBinAddr: 0x16BB0, symSize: 0x30 }
  - { offsetInCU: 0x54086, offset: 0x8CB74, size: 0x8, addend: 0x0, symName: __ZNKSt3__110unique_ptrINS_19__forward_list_nodeIPFvSt13exception_ptrEPvEENS_22__allocator_destructorINS_9allocatorIS6_EEEEEptB7v160006Ev, symObjAddr: 0x8E60, symBinAddr: 0x16BE0, symSize: 0x20 }
  - { offsetInCU: 0x540AB, offset: 0x8CB99, size: 0x8, addend: 0x0, symName: __ZNSt3__119__forward_list_baseIPFvSt13exception_ptrENS_9allocatorIS3_EEE14__before_beginB7v160006Ev, symObjAddr: 0x8E80, symBinAddr: 0x16C00, symSize: 0x30 }
  - { offsetInCU: 0x540D0, offset: 0x8CBBE, size: 0x8, addend: 0x0, symName: __ZNSt3__110unique_ptrINS_19__forward_list_nodeIPFvSt13exception_ptrEPvEENS_22__allocator_destructorINS_9allocatorIS6_EEEEE7releaseB7v160006Ev, symObjAddr: 0x8EB0, symBinAddr: 0x16C30, symSize: 0x40 }
  - { offsetInCU: 0x54104, offset: 0x8CBF2, size: 0x8, addend: 0x0, symName: __ZNSt3__110unique_ptrINS_19__forward_list_nodeIPFvSt13exception_ptrEPvEENS_22__allocator_destructorINS_9allocatorIS6_EEEEED1B7v160006Ev, symObjAddr: 0x8EF0, symBinAddr: 0x16C70, symSize: 0x20 }
  - { offsetInCU: 0x5412D, offset: 0x8CC1B, size: 0x8, addend: 0x0, symName: __ZNSt3__117__compressed_pairINS_20__forward_begin_nodeIPNS_19__forward_list_nodeIPFvSt13exception_ptrEPvEEEENS_9allocatorIS7_EEE6secondB7v160006Ev, symObjAddr: 0x8F10, symBinAddr: 0x16C90, symSize: 0x20 }
  - { offsetInCU: 0x54152, offset: 0x8CC40, size: 0x8, addend: 0x0, symName: __ZNSt3__122__compressed_pair_elemINS_9allocatorINS_19__forward_list_nodeIPFvSt13exception_ptrEPvEEEELi1ELb1EE5__getB7v160006Ev, symObjAddr: 0x8F30, symBinAddr: 0x16CB0, symSize: 0x10 }
  - { offsetInCU: 0x54177, offset: 0x8CC65, size: 0x8, addend: 0x0, symName: __ZNSt3__19allocatorINS_19__forward_list_nodeIPFvSt13exception_ptrEPvEEE8allocateB7v160006Em, symObjAddr: 0x8F40, symBinAddr: 0x16CC0, symSize: 0x50 }
  - { offsetInCU: 0x541B4, offset: 0x8CCA2, size: 0x8, addend: 0x0, symName: __ZNSt3__116allocator_traitsINS_9allocatorINS_19__forward_list_nodeIPFvSt13exception_ptrEPvEEEEE8max_sizeB7v160006IS8_vvEEmRKS8_, symObjAddr: 0x8F90, symBinAddr: 0x16D10, symSize: 0x20 }
  - { offsetInCU: 0x541E0, offset: 0x8CCCE, size: 0x8, addend: 0x0, symName: __ZNSt3__122__allocator_destructorINS_9allocatorINS_19__forward_list_nodeIPFvSt13exception_ptrEPvEEEEEC2B7v160006ERS8_m, symObjAddr: 0x8FB0, symBinAddr: 0x16D30, symSize: 0x30 }
  - { offsetInCU: 0x54225, offset: 0x8CD13, size: 0x8, addend: 0x0, symName: __ZNSt3__110unique_ptrINS_19__forward_list_nodeIPFvSt13exception_ptrEPvEENS_22__allocator_destructorINS_9allocatorIS6_EEEEEC2B7v160006ILb1EvEEPS6_NS_16__dependent_typeINS_27__unique_ptr_deleter_sfinaeISA_EEXT_EE20__good_rval_ref_typeE, symObjAddr: 0x8FE0, symBinAddr: 0x16D60, symSize: 0x40 }
  - { offsetInCU: 0x54275, offset: 0x8CD63, size: 0x8, addend: 0x0, symName: __ZNSt3__117__compressed_pairIPNS_19__forward_list_nodeIPFvSt13exception_ptrEPvEENS_22__allocator_destructorINS_9allocatorIS6_EEEEEC1B7v160006IRS7_SB_EEOT_OT0_, symObjAddr: 0x9020, symBinAddr: 0x16DA0, symSize: 0x30 }
  - { offsetInCU: 0x542CC, offset: 0x8CDBA, size: 0x8, addend: 0x0, symName: __ZNSt3__117__compressed_pairIPNS_19__forward_list_nodeIPFvSt13exception_ptrEPvEENS_22__allocator_destructorINS_9allocatorIS6_EEEEEC2B7v160006IRS7_SB_EEOT_OT0_, symObjAddr: 0x9050, symBinAddr: 0x16DD0, symSize: 0x40 }
  - { offsetInCU: 0x54323, offset: 0x8CE11, size: 0x8, addend: 0x0, symName: __ZNSt3__122__compressed_pair_elemIPNS_19__forward_list_nodeIPFvSt13exception_ptrEPvEELi0ELb0EEC2B7v160006IRS7_vEEOT_, symObjAddr: 0x9090, symBinAddr: 0x16E10, symSize: 0x20 }
  - { offsetInCU: 0x54364, offset: 0x8CE52, size: 0x8, addend: 0x0, symName: __ZNSt3__122__compressed_pair_elemINS_22__allocator_destructorINS_9allocatorINS_19__forward_list_nodeIPFvSt13exception_ptrEPvEEEEEELi1ELb0EEC2B7v160006ISA_vEEOT_, symObjAddr: 0x90B0, symBinAddr: 0x16E30, symSize: 0x30 }
  - { offsetInCU: 0x543AA, offset: 0x8CE98, size: 0x8, addend: 0x0, symName: __ZNKSt3__117__compressed_pairIPNS_19__forward_list_nodeIPFvSt13exception_ptrEPvEENS_22__allocator_destructorINS_9allocatorIS6_EEEEE5firstB7v160006Ev, symObjAddr: 0x9110, symBinAddr: 0x16E90, symSize: 0x20 }
  - { offsetInCU: 0x543CF, offset: 0x8CEBD, size: 0x8, addend: 0x0, symName: __ZNKSt3__122__compressed_pair_elemIPNS_19__forward_list_nodeIPFvSt13exception_ptrEPvEELi0ELb0EE5__getB7v160006Ev, symObjAddr: 0x9130, symBinAddr: 0x16EB0, symSize: 0x10 }
  - { offsetInCU: 0x543F4, offset: 0x8CEE2, size: 0x8, addend: 0x0, symName: __ZNSt3__114pointer_traitsIPNS_20__forward_begin_nodeIPNS_19__forward_list_nodeIPFvSt13exception_ptrEPvEEEEE10pointer_toB7v160006ERS9_, symObjAddr: 0x9140, symBinAddr: 0x16EC0, symSize: 0x10 }
  - { offsetInCU: 0x54417, offset: 0x8CF05, size: 0x8, addend: 0x0, symName: __ZNSt3__117__compressed_pairINS_20__forward_begin_nodeIPNS_19__forward_list_nodeIPFvSt13exception_ptrEPvEEEENS_9allocatorIS7_EEE5firstB7v160006Ev, symObjAddr: 0x9150, symBinAddr: 0x16ED0, symSize: 0x20 }
  - { offsetInCU: 0x5443C, offset: 0x8CF2A, size: 0x8, addend: 0x0, symName: __ZNSt3__122__compressed_pair_elemINS_20__forward_begin_nodeIPNS_19__forward_list_nodeIPFvSt13exception_ptrEPvEEEELi0ELb0EE5__getB7v160006Ev, symObjAddr: 0x9170, symBinAddr: 0x16EF0, symSize: 0x10 }
  - { offsetInCU: 0x54461, offset: 0x8CF4F, size: 0x8, addend: 0x0, symName: __ZNSt3__117__compressed_pairIPNS_19__forward_list_nodeIPFvSt13exception_ptrEPvEENS_22__allocator_destructorINS_9allocatorIS6_EEEEE5firstB7v160006Ev, symObjAddr: 0x9180, symBinAddr: 0x16F00, symSize: 0x20 }
  - { offsetInCU: 0x54486, offset: 0x8CF74, size: 0x8, addend: 0x0, symName: __ZNSt3__122__compressed_pair_elemIPNS_19__forward_list_nodeIPFvSt13exception_ptrEPvEELi0ELb0EE5__getB7v160006Ev, symObjAddr: 0x91A0, symBinAddr: 0x16F20, symSize: 0x10 }
  - { offsetInCU: 0x544AB, offset: 0x8CF99, size: 0x8, addend: 0x0, symName: __ZNSt3__110unique_ptrINS_19__forward_list_nodeIPFvSt13exception_ptrEPvEENS_22__allocator_destructorINS_9allocatorIS6_EEEEED2B7v160006Ev, symObjAddr: 0x91B0, symBinAddr: 0x16F30, symSize: 0x20 }
  - { offsetInCU: 0x544D4, offset: 0x8CFC2, size: 0x8, addend: 0x0, symName: __ZNSt3__110unique_ptrINS_19__forward_list_nodeIPFvSt13exception_ptrEPvEENS_22__allocator_destructorINS_9allocatorIS6_EEEEE5resetB7v160006EPS6_, symObjAddr: 0x91D0, symBinAddr: 0x16F50, symSize: 0x70 }
  - { offsetInCU: 0x54517, offset: 0x8D005, size: 0x8, addend: 0x0, symName: __ZNSt3__117__compressed_pairIPNS_19__forward_list_nodeIPFvSt13exception_ptrEPvEENS_22__allocator_destructorINS_9allocatorIS6_EEEEE6secondB7v160006Ev, symObjAddr: 0x9240, symBinAddr: 0x16FC0, symSize: 0x20 }
  - { offsetInCU: 0x5453C, offset: 0x8D02A, size: 0x8, addend: 0x0, symName: __ZNSt3__122__allocator_destructorINS_9allocatorINS_19__forward_list_nodeIPFvSt13exception_ptrEPvEEEEEclB7v160006EPS7_, symObjAddr: 0x9260, symBinAddr: 0x16FE0, symSize: 0x30 }
  - { offsetInCU: 0x5456F, offset: 0x8D05D, size: 0x8, addend: 0x0, symName: __ZNSt3__122__compressed_pair_elemINS_22__allocator_destructorINS_9allocatorINS_19__forward_list_nodeIPFvSt13exception_ptrEPvEEEEEELi1ELb0EE5__getB7v160006Ev, symObjAddr: 0x9290, symBinAddr: 0x17010, symSize: 0x10 }
  - { offsetInCU: 0x54594, offset: 0x8D082, size: 0x8, addend: 0x0, symName: __ZNSt3__116allocator_traitsINS_9allocatorINS_19__forward_list_nodeIPFvSt13exception_ptrEPvEEEEE10deallocateB7v160006ERS8_PS7_m, symObjAddr: 0x92A0, symBinAddr: 0x17020, symSize: 0x30 }
  - { offsetInCU: 0x545D6, offset: 0x8D0C4, size: 0x8, addend: 0x0, symName: __ZNSt3__19allocatorINS_19__forward_list_nodeIPFvSt13exception_ptrEPvEEE10deallocateB7v160006EPS6_m, symObjAddr: 0x92D0, symBinAddr: 0x17050, symSize: 0x40 }
  - { offsetInCU: 0x54617, offset: 0x8D105, size: 0x8, addend: 0x0, symName: __ZNKSt13exception_ptrcvbB7v160006Ev, symObjAddr: 0x9310, symBinAddr: 0x17090, symSize: 0x20 }
  - { offsetInCU: 0x5463C, offset: 0x8D12A, size: 0x8, addend: 0x0, symName: __ZN8pybind1117error_already_set7restoreEv, symObjAddr: 0x9330, symBinAddr: 0x170B0, symSize: 0x30 }
  - { offsetInCU: 0x54661, offset: 0x8D14F, size: 0x8, addend: 0x0, symName: __ZN8pybind116detail25error_fetch_and_normalize7restoreEv, symObjAddr: 0x9360, symBinAddr: 0x170E0, symSize: 0xE0 }
  - { offsetInCU: 0x54686, offset: 0x8D174, size: 0x8, addend: 0x0, symName: __ZN8pybind116detail9internalsC2Ev, symObjAddr: 0x9440, symBinAddr: 0x171C0, symSize: 0xC0 }
  - { offsetInCU: 0x546AF, offset: 0x8D19D, size: 0x8, addend: 0x0, symName: __ZNSt3__113unordered_mapINS_10type_indexEPN8pybind116detail9type_infoENS3_9type_hashENS3_13type_equal_toENS_9allocatorINS_4pairIKS1_S5_EEEEEC1B7v160006Ev, symObjAddr: 0x9500, symBinAddr: 0x17280, symSize: 0x20 }
  - { offsetInCU: 0x546D8, offset: 0x8D1C6, size: 0x8, addend: 0x0, symName: __ZNSt3__113unordered_mapIP11_typeobjectNS_6vectorIPN8pybind116detail9type_infoENS_9allocatorIS7_EEEENS_4hashIS2_EENS_8equal_toIS2_EENS8_INS_4pairIKS2_SA_EEEEEC1B7v160006Ev, symObjAddr: 0x9520, symBinAddr: 0x172A0, symSize: 0x20 }
  - { offsetInCU: 0x54701, offset: 0x8D1EF, size: 0x8, addend: 0x0, symName: __ZNSt3__118unordered_multimapIPKvPN8pybind116detail8instanceENS_4hashIS2_EENS_8equal_toIS2_EENS_9allocatorINS_4pairIKS2_S6_EEEEEC1B7v160006Ev, symObjAddr: 0x9540, symBinAddr: 0x172C0, symSize: 0x20 }
  - { offsetInCU: 0x5472A, offset: 0x8D218, size: 0x8, addend: 0x0, symName: __ZNSt3__113unordered_setINS_4pairIPK7_objectPKcEEN8pybind116detail13override_hashENS_8equal_toIS7_EENS_9allocatorIS7_EEEC1B7v160006Ev, symObjAddr: 0x9560, symBinAddr: 0x172E0, symSize: 0x20 }
  - { offsetInCU: 0x54753, offset: 0x8D241, size: 0x8, addend: 0x0, symName: __ZNSt3__113unordered_mapINS_10type_indexENS_6vectorIPFbP7_objectRPvENS_9allocatorIS8_EEEEN8pybind116detail9type_hashENSD_13type_equal_toENS9_INS_4pairIKS1_SB_EEEEEC1B7v160006Ev, symObjAddr: 0x9580, symBinAddr: 0x17300, symSize: 0x20 }
  - { offsetInCU: 0x5477C, offset: 0x8D26A, size: 0x8, addend: 0x0, symName: __ZNSt3__113unordered_mapIPK7_objectNS_6vectorIPS1_NS_9allocatorIS5_EEEENS_4hashIS3_EENS_8equal_toIS3_EENS6_INS_4pairIKS3_S8_EEEEEC1B7v160006Ev, symObjAddr: 0x95A0, symBinAddr: 0x17320, symSize: 0x20 }
  - { offsetInCU: 0x547A5, offset: 0x8D293, size: 0x8, addend: 0x0, symName: __ZNSt3__112forward_listIPFvSt13exception_ptrENS_9allocatorIS3_EEEC1B7v160006Ev, symObjAddr: 0x95C0, symBinAddr: 0x17340, symSize: 0x20 }
  - { offsetInCU: 0x547CE, offset: 0x8D2BC, size: 0x8, addend: 0x0, symName: __ZNSt3__113unordered_mapINS_12basic_stringIcNS_11char_traitsIcEENS_9allocatorIcEEEEPvNS_4hashIS6_EENS_8equal_toIS6_EENS4_INS_4pairIKS6_S7_EEEEEC1B7v160006Ev, symObjAddr: 0x95E0, symBinAddr: 0x17360, symSize: 0x20 }
  - { offsetInCU: 0x547F7, offset: 0x8D2E5, size: 0x8, addend: 0x0, symName: __ZNSt3__16vectorIP7_objectNS_9allocatorIS2_EEEC1B7v160006Ev, symObjAddr: 0x9600, symBinAddr: 0x17380, symSize: 0x20 }
  - { offsetInCU: 0x54820, offset: 0x8D30E, size: 0x8, addend: 0x0, symName: __ZNSt3__112forward_listINS_12basic_stringIcNS_11char_traitsIcEENS_9allocatorIcEEEENS4_IS6_EEEC1B7v160006Ev, symObjAddr: 0x9620, symBinAddr: 0x173A0, symSize: 0x20 }
  - { offsetInCU: 0x54849, offset: 0x8D337, size: 0x8, addend: 0x0, symName: __ZNSt3__113unordered_mapINS_10type_indexEPN8pybind116detail9type_infoENS3_9type_hashENS3_13type_equal_toENS_9allocatorINS_4pairIKS1_S5_EEEEEC2B7v160006Ev, symObjAddr: 0x9640, symBinAddr: 0x173C0, symSize: 0x40 }
  - { offsetInCU: 0x54872, offset: 0x8D360, size: 0x8, addend: 0x0, symName: __ZNSt3__112__hash_tableINS_17__hash_value_typeINS_10type_indexEPN8pybind116detail9type_infoEEENS_22__unordered_map_hasherIS2_S7_NS4_9type_hashENS4_13type_equal_toELb1EEENS_21__unordered_map_equalIS2_S7_SA_S9_Lb1EEENS_9allocatorIS7_EEEC1Ev, symObjAddr: 0x9680, symBinAddr: 0x17400, symSize: 0x20 }
  - { offsetInCU: 0x5489D, offset: 0x8D38B, size: 0x8, addend: 0x0, symName: __ZNSt3__112__hash_tableINS_17__hash_value_typeINS_10type_indexEPN8pybind116detail9type_infoEEENS_22__unordered_map_hasherIS2_S7_NS4_9type_hashENS4_13type_equal_toELb1EEENS_21__unordered_map_equalIS2_S7_SA_S9_Lb1EEENS_9allocatorIS7_EEEC2Ev, symObjAddr: 0x96B0, symBinAddr: 0x17430, symSize: 0x80 }
  - { offsetInCU: 0x548C8, offset: 0x8D3B6, size: 0x8, addend: 0x0, symName: __ZNSt3__110unique_ptrIA_PNS_16__hash_node_baseIPNS_11__hash_nodeINS_17__hash_value_typeINS_10type_indexEPN8pybind116detail9type_infoEEEPvEEEENS_25__bucket_list_deallocatorINS_9allocatorISE_EEEEEC1B7v160006ILb1EvEEv, symObjAddr: 0x9730, symBinAddr: 0x174B0, symSize: 0x20 }
  - { offsetInCU: 0x548FC, offset: 0x8D3EA, size: 0x8, addend: 0x0, symName: __ZNSt3__117__compressed_pairINS_16__hash_node_baseIPNS_11__hash_nodeINS_17__hash_value_typeINS_10type_indexEPN8pybind116detail9type_infoEEEPvEEEENS_9allocatorISB_EEEC1B7v160006ILb1EvEEv, symObjAddr: 0x9750, symBinAddr: 0x174D0, symSize: 0x20 }
  - { offsetInCU: 0x54935, offset: 0x8D423, size: 0x8, addend: 0x0, symName: __ZNSt3__117__compressed_pairImNS_22__unordered_map_hasherINS_10type_indexENS_17__hash_value_typeIS2_PN8pybind116detail9type_infoEEENS5_9type_hashENS5_13type_equal_toELb1EEEEC1B7v160006IiNS_18__default_init_tagEEEOT_OT0_, symObjAddr: 0x9770, symBinAddr: 0x174F0, symSize: 0x30 }
  - { offsetInCU: 0x5498C, offset: 0x8D47A, size: 0x8, addend: 0x0, symName: __ZNSt3__117__compressed_pairIfNS_21__unordered_map_equalINS_10type_indexENS_17__hash_value_typeIS2_PN8pybind116detail9type_infoEEENS5_13type_equal_toENS5_9type_hashELb1EEEEC1B7v160006IfNS_18__default_init_tagEEEOT_OT0_, symObjAddr: 0x97A0, symBinAddr: 0x17520, symSize: 0x30 }
  - { offsetInCU: 0x549E3, offset: 0x8D4D1, size: 0x8, addend: 0x0, symName: __ZNSt3__110unique_ptrIA_PNS_16__hash_node_baseIPNS_11__hash_nodeINS_17__hash_value_typeINS_10type_indexEPN8pybind116detail9type_infoEEEPvEEEENS_25__bucket_list_deallocatorINS_9allocatorISE_EEEEEC2B7v160006ILb1EvEEv, symObjAddr: 0x97D0, symBinAddr: 0x17550, symSize: 0x30 }
  - { offsetInCU: 0x54A1C, offset: 0x8D50A, size: 0x8, addend: 0x0, symName: __ZNSt3__117__compressed_pairIPPNS_16__hash_node_baseIPNS_11__hash_nodeINS_17__hash_value_typeINS_10type_indexEPN8pybind116detail9type_infoEEEPvEEEENS_25__bucket_list_deallocatorINS_9allocatorISE_EEEEEC1B7v160006INS_16__value_init_tagESM_EEOT_OT0_, symObjAddr: 0x9800, symBinAddr: 0x17580, symSize: 0x30 }
  - { offsetInCU: 0x54A73, offset: 0x8D561, size: 0x8, addend: 0x0, symName: __ZNSt3__117__compressed_pairIPPNS_16__hash_node_baseIPNS_11__hash_nodeINS_17__hash_value_typeINS_10type_indexEPN8pybind116detail9type_infoEEEPvEEEENS_25__bucket_list_deallocatorINS_9allocatorISE_EEEEEC2B7v160006INS_16__value_init_tagESM_EEOT_OT0_, symObjAddr: 0x9830, symBinAddr: 0x175B0, symSize: 0x40 }
  - { offsetInCU: 0x54ACA, offset: 0x8D5B8, size: 0x8, addend: 0x0, symName: __ZNSt3__122__compressed_pair_elemIPPNS_16__hash_node_baseIPNS_11__hash_nodeINS_17__hash_value_typeINS_10type_indexEPN8pybind116detail9type_infoEEEPvEEEELi0ELb0EEC2B7v160006ENS_16__value_init_tagE, symObjAddr: 0x9870, symBinAddr: 0x175F0, symSize: 0x20 }
  - { offsetInCU: 0x54AFD, offset: 0x8D5EB, size: 0x8, addend: 0x0, symName: __ZNSt3__122__compressed_pair_elemINS_25__bucket_list_deallocatorINS_9allocatorIPNS_16__hash_node_baseIPNS_11__hash_nodeINS_17__hash_value_typeINS_10type_indexEPN8pybind116detail9type_infoEEEPvEEEEEEEELi1ELb0EEC2B7v160006ENS_16__value_init_tagE, symObjAddr: 0x9890, symBinAddr: 0x17610, symSize: 0x20 }
  - { offsetInCU: 0x54B30, offset: 0x8D61E, size: 0x8, addend: 0x0, symName: __ZNSt3__125__bucket_list_deallocatorINS_9allocatorIPNS_16__hash_node_baseIPNS_11__hash_nodeINS_17__hash_value_typeINS_10type_indexEPN8pybind116detail9type_infoEEEPvEEEEEEEC1B7v160006Ev, symObjAddr: 0x98B0, symBinAddr: 0x17630, symSize: 0x20 }
  - { offsetInCU: 0x54B59, offset: 0x8D647, size: 0x8, addend: 0x0, symName: __ZNSt3__125__bucket_list_deallocatorINS_9allocatorIPNS_16__hash_node_baseIPNS_11__hash_nodeINS_17__hash_value_typeINS_10type_indexEPN8pybind116detail9type_infoEEEPvEEEEEEEC2B7v160006Ev, symObjAddr: 0x98D0, symBinAddr: 0x17650, symSize: 0x40 }
  - { offsetInCU: 0x54B82, offset: 0x8D670, size: 0x8, addend: 0x0, symName: __ZNSt3__117__compressed_pairImNS_9allocatorIPNS_16__hash_node_baseIPNS_11__hash_nodeINS_17__hash_value_typeINS_10type_indexEPN8pybind116detail9type_infoEEEPvEEEEEEEC1B7v160006IiNS_18__default_init_tagEEEOT_OT0_, symObjAddr: 0x9910, symBinAddr: 0x17690, symSize: 0x30 }
  - { offsetInCU: 0x54BD9, offset: 0x8D6C7, size: 0x8, addend: 0x0, symName: __ZNSt3__117__compressed_pairImNS_9allocatorIPNS_16__hash_node_baseIPNS_11__hash_nodeINS_17__hash_value_typeINS_10type_indexEPN8pybind116detail9type_infoEEEPvEEEEEEEC2B7v160006IiNS_18__default_init_tagEEEOT_OT0_, symObjAddr: 0x9940, symBinAddr: 0x176C0, symSize: 0x40 }
  - { offsetInCU: 0x54C30, offset: 0x8D71E, size: 0x8, addend: 0x0, symName: __ZNSt3__122__compressed_pair_elemINS_9allocatorIPNS_16__hash_node_baseIPNS_11__hash_nodeINS_17__hash_value_typeINS_10type_indexEPN8pybind116detail9type_infoEEEPvEEEEEELi1ELb1EEC2B7v160006ENS_18__default_init_tagE, symObjAddr: 0x99A0, symBinAddr: 0x17700, symSize: 0x20 }
  - { offsetInCU: 0x54C63, offset: 0x8D751, size: 0x8, addend: 0x0, symName: __ZNSt3__19allocatorIPNS_16__hash_node_baseIPNS_11__hash_nodeINS_17__hash_value_typeINS_10type_indexEPN8pybind116detail9type_infoEEEPvEEEEEC2B7v160006Ev, symObjAddr: 0x99C0, symBinAddr: 0x17720, symSize: 0x20 }
  - { offsetInCU: 0x54C8C, offset: 0x8D77A, size: 0x8, addend: 0x0, symName: __ZNSt3__116__non_trivial_ifILb1ENS_9allocatorIPNS_16__hash_node_baseIPNS_11__hash_nodeINS_17__hash_value_typeINS_10type_indexEPN8pybind116detail9type_infoEEEPvEEEEEEEC2B7v160006Ev, symObjAddr: 0x99E0, symBinAddr: 0x17740, symSize: 0x10 }
  - { offsetInCU: 0x54CB5, offset: 0x8D7A3, size: 0x8, addend: 0x0, symName: __ZNSt3__117__compressed_pairINS_16__hash_node_baseIPNS_11__hash_nodeINS_17__hash_value_typeINS_10type_indexEPN8pybind116detail9type_infoEEEPvEEEENS_9allocatorISB_EEEC2B7v160006ILb1EvEEv, symObjAddr: 0x99F0, symBinAddr: 0x17750, symSize: 0x30 }
  - { offsetInCU: 0x54CE9, offset: 0x8D7D7, size: 0x8, addend: 0x0, symName: __ZNSt3__122__compressed_pair_elemINS_16__hash_node_baseIPNS_11__hash_nodeINS_17__hash_value_typeINS_10type_indexEPN8pybind116detail9type_infoEEEPvEEEELi0ELb0EEC2B7v160006ENS_16__value_init_tagE, symObjAddr: 0x9A20, symBinAddr: 0x17780, symSize: 0x20 }
  - { offsetInCU: 0x54D1C, offset: 0x8D80A, size: 0x8, addend: 0x0, symName: __ZNSt3__122__compressed_pair_elemINS_9allocatorINS_11__hash_nodeINS_17__hash_value_typeINS_10type_indexEPN8pybind116detail9type_infoEEEPvEEEELi1ELb1EEC2B7v160006ENS_16__value_init_tagE, symObjAddr: 0x9A40, symBinAddr: 0x177A0, symSize: 0x20 }
  - { offsetInCU: 0x54D4F, offset: 0x8D83D, size: 0x8, addend: 0x0, symName: __ZNSt3__116__hash_node_baseIPNS_11__hash_nodeINS_17__hash_value_typeINS_10type_indexEPN8pybind116detail9type_infoEEEPvEEEC1B7v160006Ev, symObjAddr: 0x9A60, symBinAddr: 0x177C0, symSize: 0x20 }
  - { offsetInCU: 0x54D78, offset: 0x8D866, size: 0x8, addend: 0x0, symName: __ZNSt3__116__hash_node_baseIPNS_11__hash_nodeINS_17__hash_value_typeINS_10type_indexEPN8pybind116detail9type_infoEEEPvEEEC2B7v160006Ev, symObjAddr: 0x9A80, symBinAddr: 0x177E0, symSize: 0x20 }
  - { offsetInCU: 0x54DA1, offset: 0x8D88F, size: 0x8, addend: 0x0, symName: __ZNSt3__19allocatorINS_11__hash_nodeINS_17__hash_value_typeINS_10type_indexEPN8pybind116detail9type_infoEEEPvEEEC2B7v160006Ev, symObjAddr: 0x9AA0, symBinAddr: 0x17800, symSize: 0x20 }
  - { offsetInCU: 0x54DCA, offset: 0x8D8B8, size: 0x8, addend: 0x0, symName: __ZNSt3__116__non_trivial_ifILb1ENS_9allocatorINS_11__hash_nodeINS_17__hash_value_typeINS_10type_indexEPN8pybind116detail9type_infoEEEPvEEEEEC2B7v160006Ev, symObjAddr: 0x9AC0, symBinAddr: 0x17820, symSize: 0x10 }
  - { offsetInCU: 0x54DF3, offset: 0x8D8E1, size: 0x8, addend: 0x0, symName: __ZNSt3__117__compressed_pairImNS_22__unordered_map_hasherINS_10type_indexENS_17__hash_value_typeIS2_PN8pybind116detail9type_infoEEENS5_9type_hashENS5_13type_equal_toELb1EEEEC2B7v160006IiNS_18__default_init_tagEEEOT_OT0_, symObjAddr: 0x9AD0, symBinAddr: 0x17830, symSize: 0x40 }
  - { offsetInCU: 0x54E4A, offset: 0x8D938, size: 0x8, addend: 0x0, symName: __ZNSt3__122__compressed_pair_elemINS_22__unordered_map_hasherINS_10type_indexENS_17__hash_value_typeIS2_PN8pybind116detail9type_infoEEENS5_9type_hashENS5_13type_equal_toELb1EEELi1ELb1EEC2B7v160006ENS_18__default_init_tagE, symObjAddr: 0x9B10, symBinAddr: 0x17870, symSize: 0x20 }
  - { offsetInCU: 0x54E7D, offset: 0x8D96B, size: 0x8, addend: 0x0, symName: __ZNSt3__122__unordered_map_hasherINS_10type_indexENS_17__hash_value_typeIS1_PN8pybind116detail9type_infoEEENS4_9type_hashENS4_13type_equal_toELb1EEC2B7v160006Ev, symObjAddr: 0x9B30, symBinAddr: 0x17890, symSize: 0x10 }
  - { offsetInCU: 0x54EA6, offset: 0x8D994, size: 0x8, addend: 0x0, symName: __ZNSt3__117__compressed_pairIfNS_21__unordered_map_equalINS_10type_indexENS_17__hash_value_typeIS2_PN8pybind116detail9type_infoEEENS5_13type_equal_toENS5_9type_hashELb1EEEEC2B7v160006IfNS_18__default_init_tagEEEOT_OT0_, symObjAddr: 0x9B40, symBinAddr: 0x178A0, symSize: 0x40 }
  - { offsetInCU: 0x54EFD, offset: 0x8D9EB, size: 0x8, addend: 0x0, symName: __ZNSt3__122__compressed_pair_elemINS_21__unordered_map_equalINS_10type_indexENS_17__hash_value_typeIS2_PN8pybind116detail9type_infoEEENS5_13type_equal_toENS5_9type_hashELb1EEELi1ELb1EEC2B7v160006ENS_18__default_init_tagE, symObjAddr: 0x9BA0, symBinAddr: 0x178E0, symSize: 0x20 }
  - { offsetInCU: 0x54F30, offset: 0x8DA1E, size: 0x8, addend: 0x0, symName: __ZNSt3__121__unordered_map_equalINS_10type_indexENS_17__hash_value_typeIS1_PN8pybind116detail9type_infoEEENS4_13type_equal_toENS4_9type_hashELb1EEC2B7v160006Ev, symObjAddr: 0x9BC0, symBinAddr: 0x17900, symSize: 0x10 }
  - { offsetInCU: 0x54F59, offset: 0x8DA47, size: 0x8, addend: 0x0, symName: __ZNSt3__113unordered_mapIP11_typeobjectNS_6vectorIPN8pybind116detail9type_infoENS_9allocatorIS7_EEEENS_4hashIS2_EENS_8equal_toIS2_EENS8_INS_4pairIKS2_SA_EEEEEC2B7v160006Ev, symObjAddr: 0x9BD0, symBinAddr: 0x17910, symSize: 0x40 }
  - { offsetInCU: 0x54F82, offset: 0x8DA70, size: 0x8, addend: 0x0, symName: __ZNSt3__112__hash_tableINS_17__hash_value_typeIP11_typeobjectNS_6vectorIPN8pybind116detail9type_infoENS_9allocatorIS8_EEEEEENS_22__unordered_map_hasherIS3_SC_NS_4hashIS3_EENS_8equal_toIS3_EELb1EEENS_21__unordered_map_equalIS3_SC_SH_SF_Lb1EEENS9_ISC_EEEC1Ev, symObjAddr: 0x9C10, symBinAddr: 0x17950, symSize: 0x20 }
  - { offsetInCU: 0x54FAD, offset: 0x8DA9B, size: 0x8, addend: 0x0, symName: __ZNSt3__112__hash_tableINS_17__hash_value_typeIP11_typeobjectNS_6vectorIPN8pybind116detail9type_infoENS_9allocatorIS8_EEEEEENS_22__unordered_map_hasherIS3_SC_NS_4hashIS3_EENS_8equal_toIS3_EELb1EEENS_21__unordered_map_equalIS3_SC_SH_SF_Lb1EEENS9_ISC_EEEC2Ev, symObjAddr: 0x9C40, symBinAddr: 0x17980, symSize: 0x80 }
  - { offsetInCU: 0x54FD8, offset: 0x8DAC6, size: 0x8, addend: 0x0, symName: __ZNSt3__110unique_ptrIA_PNS_16__hash_node_baseIPNS_11__hash_nodeINS_17__hash_value_typeIP11_typeobjectNS_6vectorIPN8pybind116detail9type_infoENS_9allocatorISA_EEEEEEPvEEEENS_25__bucket_list_deallocatorINSB_ISJ_EEEEEC1B7v160006ILb1EvEEv, symObjAddr: 0x9CC0, symBinAddr: 0x17A00, symSize: 0x20 }
  - { offsetInCU: 0x5500C, offset: 0x8DAFA, size: 0x8, addend: 0x0, symName: __ZNSt3__117__compressed_pairINS_16__hash_node_baseIPNS_11__hash_nodeINS_17__hash_value_typeIP11_typeobjectNS_6vectorIPN8pybind116detail9type_infoENS_9allocatorISA_EEEEEEPvEEEENSB_ISG_EEEC1B7v160006ILb1EvEEv, symObjAddr: 0x9CE0, symBinAddr: 0x17A20, symSize: 0x20 }
  - { offsetInCU: 0x55040, offset: 0x8DB2E, size: 0x8, addend: 0x0, symName: __ZNSt3__117__compressed_pairImNS_22__unordered_map_hasherIP11_typeobjectNS_17__hash_value_typeIS3_NS_6vectorIPN8pybind116detail9type_infoENS_9allocatorIS9_EEEEEENS_4hashIS3_EENS_8equal_toIS3_EELb1EEEEC1B7v160006IiNS_18__default_init_tagEEEOT_OT0_, symObjAddr: 0x9D00, symBinAddr: 0x17A40, symSize: 0x30 }
  - { offsetInCU: 0x55097, offset: 0x8DB85, size: 0x8, addend: 0x0, symName: __ZNSt3__117__compressed_pairIfNS_21__unordered_map_equalIP11_typeobjectNS_17__hash_value_typeIS3_NS_6vectorIPN8pybind116detail9type_infoENS_9allocatorIS9_EEEEEENS_8equal_toIS3_EENS_4hashIS3_EELb1EEEEC1B7v160006IfNS_18__default_init_tagEEEOT_OT0_, symObjAddr: 0x9D30, symBinAddr: 0x17A70, symSize: 0x30 }
  - { offsetInCU: 0x550EE, offset: 0x8DBDC, size: 0x8, addend: 0x0, symName: __ZNSt3__110unique_ptrIA_PNS_16__hash_node_baseIPNS_11__hash_nodeINS_17__hash_value_typeIP11_typeobjectNS_6vectorIPN8pybind116detail9type_infoENS_9allocatorISA_EEEEEEPvEEEENS_25__bucket_list_deallocatorINSB_ISJ_EEEEEC2B7v160006ILb1EvEEv, symObjAddr: 0x9D60, symBinAddr: 0x17AA0, symSize: 0x30 }
  - { offsetInCU: 0x55122, offset: 0x8DC10, size: 0x8, addend: 0x0, symName: __ZNSt3__117__compressed_pairIPPNS_16__hash_node_baseIPNS_11__hash_nodeINS_17__hash_value_typeIP11_typeobjectNS_6vectorIPN8pybind116detail9type_infoENS_9allocatorISA_EEEEEEPvEEEENS_25__bucket_list_deallocatorINSB_ISJ_EEEEEC1B7v160006INS_16__value_init_tagESQ_EEOT_OT0_, symObjAddr: 0x9D90, symBinAddr: 0x17AD0, symSize: 0x30 }
  - { offsetInCU: 0x55179, offset: 0x8DC67, size: 0x8, addend: 0x0, symName: __ZNSt3__117__compressed_pairIPPNS_16__hash_node_baseIPNS_11__hash_nodeINS_17__hash_value_typeIP11_typeobjectNS_6vectorIPN8pybind116detail9type_infoENS_9allocatorISA_EEEEEEPvEEEENS_25__bucket_list_deallocatorINSB_ISJ_EEEEEC2B7v160006INS_16__value_init_tagESQ_EEOT_OT0_, symObjAddr: 0x9DC0, symBinAddr: 0x17B00, symSize: 0x40 }
  - { offsetInCU: 0x551D0, offset: 0x8DCBE, size: 0x8, addend: 0x0, symName: __ZNSt3__122__compressed_pair_elemIPPNS_16__hash_node_baseIPNS_11__hash_nodeINS_17__hash_value_typeIP11_typeobjectNS_6vectorIPN8pybind116detail9type_infoENS_9allocatorISA_EEEEEEPvEEEELi0ELb0EEC2B7v160006ENS_16__value_init_tagE, symObjAddr: 0x9E00, symBinAddr: 0x17B40, symSize: 0x20 }
  - { offsetInCU: 0x55203, offset: 0x8DCF1, size: 0x8, addend: 0x0, symName: __ZNSt3__122__compressed_pair_elemINS_25__bucket_list_deallocatorINS_9allocatorIPNS_16__hash_node_baseIPNS_11__hash_nodeINS_17__hash_value_typeIP11_typeobjectNS_6vectorIPN8pybind116detail9type_infoENS2_ISC_EEEEEEPvEEEEEEEELi1ELb0EEC2B7v160006ENS_16__value_init_tagE, symObjAddr: 0x9E20, symBinAddr: 0x17B60, symSize: 0x20 }
  - { offsetInCU: 0x55236, offset: 0x8DD24, size: 0x8, addend: 0x0, symName: __ZNSt3__125__bucket_list_deallocatorINS_9allocatorIPNS_16__hash_node_baseIPNS_11__hash_nodeINS_17__hash_value_typeIP11_typeobjectNS_6vectorIPN8pybind116detail9type_infoENS1_ISB_EEEEEEPvEEEEEEEC1B7v160006Ev, symObjAddr: 0x9E40, symBinAddr: 0x17B80, symSize: 0x20 }
  - { offsetInCU: 0x5525F, offset: 0x8DD4D, size: 0x8, addend: 0x0, symName: __ZNSt3__125__bucket_list_deallocatorINS_9allocatorIPNS_16__hash_node_baseIPNS_11__hash_nodeINS_17__hash_value_typeIP11_typeobjectNS_6vectorIPN8pybind116detail9type_infoENS1_ISB_EEEEEEPvEEEEEEEC2B7v160006Ev, symObjAddr: 0x9E60, symBinAddr: 0x17BA0, symSize: 0x40 }
  - { offsetInCU: 0x55288, offset: 0x8DD76, size: 0x8, addend: 0x0, symName: __ZNSt3__117__compressed_pairImNS_9allocatorIPNS_16__hash_node_baseIPNS_11__hash_nodeINS_17__hash_value_typeIP11_typeobjectNS_6vectorIPN8pybind116detail9type_infoENS1_ISB_EEEEEEPvEEEEEEEC1B7v160006IiNS_18__default_init_tagEEEOT_OT0_, symObjAddr: 0x9EA0, symBinAddr: 0x17BE0, symSize: 0x30 }
  - { offsetInCU: 0x552DF, offset: 0x8DDCD, size: 0x8, addend: 0x0, symName: __ZNSt3__117__compressed_pairImNS_9allocatorIPNS_16__hash_node_baseIPNS_11__hash_nodeINS_17__hash_value_typeIP11_typeobjectNS_6vectorIPN8pybind116detail9type_infoENS1_ISB_EEEEEEPvEEEEEEEC2B7v160006IiNS_18__default_init_tagEEEOT_OT0_, symObjAddr: 0x9ED0, symBinAddr: 0x17C10, symSize: 0x40 }
  - { offsetInCU: 0x55336, offset: 0x8DE24, size: 0x8, addend: 0x0, symName: __ZNSt3__122__compressed_pair_elemINS_9allocatorIPNS_16__hash_node_baseIPNS_11__hash_nodeINS_17__hash_value_typeIP11_typeobjectNS_6vectorIPN8pybind116detail9type_infoENS1_ISB_EEEEEEPvEEEEEELi1ELb1EEC2B7v160006ENS_18__default_init_tagE, symObjAddr: 0x9F10, symBinAddr: 0x17C50, symSize: 0x20 }
  - { offsetInCU: 0x55369, offset: 0x8DE57, size: 0x8, addend: 0x0, symName: __ZNSt3__19allocatorIPNS_16__hash_node_baseIPNS_11__hash_nodeINS_17__hash_value_typeIP11_typeobjectNS_6vectorIPN8pybind116detail9type_infoENS0_ISA_EEEEEEPvEEEEEC2B7v160006Ev, symObjAddr: 0x9F30, symBinAddr: 0x17C70, symSize: 0x20 }
  - { offsetInCU: 0x55392, offset: 0x8DE80, size: 0x8, addend: 0x0, symName: __ZNSt3__116__non_trivial_ifILb1ENS_9allocatorIPNS_16__hash_node_baseIPNS_11__hash_nodeINS_17__hash_value_typeIP11_typeobjectNS_6vectorIPN8pybind116detail9type_infoENS1_ISB_EEEEEEPvEEEEEEEC2B7v160006Ev, symObjAddr: 0x9F50, symBinAddr: 0x17C90, symSize: 0x10 }
  - { offsetInCU: 0x553BB, offset: 0x8DEA9, size: 0x8, addend: 0x0, symName: __ZNSt3__117__compressed_pairINS_16__hash_node_baseIPNS_11__hash_nodeINS_17__hash_value_typeIP11_typeobjectNS_6vectorIPN8pybind116detail9type_infoENS_9allocatorISA_EEEEEEPvEEEENSB_ISG_EEEC2B7v160006ILb1EvEEv, symObjAddr: 0x9F60, symBinAddr: 0x17CA0, symSize: 0x30 }
  - { offsetInCU: 0x553EF, offset: 0x8DEDD, size: 0x8, addend: 0x0, symName: __ZNSt3__122__compressed_pair_elemINS_16__hash_node_baseIPNS_11__hash_nodeINS_17__hash_value_typeIP11_typeobjectNS_6vectorIPN8pybind116detail9type_infoENS_9allocatorISA_EEEEEEPvEEEELi0ELb0EEC2B7v160006ENS_16__value_init_tagE, symObjAddr: 0x9F90, symBinAddr: 0x17CD0, symSize: 0x20 }
  - { offsetInCU: 0x55422, offset: 0x8DF10, size: 0x8, addend: 0x0, symName: __ZNSt3__122__compressed_pair_elemINS_9allocatorINS_11__hash_nodeINS_17__hash_value_typeIP11_typeobjectNS_6vectorIPN8pybind116detail9type_infoENS1_ISA_EEEEEEPvEEEELi1ELb1EEC2B7v160006ENS_16__value_init_tagE, symObjAddr: 0x9FB0, symBinAddr: 0x17CF0, symSize: 0x20 }
  - { offsetInCU: 0x55455, offset: 0x8DF43, size: 0x8, addend: 0x0, symName: __ZNSt3__116__hash_node_baseIPNS_11__hash_nodeINS_17__hash_value_typeIP11_typeobjectNS_6vectorIPN8pybind116detail9type_infoENS_9allocatorIS9_EEEEEEPvEEEC1B7v160006Ev, symObjAddr: 0x9FD0, symBinAddr: 0x17D10, symSize: 0x20 }
  - { offsetInCU: 0x5547E, offset: 0x8DF6C, size: 0x8, addend: 0x0, symName: __ZNSt3__116__hash_node_baseIPNS_11__hash_nodeINS_17__hash_value_typeIP11_typeobjectNS_6vectorIPN8pybind116detail9type_infoENS_9allocatorIS9_EEEEEEPvEEEC2B7v160006Ev, symObjAddr: 0x9FF0, symBinAddr: 0x17D30, symSize: 0x20 }
  - { offsetInCU: 0x554A7, offset: 0x8DF95, size: 0x8, addend: 0x0, symName: __ZNSt3__19allocatorINS_11__hash_nodeINS_17__hash_value_typeIP11_typeobjectNS_6vectorIPN8pybind116detail9type_infoENS0_IS9_EEEEEEPvEEEC2B7v160006Ev, symObjAddr: 0xA010, symBinAddr: 0x17D50, symSize: 0x20 }
  - { offsetInCU: 0x554D0, offset: 0x8DFBE, size: 0x8, addend: 0x0, symName: __ZNSt3__116__non_trivial_ifILb1ENS_9allocatorINS_11__hash_nodeINS_17__hash_value_typeIP11_typeobjectNS_6vectorIPN8pybind116detail9type_infoENS1_ISA_EEEEEEPvEEEEEC2B7v160006Ev, symObjAddr: 0xA030, symBinAddr: 0x17D70, symSize: 0x10 }
  - { offsetInCU: 0x554F9, offset: 0x8DFE7, size: 0x8, addend: 0x0, symName: __ZNSt3__117__compressed_pairImNS_22__unordered_map_hasherIP11_typeobjectNS_17__hash_value_typeIS3_NS_6vectorIPN8pybind116detail9type_infoENS_9allocatorIS9_EEEEEENS_4hashIS3_EENS_8equal_toIS3_EELb1EEEEC2B7v160006IiNS_18__default_init_tagEEEOT_OT0_, symObjAddr: 0xA040, symBinAddr: 0x17D80, symSize: 0x40 }
  - { offsetInCU: 0x55550, offset: 0x8E03E, size: 0x8, addend: 0x0, symName: __ZNSt3__122__compressed_pair_elemINS_22__unordered_map_hasherIP11_typeobjectNS_17__hash_value_typeIS3_NS_6vectorIPN8pybind116detail9type_infoENS_9allocatorIS9_EEEEEENS_4hashIS3_EENS_8equal_toIS3_EELb1EEELi1ELb1EEC2B7v160006ENS_18__default_init_tagE, symObjAddr: 0xA080, symBinAddr: 0x17DC0, symSize: 0x20 }
  - { offsetInCU: 0x55583, offset: 0x8E071, size: 0x8, addend: 0x0, symName: __ZNSt3__122__unordered_map_hasherIP11_typeobjectNS_17__hash_value_typeIS2_NS_6vectorIPN8pybind116detail9type_infoENS_9allocatorIS8_EEEEEENS_4hashIS2_EENS_8equal_toIS2_EELb1EEC2B7v160006Ev, symObjAddr: 0xA0A0, symBinAddr: 0x17DE0, symSize: 0x10 }
  - { offsetInCU: 0x555AC, offset: 0x8E09A, size: 0x8, addend: 0x0, symName: __ZNSt3__117__compressed_pairIfNS_21__unordered_map_equalIP11_typeobjectNS_17__hash_value_typeIS3_NS_6vectorIPN8pybind116detail9type_infoENS_9allocatorIS9_EEEEEENS_8equal_toIS3_EENS_4hashIS3_EELb1EEEEC2B7v160006IfNS_18__default_init_tagEEEOT_OT0_, symObjAddr: 0xA0B0, symBinAddr: 0x17DF0, symSize: 0x40 }
  - { offsetInCU: 0x55603, offset: 0x8E0F1, size: 0x8, addend: 0x0, symName: __ZNSt3__122__compressed_pair_elemINS_21__unordered_map_equalIP11_typeobjectNS_17__hash_value_typeIS3_NS_6vectorIPN8pybind116detail9type_infoENS_9allocatorIS9_EEEEEENS_8equal_toIS3_EENS_4hashIS3_EELb1EEELi1ELb1EEC2B7v160006ENS_18__default_init_tagE, symObjAddr: 0xA0F0, symBinAddr: 0x17E30, symSize: 0x20 }
  - { offsetInCU: 0x55636, offset: 0x8E124, size: 0x8, addend: 0x0, symName: __ZNSt3__121__unordered_map_equalIP11_typeobjectNS_17__hash_value_typeIS2_NS_6vectorIPN8pybind116detail9type_infoENS_9allocatorIS8_EEEEEENS_8equal_toIS2_EENS_4hashIS2_EELb1EEC2B7v160006Ev, symObjAddr: 0xA110, symBinAddr: 0x17E50, symSize: 0x10 }
  - { offsetInCU: 0x5565F, offset: 0x8E14D, size: 0x8, addend: 0x0, symName: __ZNSt3__118unordered_multimapIPKvPN8pybind116detail8instanceENS_4hashIS2_EENS_8equal_toIS2_EENS_9allocatorINS_4pairIKS2_S6_EEEEEC2B7v160006Ev, symObjAddr: 0xA120, symBinAddr: 0x17E60, symSize: 0x40 }
  - { offsetInCU: 0x55688, offset: 0x8E176, size: 0x8, addend: 0x0, symName: __ZNSt3__112__hash_tableINS_17__hash_value_typeIPKvPN8pybind116detail8instanceEEENS_22__unordered_map_hasherIS3_S8_NS_4hashIS3_EENS_8equal_toIS3_EELb1EEENS_21__unordered_map_equalIS3_S8_SD_SB_Lb1EEENS_9allocatorIS8_EEEC1Ev, symObjAddr: 0xA160, symBinAddr: 0x17EA0, symSize: 0x20 }
  - { offsetInCU: 0x556B3, offset: 0x8E1A1, size: 0x8, addend: 0x0, symName: __ZNSt3__112__hash_tableINS_17__hash_value_typeIPKvPN8pybind116detail8instanceEEENS_22__unordered_map_hasherIS3_S8_NS_4hashIS3_EENS_8equal_toIS3_EELb1EEENS_21__unordered_map_equalIS3_S8_SD_SB_Lb1EEENS_9allocatorIS8_EEEC2Ev, symObjAddr: 0xA190, symBinAddr: 0x17ED0, symSize: 0x80 }
  - { offsetInCU: 0x556DE, offset: 0x8E1CC, size: 0x8, addend: 0x0, symName: __ZNSt3__110unique_ptrIA_PNS_16__hash_node_baseIPNS_11__hash_nodeINS_17__hash_value_typeIPKvPN8pybind116detail8instanceEEEPvEEEENS_25__bucket_list_deallocatorINS_9allocatorISF_EEEEEC1B7v160006ILb1EvEEv, symObjAddr: 0xA210, symBinAddr: 0x17F50, symSize: 0x20 }
  - { offsetInCU: 0x55712, offset: 0x8E200, size: 0x8, addend: 0x0, symName: __ZNSt3__117__compressed_pairINS_16__hash_node_baseIPNS_11__hash_nodeINS_17__hash_value_typeIPKvPN8pybind116detail8instanceEEEPvEEEENS_9allocatorISC_EEEC1B7v160006ILb1EvEEv, symObjAddr: 0xA230, symBinAddr: 0x17F70, symSize: 0x20 }
  - { offsetInCU: 0x55746, offset: 0x8E234, size: 0x8, addend: 0x0, symName: __ZNSt3__117__compressed_pairImNS_22__unordered_map_hasherIPKvNS_17__hash_value_typeIS3_PN8pybind116detail8instanceEEENS_4hashIS3_EENS_8equal_toIS3_EELb1EEEEC1B7v160006IiNS_18__default_init_tagEEEOT_OT0_, symObjAddr: 0xA250, symBinAddr: 0x17F90, symSize: 0x30 }
  - { offsetInCU: 0x5579D, offset: 0x8E28B, size: 0x8, addend: 0x0, symName: __ZNSt3__117__compressed_pairIfNS_21__unordered_map_equalIPKvNS_17__hash_value_typeIS3_PN8pybind116detail8instanceEEENS_8equal_toIS3_EENS_4hashIS3_EELb1EEEEC1B7v160006IfNS_18__default_init_tagEEEOT_OT0_, symObjAddr: 0xA280, symBinAddr: 0x17FC0, symSize: 0x30 }
  - { offsetInCU: 0x557F4, offset: 0x8E2E2, size: 0x8, addend: 0x0, symName: __ZNSt3__110unique_ptrIA_PNS_16__hash_node_baseIPNS_11__hash_nodeINS_17__hash_value_typeIPKvPN8pybind116detail8instanceEEEPvEEEENS_25__bucket_list_deallocatorINS_9allocatorISF_EEEEEC2B7v160006ILb1EvEEv, symObjAddr: 0xA2B0, symBinAddr: 0x17FF0, symSize: 0x30 }
  - { offsetInCU: 0x55828, offset: 0x8E316, size: 0x8, addend: 0x0, symName: __ZNSt3__117__compressed_pairIPPNS_16__hash_node_baseIPNS_11__hash_nodeINS_17__hash_value_typeIPKvPN8pybind116detail8instanceEEEPvEEEENS_25__bucket_list_deallocatorINS_9allocatorISF_EEEEEC1B7v160006INS_16__value_init_tagESN_EEOT_OT0_, symObjAddr: 0xA2E0, symBinAddr: 0x18020, symSize: 0x30 }
  - { offsetInCU: 0x5587F, offset: 0x8E36D, size: 0x8, addend: 0x0, symName: __ZNSt3__117__compressed_pairIPPNS_16__hash_node_baseIPNS_11__hash_nodeINS_17__hash_value_typeIPKvPN8pybind116detail8instanceEEEPvEEEENS_25__bucket_list_deallocatorINS_9allocatorISF_EEEEEC2B7v160006INS_16__value_init_tagESN_EEOT_OT0_, symObjAddr: 0xA310, symBinAddr: 0x18050, symSize: 0x40 }
  - { offsetInCU: 0x558D6, offset: 0x8E3C4, size: 0x8, addend: 0x0, symName: __ZNSt3__122__compressed_pair_elemIPPNS_16__hash_node_baseIPNS_11__hash_nodeINS_17__hash_value_typeIPKvPN8pybind116detail8instanceEEEPvEEEELi0ELb0EEC2B7v160006ENS_16__value_init_tagE, symObjAddr: 0xA350, symBinAddr: 0x18090, symSize: 0x20 }
  - { offsetInCU: 0x55909, offset: 0x8E3F7, size: 0x8, addend: 0x0, symName: __ZNSt3__122__compressed_pair_elemINS_25__bucket_list_deallocatorINS_9allocatorIPNS_16__hash_node_baseIPNS_11__hash_nodeINS_17__hash_value_typeIPKvPN8pybind116detail8instanceEEEPvEEEEEEEELi1ELb0EEC2B7v160006ENS_16__value_init_tagE, symObjAddr: 0xA370, symBinAddr: 0x180B0, symSize: 0x20 }
  - { offsetInCU: 0x5593C, offset: 0x8E42A, size: 0x8, addend: 0x0, symName: __ZNSt3__125__bucket_list_deallocatorINS_9allocatorIPNS_16__hash_node_baseIPNS_11__hash_nodeINS_17__hash_value_typeIPKvPN8pybind116detail8instanceEEEPvEEEEEEEC1B7v160006Ev, symObjAddr: 0xA390, symBinAddr: 0x180D0, symSize: 0x20 }
  - { offsetInCU: 0x55965, offset: 0x8E453, size: 0x8, addend: 0x0, symName: __ZNSt3__125__bucket_list_deallocatorINS_9allocatorIPNS_16__hash_node_baseIPNS_11__hash_nodeINS_17__hash_value_typeIPKvPN8pybind116detail8instanceEEEPvEEEEEEEC2B7v160006Ev, symObjAddr: 0xA3B0, symBinAddr: 0x180F0, symSize: 0x40 }
  - { offsetInCU: 0x5598E, offset: 0x8E47C, size: 0x8, addend: 0x0, symName: __ZNSt3__117__compressed_pairImNS_9allocatorIPNS_16__hash_node_baseIPNS_11__hash_nodeINS_17__hash_value_typeIPKvPN8pybind116detail8instanceEEEPvEEEEEEEC1B7v160006IiNS_18__default_init_tagEEEOT_OT0_, symObjAddr: 0xA3F0, symBinAddr: 0x18130, symSize: 0x30 }
  - { offsetInCU: 0x559E5, offset: 0x8E4D3, size: 0x8, addend: 0x0, symName: __ZNSt3__117__compressed_pairImNS_9allocatorIPNS_16__hash_node_baseIPNS_11__hash_nodeINS_17__hash_value_typeIPKvPN8pybind116detail8instanceEEEPvEEEEEEEC2B7v160006IiNS_18__default_init_tagEEEOT_OT0_, symObjAddr: 0xA420, symBinAddr: 0x18160, symSize: 0x40 }
  - { offsetInCU: 0x55A3C, offset: 0x8E52A, size: 0x8, addend: 0x0, symName: __ZNSt3__122__compressed_pair_elemINS_9allocatorIPNS_16__hash_node_baseIPNS_11__hash_nodeINS_17__hash_value_typeIPKvPN8pybind116detail8instanceEEEPvEEEEEELi1ELb1EEC2B7v160006ENS_18__default_init_tagE, symObjAddr: 0xA460, symBinAddr: 0x181A0, symSize: 0x20 }
  - { offsetInCU: 0x55A6F, offset: 0x8E55D, size: 0x8, addend: 0x0, symName: __ZNSt3__19allocatorIPNS_16__hash_node_baseIPNS_11__hash_nodeINS_17__hash_value_typeIPKvPN8pybind116detail8instanceEEEPvEEEEEC2B7v160006Ev, symObjAddr: 0xA480, symBinAddr: 0x181C0, symSize: 0x20 }
  - { offsetInCU: 0x55A98, offset: 0x8E586, size: 0x8, addend: 0x0, symName: __ZNSt3__116__non_trivial_ifILb1ENS_9allocatorIPNS_16__hash_node_baseIPNS_11__hash_nodeINS_17__hash_value_typeIPKvPN8pybind116detail8instanceEEEPvEEEEEEEC2B7v160006Ev, symObjAddr: 0xA4A0, symBinAddr: 0x181E0, symSize: 0x10 }
  - { offsetInCU: 0x55AC1, offset: 0x8E5AF, size: 0x8, addend: 0x0, symName: __ZNSt3__117__compressed_pairINS_16__hash_node_baseIPNS_11__hash_nodeINS_17__hash_value_typeIPKvPN8pybind116detail8instanceEEEPvEEEENS_9allocatorISC_EEEC2B7v160006ILb1EvEEv, symObjAddr: 0xA4B0, symBinAddr: 0x181F0, symSize: 0x30 }
  - { offsetInCU: 0x55AF5, offset: 0x8E5E3, size: 0x8, addend: 0x0, symName: __ZNSt3__122__compressed_pair_elemINS_16__hash_node_baseIPNS_11__hash_nodeINS_17__hash_value_typeIPKvPN8pybind116detail8instanceEEEPvEEEELi0ELb0EEC2B7v160006ENS_16__value_init_tagE, symObjAddr: 0xA4E0, symBinAddr: 0x18220, symSize: 0x20 }
  - { offsetInCU: 0x55B28, offset: 0x8E616, size: 0x8, addend: 0x0, symName: __ZNSt3__122__compressed_pair_elemINS_9allocatorINS_11__hash_nodeINS_17__hash_value_typeIPKvPN8pybind116detail8instanceEEEPvEEEELi1ELb1EEC2B7v160006ENS_16__value_init_tagE, symObjAddr: 0xA500, symBinAddr: 0x18240, symSize: 0x20 }
  - { offsetInCU: 0x55B5B, offset: 0x8E649, size: 0x8, addend: 0x0, symName: __ZNSt3__116__hash_node_baseIPNS_11__hash_nodeINS_17__hash_value_typeIPKvPN8pybind116detail8instanceEEEPvEEEC1B7v160006Ev, symObjAddr: 0xA520, symBinAddr: 0x18260, symSize: 0x20 }
  - { offsetInCU: 0x55B84, offset: 0x8E672, size: 0x8, addend: 0x0, symName: __ZNSt3__116__hash_node_baseIPNS_11__hash_nodeINS_17__hash_value_typeIPKvPN8pybind116detail8instanceEEEPvEEEC2B7v160006Ev, symObjAddr: 0xA540, symBinAddr: 0x18280, symSize: 0x20 }
  - { offsetInCU: 0x55BAD, offset: 0x8E69B, size: 0x8, addend: 0x0, symName: __ZNSt3__19allocatorINS_11__hash_nodeINS_17__hash_value_typeIPKvPN8pybind116detail8instanceEEEPvEEEC2B7v160006Ev, symObjAddr: 0xA560, symBinAddr: 0x182A0, symSize: 0x20 }
  - { offsetInCU: 0x55BD6, offset: 0x8E6C4, size: 0x8, addend: 0x0, symName: __ZNSt3__116__non_trivial_ifILb1ENS_9allocatorINS_11__hash_nodeINS_17__hash_value_typeIPKvPN8pybind116detail8instanceEEEPvEEEEEC2B7v160006Ev, symObjAddr: 0xA580, symBinAddr: 0x182C0, symSize: 0x10 }
  - { offsetInCU: 0x55BFF, offset: 0x8E6ED, size: 0x8, addend: 0x0, symName: __ZNSt3__117__compressed_pairImNS_22__unordered_map_hasherIPKvNS_17__hash_value_typeIS3_PN8pybind116detail8instanceEEENS_4hashIS3_EENS_8equal_toIS3_EELb1EEEEC2B7v160006IiNS_18__default_init_tagEEEOT_OT0_, symObjAddr: 0xA590, symBinAddr: 0x182D0, symSize: 0x40 }
  - { offsetInCU: 0x55C56, offset: 0x8E744, size: 0x8, addend: 0x0, symName: __ZNSt3__122__compressed_pair_elemINS_22__unordered_map_hasherIPKvNS_17__hash_value_typeIS3_PN8pybind116detail8instanceEEENS_4hashIS3_EENS_8equal_toIS3_EELb1EEELi1ELb1EEC2B7v160006ENS_18__default_init_tagE, symObjAddr: 0xA5D0, symBinAddr: 0x18310, symSize: 0x20 }
  - { offsetInCU: 0x55C89, offset: 0x8E777, size: 0x8, addend: 0x0, symName: __ZNSt3__122__unordered_map_hasherIPKvNS_17__hash_value_typeIS2_PN8pybind116detail8instanceEEENS_4hashIS2_EENS_8equal_toIS2_EELb1EEC2B7v160006Ev, symObjAddr: 0xA5F0, symBinAddr: 0x18330, symSize: 0x10 }
  - { offsetInCU: 0x55CB2, offset: 0x8E7A0, size: 0x8, addend: 0x0, symName: __ZNSt3__117__compressed_pairIfNS_21__unordered_map_equalIPKvNS_17__hash_value_typeIS3_PN8pybind116detail8instanceEEENS_8equal_toIS3_EENS_4hashIS3_EELb1EEEEC2B7v160006IfNS_18__default_init_tagEEEOT_OT0_, symObjAddr: 0xA600, symBinAddr: 0x18340, symSize: 0x40 }
  - { offsetInCU: 0x55D09, offset: 0x8E7F7, size: 0x8, addend: 0x0, symName: __ZNSt3__122__compressed_pair_elemINS_21__unordered_map_equalIPKvNS_17__hash_value_typeIS3_PN8pybind116detail8instanceEEENS_8equal_toIS3_EENS_4hashIS3_EELb1EEELi1ELb1EEC2B7v160006ENS_18__default_init_tagE, symObjAddr: 0xA640, symBinAddr: 0x18380, symSize: 0x20 }
  - { offsetInCU: 0x55D3C, offset: 0x8E82A, size: 0x8, addend: 0x0, symName: __ZNSt3__121__unordered_map_equalIPKvNS_17__hash_value_typeIS2_PN8pybind116detail8instanceEEENS_8equal_toIS2_EENS_4hashIS2_EELb1EEC2B7v160006Ev, symObjAddr: 0xA660, symBinAddr: 0x183A0, symSize: 0x10 }
  - { offsetInCU: 0x55D65, offset: 0x8E853, size: 0x8, addend: 0x0, symName: __ZNSt3__113unordered_setINS_4pairIPK7_objectPKcEEN8pybind116detail13override_hashENS_8equal_toIS7_EENS_9allocatorIS7_EEEC2B7v160006Ev, symObjAddr: 0xA670, symBinAddr: 0x183B0, symSize: 0x40 }
  - { offsetInCU: 0x55D8E, offset: 0x8E87C, size: 0x8, addend: 0x0, symName: __ZNSt3__112__hash_tableINS_4pairIPK7_objectPKcEEN8pybind116detail13override_hashENS_8equal_toIS7_EENS_9allocatorIS7_EEEC1Ev, symObjAddr: 0xA6B0, symBinAddr: 0x183F0, symSize: 0x20 }
  - { offsetInCU: 0x55DB9, offset: 0x8E8A7, size: 0x8, addend: 0x0, symName: __ZNSt3__112__hash_tableINS_4pairIPK7_objectPKcEEN8pybind116detail13override_hashENS_8equal_toIS7_EENS_9allocatorIS7_EEEC2Ev, symObjAddr: 0xA6E0, symBinAddr: 0x18420, symSize: 0x80 }
  - { offsetInCU: 0x55DE4, offset: 0x8E8D2, size: 0x8, addend: 0x0, symName: __ZNSt3__110unique_ptrIA_PNS_16__hash_node_baseIPNS_11__hash_nodeINS_4pairIPK7_objectPKcEEPvEEEENS_25__bucket_list_deallocatorINS_9allocatorISE_EEEEEC1B7v160006ILb1EvEEv, symObjAddr: 0xA760, symBinAddr: 0x184A0, symSize: 0x20 }
  - { offsetInCU: 0x55E18, offset: 0x8E906, size: 0x8, addend: 0x0, symName: __ZNSt3__117__compressed_pairINS_16__hash_node_baseIPNS_11__hash_nodeINS_4pairIPK7_objectPKcEEPvEEEENS_9allocatorISB_EEEC1B7v160006ILb1EvEEv, symObjAddr: 0xA780, symBinAddr: 0x184C0, symSize: 0x20 }
  - { offsetInCU: 0x55E4C, offset: 0x8E93A, size: 0x8, addend: 0x0, symName: __ZNSt3__117__compressed_pairImN8pybind116detail13override_hashEEC1B7v160006IiNS_18__default_init_tagEEEOT_OT0_, symObjAddr: 0xA7A0, symBinAddr: 0x184E0, symSize: 0x30 }
  - { offsetInCU: 0x55EA3, offset: 0x8E991, size: 0x8, addend: 0x0, symName: __ZNSt3__117__compressed_pairIfNS_8equal_toINS_4pairIPK7_objectPKcEEEEEC1B7v160006IfNS_18__default_init_tagEEEOT_OT0_, symObjAddr: 0xA7D0, symBinAddr: 0x18510, symSize: 0x30 }
  - { offsetInCU: 0x55EFA, offset: 0x8E9E8, size: 0x8, addend: 0x0, symName: __ZNSt3__110unique_ptrIA_PNS_16__hash_node_baseIPNS_11__hash_nodeINS_4pairIPK7_objectPKcEEPvEEEENS_25__bucket_list_deallocatorINS_9allocatorISE_EEEEEC2B7v160006ILb1EvEEv, symObjAddr: 0xA800, symBinAddr: 0x18540, symSize: 0x30 }
  - { offsetInCU: 0x55F2E, offset: 0x8EA1C, size: 0x8, addend: 0x0, symName: __ZNSt3__117__compressed_pairIPPNS_16__hash_node_baseIPNS_11__hash_nodeINS_4pairIPK7_objectPKcEEPvEEEENS_25__bucket_list_deallocatorINS_9allocatorISE_EEEEEC1B7v160006INS_16__value_init_tagESM_EEOT_OT0_, symObjAddr: 0xA830, symBinAddr: 0x18570, symSize: 0x30 }
  - { offsetInCU: 0x55F85, offset: 0x8EA73, size: 0x8, addend: 0x0, symName: __ZNSt3__117__compressed_pairIPPNS_16__hash_node_baseIPNS_11__hash_nodeINS_4pairIPK7_objectPKcEEPvEEEENS_25__bucket_list_deallocatorINS_9allocatorISE_EEEEEC2B7v160006INS_16__value_init_tagESM_EEOT_OT0_, symObjAddr: 0xA860, symBinAddr: 0x185A0, symSize: 0x40 }
  - { offsetInCU: 0x55FDC, offset: 0x8EACA, size: 0x8, addend: 0x0, symName: __ZNSt3__122__compressed_pair_elemIPPNS_16__hash_node_baseIPNS_11__hash_nodeINS_4pairIPK7_objectPKcEEPvEEEELi0ELb0EEC2B7v160006ENS_16__value_init_tagE, symObjAddr: 0xA8A0, symBinAddr: 0x185E0, symSize: 0x20 }
  - { offsetInCU: 0x5600F, offset: 0x8EAFD, size: 0x8, addend: 0x0, symName: __ZNSt3__122__compressed_pair_elemINS_25__bucket_list_deallocatorINS_9allocatorIPNS_16__hash_node_baseIPNS_11__hash_nodeINS_4pairIPK7_objectPKcEEPvEEEEEEEELi1ELb0EEC2B7v160006ENS_16__value_init_tagE, symObjAddr: 0xA8C0, symBinAddr: 0x18600, symSize: 0x20 }
  - { offsetInCU: 0x56042, offset: 0x8EB30, size: 0x8, addend: 0x0, symName: __ZNSt3__125__bucket_list_deallocatorINS_9allocatorIPNS_16__hash_node_baseIPNS_11__hash_nodeINS_4pairIPK7_objectPKcEEPvEEEEEEEC1B7v160006Ev, symObjAddr: 0xA8E0, symBinAddr: 0x18620, symSize: 0x20 }
  - { offsetInCU: 0x5606B, offset: 0x8EB59, size: 0x8, addend: 0x0, symName: __ZNSt3__125__bucket_list_deallocatorINS_9allocatorIPNS_16__hash_node_baseIPNS_11__hash_nodeINS_4pairIPK7_objectPKcEEPvEEEEEEEC2B7v160006Ev, symObjAddr: 0xA900, symBinAddr: 0x18640, symSize: 0x40 }
  - { offsetInCU: 0x56094, offset: 0x8EB82, size: 0x8, addend: 0x0, symName: __ZNSt3__117__compressed_pairImNS_9allocatorIPNS_16__hash_node_baseIPNS_11__hash_nodeINS_4pairIPK7_objectPKcEEPvEEEEEEEC1B7v160006IiNS_18__default_init_tagEEEOT_OT0_, symObjAddr: 0xA940, symBinAddr: 0x18680, symSize: 0x30 }
  - { offsetInCU: 0x560EB, offset: 0x8EBD9, size: 0x8, addend: 0x0, symName: __ZNSt3__117__compressed_pairImNS_9allocatorIPNS_16__hash_node_baseIPNS_11__hash_nodeINS_4pairIPK7_objectPKcEEPvEEEEEEEC2B7v160006IiNS_18__default_init_tagEEEOT_OT0_, symObjAddr: 0xA970, symBinAddr: 0x186B0, symSize: 0x40 }
  - { offsetInCU: 0x56142, offset: 0x8EC30, size: 0x8, addend: 0x0, symName: __ZNSt3__122__compressed_pair_elemINS_9allocatorIPNS_16__hash_node_baseIPNS_11__hash_nodeINS_4pairIPK7_objectPKcEEPvEEEEEELi1ELb1EEC2B7v160006ENS_18__default_init_tagE, symObjAddr: 0xA9B0, symBinAddr: 0x186F0, symSize: 0x20 }
  - { offsetInCU: 0x56175, offset: 0x8EC63, size: 0x8, addend: 0x0, symName: __ZNSt3__19allocatorIPNS_16__hash_node_baseIPNS_11__hash_nodeINS_4pairIPK7_objectPKcEEPvEEEEEC2B7v160006Ev, symObjAddr: 0xA9D0, symBinAddr: 0x18710, symSize: 0x20 }
  - { offsetInCU: 0x5619E, offset: 0x8EC8C, size: 0x8, addend: 0x0, symName: __ZNSt3__116__non_trivial_ifILb1ENS_9allocatorIPNS_16__hash_node_baseIPNS_11__hash_nodeINS_4pairIPK7_objectPKcEEPvEEEEEEEC2B7v160006Ev, symObjAddr: 0xA9F0, symBinAddr: 0x18730, symSize: 0x10 }
  - { offsetInCU: 0x561C7, offset: 0x8ECB5, size: 0x8, addend: 0x0, symName: __ZNSt3__117__compressed_pairINS_16__hash_node_baseIPNS_11__hash_nodeINS_4pairIPK7_objectPKcEEPvEEEENS_9allocatorISB_EEEC2B7v160006ILb1EvEEv, symObjAddr: 0xAA00, symBinAddr: 0x18740, symSize: 0x30 }
  - { offsetInCU: 0x561FB, offset: 0x8ECE9, size: 0x8, addend: 0x0, symName: __ZNSt3__122__compressed_pair_elemINS_16__hash_node_baseIPNS_11__hash_nodeINS_4pairIPK7_objectPKcEEPvEEEELi0ELb0EEC2B7v160006ENS_16__value_init_tagE, symObjAddr: 0xAA30, symBinAddr: 0x18770, symSize: 0x20 }
  - { offsetInCU: 0x5622E, offset: 0x8ED1C, size: 0x8, addend: 0x0, symName: __ZNSt3__122__compressed_pair_elemINS_9allocatorINS_11__hash_nodeINS_4pairIPK7_objectPKcEEPvEEEELi1ELb1EEC2B7v160006ENS_16__value_init_tagE, symObjAddr: 0xAA50, symBinAddr: 0x18790, symSize: 0x20 }
  - { offsetInCU: 0x56261, offset: 0x8ED4F, size: 0x8, addend: 0x0, symName: __ZNSt3__116__hash_node_baseIPNS_11__hash_nodeINS_4pairIPK7_objectPKcEEPvEEEC1B7v160006Ev, symObjAddr: 0xAA70, symBinAddr: 0x187B0, symSize: 0x20 }
  - { offsetInCU: 0x5628A, offset: 0x8ED78, size: 0x8, addend: 0x0, symName: __ZNSt3__116__hash_node_baseIPNS_11__hash_nodeINS_4pairIPK7_objectPKcEEPvEEEC2B7v160006Ev, symObjAddr: 0xAA90, symBinAddr: 0x187D0, symSize: 0x20 }
  - { offsetInCU: 0x562B3, offset: 0x8EDA1, size: 0x8, addend: 0x0, symName: __ZNSt3__19allocatorINS_11__hash_nodeINS_4pairIPK7_objectPKcEEPvEEEC2B7v160006Ev, symObjAddr: 0xAAB0, symBinAddr: 0x187F0, symSize: 0x20 }
  - { offsetInCU: 0x562DC, offset: 0x8EDCA, size: 0x8, addend: 0x0, symName: __ZNSt3__116__non_trivial_ifILb1ENS_9allocatorINS_11__hash_nodeINS_4pairIPK7_objectPKcEEPvEEEEEC2B7v160006Ev, symObjAddr: 0xAAD0, symBinAddr: 0x18810, symSize: 0x10 }
  - { offsetInCU: 0x56305, offset: 0x8EDF3, size: 0x8, addend: 0x0, symName: __ZNSt3__117__compressed_pairImN8pybind116detail13override_hashEEC2B7v160006IiNS_18__default_init_tagEEEOT_OT0_, symObjAddr: 0xAAE0, symBinAddr: 0x18820, symSize: 0x40 }
  - { offsetInCU: 0x5635C, offset: 0x8EE4A, size: 0x8, addend: 0x0, symName: __ZNSt3__122__compressed_pair_elemIN8pybind116detail13override_hashELi1ELb1EEC2B7v160006ENS_18__default_init_tagE, symObjAddr: 0xAB20, symBinAddr: 0x18860, symSize: 0x10 }
  - { offsetInCU: 0x5638F, offset: 0x8EE7D, size: 0x8, addend: 0x0, symName: __ZNSt3__117__compressed_pairIfNS_8equal_toINS_4pairIPK7_objectPKcEEEEEC2B7v160006IfNS_18__default_init_tagEEEOT_OT0_, symObjAddr: 0xAB30, symBinAddr: 0x18870, symSize: 0x40 }
  - { offsetInCU: 0x563E6, offset: 0x8EED4, size: 0x8, addend: 0x0, symName: __ZNSt3__122__compressed_pair_elemINS_8equal_toINS_4pairIPK7_objectPKcEEEELi1ELb1EEC2B7v160006ENS_18__default_init_tagE, symObjAddr: 0xAB70, symBinAddr: 0x188B0, symSize: 0x10 }
  - { offsetInCU: 0x56419, offset: 0x8EF07, size: 0x8, addend: 0x0, symName: __ZNSt3__113unordered_mapINS_10type_indexENS_6vectorIPFbP7_objectRPvENS_9allocatorIS8_EEEEN8pybind116detail9type_hashENSD_13type_equal_toENS9_INS_4pairIKS1_SB_EEEEEC2B7v160006Ev, symObjAddr: 0xAB80, symBinAddr: 0x188C0, symSize: 0x40 }
  - { offsetInCU: 0x56442, offset: 0x8EF30, size: 0x8, addend: 0x0, symName: __ZNSt3__112__hash_tableINS_17__hash_value_typeINS_10type_indexENS_6vectorIPFbP7_objectRPvENS_9allocatorIS9_EEEEEENS_22__unordered_map_hasherIS2_SD_N8pybind116detail9type_hashENSG_13type_equal_toELb1EEENS_21__unordered_map_equalIS2_SD_SI_SH_Lb1EEENSA_ISD_EEEC1Ev, symObjAddr: 0xABC0, symBinAddr: 0x18900, symSize: 0x20 }
  - { offsetInCU: 0x5646D, offset: 0x8EF5B, size: 0x8, addend: 0x0, symName: __ZNSt3__112__hash_tableINS_17__hash_value_typeINS_10type_indexENS_6vectorIPFbP7_objectRPvENS_9allocatorIS9_EEEEEENS_22__unordered_map_hasherIS2_SD_N8pybind116detail9type_hashENSG_13type_equal_toELb1EEENS_21__unordered_map_equalIS2_SD_SI_SH_Lb1EEENSA_ISD_EEEC2Ev, symObjAddr: 0xABF0, symBinAddr: 0x18930, symSize: 0x80 }
  - { offsetInCU: 0x56498, offset: 0x8EF86, size: 0x8, addend: 0x0, symName: __ZNSt3__110unique_ptrIA_PNS_16__hash_node_baseIPNS_11__hash_nodeINS_17__hash_value_typeINS_10type_indexENS_6vectorIPFbP7_objectRPvENS_9allocatorISB_EEEEEES8_EEEENS_25__bucket_list_deallocatorINSC_ISJ_EEEEEC1B7v160006ILb1EvEEv, symObjAddr: 0xAC70, symBinAddr: 0x189B0, symSize: 0x20 }
  - { offsetInCU: 0x564CC, offset: 0x8EFBA, size: 0x8, addend: 0x0, symName: __ZNSt3__117__compressed_pairINS_16__hash_node_baseIPNS_11__hash_nodeINS_17__hash_value_typeINS_10type_indexENS_6vectorIPFbP7_objectRPvENS_9allocatorISB_EEEEEES8_EEEENSC_ISG_EEEC1B7v160006ILb1EvEEv, symObjAddr: 0xAC90, symBinAddr: 0x189D0, symSize: 0x20 }
  - { offsetInCU: 0x56500, offset: 0x8EFEE, size: 0x8, addend: 0x0, symName: __ZNSt3__117__compressed_pairImNS_22__unordered_map_hasherINS_10type_indexENS_17__hash_value_typeIS2_NS_6vectorIPFbP7_objectRPvENS_9allocatorISA_EEEEEEN8pybind116detail9type_hashENSG_13type_equal_toELb1EEEEC1B7v160006IiNS_18__default_init_tagEEEOT_OT0_, symObjAddr: 0xACB0, symBinAddr: 0x189F0, symSize: 0x30 }
  - { offsetInCU: 0x56557, offset: 0x8F045, size: 0x8, addend: 0x0, symName: __ZNSt3__117__compressed_pairIfNS_21__unordered_map_equalINS_10type_indexENS_17__hash_value_typeIS2_NS_6vectorIPFbP7_objectRPvENS_9allocatorISA_EEEEEEN8pybind116detail13type_equal_toENSG_9type_hashELb1EEEEC1B7v160006IfNS_18__default_init_tagEEEOT_OT0_, symObjAddr: 0xACE0, symBinAddr: 0x18A20, symSize: 0x30 }
  - { offsetInCU: 0x565AE, offset: 0x8F09C, size: 0x8, addend: 0x0, symName: __ZNSt3__110unique_ptrIA_PNS_16__hash_node_baseIPNS_11__hash_nodeINS_17__hash_value_typeINS_10type_indexENS_6vectorIPFbP7_objectRPvENS_9allocatorISB_EEEEEES8_EEEENS_25__bucket_list_deallocatorINSC_ISJ_EEEEEC2B7v160006ILb1EvEEv, symObjAddr: 0xAD10, symBinAddr: 0x18A50, symSize: 0x30 }
  - { offsetInCU: 0x565E2, offset: 0x8F0D0, size: 0x8, addend: 0x0, symName: __ZNSt3__117__compressed_pairIPPNS_16__hash_node_baseIPNS_11__hash_nodeINS_17__hash_value_typeINS_10type_indexENS_6vectorIPFbP7_objectRPvENS_9allocatorISB_EEEEEES8_EEEENS_25__bucket_list_deallocatorINSC_ISJ_EEEEEC1B7v160006INS_16__value_init_tagESQ_EEOT_OT0_, symObjAddr: 0xAD40, symBinAddr: 0x18A80, symSize: 0x30 }
  - { offsetInCU: 0x56639, offset: 0x8F127, size: 0x8, addend: 0x0, symName: __ZNSt3__117__compressed_pairIPPNS_16__hash_node_baseIPNS_11__hash_nodeINS_17__hash_value_typeINS_10type_indexENS_6vectorIPFbP7_objectRPvENS_9allocatorISB_EEEEEES8_EEEENS_25__bucket_list_deallocatorINSC_ISJ_EEEEEC2B7v160006INS_16__value_init_tagESQ_EEOT_OT0_, symObjAddr: 0xAD70, symBinAddr: 0x18AB0, symSize: 0x40 }
  - { offsetInCU: 0x56690, offset: 0x8F17E, size: 0x8, addend: 0x0, symName: __ZNSt3__122__compressed_pair_elemIPPNS_16__hash_node_baseIPNS_11__hash_nodeINS_17__hash_value_typeINS_10type_indexENS_6vectorIPFbP7_objectRPvENS_9allocatorISB_EEEEEES8_EEEELi0ELb0EEC2B7v160006ENS_16__value_init_tagE, symObjAddr: 0xADB0, symBinAddr: 0x18AF0, symSize: 0x20 }
  - { offsetInCU: 0x566C3, offset: 0x8F1B1, size: 0x8, addend: 0x0, symName: __ZNSt3__122__compressed_pair_elemINS_25__bucket_list_deallocatorINS_9allocatorIPNS_16__hash_node_baseIPNS_11__hash_nodeINS_17__hash_value_typeINS_10type_indexENS_6vectorIPFbP7_objectRPvENS2_ISD_EEEEEESA_EEEEEEEELi1ELb0EEC2B7v160006ENS_16__value_init_tagE, symObjAddr: 0xADD0, symBinAddr: 0x18B10, symSize: 0x20 }
  - { offsetInCU: 0x566F6, offset: 0x8F1E4, size: 0x8, addend: 0x0, symName: __ZNSt3__125__bucket_list_deallocatorINS_9allocatorIPNS_16__hash_node_baseIPNS_11__hash_nodeINS_17__hash_value_typeINS_10type_indexENS_6vectorIPFbP7_objectRPvENS1_ISC_EEEEEES9_EEEEEEEC1B7v160006Ev, symObjAddr: 0xADF0, symBinAddr: 0x18B30, symSize: 0x20 }
  - { offsetInCU: 0x5671F, offset: 0x8F20D, size: 0x8, addend: 0x0, symName: __ZNSt3__125__bucket_list_deallocatorINS_9allocatorIPNS_16__hash_node_baseIPNS_11__hash_nodeINS_17__hash_value_typeINS_10type_indexENS_6vectorIPFbP7_objectRPvENS1_ISC_EEEEEES9_EEEEEEEC2B7v160006Ev, symObjAddr: 0xAE10, symBinAddr: 0x18B50, symSize: 0x40 }
  - { offsetInCU: 0x56748, offset: 0x8F236, size: 0x8, addend: 0x0, symName: __ZNSt3__117__compressed_pairImNS_9allocatorIPNS_16__hash_node_baseIPNS_11__hash_nodeINS_17__hash_value_typeINS_10type_indexENS_6vectorIPFbP7_objectRPvENS1_ISC_EEEEEES9_EEEEEEEC1B7v160006IiNS_18__default_init_tagEEEOT_OT0_, symObjAddr: 0xAE50, symBinAddr: 0x18B90, symSize: 0x30 }
  - { offsetInCU: 0x5679F, offset: 0x8F28D, size: 0x8, addend: 0x0, symName: __ZNSt3__117__compressed_pairImNS_9allocatorIPNS_16__hash_node_baseIPNS_11__hash_nodeINS_17__hash_value_typeINS_10type_indexENS_6vectorIPFbP7_objectRPvENS1_ISC_EEEEEES9_EEEEEEEC2B7v160006IiNS_18__default_init_tagEEEOT_OT0_, symObjAddr: 0xAE80, symBinAddr: 0x18BC0, symSize: 0x40 }
  - { offsetInCU: 0x567F6, offset: 0x8F2E4, size: 0x8, addend: 0x0, symName: __ZNSt3__122__compressed_pair_elemINS_9allocatorIPNS_16__hash_node_baseIPNS_11__hash_nodeINS_17__hash_value_typeINS_10type_indexENS_6vectorIPFbP7_objectRPvENS1_ISC_EEEEEES9_EEEEEELi1ELb1EEC2B7v160006ENS_18__default_init_tagE, symObjAddr: 0xAEC0, symBinAddr: 0x18C00, symSize: 0x20 }
  - { offsetInCU: 0x56829, offset: 0x8F317, size: 0x8, addend: 0x0, symName: __ZNSt3__19allocatorIPNS_16__hash_node_baseIPNS_11__hash_nodeINS_17__hash_value_typeINS_10type_indexENS_6vectorIPFbP7_objectRPvENS0_ISB_EEEEEES8_EEEEEC2B7v160006Ev, symObjAddr: 0xAEE0, symBinAddr: 0x18C20, symSize: 0x20 }
  - { offsetInCU: 0x56852, offset: 0x8F340, size: 0x8, addend: 0x0, symName: __ZNSt3__116__non_trivial_ifILb1ENS_9allocatorIPNS_16__hash_node_baseIPNS_11__hash_nodeINS_17__hash_value_typeINS_10type_indexENS_6vectorIPFbP7_objectRPvENS1_ISC_EEEEEES9_EEEEEEEC2B7v160006Ev, symObjAddr: 0xAF00, symBinAddr: 0x18C40, symSize: 0x10 }
  - { offsetInCU: 0x5687B, offset: 0x8F369, size: 0x8, addend: 0x0, symName: __ZNSt3__117__compressed_pairINS_16__hash_node_baseIPNS_11__hash_nodeINS_17__hash_value_typeINS_10type_indexENS_6vectorIPFbP7_objectRPvENS_9allocatorISB_EEEEEES8_EEEENSC_ISG_EEEC2B7v160006ILb1EvEEv, symObjAddr: 0xAF10, symBinAddr: 0x18C50, symSize: 0x30 }
  - { offsetInCU: 0x568AF, offset: 0x8F39D, size: 0x8, addend: 0x0, symName: __ZNSt3__122__compressed_pair_elemINS_16__hash_node_baseIPNS_11__hash_nodeINS_17__hash_value_typeINS_10type_indexENS_6vectorIPFbP7_objectRPvENS_9allocatorISB_EEEEEES8_EEEELi0ELb0EEC2B7v160006ENS_16__value_init_tagE, symObjAddr: 0xAF40, symBinAddr: 0x18C80, symSize: 0x20 }
  - { offsetInCU: 0x568E2, offset: 0x8F3D0, size: 0x8, addend: 0x0, symName: __ZNSt3__122__compressed_pair_elemINS_9allocatorINS_11__hash_nodeINS_17__hash_value_typeINS_10type_indexENS_6vectorIPFbP7_objectRPvENS1_ISB_EEEEEES8_EEEELi1ELb1EEC2B7v160006ENS_16__value_init_tagE, symObjAddr: 0xAF60, symBinAddr: 0x18CA0, symSize: 0x20 }
  - { offsetInCU: 0x56915, offset: 0x8F403, size: 0x8, addend: 0x0, symName: __ZNSt3__116__hash_node_baseIPNS_11__hash_nodeINS_17__hash_value_typeINS_10type_indexENS_6vectorIPFbP7_objectRPvENS_9allocatorISA_EEEEEES7_EEEC1B7v160006Ev, symObjAddr: 0xAF80, symBinAddr: 0x18CC0, symSize: 0x20 }
  - { offsetInCU: 0x5693E, offset: 0x8F42C, size: 0x8, addend: 0x0, symName: __ZNSt3__116__hash_node_baseIPNS_11__hash_nodeINS_17__hash_value_typeINS_10type_indexENS_6vectorIPFbP7_objectRPvENS_9allocatorISA_EEEEEES7_EEEC2B7v160006Ev, symObjAddr: 0xAFA0, symBinAddr: 0x18CE0, symSize: 0x20 }
  - { offsetInCU: 0x56967, offset: 0x8F455, size: 0x8, addend: 0x0, symName: __ZNSt3__19allocatorINS_11__hash_nodeINS_17__hash_value_typeINS_10type_indexENS_6vectorIPFbP7_objectRPvENS0_ISA_EEEEEES7_EEEC2B7v160006Ev, symObjAddr: 0xAFC0, symBinAddr: 0x18D00, symSize: 0x20 }
  - { offsetInCU: 0x56990, offset: 0x8F47E, size: 0x8, addend: 0x0, symName: __ZNSt3__116__non_trivial_ifILb1ENS_9allocatorINS_11__hash_nodeINS_17__hash_value_typeINS_10type_indexENS_6vectorIPFbP7_objectRPvENS1_ISB_EEEEEES8_EEEEEC2B7v160006Ev, symObjAddr: 0xAFE0, symBinAddr: 0x18D20, symSize: 0x10 }
  - { offsetInCU: 0x569B9, offset: 0x8F4A7, size: 0x8, addend: 0x0, symName: __ZNSt3__117__compressed_pairImNS_22__unordered_map_hasherINS_10type_indexENS_17__hash_value_typeIS2_NS_6vectorIPFbP7_objectRPvENS_9allocatorISA_EEEEEEN8pybind116detail9type_hashENSG_13type_equal_toELb1EEEEC2B7v160006IiNS_18__default_init_tagEEEOT_OT0_, symObjAddr: 0xAFF0, symBinAddr: 0x18D30, symSize: 0x40 }
  - { offsetInCU: 0x56A10, offset: 0x8F4FE, size: 0x8, addend: 0x0, symName: __ZNSt3__122__compressed_pair_elemINS_22__unordered_map_hasherINS_10type_indexENS_17__hash_value_typeIS2_NS_6vectorIPFbP7_objectRPvENS_9allocatorISA_EEEEEEN8pybind116detail9type_hashENSG_13type_equal_toELb1EEELi1ELb1EEC2B7v160006ENS_18__default_init_tagE, symObjAddr: 0xB030, symBinAddr: 0x18D70, symSize: 0x20 }
  - { offsetInCU: 0x56A43, offset: 0x8F531, size: 0x8, addend: 0x0, symName: __ZNSt3__122__unordered_map_hasherINS_10type_indexENS_17__hash_value_typeIS1_NS_6vectorIPFbP7_objectRPvENS_9allocatorIS9_EEEEEEN8pybind116detail9type_hashENSF_13type_equal_toELb1EEC2B7v160006Ev, symObjAddr: 0xB050, symBinAddr: 0x18D90, symSize: 0x10 }
  - { offsetInCU: 0x56A6C, offset: 0x8F55A, size: 0x8, addend: 0x0, symName: __ZNSt3__117__compressed_pairIfNS_21__unordered_map_equalINS_10type_indexENS_17__hash_value_typeIS2_NS_6vectorIPFbP7_objectRPvENS_9allocatorISA_EEEEEEN8pybind116detail13type_equal_toENSG_9type_hashELb1EEEEC2B7v160006IfNS_18__default_init_tagEEEOT_OT0_, symObjAddr: 0xB060, symBinAddr: 0x18DA0, symSize: 0x40 }
  - { offsetInCU: 0x56AC3, offset: 0x8F5B1, size: 0x8, addend: 0x0, symName: __ZNSt3__122__compressed_pair_elemINS_21__unordered_map_equalINS_10type_indexENS_17__hash_value_typeIS2_NS_6vectorIPFbP7_objectRPvENS_9allocatorISA_EEEEEEN8pybind116detail13type_equal_toENSG_9type_hashELb1EEELi1ELb1EEC2B7v160006ENS_18__default_init_tagE, symObjAddr: 0xB0A0, symBinAddr: 0x18DE0, symSize: 0x20 }
  - { offsetInCU: 0x56AF6, offset: 0x8F5E4, size: 0x8, addend: 0x0, symName: __ZNSt3__121__unordered_map_equalINS_10type_indexENS_17__hash_value_typeIS1_NS_6vectorIPFbP7_objectRPvENS_9allocatorIS9_EEEEEEN8pybind116detail13type_equal_toENSF_9type_hashELb1EEC2B7v160006Ev, symObjAddr: 0xB0C0, symBinAddr: 0x18E00, symSize: 0x10 }
  - { offsetInCU: 0x56B1F, offset: 0x8F60D, size: 0x8, addend: 0x0, symName: __ZNSt3__113unordered_mapIPK7_objectNS_6vectorIPS1_NS_9allocatorIS5_EEEENS_4hashIS3_EENS_8equal_toIS3_EENS6_INS_4pairIKS3_S8_EEEEEC2B7v160006Ev, symObjAddr: 0xB0D0, symBinAddr: 0x18E10, symSize: 0x40 }
  - { offsetInCU: 0x56B48, offset: 0x8F636, size: 0x8, addend: 0x0, symName: __ZNSt3__112__hash_tableINS_17__hash_value_typeIPK7_objectNS_6vectorIPS2_NS_9allocatorIS6_EEEEEENS_22__unordered_map_hasherIS4_SA_NS_4hashIS4_EENS_8equal_toIS4_EELb1EEENS_21__unordered_map_equalIS4_SA_SF_SD_Lb1EEENS7_ISA_EEEC1Ev, symObjAddr: 0xB110, symBinAddr: 0x18E50, symSize: 0x20 }
  - { offsetInCU: 0x56B73, offset: 0x8F661, size: 0x8, addend: 0x0, symName: __ZNSt3__112__hash_tableINS_17__hash_value_typeIPK7_objectNS_6vectorIPS2_NS_9allocatorIS6_EEEEEENS_22__unordered_map_hasherIS4_SA_NS_4hashIS4_EENS_8equal_toIS4_EELb1EEENS_21__unordered_map_equalIS4_SA_SF_SD_Lb1EEENS7_ISA_EEEC2Ev, symObjAddr: 0xB140, symBinAddr: 0x18E80, symSize: 0x80 }
  - { offsetInCU: 0x56B9E, offset: 0x8F68C, size: 0x8, addend: 0x0, symName: __ZNSt3__110unique_ptrIA_PNS_16__hash_node_baseIPNS_11__hash_nodeINS_17__hash_value_typeIPK7_objectNS_6vectorIPS4_NS_9allocatorIS8_EEEEEEPvEEEENS_25__bucket_list_deallocatorINS9_ISH_EEEEEC1B7v160006ILb1EvEEv, symObjAddr: 0xB1C0, symBinAddr: 0x18F00, symSize: 0x20 }
  - { offsetInCU: 0x56BD2, offset: 0x8F6C0, size: 0x8, addend: 0x0, symName: __ZNSt3__117__compressed_pairINS_16__hash_node_baseIPNS_11__hash_nodeINS_17__hash_value_typeIPK7_objectNS_6vectorIPS4_NS_9allocatorIS8_EEEEEEPvEEEENS9_ISE_EEEC1B7v160006ILb1EvEEv, symObjAddr: 0xB1E0, symBinAddr: 0x18F20, symSize: 0x20 }
  - { offsetInCU: 0x56C06, offset: 0x8F6F4, size: 0x8, addend: 0x0, symName: __ZNSt3__117__compressed_pairImNS_22__unordered_map_hasherIPK7_objectNS_17__hash_value_typeIS4_NS_6vectorIPS2_NS_9allocatorIS7_EEEEEENS_4hashIS4_EENS_8equal_toIS4_EELb1EEEEC1B7v160006IiNS_18__default_init_tagEEEOT_OT0_, symObjAddr: 0xB200, symBinAddr: 0x18F40, symSize: 0x30 }
  - { offsetInCU: 0x56C5D, offset: 0x8F74B, size: 0x8, addend: 0x0, symName: __ZNSt3__117__compressed_pairIfNS_21__unordered_map_equalIPK7_objectNS_17__hash_value_typeIS4_NS_6vectorIPS2_NS_9allocatorIS7_EEEEEENS_8equal_toIS4_EENS_4hashIS4_EELb1EEEEC1B7v160006IfNS_18__default_init_tagEEEOT_OT0_, symObjAddr: 0xB230, symBinAddr: 0x18F70, symSize: 0x30 }
  - { offsetInCU: 0x56CB4, offset: 0x8F7A2, size: 0x8, addend: 0x0, symName: __ZNSt3__110unique_ptrIA_PNS_16__hash_node_baseIPNS_11__hash_nodeINS_17__hash_value_typeIPK7_objectNS_6vectorIPS4_NS_9allocatorIS8_EEEEEEPvEEEENS_25__bucket_list_deallocatorINS9_ISH_EEEEEC2B7v160006ILb1EvEEv, symObjAddr: 0xB260, symBinAddr: 0x18FA0, symSize: 0x30 }
  - { offsetInCU: 0x56CE8, offset: 0x8F7D6, size: 0x8, addend: 0x0, symName: __ZNSt3__117__compressed_pairIPPNS_16__hash_node_baseIPNS_11__hash_nodeINS_17__hash_value_typeIPK7_objectNS_6vectorIPS4_NS_9allocatorIS8_EEEEEEPvEEEENS_25__bucket_list_deallocatorINS9_ISH_EEEEEC1B7v160006INS_16__value_init_tagESO_EEOT_OT0_, symObjAddr: 0xB290, symBinAddr: 0x18FD0, symSize: 0x30 }
  - { offsetInCU: 0x56D3F, offset: 0x8F82D, size: 0x8, addend: 0x0, symName: __ZNSt3__117__compressed_pairIPPNS_16__hash_node_baseIPNS_11__hash_nodeINS_17__hash_value_typeIPK7_objectNS_6vectorIPS4_NS_9allocatorIS8_EEEEEEPvEEEENS_25__bucket_list_deallocatorINS9_ISH_EEEEEC2B7v160006INS_16__value_init_tagESO_EEOT_OT0_, symObjAddr: 0xB2C0, symBinAddr: 0x19000, symSize: 0x40 }
  - { offsetInCU: 0x56D96, offset: 0x8F884, size: 0x8, addend: 0x0, symName: __ZNSt3__122__compressed_pair_elemIPPNS_16__hash_node_baseIPNS_11__hash_nodeINS_17__hash_value_typeIPK7_objectNS_6vectorIPS4_NS_9allocatorIS8_EEEEEEPvEEEELi0ELb0EEC2B7v160006ENS_16__value_init_tagE, symObjAddr: 0xB300, symBinAddr: 0x19040, symSize: 0x20 }
  - { offsetInCU: 0x56DC9, offset: 0x8F8B7, size: 0x8, addend: 0x0, symName: __ZNSt3__122__compressed_pair_elemINS_25__bucket_list_deallocatorINS_9allocatorIPNS_16__hash_node_baseIPNS_11__hash_nodeINS_17__hash_value_typeIPK7_objectNS_6vectorIPS6_NS2_ISA_EEEEEEPvEEEEEEEELi1ELb0EEC2B7v160006ENS_16__value_init_tagE, symObjAddr: 0xB320, symBinAddr: 0x19060, symSize: 0x20 }
  - { offsetInCU: 0x56DFC, offset: 0x8F8EA, size: 0x8, addend: 0x0, symName: __ZNSt3__125__bucket_list_deallocatorINS_9allocatorIPNS_16__hash_node_baseIPNS_11__hash_nodeINS_17__hash_value_typeIPK7_objectNS_6vectorIPS5_NS1_IS9_EEEEEEPvEEEEEEEC1B7v160006Ev, symObjAddr: 0xB340, symBinAddr: 0x19080, symSize: 0x20 }
  - { offsetInCU: 0x56E25, offset: 0x8F913, size: 0x8, addend: 0x0, symName: __ZNSt3__125__bucket_list_deallocatorINS_9allocatorIPNS_16__hash_node_baseIPNS_11__hash_nodeINS_17__hash_value_typeIPK7_objectNS_6vectorIPS5_NS1_IS9_EEEEEEPvEEEEEEEC2B7v160006Ev, symObjAddr: 0xB360, symBinAddr: 0x190A0, symSize: 0x40 }
  - { offsetInCU: 0x56E4E, offset: 0x8F93C, size: 0x8, addend: 0x0, symName: __ZNSt3__117__compressed_pairImNS_9allocatorIPNS_16__hash_node_baseIPNS_11__hash_nodeINS_17__hash_value_typeIPK7_objectNS_6vectorIPS5_NS1_IS9_EEEEEEPvEEEEEEEC1B7v160006IiNS_18__default_init_tagEEEOT_OT0_, symObjAddr: 0xB3A0, symBinAddr: 0x190E0, symSize: 0x30 }
  - { offsetInCU: 0x56EA5, offset: 0x8F993, size: 0x8, addend: 0x0, symName: __ZNSt3__117__compressed_pairImNS_9allocatorIPNS_16__hash_node_baseIPNS_11__hash_nodeINS_17__hash_value_typeIPK7_objectNS_6vectorIPS5_NS1_IS9_EEEEEEPvEEEEEEEC2B7v160006IiNS_18__default_init_tagEEEOT_OT0_, symObjAddr: 0xB3D0, symBinAddr: 0x19110, symSize: 0x40 }
  - { offsetInCU: 0x56EFC, offset: 0x8F9EA, size: 0x8, addend: 0x0, symName: __ZNSt3__122__compressed_pair_elemINS_9allocatorIPNS_16__hash_node_baseIPNS_11__hash_nodeINS_17__hash_value_typeIPK7_objectNS_6vectorIPS5_NS1_IS9_EEEEEEPvEEEEEELi1ELb1EEC2B7v160006ENS_18__default_init_tagE, symObjAddr: 0xB410, symBinAddr: 0x19150, symSize: 0x20 }
  - { offsetInCU: 0x56F2F, offset: 0x8FA1D, size: 0x8, addend: 0x0, symName: __ZNSt3__19allocatorIPNS_16__hash_node_baseIPNS_11__hash_nodeINS_17__hash_value_typeIPK7_objectNS_6vectorIPS4_NS0_IS8_EEEEEEPvEEEEEC2B7v160006Ev, symObjAddr: 0xB430, symBinAddr: 0x19170, symSize: 0x20 }
  - { offsetInCU: 0x56F58, offset: 0x8FA46, size: 0x8, addend: 0x0, symName: __ZNSt3__116__non_trivial_ifILb1ENS_9allocatorIPNS_16__hash_node_baseIPNS_11__hash_nodeINS_17__hash_value_typeIPK7_objectNS_6vectorIPS5_NS1_IS9_EEEEEEPvEEEEEEEC2B7v160006Ev, symObjAddr: 0xB450, symBinAddr: 0x19190, symSize: 0x10 }
  - { offsetInCU: 0x56F81, offset: 0x8FA6F, size: 0x8, addend: 0x0, symName: __ZNSt3__117__compressed_pairINS_16__hash_node_baseIPNS_11__hash_nodeINS_17__hash_value_typeIPK7_objectNS_6vectorIPS4_NS_9allocatorIS8_EEEEEEPvEEEENS9_ISE_EEEC2B7v160006ILb1EvEEv, symObjAddr: 0xB460, symBinAddr: 0x191A0, symSize: 0x30 }
  - { offsetInCU: 0x56FB5, offset: 0x8FAA3, size: 0x8, addend: 0x0, symName: __ZNSt3__122__compressed_pair_elemINS_16__hash_node_baseIPNS_11__hash_nodeINS_17__hash_value_typeIPK7_objectNS_6vectorIPS4_NS_9allocatorIS8_EEEEEEPvEEEELi0ELb0EEC2B7v160006ENS_16__value_init_tagE, symObjAddr: 0xB490, symBinAddr: 0x191D0, symSize: 0x20 }
  - { offsetInCU: 0x56FE8, offset: 0x8FAD6, size: 0x8, addend: 0x0, symName: __ZNSt3__122__compressed_pair_elemINS_9allocatorINS_11__hash_nodeINS_17__hash_value_typeIPK7_objectNS_6vectorIPS4_NS1_IS8_EEEEEEPvEEEELi1ELb1EEC2B7v160006ENS_16__value_init_tagE, symObjAddr: 0xB4B0, symBinAddr: 0x191F0, symSize: 0x20 }
  - { offsetInCU: 0x5701B, offset: 0x8FB09, size: 0x8, addend: 0x0, symName: __ZNSt3__116__hash_node_baseIPNS_11__hash_nodeINS_17__hash_value_typeIPK7_objectNS_6vectorIPS3_NS_9allocatorIS7_EEEEEEPvEEEC1B7v160006Ev, symObjAddr: 0xB4D0, symBinAddr: 0x19210, symSize: 0x20 }
  - { offsetInCU: 0x57044, offset: 0x8FB32, size: 0x8, addend: 0x0, symName: __ZNSt3__116__hash_node_baseIPNS_11__hash_nodeINS_17__hash_value_typeIPK7_objectNS_6vectorIPS3_NS_9allocatorIS7_EEEEEEPvEEEC2B7v160006Ev, symObjAddr: 0xB4F0, symBinAddr: 0x19230, symSize: 0x20 }
  - { offsetInCU: 0x5706D, offset: 0x8FB5B, size: 0x8, addend: 0x0, symName: __ZNSt3__19allocatorINS_11__hash_nodeINS_17__hash_value_typeIPK7_objectNS_6vectorIPS3_NS0_IS7_EEEEEEPvEEEC2B7v160006Ev, symObjAddr: 0xB510, symBinAddr: 0x19250, symSize: 0x20 }
  - { offsetInCU: 0x57096, offset: 0x8FB84, size: 0x8, addend: 0x0, symName: __ZNSt3__116__non_trivial_ifILb1ENS_9allocatorINS_11__hash_nodeINS_17__hash_value_typeIPK7_objectNS_6vectorIPS4_NS1_IS8_EEEEEEPvEEEEEC2B7v160006Ev, symObjAddr: 0xB530, symBinAddr: 0x19270, symSize: 0x10 }
  - { offsetInCU: 0x570BF, offset: 0x8FBAD, size: 0x8, addend: 0x0, symName: __ZNSt3__117__compressed_pairImNS_22__unordered_map_hasherIPK7_objectNS_17__hash_value_typeIS4_NS_6vectorIPS2_NS_9allocatorIS7_EEEEEENS_4hashIS4_EENS_8equal_toIS4_EELb1EEEEC2B7v160006IiNS_18__default_init_tagEEEOT_OT0_, symObjAddr: 0xB540, symBinAddr: 0x19280, symSize: 0x40 }
  - { offsetInCU: 0x57116, offset: 0x8FC04, size: 0x8, addend: 0x0, symName: __ZNSt3__122__compressed_pair_elemINS_22__unordered_map_hasherIPK7_objectNS_17__hash_value_typeIS4_NS_6vectorIPS2_NS_9allocatorIS7_EEEEEENS_4hashIS4_EENS_8equal_toIS4_EELb1EEELi1ELb1EEC2B7v160006ENS_18__default_init_tagE, symObjAddr: 0xB580, symBinAddr: 0x192C0, symSize: 0x20 }
  - { offsetInCU: 0x57149, offset: 0x8FC37, size: 0x8, addend: 0x0, symName: __ZNSt3__122__unordered_map_hasherIPK7_objectNS_17__hash_value_typeIS3_NS_6vectorIPS1_NS_9allocatorIS6_EEEEEENS_4hashIS3_EENS_8equal_toIS3_EELb1EEC2B7v160006Ev, symObjAddr: 0xB5A0, symBinAddr: 0x192E0, symSize: 0x10 }
  - { offsetInCU: 0x57172, offset: 0x8FC60, size: 0x8, addend: 0x0, symName: __ZNSt3__117__compressed_pairIfNS_21__unordered_map_equalIPK7_objectNS_17__hash_value_typeIS4_NS_6vectorIPS2_NS_9allocatorIS7_EEEEEENS_8equal_toIS4_EENS_4hashIS4_EELb1EEEEC2B7v160006IfNS_18__default_init_tagEEEOT_OT0_, symObjAddr: 0xB5B0, symBinAddr: 0x192F0, symSize: 0x40 }
  - { offsetInCU: 0x571C9, offset: 0x8FCB7, size: 0x8, addend: 0x0, symName: __ZNSt3__122__compressed_pair_elemINS_21__unordered_map_equalIPK7_objectNS_17__hash_value_typeIS4_NS_6vectorIPS2_NS_9allocatorIS7_EEEEEENS_8equal_toIS4_EENS_4hashIS4_EELb1EEELi1ELb1EEC2B7v160006ENS_18__default_init_tagE, symObjAddr: 0xB5F0, symBinAddr: 0x19330, symSize: 0x20 }
  - { offsetInCU: 0x571FC, offset: 0x8FCEA, size: 0x8, addend: 0x0, symName: __ZNSt3__121__unordered_map_equalIPK7_objectNS_17__hash_value_typeIS3_NS_6vectorIPS1_NS_9allocatorIS6_EEEEEENS_8equal_toIS3_EENS_4hashIS3_EELb1EEC2B7v160006Ev, symObjAddr: 0xB610, symBinAddr: 0x19350, symSize: 0x10 }
  - { offsetInCU: 0x57225, offset: 0x8FD13, size: 0x8, addend: 0x0, symName: __ZNSt3__112forward_listIPFvSt13exception_ptrENS_9allocatorIS3_EEEC2B7v160006Ev, symObjAddr: 0xB620, symBinAddr: 0x19360, symSize: 0x20 }
  - { offsetInCU: 0x5724E, offset: 0x8FD3C, size: 0x8, addend: 0x0, symName: __ZNSt3__119__forward_list_baseIPFvSt13exception_ptrENS_9allocatorIS3_EEEC2B7v160006Ev, symObjAddr: 0xB640, symBinAddr: 0x19380, symSize: 0x50 }
  - { offsetInCU: 0x57277, offset: 0x8FD65, size: 0x8, addend: 0x0, symName: __ZNSt3__120__forward_begin_nodeIPNS_19__forward_list_nodeIPFvSt13exception_ptrEPvEEEC1B7v160006Ev, symObjAddr: 0xB690, symBinAddr: 0x193D0, symSize: 0x20 }
  - { offsetInCU: 0x572A5, offset: 0x8FD93, size: 0x8, addend: 0x0, symName: __ZNSt3__117__compressed_pairINS_20__forward_begin_nodeIPNS_19__forward_list_nodeIPFvSt13exception_ptrEPvEEEENS_9allocatorIS7_EEEC1B7v160006IS9_NS_18__default_init_tagEEEOT_OT0_, symObjAddr: 0xB6B0, symBinAddr: 0x193F0, symSize: 0x30 }
  - { offsetInCU: 0x572FC, offset: 0x8FDEA, size: 0x8, addend: 0x0, symName: __ZNSt3__120__forward_begin_nodeIPNS_19__forward_list_nodeIPFvSt13exception_ptrEPvEEEC2B7v160006Ev, symObjAddr: 0xB6E0, symBinAddr: 0x19420, symSize: 0x20 }
  - { offsetInCU: 0x57325, offset: 0x8FE13, size: 0x8, addend: 0x0, symName: __ZNSt3__117__compressed_pairINS_20__forward_begin_nodeIPNS_19__forward_list_nodeIPFvSt13exception_ptrEPvEEEENS_9allocatorIS7_EEEC2B7v160006IS9_NS_18__default_init_tagEEEOT_OT0_, symObjAddr: 0xB700, symBinAddr: 0x19440, symSize: 0x40 }
  - { offsetInCU: 0x5737C, offset: 0x8FE6A, size: 0x8, addend: 0x0, symName: __ZNSt3__122__compressed_pair_elemINS_20__forward_begin_nodeIPNS_19__forward_list_nodeIPFvSt13exception_ptrEPvEEEELi0ELb0EEC2B7v160006IS9_vEEOT_, symObjAddr: 0xB740, symBinAddr: 0x19480, symSize: 0x20 }
  - { offsetInCU: 0x573BD, offset: 0x8FEAB, size: 0x8, addend: 0x0, symName: __ZNSt3__122__compressed_pair_elemINS_9allocatorINS_19__forward_list_nodeIPFvSt13exception_ptrEPvEEEELi1ELb1EEC2B7v160006ENS_18__default_init_tagE, symObjAddr: 0xB760, symBinAddr: 0x194A0, symSize: 0x20 }
  - { offsetInCU: 0x573F0, offset: 0x8FEDE, size: 0x8, addend: 0x0, symName: __ZNSt3__19allocatorINS_19__forward_list_nodeIPFvSt13exception_ptrEPvEEEC2B7v160006Ev, symObjAddr: 0xB780, symBinAddr: 0x194C0, symSize: 0x20 }
  - { offsetInCU: 0x57419, offset: 0x8FF07, size: 0x8, addend: 0x0, symName: __ZNSt3__116__non_trivial_ifILb1ENS_9allocatorINS_19__forward_list_nodeIPFvSt13exception_ptrEPvEEEEEC2B7v160006Ev, symObjAddr: 0xB7A0, symBinAddr: 0x194E0, symSize: 0x10 }
  - { offsetInCU: 0x57442, offset: 0x8FF30, size: 0x8, addend: 0x0, symName: __ZNSt3__113unordered_mapINS_12basic_stringIcNS_11char_traitsIcEENS_9allocatorIcEEEEPvNS_4hashIS6_EENS_8equal_toIS6_EENS4_INS_4pairIKS6_S7_EEEEEC2B7v160006Ev, symObjAddr: 0xB7B0, symBinAddr: 0x194F0, symSize: 0x40 }
  - { offsetInCU: 0x5746B, offset: 0x8FF59, size: 0x8, addend: 0x0, symName: __ZNSt3__112__hash_tableINS_17__hash_value_typeINS_12basic_stringIcNS_11char_traitsIcEENS_9allocatorIcEEEEPvEENS_22__unordered_map_hasherIS7_S9_NS_4hashIS7_EENS_8equal_toIS7_EELb1EEENS_21__unordered_map_equalIS7_S9_SE_SC_Lb1EEENS5_IS9_EEEC1Ev, symObjAddr: 0xB7F0, symBinAddr: 0x19530, symSize: 0x20 }
  - { offsetInCU: 0x57496, offset: 0x8FF84, size: 0x8, addend: 0x0, symName: __ZNSt3__112__hash_tableINS_17__hash_value_typeINS_12basic_stringIcNS_11char_traitsIcEENS_9allocatorIcEEEEPvEENS_22__unordered_map_hasherIS7_S9_NS_4hashIS7_EENS_8equal_toIS7_EELb1EEENS_21__unordered_map_equalIS7_S9_SE_SC_Lb1EEENS5_IS9_EEEC2Ev, symObjAddr: 0xB820, symBinAddr: 0x19560, symSize: 0x80 }
  - { offsetInCU: 0x574C1, offset: 0x8FFAF, size: 0x8, addend: 0x0, symName: __ZNSt3__110unique_ptrIA_PNS_16__hash_node_baseIPNS_11__hash_nodeINS_17__hash_value_typeINS_12basic_stringIcNS_11char_traitsIcEENS_9allocatorIcEEEEPvEESA_EEEENS_25__bucket_list_deallocatorINS7_ISF_EEEEEC1B7v160006ILb1EvEEv, symObjAddr: 0xB8A0, symBinAddr: 0x195E0, symSize: 0x20 }
  - { offsetInCU: 0x574F5, offset: 0x8FFE3, size: 0x8, addend: 0x0, symName: __ZNSt3__117__compressed_pairINS_16__hash_node_baseIPNS_11__hash_nodeINS_17__hash_value_typeINS_12basic_stringIcNS_11char_traitsIcEENS_9allocatorIcEEEEPvEESA_EEEENS7_ISC_EEEC1B7v160006ILb1EvEEv, symObjAddr: 0xB8C0, symBinAddr: 0x19600, symSize: 0x20 }
  - { offsetInCU: 0x57529, offset: 0x90017, size: 0x8, addend: 0x0, symName: __ZNSt3__117__compressed_pairImNS_22__unordered_map_hasherINS_12basic_stringIcNS_11char_traitsIcEENS_9allocatorIcEEEENS_17__hash_value_typeIS7_PvEENS_4hashIS7_EENS_8equal_toIS7_EELb1EEEEC1B7v160006IiNS_18__default_init_tagEEEOT_OT0_, symObjAddr: 0xB8E0, symBinAddr: 0x19620, symSize: 0x30 }
  - { offsetInCU: 0x57580, offset: 0x9006E, size: 0x8, addend: 0x0, symName: __ZNSt3__117__compressed_pairIfNS_21__unordered_map_equalINS_12basic_stringIcNS_11char_traitsIcEENS_9allocatorIcEEEENS_17__hash_value_typeIS7_PvEENS_8equal_toIS7_EENS_4hashIS7_EELb1EEEEC1B7v160006IfNS_18__default_init_tagEEEOT_OT0_, symObjAddr: 0xB910, symBinAddr: 0x19650, symSize: 0x30 }
  - { offsetInCU: 0x575D7, offset: 0x900C5, size: 0x8, addend: 0x0, symName: __ZNSt3__110unique_ptrIA_PNS_16__hash_node_baseIPNS_11__hash_nodeINS_17__hash_value_typeINS_12basic_stringIcNS_11char_traitsIcEENS_9allocatorIcEEEEPvEESA_EEEENS_25__bucket_list_deallocatorINS7_ISF_EEEEEC2B7v160006ILb1EvEEv, symObjAddr: 0xB940, symBinAddr: 0x19680, symSize: 0x30 }
  - { offsetInCU: 0x5760B, offset: 0x900F9, size: 0x8, addend: 0x0, symName: __ZNSt3__117__compressed_pairIPPNS_16__hash_node_baseIPNS_11__hash_nodeINS_17__hash_value_typeINS_12basic_stringIcNS_11char_traitsIcEENS_9allocatorIcEEEEPvEESA_EEEENS_25__bucket_list_deallocatorINS7_ISF_EEEEEC1B7v160006INS_16__value_init_tagESM_EEOT_OT0_, symObjAddr: 0xB970, symBinAddr: 0x196B0, symSize: 0x30 }
  - { offsetInCU: 0x57662, offset: 0x90150, size: 0x8, addend: 0x0, symName: __ZNSt3__117__compressed_pairIPPNS_16__hash_node_baseIPNS_11__hash_nodeINS_17__hash_value_typeINS_12basic_stringIcNS_11char_traitsIcEENS_9allocatorIcEEEEPvEESA_EEEENS_25__bucket_list_deallocatorINS7_ISF_EEEEEC2B7v160006INS_16__value_init_tagESM_EEOT_OT0_, symObjAddr: 0xB9A0, symBinAddr: 0x196E0, symSize: 0x40 }
  - { offsetInCU: 0x576B9, offset: 0x901A7, size: 0x8, addend: 0x0, symName: __ZNSt3__122__compressed_pair_elemIPPNS_16__hash_node_baseIPNS_11__hash_nodeINS_17__hash_value_typeINS_12basic_stringIcNS_11char_traitsIcEENS_9allocatorIcEEEEPvEESA_EEEELi0ELb0EEC2B7v160006ENS_16__value_init_tagE, symObjAddr: 0xB9E0, symBinAddr: 0x19720, symSize: 0x20 }
  - { offsetInCU: 0x576EC, offset: 0x901DA, size: 0x8, addend: 0x0, symName: __ZNSt3__122__compressed_pair_elemINS_25__bucket_list_deallocatorINS_9allocatorIPNS_16__hash_node_baseIPNS_11__hash_nodeINS_17__hash_value_typeINS_12basic_stringIcNS_11char_traitsIcEENS2_IcEEEEPvEESB_EEEEEEEELi1ELb0EEC2B7v160006ENS_16__value_init_tagE, symObjAddr: 0xBA00, symBinAddr: 0x19740, symSize: 0x20 }
  - { offsetInCU: 0x5771F, offset: 0x9020D, size: 0x8, addend: 0x0, symName: __ZNSt3__125__bucket_list_deallocatorINS_9allocatorIPNS_16__hash_node_baseIPNS_11__hash_nodeINS_17__hash_value_typeINS_12basic_stringIcNS_11char_traitsIcEENS1_IcEEEEPvEESA_EEEEEEEC1B7v160006Ev, symObjAddr: 0xBA20, symBinAddr: 0x19760, symSize: 0x20 }
  - { offsetInCU: 0x57748, offset: 0x90236, size: 0x8, addend: 0x0, symName: __ZNSt3__125__bucket_list_deallocatorINS_9allocatorIPNS_16__hash_node_baseIPNS_11__hash_nodeINS_17__hash_value_typeINS_12basic_stringIcNS_11char_traitsIcEENS1_IcEEEEPvEESA_EEEEEEEC2B7v160006Ev, symObjAddr: 0xBA40, symBinAddr: 0x19780, symSize: 0x40 }
  - { offsetInCU: 0x57771, offset: 0x9025F, size: 0x8, addend: 0x0, symName: __ZNSt3__117__compressed_pairImNS_9allocatorIPNS_16__hash_node_baseIPNS_11__hash_nodeINS_17__hash_value_typeINS_12basic_stringIcNS_11char_traitsIcEENS1_IcEEEEPvEESA_EEEEEEEC1B7v160006IiNS_18__default_init_tagEEEOT_OT0_, symObjAddr: 0xBA80, symBinAddr: 0x197C0, symSize: 0x30 }
  - { offsetInCU: 0x577C8, offset: 0x902B6, size: 0x8, addend: 0x0, symName: __ZNSt3__117__compressed_pairImNS_9allocatorIPNS_16__hash_node_baseIPNS_11__hash_nodeINS_17__hash_value_typeINS_12basic_stringIcNS_11char_traitsIcEENS1_IcEEEEPvEESA_EEEEEEEC2B7v160006IiNS_18__default_init_tagEEEOT_OT0_, symObjAddr: 0xBAB0, symBinAddr: 0x197F0, symSize: 0x40 }
  - { offsetInCU: 0x5781F, offset: 0x9030D, size: 0x8, addend: 0x0, symName: __ZNSt3__122__compressed_pair_elemINS_9allocatorIPNS_16__hash_node_baseIPNS_11__hash_nodeINS_17__hash_value_typeINS_12basic_stringIcNS_11char_traitsIcEENS1_IcEEEEPvEESA_EEEEEELi1ELb1EEC2B7v160006ENS_18__default_init_tagE, symObjAddr: 0xBAF0, symBinAddr: 0x19830, symSize: 0x20 }
  - { offsetInCU: 0x57852, offset: 0x90340, size: 0x8, addend: 0x0, symName: __ZNSt3__19allocatorIPNS_16__hash_node_baseIPNS_11__hash_nodeINS_17__hash_value_typeINS_12basic_stringIcNS_11char_traitsIcEENS0_IcEEEEPvEES9_EEEEEC2B7v160006Ev, symObjAddr: 0xBB10, symBinAddr: 0x19850, symSize: 0x20 }
  - { offsetInCU: 0x5787B, offset: 0x90369, size: 0x8, addend: 0x0, symName: __ZNSt3__116__non_trivial_ifILb1ENS_9allocatorIPNS_16__hash_node_baseIPNS_11__hash_nodeINS_17__hash_value_typeINS_12basic_stringIcNS_11char_traitsIcEENS1_IcEEEEPvEESA_EEEEEEEC2B7v160006Ev, symObjAddr: 0xBB30, symBinAddr: 0x19870, symSize: 0x10 }
  - { offsetInCU: 0x578A4, offset: 0x90392, size: 0x8, addend: 0x0, symName: __ZNSt3__117__compressed_pairINS_16__hash_node_baseIPNS_11__hash_nodeINS_17__hash_value_typeINS_12basic_stringIcNS_11char_traitsIcEENS_9allocatorIcEEEEPvEESA_EEEENS7_ISC_EEEC2B7v160006ILb1EvEEv, symObjAddr: 0xBB40, symBinAddr: 0x19880, symSize: 0x30 }
  - { offsetInCU: 0x578D8, offset: 0x903C6, size: 0x8, addend: 0x0, symName: __ZNSt3__122__compressed_pair_elemINS_16__hash_node_baseIPNS_11__hash_nodeINS_17__hash_value_typeINS_12basic_stringIcNS_11char_traitsIcEENS_9allocatorIcEEEEPvEESA_EEEELi0ELb0EEC2B7v160006ENS_16__value_init_tagE, symObjAddr: 0xBB70, symBinAddr: 0x198B0, symSize: 0x20 }
  - { offsetInCU: 0x5790B, offset: 0x903F9, size: 0x8, addend: 0x0, symName: __ZNSt3__122__compressed_pair_elemINS_9allocatorINS_11__hash_nodeINS_17__hash_value_typeINS_12basic_stringIcNS_11char_traitsIcEENS1_IcEEEEPvEES9_EEEELi1ELb1EEC2B7v160006ENS_16__value_init_tagE, symObjAddr: 0xBB90, symBinAddr: 0x198D0, symSize: 0x20 }
  - { offsetInCU: 0x5793E, offset: 0x9042C, size: 0x8, addend: 0x0, symName: __ZNSt3__116__hash_node_baseIPNS_11__hash_nodeINS_17__hash_value_typeINS_12basic_stringIcNS_11char_traitsIcEENS_9allocatorIcEEEEPvEES9_EEEC1B7v160006Ev, symObjAddr: 0xBBB0, symBinAddr: 0x198F0, symSize: 0x20 }
  - { offsetInCU: 0x57967, offset: 0x90455, size: 0x8, addend: 0x0, symName: __ZNSt3__116__hash_node_baseIPNS_11__hash_nodeINS_17__hash_value_typeINS_12basic_stringIcNS_11char_traitsIcEENS_9allocatorIcEEEEPvEES9_EEEC2B7v160006Ev, symObjAddr: 0xBBD0, symBinAddr: 0x19910, symSize: 0x20 }
  - { offsetInCU: 0x57990, offset: 0x9047E, size: 0x8, addend: 0x0, symName: __ZNSt3__19allocatorINS_11__hash_nodeINS_17__hash_value_typeINS_12basic_stringIcNS_11char_traitsIcEENS0_IcEEEEPvEES8_EEEC2B7v160006Ev, symObjAddr: 0xBBF0, symBinAddr: 0x19930, symSize: 0x20 }
  - { offsetInCU: 0x579B9, offset: 0x904A7, size: 0x8, addend: 0x0, symName: __ZNSt3__116__non_trivial_ifILb1ENS_9allocatorINS_11__hash_nodeINS_17__hash_value_typeINS_12basic_stringIcNS_11char_traitsIcEENS1_IcEEEEPvEES9_EEEEEC2B7v160006Ev, symObjAddr: 0xBC10, symBinAddr: 0x19950, symSize: 0x10 }
  - { offsetInCU: 0x579E2, offset: 0x904D0, size: 0x8, addend: 0x0, symName: __ZNSt3__117__compressed_pairImNS_22__unordered_map_hasherINS_12basic_stringIcNS_11char_traitsIcEENS_9allocatorIcEEEENS_17__hash_value_typeIS7_PvEENS_4hashIS7_EENS_8equal_toIS7_EELb1EEEEC2B7v160006IiNS_18__default_init_tagEEEOT_OT0_, symObjAddr: 0xBC20, symBinAddr: 0x19960, symSize: 0x40 }
  - { offsetInCU: 0x57A39, offset: 0x90527, size: 0x8, addend: 0x0, symName: __ZNSt3__122__compressed_pair_elemINS_22__unordered_map_hasherINS_12basic_stringIcNS_11char_traitsIcEENS_9allocatorIcEEEENS_17__hash_value_typeIS7_PvEENS_4hashIS7_EENS_8equal_toIS7_EELb1EEELi1ELb1EEC2B7v160006ENS_18__default_init_tagE, symObjAddr: 0xBC60, symBinAddr: 0x199A0, symSize: 0x20 }
  - { offsetInCU: 0x57A6C, offset: 0x9055A, size: 0x8, addend: 0x0, symName: __ZNSt3__122__unordered_map_hasherINS_12basic_stringIcNS_11char_traitsIcEENS_9allocatorIcEEEENS_17__hash_value_typeIS6_PvEENS_4hashIS6_EENS_8equal_toIS6_EELb1EEC2B7v160006Ev, symObjAddr: 0xBC80, symBinAddr: 0x199C0, symSize: 0x10 }
  - { offsetInCU: 0x57A95, offset: 0x90583, size: 0x8, addend: 0x0, symName: __ZNSt3__117__compressed_pairIfNS_21__unordered_map_equalINS_12basic_stringIcNS_11char_traitsIcEENS_9allocatorIcEEEENS_17__hash_value_typeIS7_PvEENS_8equal_toIS7_EENS_4hashIS7_EELb1EEEEC2B7v160006IfNS_18__default_init_tagEEEOT_OT0_, symObjAddr: 0xBC90, symBinAddr: 0x199D0, symSize: 0x40 }
  - { offsetInCU: 0x57AEC, offset: 0x905DA, size: 0x8, addend: 0x0, symName: __ZNSt3__122__compressed_pair_elemINS_21__unordered_map_equalINS_12basic_stringIcNS_11char_traitsIcEENS_9allocatorIcEEEENS_17__hash_value_typeIS7_PvEENS_8equal_toIS7_EENS_4hashIS7_EELb1EEELi1ELb1EEC2B7v160006ENS_18__default_init_tagE, symObjAddr: 0xBCD0, symBinAddr: 0x19A10, symSize: 0x20 }
  - { offsetInCU: 0x57B1F, offset: 0x9060D, size: 0x8, addend: 0x0, symName: __ZNSt3__121__unordered_map_equalINS_12basic_stringIcNS_11char_traitsIcEENS_9allocatorIcEEEENS_17__hash_value_typeIS6_PvEENS_8equal_toIS6_EENS_4hashIS6_EELb1EEC2B7v160006Ev, symObjAddr: 0xBCF0, symBinAddr: 0x19A30, symSize: 0x10 }
  - { offsetInCU: 0x57B48, offset: 0x90636, size: 0x8, addend: 0x0, symName: __ZNSt3__16vectorIP7_objectNS_9allocatorIS2_EEEC2B7v160006Ev, symObjAddr: 0xBD00, symBinAddr: 0x19A40, symSize: 0x60 }
  - { offsetInCU: 0x57B76, offset: 0x90664, size: 0x8, addend: 0x0, symName: __ZNSt3__117__compressed_pairIPP7_objectNS_9allocatorIS2_EEEC1B7v160006IDnNS_18__default_init_tagEEEOT_OT0_, symObjAddr: 0xBD60, symBinAddr: 0x19AA0, symSize: 0x30 }
  - { offsetInCU: 0x57BCD, offset: 0x906BB, size: 0x8, addend: 0x0, symName: __ZNSt3__117__compressed_pairIPP7_objectNS_9allocatorIS2_EEEC2B7v160006IDnNS_18__default_init_tagEEEOT_OT0_, symObjAddr: 0xBDA0, symBinAddr: 0x19AE0, symSize: 0x40 }
  - { offsetInCU: 0x57C24, offset: 0x90712, size: 0x8, addend: 0x0, symName: __ZNSt3__122__compressed_pair_elemIPP7_objectLi0ELb0EEC2B7v160006IDnvEEOT_, symObjAddr: 0xBDE0, symBinAddr: 0x19B20, symSize: 0x20 }
  - { offsetInCU: 0x57C65, offset: 0x90753, size: 0x8, addend: 0x0, symName: __ZNSt3__122__compressed_pair_elemINS_9allocatorIP7_objectEELi1ELb1EEC2B7v160006ENS_18__default_init_tagE, symObjAddr: 0xBE00, symBinAddr: 0x19B40, symSize: 0x20 }
  - { offsetInCU: 0x57C98, offset: 0x90786, size: 0x8, addend: 0x0, symName: __ZNSt3__19allocatorIP7_objectEC2B7v160006Ev, symObjAddr: 0xBE20, symBinAddr: 0x19B60, symSize: 0x20 }
  - { offsetInCU: 0x57CC1, offset: 0x907AF, size: 0x8, addend: 0x0, symName: __ZNSt3__116__non_trivial_ifILb1ENS_9allocatorIP7_objectEEEC2B7v160006Ev, symObjAddr: 0xBE40, symBinAddr: 0x19B80, symSize: 0x10 }
  - { offsetInCU: 0x57CEA, offset: 0x907D8, size: 0x8, addend: 0x0, symName: __ZNSt3__112forward_listINS_12basic_stringIcNS_11char_traitsIcEENS_9allocatorIcEEEENS4_IS6_EEEC2B7v160006Ev, symObjAddr: 0xBE50, symBinAddr: 0x19B90, symSize: 0x20 }
  - { offsetInCU: 0x57D13, offset: 0x90801, size: 0x8, addend: 0x0, symName: __ZNSt3__119__forward_list_baseINS_12basic_stringIcNS_11char_traitsIcEENS_9allocatorIcEEEENS4_IS6_EEEC2B7v160006Ev, symObjAddr: 0xBE70, symBinAddr: 0x19BB0, symSize: 0x50 }
  - { offsetInCU: 0x57D3C, offset: 0x9082A, size: 0x8, addend: 0x0, symName: __ZNSt3__120__forward_begin_nodeIPNS_19__forward_list_nodeINS_12basic_stringIcNS_11char_traitsIcEENS_9allocatorIcEEEEPvEEEC1B7v160006Ev, symObjAddr: 0xBEC0, symBinAddr: 0x19C00, symSize: 0x20 }
  - { offsetInCU: 0x57D6A, offset: 0x90858, size: 0x8, addend: 0x0, symName: __ZNSt3__117__compressed_pairINS_20__forward_begin_nodeIPNS_19__forward_list_nodeINS_12basic_stringIcNS_11char_traitsIcEENS_9allocatorIcEEEEPvEEEENS6_ISA_EEEC1B7v160006ISC_NS_18__default_init_tagEEEOT_OT0_, symObjAddr: 0xBEE0, symBinAddr: 0x19C20, symSize: 0x30 }
  - { offsetInCU: 0x57DC1, offset: 0x908AF, size: 0x8, addend: 0x0, symName: __ZNSt3__120__forward_begin_nodeIPNS_19__forward_list_nodeINS_12basic_stringIcNS_11char_traitsIcEENS_9allocatorIcEEEEPvEEEC2B7v160006Ev, symObjAddr: 0xBF10, symBinAddr: 0x19C50, symSize: 0x20 }
  - { offsetInCU: 0x57DEA, offset: 0x908D8, size: 0x8, addend: 0x0, symName: __ZNSt3__117__compressed_pairINS_20__forward_begin_nodeIPNS_19__forward_list_nodeINS_12basic_stringIcNS_11char_traitsIcEENS_9allocatorIcEEEEPvEEEENS6_ISA_EEEC2B7v160006ISC_NS_18__default_init_tagEEEOT_OT0_, symObjAddr: 0xBF30, symBinAddr: 0x19C70, symSize: 0x40 }
  - { offsetInCU: 0x57E41, offset: 0x9092F, size: 0x8, addend: 0x0, symName: __ZNSt3__122__compressed_pair_elemINS_20__forward_begin_nodeIPNS_19__forward_list_nodeINS_12basic_stringIcNS_11char_traitsIcEENS_9allocatorIcEEEEPvEEEELi0ELb0EEC2B7v160006ISC_vEEOT_, symObjAddr: 0xBF70, symBinAddr: 0x19CB0, symSize: 0x20 }
  - { offsetInCU: 0x57E82, offset: 0x90970, size: 0x8, addend: 0x0, symName: __ZNSt3__122__compressed_pair_elemINS_9allocatorINS_19__forward_list_nodeINS_12basic_stringIcNS_11char_traitsIcEENS1_IcEEEEPvEEEELi1ELb1EEC2B7v160006ENS_18__default_init_tagE, symObjAddr: 0xBF90, symBinAddr: 0x19CD0, symSize: 0x20 }
  - { offsetInCU: 0x57EB5, offset: 0x909A3, size: 0x8, addend: 0x0, symName: __ZNSt3__19allocatorINS_19__forward_list_nodeINS_12basic_stringIcNS_11char_traitsIcEENS0_IcEEEEPvEEEC2B7v160006Ev, symObjAddr: 0xBFB0, symBinAddr: 0x19CF0, symSize: 0x20 }
  - { offsetInCU: 0x57EDE, offset: 0x909CC, size: 0x8, addend: 0x0, symName: __ZNSt3__116__non_trivial_ifILb1ENS_9allocatorINS_19__forward_list_nodeINS_12basic_stringIcNS_11char_traitsIcEENS1_IcEEEEPvEEEEEC2B7v160006Ev, symObjAddr: 0xBFD0, symBinAddr: 0x19D10, symSize: 0x10 }
  - { offsetInCU: 0x57F07, offset: 0x909F5, size: 0x8, addend: 0x0, symName: __ZN8pybind117capsuleC2EPKvPKcPFvP7_objectE, symObjAddr: 0xBFE0, symBinAddr: 0x19D20, symSize: 0xE0 }
  - { offsetInCU: 0x57F5D, offset: 0x90A4B, size: 0x8, addend: 0x0, symName: __ZN8pybind113strC1EPKc, symObjAddr: 0xC0C0, symBinAddr: 0x19E00, symSize: 0x30 }
  - { offsetInCU: 0x57F95, offset: 0x90A83, size: 0x8, addend: 0x0, symName: __ZN8pybind116objectC1EOS0_, symObjAddr: 0xC0F0, symBinAddr: 0x19E30, symSize: 0x30 }
  - { offsetInCU: 0x57FCD, offset: 0x90ABB, size: 0x8, addend: 0x0, symName: __ZN8pybind116detail8accessorINS0_17accessor_policies12generic_itemEEC1ENS_6handleENS_6objectE, symObjAddr: 0xC120, symBinAddr: 0x19E60, symSize: 0x30 }
  - { offsetInCU: 0x58015, offset: 0x90B03, size: 0x8, addend: 0x0, symName: __ZN8pybind113strC2EPKc, symObjAddr: 0xC150, symBinAddr: 0x19E90, symSize: 0x100 }
  - { offsetInCU: 0x5804D, offset: 0x90B3B, size: 0x8, addend: 0x0, symName: __ZN8pybind116objectC2EOS0_, symObjAddr: 0xC250, symBinAddr: 0x19F90, symSize: 0x30 }
  - { offsetInCU: 0x58085, offset: 0x90B73, size: 0x8, addend: 0x0, symName: __ZN8pybind116detail8accessorINS0_17accessor_policies12generic_itemEEC2ENS_6handleENS_6objectE, symObjAddr: 0xC280, symBinAddr: 0x19FC0, symSize: 0x50 }
  - { offsetInCU: 0x580CD, offset: 0x90BBB, size: 0x8, addend: 0x0, symName: __ZN8pybind116detail17accessor_policies12generic_item3setENS_6handleES3_S3_, symObjAddr: 0xC2D0, symBinAddr: 0x1A010, symSize: 0xC0 }
  - { offsetInCU: 0x5810F, offset: 0x90BFD, size: 0x8, addend: 0x0, symName: __ZN8pybind116detail8accessorINS0_17accessor_policies12generic_itemEED2Ev, symObjAddr: 0xC3A0, symBinAddr: 0x1A0E0, symSize: 0x30 }
  - { offsetInCU: 0x5813A, offset: 0x90C28, size: 0x8, addend: 0x0, symName: __ZN8pybind117capsuleD2Ev, symObjAddr: 0xC3D0, symBinAddr: 0x1A110, symSize: 0x20 }
  - { offsetInCU: 0x58166, offset: 0x90C54, size: 0x8, addend: 0x0, symName: __ZNKSt16nested_exception10nested_ptrB7v160006Ev, symObjAddr: 0xCA80, symBinAddr: 0x1A7C0, symSize: 0x30 }
  - { offsetInCU: 0x5818B, offset: 0x90C79, size: 0x8, addend: 0x0, symName: __ZNSt13exception_ptrC1B7v160006EDn, symObjAddr: 0xCAE0, symBinAddr: 0x1A820, symSize: 0x30 }
  - { offsetInCU: 0x581BE, offset: 0x90CAC, size: 0x8, addend: 0x0, symName: __ZNSt13exception_ptrC2B7v160006EDn, symObjAddr: 0xCB40, symBinAddr: 0x1A880, symSize: 0x20 }
  - { offsetInCU: 0x581F1, offset: 0x90CDF, size: 0x8, addend: 0x0, symName: _pybind11_static_get, symObjAddr: 0xCB80, symBinAddr: 0x1A8C0, symSize: 0x40 }
  - { offsetInCU: 0x58232, offset: 0x90D20, size: 0x8, addend: 0x0, symName: _pybind11_static_set, symObjAddr: 0xCBC0, symBinAddr: 0x1A900, symSize: 0x70 }
  - { offsetInCU: 0x58285, offset: 0x90D73, size: 0x8, addend: 0x0, symName: _pybind11_meta_call, symObjAddr: 0xCCE0, symBinAddr: 0x1AA20, symSize: 0x1B0 }
  - { offsetInCU: 0x5832C, offset: 0x90E1A, size: 0x8, addend: 0x0, symName: _pybind11_meta_setattro, symObjAddr: 0xCE90, symBinAddr: 0x1ABD0, symSize: 0xF0 }
  - { offsetInCU: 0x5839B, offset: 0x90E89, size: 0x8, addend: 0x0, symName: _pybind11_meta_getattro, symObjAddr: 0xCF80, symBinAddr: 0x1ACC0, symSize: 0x90 }
  - { offsetInCU: 0x583E0, offset: 0x90ECE, size: 0x8, addend: 0x0, symName: _pybind11_meta_dealloc, symObjAddr: 0xD010, symBinAddr: 0x1AD50, symSize: 0x230 }
  - { offsetInCU: 0x58493, offset: 0x90F81, size: 0x8, addend: 0x0, symName: __ZN8pybind116detail18values_and_holdersC1EP7_object, symObjAddr: 0xD240, symBinAddr: 0x1AF80, symSize: 0x30 }
  - { offsetInCU: 0x584CB, offset: 0x90FB9, size: 0x8, addend: 0x0, symName: __ZN8pybind116detail18values_and_holders5beginEv, symObjAddr: 0xD270, symBinAddr: 0x1AFB0, symSize: 0x30 }
  - { offsetInCU: 0x584F0, offset: 0x90FDE, size: 0x8, addend: 0x0, symName: __ZN8pybind116detail18values_and_holders3endEv, symObjAddr: 0xD2A0, symBinAddr: 0x1AFE0, symSize: 0x40 }
  - { offsetInCU: 0x58515, offset: 0x91003, size: 0x8, addend: 0x0, symName: __ZNK8pybind116detail18values_and_holders8iteratorneERKS2_, symObjAddr: 0xD2E0, symBinAddr: 0x1B020, symSize: 0x30 }
  - { offsetInCU: 0x58549, offset: 0x91037, size: 0x8, addend: 0x0, symName: __ZN8pybind116detail18values_and_holders8iteratordeEv, symObjAddr: 0xD310, symBinAddr: 0x1B050, symSize: 0x20 }
  - { offsetInCU: 0x5856E, offset: 0x9105C, size: 0x8, addend: 0x0, symName: __ZNK8pybind116detail16value_and_holder18holder_constructedEv, symObjAddr: 0xD330, symBinAddr: 0x1B070, symSize: 0x70 }
  - { offsetInCU: 0x58593, offset: 0x91081, size: 0x8, addend: 0x0, symName: __ZN8pybind116detail18values_and_holders29is_redundant_value_and_holderERKNS0_16value_and_holderE, symObjAddr: 0xD3A0, symBinAddr: 0x1B0E0, symSize: 0xB0 }
  - { offsetInCU: 0x585E4, offset: 0x910D2, size: 0x8, addend: 0x0, symName: __ZN8pybind116detail18values_and_holders8iteratorppEv, symObjAddr: 0xD480, symBinAddr: 0x1B1C0, symSize: 0xD0 }
  - { offsetInCU: 0x58609, offset: 0x910F7, size: 0x8, addend: 0x0, symName: __ZN8pybind116detail18values_and_holdersC2EP7_object, symObjAddr: 0xD550, symBinAddr: 0x1B290, symSize: 0x60 }
  - { offsetInCU: 0x58641, offset: 0x9112F, size: 0x8, addend: 0x0, symName: __ZNKSt3__16vectorIPN8pybind116detail9type_infoENS_9allocatorIS4_EEE5emptyB7v160006Ev, symObjAddr: 0xD610, symBinAddr: 0x1B350, symSize: 0x20 }
  - { offsetInCU: 0x58666, offset: 0x91154, size: 0x8, addend: 0x0, symName: __ZNKSt3__119__hash_map_iteratorINS_15__hash_iteratorIPNS_11__hash_nodeINS_17__hash_value_typeIP11_typeobjectNS_6vectorIPN8pybind116detail9type_infoENS_9allocatorISA_EEEEEEPvEEEEEptB7v160006Ev, symObjAddr: 0xDD40, symBinAddr: 0x1BA80, symSize: 0x30 }
  - { offsetInCU: 0x5868B, offset: 0x91179, size: 0x8, addend: 0x0, symName: __ZNSt3__113unordered_mapIP11_typeobjectNS_6vectorIPN8pybind116detail9type_infoENS_9allocatorIS7_EEEENS_4hashIS2_EENS_8equal_toIS2_EENS8_INS_4pairIKS2_SA_EEEEE11try_emplaceB7v160006IJEEENSF_INS_19__hash_map_iteratorINS_15__hash_iteratorIPNS_11__hash_nodeINS_17__hash_value_typeIS2_SA_EEPvEEEEEEbEERSG_DpOT_, symObjAddr: 0xDD70, symBinAddr: 0x1BAB0, symSize: 0x70 }
  - { offsetInCU: 0x586C4, offset: 0x911B2, size: 0x8, addend: 0x0, symName: __ZN8pybind1112cpp_functionC1IZNS_6detail23all_type_info_get_cacheEP11_typeobjectEUlNS_6handleEE_JEvEEOT_DpRKT0_, symObjAddr: 0xDDE0, symBinAddr: 0x1BB20, symSize: 0x30 }
  - { offsetInCU: 0x58719, offset: 0x91207, size: 0x8, addend: 0x0, symName: __ZN8pybind117weakrefC1ENS_6handleES1_, symObjAddr: 0xDE10, symBinAddr: 0x1BB50, symSize: 0x30 }
  - { offsetInCU: 0x58760, offset: 0x9124E, size: 0x8, addend: 0x0, symName: __ZN8pybind117weakrefD1Ev, symObjAddr: 0xDE40, symBinAddr: 0x1BB80, symSize: 0x20 }
  - { offsetInCU: 0x5878C, offset: 0x9127A, size: 0x8, addend: 0x0, symName: __ZN8pybind1112cpp_functionD1Ev, symObjAddr: 0xDE60, symBinAddr: 0x1BBA0, symSize: 0x20 }
  - { offsetInCU: 0x587C6, offset: 0x912B4, size: 0x8, addend: 0x0, symName: __ZNSt3__112__hash_tableINS_17__hash_value_typeIP11_typeobjectNS_6vectorIPN8pybind116detail9type_infoENS_9allocatorIS8_EEEEEENS_22__unordered_map_hasherIS3_SC_NS_4hashIS3_EENS_8equal_toIS3_EELb1EEENS_21__unordered_map_equalIS3_SC_SH_SF_Lb1EEENS9_ISC_EEE25__emplace_unique_key_argsIS3_JRKNS_21piecewise_construct_tENS_5tupleIJRKS3_EEENSR_IJEEEEEENS_4pairINS_15__hash_iteratorIPNS_11__hash_nodeISC_PvEEEEbEERKT_DpOT0_, symObjAddr: 0xDE80, symBinAddr: 0x1BBC0, symSize: 0x650 }
  - { offsetInCU: 0x588CD, offset: 0x913BB, size: 0x8, addend: 0x0, symName: __ZNSt3__14pairINS_19__hash_map_iteratorINS_15__hash_iteratorIPNS_11__hash_nodeINS_17__hash_value_typeIP11_typeobjectNS_6vectorIPN8pybind116detail9type_infoENS_9allocatorISB_EEEEEEPvEEEEEEbEC1B7v160006ISJ_bLSG_0EEEONS0_IT_T0_EE, symObjAddr: 0xE510, symBinAddr: 0x1C240, symSize: 0x30 }
  - { offsetInCU: 0x5891D, offset: 0x9140B, size: 0x8, addend: 0x0, symName: __ZNSt3__112__hash_tableINS_17__hash_value_typeIP11_typeobjectNS_6vectorIPN8pybind116detail9type_infoENS_9allocatorIS8_EEEEEENS_22__unordered_map_hasherIS3_SC_NS_4hashIS3_EENS_8equal_toIS3_EELb1EEENS_21__unordered_map_equalIS3_SC_SH_SF_Lb1EEENS9_ISC_EEE13hash_functionB7v160006Ev, symObjAddr: 0xE540, symBinAddr: 0x1C270, symSize: 0x20 }
  - { offsetInCU: 0x58942, offset: 0x91430, size: 0x8, addend: 0x0, symName: __ZNKSt3__122__unordered_map_hasherIP11_typeobjectNS_17__hash_value_typeIS2_NS_6vectorIPN8pybind116detail9type_infoENS_9allocatorIS8_EEEEEENS_4hashIS2_EENS_8equal_toIS2_EELb1EEclB7v160006ERKS2_, symObjAddr: 0xE560, symBinAddr: 0x1C290, symSize: 0x30 }
  - { offsetInCU: 0x58976, offset: 0x91464, size: 0x8, addend: 0x0, symName: __ZNKSt3__112__hash_tableINS_17__hash_value_typeIP11_typeobjectNS_6vectorIPN8pybind116detail9type_infoENS_9allocatorIS8_EEEEEENS_22__unordered_map_hasherIS3_SC_NS_4hashIS3_EENS_8equal_toIS3_EELb1EEENS_21__unordered_map_equalIS3_SC_SH_SF_Lb1EEENS9_ISC_EEE12bucket_countB7v160006Ev, symObjAddr: 0xE590, symBinAddr: 0x1C2C0, symSize: 0x30 }
  - { offsetInCU: 0x5899B, offset: 0x91489, size: 0x8, addend: 0x0, symName: __ZNKSt3__110unique_ptrIA_PNS_16__hash_node_baseIPNS_11__hash_nodeINS_17__hash_value_typeIP11_typeobjectNS_6vectorIPN8pybind116detail9type_infoENS_9allocatorISA_EEEEEEPvEEEENS_25__bucket_list_deallocatorINSB_ISJ_EEEEEixB7v160006Em, symObjAddr: 0xE640, symBinAddr: 0x1C2F0, symSize: 0x30 }
  - { offsetInCU: 0x589CF, offset: 0x914BD, size: 0x8, addend: 0x0, symName: __ZNKSt3__116__hash_node_baseIPNS_11__hash_nodeINS_17__hash_value_typeIP11_typeobjectNS_6vectorIPN8pybind116detail9type_infoENS_9allocatorIS9_EEEEEEPvEEE6__hashB7v160006Ev, symObjAddr: 0xE670, symBinAddr: 0x1C320, symSize: 0x20 }
  - { offsetInCU: 0x589F4, offset: 0x914E2, size: 0x8, addend: 0x0, symName: __ZNSt3__112__hash_tableINS_17__hash_value_typeIP11_typeobjectNS_6vectorIPN8pybind116detail9type_infoENS_9allocatorIS8_EEEEEENS_22__unordered_map_hasherIS3_SC_NS_4hashIS3_EENS_8equal_toIS3_EELb1EEENS_21__unordered_map_equalIS3_SC_SH_SF_Lb1EEENS9_ISC_EEE6key_eqB7v160006Ev, symObjAddr: 0xE690, symBinAddr: 0x1C340, symSize: 0x20 }
  - { offsetInCU: 0x58A19, offset: 0x91507, size: 0x8, addend: 0x0, symName: __ZNKSt3__121__unordered_map_equalIP11_typeobjectNS_17__hash_value_typeIS2_NS_6vectorIPN8pybind116detail9type_infoENS_9allocatorIS8_EEEEEENS_8equal_toIS2_EENS_4hashIS2_EELb1EEclB7v160006ERKSC_RKS2_, symObjAddr: 0xE6B0, symBinAddr: 0x1C360, symSize: 0x40 }
  - { offsetInCU: 0x58A5C, offset: 0x9154A, size: 0x8, addend: 0x0, symName: __ZNSt3__116__hash_node_baseIPNS_11__hash_nodeINS_17__hash_value_typeIP11_typeobjectNS_6vectorIPN8pybind116detail9type_infoENS_9allocatorIS9_EEEEEEPvEEE8__upcastB7v160006Ev, symObjAddr: 0xE6F0, symBinAddr: 0x1C3A0, symSize: 0x20 }
  - { offsetInCU: 0x58A81, offset: 0x9156F, size: 0x8, addend: 0x0, symName: __ZNSt3__112__hash_tableINS_17__hash_value_typeIP11_typeobjectNS_6vectorIPN8pybind116detail9type_infoENS_9allocatorIS8_EEEEEENS_22__unordered_map_hasherIS3_SC_NS_4hashIS3_EENS_8equal_toIS3_EELb1EEENS_21__unordered_map_equalIS3_SC_SH_SF_Lb1EEENS9_ISC_EEE21__construct_node_hashIRKNS_21piecewise_construct_tEJNS_5tupleIJRKS3_EEENSR_IJEEEEEENS_10unique_ptrINS_11__hash_nodeISC_PvEENS_22__hash_node_destructorINS9_ISZ_EEEEEEmOT_DpOT0_, symObjAddr: 0xE710, symBinAddr: 0x1C3C0, symSize: 0x150 }
  - { offsetInCU: 0x58B1B, offset: 0x91609, size: 0x8, addend: 0x0, symName: __ZNSt3__112__hash_tableINS_17__hash_value_typeIP11_typeobjectNS_6vectorIPN8pybind116detail9type_infoENS_9allocatorIS8_EEEEEENS_22__unordered_map_hasherIS3_SC_NS_4hashIS3_EENS_8equal_toIS3_EELb1EEENS_21__unordered_map_equalIS3_SC_SH_SF_Lb1EEENS9_ISC_EEE4sizeB7v160006Ev, symObjAddr: 0xE860, symBinAddr: 0x1C510, symSize: 0x20 }
  - { offsetInCU: 0x58B40, offset: 0x9162E, size: 0x8, addend: 0x0, symName: __ZNSt3__112__hash_tableINS_17__hash_value_typeIP11_typeobjectNS_6vectorIPN8pybind116detail9type_infoENS_9allocatorIS8_EEEEEENS_22__unordered_map_hasherIS3_SC_NS_4hashIS3_EENS_8equal_toIS3_EELb1EEENS_21__unordered_map_equalIS3_SC_SH_SF_Lb1EEENS9_ISC_EEE15max_load_factorB7v160006Ev, symObjAddr: 0xE880, symBinAddr: 0x1C530, symSize: 0x20 }
  - { offsetInCU: 0x58B65, offset: 0x91653, size: 0x8, addend: 0x0, symName: __ZNSt3__112__hash_tableINS_17__hash_value_typeIP11_typeobjectNS_6vectorIPN8pybind116detail9type_infoENS_9allocatorIS8_EEEEEENS_22__unordered_map_hasherIS3_SC_NS_4hashIS3_EENS_8equal_toIS3_EELb1EEENS_21__unordered_map_equalIS3_SC_SH_SF_Lb1EEENS9_ISC_EEE15__rehash_uniqueB7v160006Em, symObjAddr: 0xE8A0, symBinAddr: 0x1C550, symSize: 0x30 }
  - { offsetInCU: 0x58B99, offset: 0x91687, size: 0x8, addend: 0x0, symName: __ZNSt3__117__compressed_pairINS_16__hash_node_baseIPNS_11__hash_nodeINS_17__hash_value_typeIP11_typeobjectNS_6vectorIPN8pybind116detail9type_infoENS_9allocatorISA_EEEEEEPvEEEENSB_ISG_EEE5firstB7v160006Ev, symObjAddr: 0xE960, symBinAddr: 0x1C580, symSize: 0x20 }
  - { offsetInCU: 0x58BBE, offset: 0x916AC, size: 0x8, addend: 0x0, symName: __ZNSt3__116__hash_node_baseIPNS_11__hash_nodeINS_17__hash_value_typeIP11_typeobjectNS_6vectorIPN8pybind116detail9type_infoENS_9allocatorIS9_EEEEEEPvEEE5__ptrB7v160006Ev, symObjAddr: 0xE980, symBinAddr: 0x1C5A0, symSize: 0x20 }
  - { offsetInCU: 0x58BE3, offset: 0x916D1, size: 0x8, addend: 0x0, symName: __ZNKSt3__110unique_ptrINS_11__hash_nodeINS_17__hash_value_typeIP11_typeobjectNS_6vectorIPN8pybind116detail9type_infoENS_9allocatorIS9_EEEEEEPvEENS_22__hash_node_destructorINSA_ISF_EEEEEptB7v160006Ev, symObjAddr: 0xE9A0, symBinAddr: 0x1C5C0, symSize: 0x20 }
  - { offsetInCU: 0x58C08, offset: 0x916F6, size: 0x8, addend: 0x0, symName: __ZNKSt3__110unique_ptrINS_11__hash_nodeINS_17__hash_value_typeIP11_typeobjectNS_6vectorIPN8pybind116detail9type_infoENS_9allocatorIS9_EEEEEEPvEENS_22__hash_node_destructorINSA_ISF_EEEEE3getB7v160006Ev, symObjAddr: 0xE9C0, symBinAddr: 0x1C5E0, symSize: 0x20 }
  - { offsetInCU: 0x58C2D, offset: 0x9171B, size: 0x8, addend: 0x0, symName: __ZNSt3__110unique_ptrINS_11__hash_nodeINS_17__hash_value_typeIP11_typeobjectNS_6vectorIPN8pybind116detail9type_infoENS_9allocatorIS9_EEEEEEPvEENS_22__hash_node_destructorINSA_ISF_EEEEE7releaseB7v160006Ev, symObjAddr: 0xE9E0, symBinAddr: 0x1C600, symSize: 0x40 }
  - { offsetInCU: 0x58C61, offset: 0x9174F, size: 0x8, addend: 0x0, symName: __ZNSt3__110unique_ptrINS_11__hash_nodeINS_17__hash_value_typeIP11_typeobjectNS_6vectorIPN8pybind116detail9type_infoENS_9allocatorIS9_EEEEEEPvEENS_22__hash_node_destructorINSA_ISF_EEEEED1B7v160006Ev, symObjAddr: 0xEA20, symBinAddr: 0x1C640, symSize: 0x20 }
  - { offsetInCU: 0x58C8A, offset: 0x91778, size: 0x8, addend: 0x0, symName: __ZNSt3__115__hash_iteratorIPNS_11__hash_nodeINS_17__hash_value_typeIP11_typeobjectNS_6vectorIPN8pybind116detail9type_infoENS_9allocatorIS9_EEEEEEPvEEEC1B7v160006EPNS_16__hash_node_baseISG_EEPKv, symObjAddr: 0xEA40, symBinAddr: 0x1C660, symSize: 0x30 }
  - { offsetInCU: 0x58CDB, offset: 0x917C9, size: 0x8, addend: 0x0, symName: __ZNSt3__14pairINS_15__hash_iteratorIPNS_11__hash_nodeINS_17__hash_value_typeIP11_typeobjectNS_6vectorIPN8pybind116detail9type_infoENS_9allocatorISA_EEEEEEPvEEEEbEC1B7v160006ISI_RbLSF_0EEEOT_OT0_, symObjAddr: 0xEA70, symBinAddr: 0x1C690, symSize: 0x30 }
  - { offsetInCU: 0x58D38, offset: 0x91826, size: 0x8, addend: 0x0, symName: __ZNSt3__117__compressed_pairImNS_22__unordered_map_hasherIP11_typeobjectNS_17__hash_value_typeIS3_NS_6vectorIPN8pybind116detail9type_infoENS_9allocatorIS9_EEEEEENS_4hashIS3_EENS_8equal_toIS3_EELb1EEEE6secondB7v160006Ev, symObjAddr: 0xEAA0, symBinAddr: 0x1C6C0, symSize: 0x20 }
  - { offsetInCU: 0x58D5D, offset: 0x9184B, size: 0x8, addend: 0x0, symName: __ZNSt3__122__compressed_pair_elemINS_22__unordered_map_hasherIP11_typeobjectNS_17__hash_value_typeIS3_NS_6vectorIPN8pybind116detail9type_infoENS_9allocatorIS9_EEEEEENS_4hashIS3_EENS_8equal_toIS3_EELb1EEELi1ELb1EE5__getB7v160006Ev, symObjAddr: 0xEAC0, symBinAddr: 0x1C6E0, symSize: 0x10 }
  - { offsetInCU: 0x58D82, offset: 0x91870, size: 0x8, addend: 0x0, symName: __ZNKSt3__14hashIP11_typeobjectEclB7v160006ES2_, symObjAddr: 0xEAD0, symBinAddr: 0x1C6F0, symSize: 0x50 }
  - { offsetInCU: 0x58DE7, offset: 0x918D5, size: 0x8, addend: 0x0, symName: __ZNKSt3__110unique_ptrIA_PNS_16__hash_node_baseIPNS_11__hash_nodeINS_17__hash_value_typeIP11_typeobjectNS_6vectorIPN8pybind116detail9type_infoENS_9allocatorISA_EEEEEEPvEEEENS_25__bucket_list_deallocatorINSB_ISJ_EEEEE11get_deleterB7v160006Ev, symObjAddr: 0xF770, symBinAddr: 0x1C740, symSize: 0x20 }
  - { offsetInCU: 0x58E0C, offset: 0x918FA, size: 0x8, addend: 0x0, symName: __ZNKSt3__125__bucket_list_deallocatorINS_9allocatorIPNS_16__hash_node_baseIPNS_11__hash_nodeINS_17__hash_value_typeIP11_typeobjectNS_6vectorIPN8pybind116detail9type_infoENS1_ISB_EEEEEEPvEEEEEEE4sizeB7v160006Ev, symObjAddr: 0xF790, symBinAddr: 0x1C760, symSize: 0x20 }
